*** SuperH RISC engine ASSEMBLER V.7.01.02.000 ***    12/13/20 18:20:45                                                  PAGE     1
PROGRAM NAME =

    1                               1     ;       *****************T****************************************************************
                                          ****
    2                               2     ;       *****                                                                           **
                                          ***
    3                               3     ;       *****   フラッシュＲＯＭインターフェース                                        **
                                          ***
    4                               4     ;       *****                                                                           **
                                          ***
    5                               5     ;       *****                                                                           **
                                          ***
    6                               6     ;       **********************************************************************************
                                          ***
 6103                              18     
 6104          0000045A            19     _EPROM_CODE     .EQU    1114
 6105          00000395            20     _NON_SUM_CODE   .EQU    0917
 6106                              21     
 6107                              22     
 6108 00000000                     23             .SECTION        PvupROM,CODE,ALIGN=4
 6109                              24     
 6110                              25             .export         _ASM_VUP_MAIN;
 6111 00000000                     26     _ASM_VUP_MAIN:
 6112                              27             SUB_START
 6113 00000000 4F22                   M           STS.L   PR,@-R15                ;[必要]
 6114                                 M   ;;;;;;; ADD     #-4,R15                 ;[不要?]
 6115                              28             PUSH_ALL
 6116                                 M           PUSH_REG1       R0      ;
 6117 00000002 2F06                   M           MOV.L   R0,@-R15                ;PUSH=SP-4
 6118                                 M                                           ;REG=>[SP]
 6119                                 M                                           ;"-4" FF,FF,FF,FC
 6120                                 M           PUSH_REG1       R1      ;
 6121 00000004 2F16                   M           MOV.L   R1,@-R15                ;PUSH=SP-4
 6122                                 M                                           ;REG=>[SP]
 6123                                 M                                           ;"-4" FF,FF,FF,FC
 6124                                 M           PUSH_REG1       R2      ;
 6125 00000006 2F26                   M           MOV.L   R2,@-R15                ;PUSH=SP-4
 6126                                 M                                           ;REG=>[SP]
 6127                                 M                                           ;"-4" FF,FF,FF,FC
 6128                                 M           PUSH_REG1       R3      ;
 6129 00000008 2F36                   M           MOV.L   R3,@-R15                ;PUSH=SP-4
 6130                                 M                                           ;REG=>[SP]
 6131                                 M                                           ;"-4" FF,FF,FF,FC
 6132                                 M           PUSH_REG1       R4      ;
 6133 0000000A 2F46                   M           MOV.L   R4,@-R15                ;PUSH=SP-4
 6134                                 M                                           ;REG=>[SP]
 6135                                 M                                           ;"-4" FF,FF,FF,FC
 6136                                 M           PUSH_REG1       R5      ;
 6137 0000000C 2F56                   M           MOV.L   R5,@-R15                ;PUSH=SP-4
 6138                                 M                                           ;REG=>[SP]
 6139                                 M                                           ;"-4" FF,FF,FF,FC
 6140                                 M           PUSH_REG1       R6      ;
 6141 0000000E 2F66                   M           MOV.L   R6,@-R15                ;PUSH=SP-4
 6142                                 M                                           ;REG=>[SP]
 6143                                 M                                           ;"-4" FF,FF,FF,FC
 6144                                 M           PUSH_REG1       R7      ;
 6145 00000010 2F76                   M           MOV.L   R7,@-R15                ;PUSH=SP-4
 6146                                 M                                           ;REG=>[SP]
 6147                                 M                                           ;"-4" FF,FF,FF,FC
*** SuperH RISC engine ASSEMBLER V.7.01.02.000 ***    12/13/20 18:20:45                                                  PAGE     2
PROGRAM NAME =

 6148                                 M           PUSH_REG1       R8      ;
 6149 00000012 2F86                   M           MOV.L   R8,@-R15                ;PUSH=SP-4
 6150                                 M                                           ;REG=>[SP]
 6151                                 M                                           ;"-4" FF,FF,FF,FC
 6152                                 M           PUSH_REG1       R9      ;
 6153 00000014 2F96                   M           MOV.L   R9,@-R15                ;PUSH=SP-4
 6154                                 M                                           ;REG=>[SP]
 6155                                 M                                           ;"-4" FF,FF,FF,FC
 6156                                 M           PUSH_REG1       R10     ;
 6157 00000016 2FA6                   M           MOV.L   R10,@-R15               ;PUSH=SP-4
 6158                                 M                                           ;REG=>[SP]
 6159                                 M                                           ;"-4" FF,FF,FF,FC
 6160                                 M           PUSH_REG1       R11     ;
 6161 00000018 2FB6                   M           MOV.L   R11,@-R15               ;PUSH=SP-4
 6162                                 M                                           ;REG=>[SP]
 6163                                 M                                           ;"-4" FF,FF,FF,FC
 6164                                 M           PUSH_REG1       R12     ;
 6165 0000001A 2FC6                   M           MOV.L   R12,@-R15               ;PUSH=SP-4
 6166                                 M                                           ;REG=>[SP]
 6167                                 M                                           ;"-4" FF,FF,FF,FC
 6168                                 M           PUSH_REG1       R13     ;
 6169 0000001C 2FD6                   M           MOV.L   R13,@-R15               ;PUSH=SP-4
 6170                                 M                                           ;REG=>[SP]
 6171                                 M                                           ;"-4" FF,FF,FF,FC
 6172                                 M           PUSH_REG1       R14     ;
 6173 0000001E 2FE6                   M           MOV.L   R14,@-R15               ;PUSH=SP-4
 6174                                 M                                           ;REG=>[SP]
 6175                                 M                                           ;"-4" FF,FF,FF,FC
 6176                                 M           PUSH_MACHL              ;
 6177 00000020 4F02                   M           STS.L   MACH,@-R15
 6178 00000022 4F12                   M           STS.L   MACL,@-R15
 6179                                 M           PUSH_SYS_REG    GBR     ;
 6180 00000024 4F13                   M           STC.L   GBR,@-R15
 6181                                 M           .AIF    2 EQ 3
 6182                                             .AELSE
 6183                                 C           PUSH_FPU_ALL            ;2001-07-08
 6184                                 M                   PUSH_SYS_FPU            ;2001-07-08 koma add
 6185 00000026 4F52                   M           STS.L   FPUL,@-R15
 6186 00000028 4F62                   M           STS.L   FPSCR,@-R15
 6187                                 M                   PUSH_FPU_REG1 FR0       ;
 6188 0000002A FF0B                   M           FMOV.S  FR0,@-R15
 6189                                 M                   PUSH_FPU_REG1 FR1       ;
 6190 0000002C FF1B                   M           FMOV.S  FR1,@-R15
 6191                                 M                   PUSH_FPU_REG1 FR2       ;
 6192 0000002E FF2B                   M           FMOV.S  FR2,@-R15
 6193                                 M                   PUSH_FPU_REG1 FR3       ;
 6194 00000030 FF3B                   M           FMOV.S  FR3,@-R15
 6195                                 M                   PUSH_FPU_REG1 FR4       ;
 6196 00000032 FF4B                   M           FMOV.S  FR4,@-R15
 6197                                 M           .AENDI
 6198                              29     
 6199 00000034                     30     _ASM_VUP_M000:
 6200                              31             _WDT_CLR R0,R1,R2
 6201                                 M           DI_PUSH_SR_SH3  R0, R1
 6202 00000034 0002                   M           STC     SR,R0                   ;
 6203 00000036 912F                   M           MOV.W   #H'000000F0,R1          ;
 6204 00000038 201B                   M           OR      R1,R0           ;INT15
*** SuperH RISC engine ASSEMBLER V.7.01.02.000 ***    12/13/20 18:20:45                                                  PAGE     3
PROGRAM NAME =

 6205 0000003A 4F03                   M           STC.L   SR,@-R15                        ;PUSH SR
 6206 0000003C 400E                   M           LDC     R0,SR                   ;割込禁止（15）
 6207                                 M   
 6208 0000003E D117                   M           MOV.L   #_PDTRB,R1
 6209 00000040 6011                   M           MOV.W   @R1,R0  ;R0:
 6210 00000042 922A                   M           MOV.W   #BIT2,R2                ;
 6211 00000044 202A                   M           XOR     R2,R0   ;
 6212 00000046 2101                   M           MOV.W   R0,@R1  ;output
 6213                                 M   
 6214 00000048 202A                   M           XOR     R2,R0   ;
 6215 0000004A 2101                   M           MOV.W   R0,@R1  ;output
 6216                                 M   
 6217 0000004C 202A                   M           XOR     R2,R0   ;
 6218 0000004E 2101                   M           MOV.W   R0,@R1  ;output
 6219                                 M   
 6220                                 M           EI_POP_SR_SH3                   ;
 6221 00000050 4F07                   M           LDC.L   @R15+,SR                        ;POP SR
 6222                              32     
 6223                              33             FAR_JSR #_VUP_MAIN,R0
 6224 00000052 D013                   M           MOV.L   #_VUP_MAIN,R0           ;ﾃｰﾌﾞﾙｱﾄﾞﾚｽの内容をREGへ
 6225 00000054 400B                   M           JSR     @R0                     ;
 6226 00000056 0009                   M           NOP                                     ;
 6227                              34     
 6228 00000058 D112                35             MOV.L   #_VUP_WKRAM+VUP_START,R1
 6229 0000005A 6011                36             MOV.W   @R1,R0                                  ;
 6230 0000005C 2008                37             TST     R0,R0                                   ;
 6231 0000005E 8BE9                38             BF      _ASM_VUP_M000                           ;
 6232                              39     
 6233                              40             POP_ALL
 6234                                 M           .AIF    2 EQ 3
 6235                                             .AELSE
 6236                                 C           POP_FPU_ALL             ;2001-07-08
 6237                                 M                   POP_FPU_REG1 FR4        ;2001-07-08 koma add
 6238 00000060 F4F9                   M           FMOV.S  @R15+,FR4
 6239                                 M                   POP_FPU_REG1 FR3        ;
 6240 00000062 F3F9                   M           FMOV.S  @R15+,FR3
 6241                                 M                   POP_FPU_REG1 FR2        ;
 6242 00000064 F2F9                   M           FMOV.S  @R15+,FR2
 6243                                 M                   POP_FPU_REG1 FR1        ;
 6244 00000066 F1F9                   M           FMOV.S  @R15+,FR1
 6245                                 M                   POP_FPU_REG1 FR0        ;
 6246 00000068 F0F9                   M           FMOV.S  @R15+,FR0
 6247                                 M                   POP_SYS_FPU             ;
 6248 0000006A 4F66                   M           LDS.L   @R15+,FPSCR
 6249 0000006C 4F56                   M           LDS.L   @R15+,FPUL
 6250                                 M           .AENDI
 6251                                 M           POP_SYS_REG     GBR     ;
 6252 0000006E 4F17                   M           LDC.L   @R15+,GBR
 6253                                 M           POP_MACHL               ;
 6254 00000070 4F16                   M           LDS.L   @R15+,MACL
 6255 00000072 4F06                   M           LDS.L   @R15+,MACH
 6256                                 M           POP_REG1        R14     ;
 6257                                 M                                   ; RE"+4" 00,00,00,04
 6258 00000074 6EF6                   M           MOV.L   @R15+,R14        ;
 6259                                 M           POP_REG1        R13     ;
 6260                                 M                                   ; RE"+4" 00,00,00,04
 6261 00000076 6DF6                   M           MOV.L   @R15+,R13        ;
*** SuperH RISC engine ASSEMBLER V.7.01.02.000 ***    12/13/20 18:20:45                                                  PAGE     4
PROGRAM NAME =

 6262                                 M           POP_REG1        R12     ;
 6263                                 M                                   ; RE"+4" 00,00,00,04
 6264 00000078 6CF6                   M           MOV.L   @R15+,R12        ;
 6265                                 M           POP_REG1        R11     ;
 6266                                 M                                   ; RE"+4" 00,00,00,04
 6267 0000007A 6BF6                   M           MOV.L   @R15+,R11        ;
 6268                                 M           POP_REG1        R10     ;
 6269                                 M                                   ; RE"+4" 00,00,00,04
 6270 0000007C 6AF6                   M           MOV.L   @R15+,R10        ;
 6271                                 M           POP_REG1        R9      ;
 6272                                 M                                   ; RE"+4" 00,00,00,04
 6273 0000007E 69F6                   M           MOV.L   @R15+,R9        ;
 6274                                 M           POP_REG1        R8      ;
 6275                                 M                                   ; RE"+4" 00,00,00,04
 6276 00000080 68F6                   M           MOV.L   @R15+,R8        ;
 6277                                 M           POP_REG1        R7      ;
 6278                                 M                                   ; RE"+4" 00,00,00,04
 6279 00000082 67F6                   M           MOV.L   @R15+,R7        ;
 6280                                 M           POP_REG1        R6      ;
 6281                                 M                                   ; RE"+4" 00,00,00,04
 6282 00000084 66F6                   M           MOV.L   @R15+,R6        ;
 6283                                 M           POP_REG1        R5      ;
 6284                                 M                                   ; RE"+4" 00,00,00,04
 6285 00000086 65F6                   M           MOV.L   @R15+,R5        ;
 6286                                 M           POP_REG1        R4      ;
 6287                                 M                                   ; RE"+4" 00,00,00,04
 6288 00000088 64F6                   M           MOV.L   @R15+,R4        ;
 6289                                 M           POP_REG1        R3      ;
 6290                                 M                                   ; RE"+4" 00,00,00,04
 6291 0000008A 63F6                   M           MOV.L   @R15+,R3        ;
 6292                                 M           POP_REG1        R2      ;
 6293                                 M                                   ; RE"+4" 00,00,00,04
 6294 0000008C 62F6                   M           MOV.L   @R15+,R2        ;
 6295                                 M           POP_REG1        R1      ;
 6296                                 M                                   ; RE"+4" 00,00,00,04
 6297 0000008E 61F6                   M           MOV.L   @R15+,R1        ;
 6298                                 M           POP_REG1        R0      ;
 6299                                 M                                   ; RE"+4" 00,00,00,04
 6300 00000090 60F6                   M           MOV.L   @R15+,R0        ;
 6301                              41             SUB_END
 6302                                 M   ;;;;;;; ADD     #4,R15                  ;[不要?]
 6303 00000092 4F26                   M           LDS.L   @R15+,PR                ;[必要]
 6304                              42             M_RTS
 6305 00000094 000B                   M           RTS                             ;RTSの後ろの
 6306 00000096 0009                   M           NOP                             ;@R15+,PRはﾀﾞﾒ
 6307                              43     
 6308                              44     
 6309                                     ***** BEGIN-POOL *****
 6310 00000098 00F0                       DATA FOR SOURCE-LINE 31
 6311 0000009A 0004                       DATA FOR SOURCE-LINE 31
 6312 0000009C 00000000                   DATA FOR SOURCE-LINE 31
 6313 000000A0 00000000                   DATA FOR SOURCE-LINE 33
 6314 000000A4 00000000                   DATA FOR SOURCE-LINE 35
 6315                                     ***** END-POOL *****
 6316 000000A8                     45     _VUP_MAIN:
 6317                              46             SUB_START
 6318 000000A8 4F22                   M           STS.L   PR,@-R15                ;[必要]
*** SuperH RISC engine ASSEMBLER V.7.01.02.000 ***    12/13/20 18:20:45                                                  PAGE     5
PROGRAM NAME =

 6319                                 M   ;;;;;;; ADD     #-4,R15                 ;[不要?]
 6320                              47     
 6321 000000AA D806                48             MOV.L   #_VUP_HSAREA_B_TO_A,R8                  ; ﾊﾝﾄﾞｼｪｲｸ領域CPUB書込みｴﾘｱ先頭ｱﾄﾞ
                                          ﾚｽ
 6322 000000AC D906                49             MOV.L   #_VUP_HSAREA_A_TO_B,R9                  ; ﾊﾝﾄﾞｼｪｲｸ領域CPUA書込みｴﾘｱ先頭ｱﾄﾞ
                                          ﾚｽ
 6323                              50     
 6324 000000AE 8581                51             MOV.W   @(VUP_STR_PC,R8),R0                     ;
 6325 000000B0 8801                52             CMP/EQ  #1,R0                                   ; ﾊﾞｰｼﾞｮﾝUPｽﾀｰﾄ？
 6326 000000B2 8919                53             BT      _FROM_CPUA_REWRITE                      ; はい
 6327                              54     
 6328 000000B4 8191                55             MOV.W   R0,@(VUP_STR_PC,R9)                     ;
 6329                              56     
 6330 000000B6 200A                57             XOR     R0,R0
 6331 000000B8 DA04                58             MOV.L   #_FROM_REWR_STR_FLG,R10
 6332 000000BA 2A01                59             MOV.W   R0,@R10
 6333                              60     
 6334                              61             SUB_END
 6335                                 M   ;;;;;;; ADD     #4,R15                  ;[不要?]
 6336 000000BC 4F26                   M           LDS.L   @R15+,PR                ;[必要]
 6337                              62             M_RTS
 6338 000000BE 000B                   M           RTS                             ;RTSの後ろの
 6339 000000C0 0009                   M           NOP                             ;@R15+,PRはﾀﾞﾒ
 6340                              63     
 6341                              64     
 6342                              65     ;       ------ 2018-10-29(2018-08-08)----------
 6343                              66             .export _API_VUP_SIG_CHECK
 6344                              67     
 6345                                     ***** BEGIN-POOL *****
 6346 000000C2 0000                       ALIGNMENT CODE
 6347 000000C4 00000000                   DATA FOR SOURCE-LINE 48
 6348 000000C8 00000000                   DATA FOR SOURCE-LINE 49
 6349 000000CC 00000000                   DATA FOR SOURCE-LINE 58
 6350                                     ***** END-POOL *****
 6351 000000D0                     68     _API_VUP_SIG_CHECK:
 6352                              69             SUB_START
 6353 000000D0 4F22                   M           STS.L   PR,@-R15                ;[必要]
 6354                                 M   ;;;;;;; ADD     #-4,R15                 ;[不要?]
 6355 000000D2 D804                70             MOV.L   #_VUP_HSAREA_B_TO_A,R8          ;ﾊﾝﾄﾞｼｪｲｸ領域CPUB書込みｴﾘｱ先頭ｱﾄﾞﾚｽ
 6356 000000D4 8581                71             MOV.W   @(VUP_STR_PC,R8),R0                     ;
 6357 000000D6 8801                72             CMP/EQ  #1,R0                                           ;
 6358 000000D8 8900                73             BT              API_VUP_SIG_CHK_END                     ;yes ans=1
 6359 000000DA 200A                74             XOR             R0,R0                                           ;no ans=0
 6360 000000DC                     75     API_VUP_SIG_CHK_END:
 6361                              76     
 6362                              77             SUB_END
 6363                                 M   ;;;;;;; ADD     #4,R15                  ;[不要?]
 6364 000000DC 4F26                   M           LDS.L   @R15+,PR                ;[必要]
 6365                              78             M_RTS
 6366 000000DE 000B                   M           RTS                             ;RTSの後ろの
 6367 000000E0 0009                   M           NOP                             ;@R15+,PRはﾀﾞﾒ
 6368                              79     
 6369                              80     
 6370                                     ***** BEGIN-POOL *****
 6371 000000E2 0000                       ALIGNMENT CODE
 6372 000000E4 00000000                   DATA FOR SOURCE-LINE 70
 6373                                     ***** END-POOL *****
*** SuperH RISC engine ASSEMBLER V.7.01.02.000 ***    12/13/20 18:20:45                                                  PAGE     6
PROGRAM NAME =

 6374 000000E8                     81     _FROM_CPUA_REWRITE:
 6375 000000E8 DA02                82             MOV.L   #_FROM_REWR_STR_FLG,R10
 6376 000000EA 60A1                83             MOV.W   @R10,R0
 6377 000000EC C801                84             TST     #BIT0,R0                                ; ＶＵＰへスタート開始済み？
 6378 000000EE 8903                85             BT      _FROM_CPUA_REWR_05                      ; いいえ
 6379                              86             M_BRA   _FROM_CPUA_REWR_150                     ; はい
 6380 000000F0 A12C                   M           BRA     _FROM_CPUA_REWR_150
 6381 000000F2 0009                   M           NOP
 6382                              87     
 6383                                     ***** BEGIN-POOL *****
 6384 000000F4 00000000                   DATA FOR SOURCE-LINE 82
 6385                                     ***** END-POOL *****
 6386 000000F8                     88     _FROM_CPUA_REWR_05:
 6387 000000F8 D00F                89             mov.l   #SR_Init_DI,r0
 6388 000000FA 400E                90             ldc     r0,sr                                   ; SR set (全割込み禁止)
 6389                              91     
 6390 000000FC D10F                92             MOV.L   #_VUP_WKRAM+VUP_START,R1
 6391 000000FE 9019                93             MOV.W   #H'FF,R0
 6392 00000100 2101                94             MOV.W   R0,@R1
 6393                              95     
 6394 00000102 8580                96             MOV.W   @(VUP_SEL_PC,R8),R0                     ; ﾊﾞｰｼﾞｮﾝUP種別CPUAへ
 6395                              97     
 6396 00000104 8802                98             CMP/EQ  #2,R0                                   ; SEQ VUP?
 6397 00000106 8B2F                99             BF      _FROM_CPUA_REWR_10                      ; いいえ
 6398                             100     
 6399                             101     ;       --------------- SEQ VUP -------------------
 6400 00000108 D00D               102             MOV.L   #_FROM_SECT_TBL_SEQ,R0
 6401 0000010A D10E               103             MOV.L   #_SVP_MACINE_SEL1,R1
 6402 0000010C 6211               104             MOV.W   @R1,R2
 6403 0000010E 622D               105             EXTU.W  R2,R2
 6404 00000110 D10D               106             MOV.L   #_EPROM_CODE,R1
 6405 00000112 3210               107             CMP/EQ  R1,R2
 6406 00000114 8B00               108             BF      _FROM_CPUA_REWR_07
 6407 00000116 D00D               109             MOV.L   #_FROM_SECT_TBLP_SEQ,R0
 6408 00000118                    110     _FROM_CPUA_REWR_07:
 6409 00000118 DB0D               111             MOV.L   #_FROM_SCT_TOP_ADR,R11
 6410 0000011A 2B02               112             MOV.L   R0,@R11
 6411                             113     
 6412 0000011C 6102               114             MOV.L   @R0,R1
 6413 0000011E DA0D               115             MOV.L   #_FROM_REWR_TOP_ADR,R10
 6414 00000120 2A12               116             MOV.L   R1,@R10
 6415                             117     
 6416 00000122 DA0D               118             MOV.L   #_SEQ_PRO_SIZE,R10
 6417 00000124 31AC               119             ADD     R10,R1
 6418 00000126 DA0D               120             MOV.L   #_FROM_REWR_END_ADR,R10
 6419 00000128 2A12               121             MOV.L   R1,@R10
 6420                             122     
 6421 0000012A D10D               123             MOV.L   #_VUP_DATA_AREA_CPUA,R1
 6422 0000012C DA0D               124             MOV.L   #_VUP_DATA_AREA_ADR,R10
 6423 0000012E 2A12               125             MOV.L   R1,@R10
 6424                             126     
 6425                             127             M_BRA   _FROM_CPUA_REWR_100
 6426 00000130 A0EC                   M           BRA     _FROM_CPUA_REWR_100
 6427 00000132 0009                   M           NOP
 6428                             128     
 6429                                     ***** BEGIN-POOL *****
 6430 00000134 00FF                       DATA FOR SOURCE-LINE 93
*** SuperH RISC engine ASSEMBLER V.7.01.02.000 ***    12/13/20 18:20:45                                                  PAGE     7
PROGRAM NAME =

 6431 00000136 0000                       ALIGNMENT CODE
 6432 00000138 400000F0                   DATA FOR SOURCE-LINE 89
 6433 0000013C 00000000                   DATA FOR SOURCE-LINE 92
 6434 00000140 00000000                   DATA FOR SOURCE-LINE 102
 6435 00000144 00000000                   DATA FOR SOURCE-LINE 103
 6436 00000148 0000045A                   DATA FOR SOURCE-LINE 106
 6437 0000014C 00000000                   DATA FOR SOURCE-LINE 109
 6438 00000150 00000000                   DATA FOR SOURCE-LINE 111
 6439 00000154 00000000                   DATA FOR SOURCE-LINE 115
 6440 00000158 00010000                   DATA FOR SOURCE-LINE 118
 6441 0000015C 00000000                   DATA FOR SOURCE-LINE 120
 6442 00000160 AC070000                   DATA FOR SOURCE-LINE 123
 6443 00000164 00000000                   DATA FOR SOURCE-LINE 124
 6444                                     ***** END-POOL *****
 6445 00000168                    129     _FROM_CPUA_REWR_10:
 6446 00000168 8803               130             CMP/EQ  #3,R0                                   ; CPUA(BOOTなし)VUP?
 6447 0000016A 8B45               131             BF      _FROM_CPUA_REWR_20                      ; いいえ
 6448                             132     
 6449                             133     ;       --------------- CPUA VUP -------------------
 6450 0000016C D015               134             MOV.L   #_FROM_SECT_TBL03,R0
 6451 0000016E D116               135             MOV.L   #_SVP_MACINE_SEL1,R1
 6452 00000170 6211               136             MOV.W   @R1,R2
 6453 00000172 622D               137             EXTU.W  R2,R2
 6454 00000174 D115               138             MOV.L   #_EPROM_CODE,R1
 6455 00000176 3210               139             CMP/EQ  R1,R2
 6456 00000178 8B00               140             BF      _FROM_CPUA_REWR_17
 6457 0000017A D015               141             MOV.L   #_FROM_SECT_TBLP03,R0
 6458 0000017C                    142     _FROM_CPUA_REWR_17:
 6459 0000017C DB15               143             MOV.L   #_FROM_SCT_TOP_ADR,R11
 6460 0000017E 2B02               144             MOV.L   R0,@R11
 6461                             145     
 6462 00000180 6102               146             MOV.L   @R0,R1
 6463 00000182 DA15               147             MOV.L   #_FROM_REWR_TOP_ADR,R10
 6464 00000184 2A12               148             MOV.L   R1,@R10
 6465                             149     
 6466 00000186 D015               150             MOV.L   #_FROM_SECT_TBL00,R0
 6467 00000188 D10F               151             MOV.L   #_SVP_MACINE_SEL1,R1
 6468 0000018A 6211               152             MOV.W   @R1,R2
 6469 0000018C 622D               153             EXTU.W  R2,R2
 6470 0000018E D10F               154             MOV.L   #_EPROM_CODE,R1
 6471 00000190 3210               155             CMP/EQ  R1,R2
 6472 00000192 8B00               156             BF      _FROM_CPUA_REWR_18
 6473 00000194 D012               157             MOV.L   #_FROM_SECT_TBLP00,R0
 6474 00000196                    158     _FROM_CPUA_REWR_18:
 6475 00000196 6102               159             MOV.L   @R0,R1
 6476 00000198 DA12               160             MOV.L   #_CPUA_PRO_SIZE,R10
 6477 0000019A 31AC               161             ADD     R10,R1
 6478 0000019C DA12               162             MOV.L   #_FROM_REWR_END_ADR,R10
 6479 0000019E 2A12               163             MOV.L   R1,@R10
 6480                             164     
 6481 000001A0 D008               165             MOV.L   #_FROM_SECT_TBL03,R0
 6482 000001A2 D109               166             MOV.L   #_SVP_MACINE_SEL1,R1
 6483 000001A4 6211               167             MOV.W   @R1,R2
 6484 000001A6 622D               168             EXTU.W  R2,R2
 6485 000001A8 D108               169             MOV.L   #_EPROM_CODE,R1
 6486 000001AA 3210               170             CMP/EQ  R1,R2
 6487 000001AC 8B00               171             BF      _FROM_CPUA_REWR_19
*** SuperH RISC engine ASSEMBLER V.7.01.02.000 ***    12/13/20 18:20:45                                                  PAGE     8
PROGRAM NAME =

 6488 000001AE D008               172             MOV.L   #_FROM_SECT_TBLP03,R0
 6489 000001B0                    173     _FROM_CPUA_REWR_19:
 6490 000001B0 6102               174             MOV.L   @R0,R1
 6491 000001B2 D00E               175             MOV.L   #H'00FFFFFF,R0
 6492 000001B4 2109               176             AND     R0,R1
 6493 000001B6 D00E               177             MOV.L   #_VUP_DATA_AREA_CPUA,R0
 6494 000001B8 310C               178             ADD     R0,R1
 6495 000001BA DA0E               179             MOV.L   #_VUP_DATA_AREA_ADR,R10
 6496 000001BC 2A12               180             MOV.L   R1,@R10
 6497                             181     
 6498                             182             M_BRA   _FROM_CPUA_REWR_100
 6499 000001BE A0A5                   M           BRA     _FROM_CPUA_REWR_100
 6500 000001C0 0009                   M           NOP
 6501                             183     
 6502                                     ***** BEGIN-POOL *****
 6503 000001C2 0000                       ALIGNMENT CODE
 6504 000001C4 00000000                   DATA FOR SOURCE-LINE 134,165
 6505 000001C8 00000000                   DATA FOR SOURCE-LINE 135,151,166
 6506 000001CC 0000045A                   DATA FOR SOURCE-LINE 138,154,169
 6507 000001D0 00000000                   DATA FOR SOURCE-LINE 141,172
 6508 000001D4 00000000                   DATA FOR SOURCE-LINE 143
 6509 000001D8 00000000                   DATA FOR SOURCE-LINE 147
 6510 000001DC 00000000                   DATA FOR SOURCE-LINE 150
 6511 000001E0 00000000                   DATA FOR SOURCE-LINE 157
 6512 000001E4 00060000                   DATA FOR SOURCE-LINE 160
 6513 000001E8 00000000                   DATA FOR SOURCE-LINE 162
 6514 000001EC 00FFFFFF                   DATA FOR SOURCE-LINE 175
 6515 000001F0 AC070000                   DATA FOR SOURCE-LINE 177
 6516 000001F4 00000000                   DATA FOR SOURCE-LINE 179
 6517                                     ***** END-POOL *****
 6518 000001F8                    184     _FROM_CPUA_REWR_20:
 6519 000001F8 8805               185             CMP/EQ  #5,R0                                   ; SENA VUP?
 6520 000001FA 8B29               186             BF      _FROM_CPUA_REWR_30                      ; いいえ
 6521                             187     
 6522                             188     ;       --------------- SENA VUP -------------------
 6523 000001FC D00A               189             MOV.L   #_FROM_SECT_TBL_SENA,R0
 6524 000001FE D10B               190             MOV.L   #_SVP_MACINE_SEL1,R1
 6525 00000200 6211               191             MOV.W   @R1,R2
 6526 00000202 622D               192             EXTU.W  R2,R2
 6527 00000204 D10A               193             MOV.L   #_EPROM_CODE,R1
 6528 00000206 3210               194             CMP/EQ  R1,R2
 6529 00000208 8B00               195             BF      _FROM_CPUA_REWR_27
 6530 0000020A D00A               196             MOV.L   #_FROM_SECT_TBLP_SENA,R0
 6531 0000020C                    197     _FROM_CPUA_REWR_27:
 6532 0000020C DB0A               198             MOV.L   #_FROM_SCT_TOP_ADR,R11
 6533 0000020E 2B02               199             MOV.L   R0,@R11
 6534                             200     
 6535 00000210 6102               201             MOV.L   @R0,R1
 6536 00000212 DA0A               202             MOV.L   #_FROM_REWR_TOP_ADR,R10
 6537 00000214 2A12               203             MOV.L   R1,@R10
 6538                             204     
 6539 00000216 DA0A               205             MOV.L   #_CB_TBL_SIZE,R10
 6540 00000218 31AC               206             ADD     R10,R1
 6541 0000021A DA0A               207             MOV.L   #_FROM_REWR_END_ADR,R10
 6542 0000021C 2A12               208             MOV.L   R1,@R10
 6543                             209     
 6544 0000021E D10A               210             MOV.L   #_VUP_DATA_AREA_CPUA,R1
*** SuperH RISC engine ASSEMBLER V.7.01.02.000 ***    12/13/20 18:20:45                                                  PAGE     9
PROGRAM NAME =

 6545 00000220 DA0A               211             MOV.L   #_VUP_DATA_AREA_ADR,R10
 6546 00000222 2A12               212             MOV.L   R1,@R10
 6547                             213     
 6548                             214             M_BRA   _FROM_CPUA_REWR_100
 6549 00000224 A072                   M           BRA     _FROM_CPUA_REWR_100
 6550 00000226 0009                   M           NOP
 6551                             215     
 6552                                     ***** BEGIN-POOL *****
 6553 00000228 00000000                   DATA FOR SOURCE-LINE 189
 6554 0000022C 00000000                   DATA FOR SOURCE-LINE 190
 6555 00000230 0000045A                   DATA FOR SOURCE-LINE 193
 6556 00000234 00000000                   DATA FOR SOURCE-LINE 196
 6557 00000238 00000000                   DATA FOR SOURCE-LINE 198
 6558 0000023C 00000000                   DATA FOR SOURCE-LINE 202
 6559 00000240 00040000                   DATA FOR SOURCE-LINE 205
 6560 00000244 00000000                   DATA FOR SOURCE-LINE 207
 6561 00000248 AC070000                   DATA FOR SOURCE-LINE 210
 6562 0000024C 00000000                   DATA FOR SOURCE-LINE 211
 6563                                     ***** END-POOL *****
 6564 00000250                    216     _FROM_CPUA_REWR_30:
 6565 00000250 8807               217             CMP/EQ  #7,R0                                   ; CPUA(BOOTあり)VUP?
 6566 00000252 8B2D               218             BF      _FROM_CPUA_REWR_40                      ; いいえ
 6567                             219     
 6568                             220     ;       --------------- CPUA VUP -------------------
 6569 00000254 D00B               221             MOV.L   #_FROM_SECT_TBL00,R0
 6570 00000256 D10C               222             MOV.L   #_SVP_MACINE_SEL1,R1
 6571 00000258 6211               223             MOV.W   @R1,R2
 6572 0000025A 622D               224             EXTU.W  R2,R2
 6573                             225     ;       -------------------------------- 2006/12/26(INS) V05 {
 6574 0000025C D10B               226             MOV.L   #_VUP_PRG_NON_SUM_CODE,R1
 6575 0000025E 2121               227             MOV.W   R2,@R1
 6576                             228     ;       -------------------------------- }
 6577 00000260 D10B               229             MOV.L   #_EPROM_CODE,R1
 6578 00000262 3210               230             CMP/EQ  R1,R2
 6579 00000264 8B00               231             BF      _FROM_CPUA_REWR_37
 6580 00000266 D00B               232             MOV.L   #_FROM_SECT_TBLP00,R0
 6581 00000268                    233     _FROM_CPUA_REWR_37:
 6582 00000268 DB0B               234             MOV.L   #_FROM_SCT_TOP_ADR,R11
 6583 0000026A 2B02               235             MOV.L   R0,@R11
 6584                             236     
 6585 0000026C 6102               237             MOV.L   @R0,R1
 6586 0000026E DA0B               238             MOV.L   #_FROM_REWR_TOP_ADR,R10
 6587 00000270 2A12               239             MOV.L   R1,@R10
 6588                             240     
 6589 00000272 DA0B               241             MOV.L   #_CPUA_PRO_SIZE,R10
 6590 00000274 31AC               242             ADD     R10,R1
 6591 00000276 DA0B               243             MOV.L   #_FROM_REWR_END_ADR,R10
 6592 00000278 2A12               244             MOV.L   R1,@R10
 6593                             245     
 6594 0000027A D10B               246             MOV.L   #_VUP_DATA_AREA_CPUA,R1
 6595 0000027C DA0B               247             MOV.L   #_VUP_DATA_AREA_ADR,R10
 6596 0000027E 2A12               248             MOV.L   R1,@R10
 6597                             249     
 6598                             250             M_BRA   _FROM_CPUA_REWR_100
 6599 00000280 A044                   M           BRA     _FROM_CPUA_REWR_100
 6600 00000282 0009                   M           NOP
 6601                             251     
*** SuperH RISC engine ASSEMBLER V.7.01.02.000 ***    12/13/20 18:20:45                                                  PAGE    10
PROGRAM NAME =

 6602                                     ***** BEGIN-POOL *****
 6603 00000284 00000000                   DATA FOR SOURCE-LINE 221
 6604 00000288 00000000                   DATA FOR SOURCE-LINE 222
 6605 0000028C 00000000                   DATA FOR SOURCE-LINE 226
 6606 00000290 0000045A                   DATA FOR SOURCE-LINE 229
 6607 00000294 00000000                   DATA FOR SOURCE-LINE 232
 6608 00000298 00000000                   DATA FOR SOURCE-LINE 234
 6609 0000029C 00000000                   DATA FOR SOURCE-LINE 238
 6610 000002A0 00060000                   DATA FOR SOURCE-LINE 241
 6611 000002A4 00000000                   DATA FOR SOURCE-LINE 243
 6612 000002A8 AC070000                   DATA FOR SOURCE-LINE 246
 6613 000002AC 00000000                   DATA FOR SOURCE-LINE 247
 6614                                     ***** END-POOL *****
 6615 000002B0                    252     _FROM_CPUA_REWR_40:
 6616 000002B0 8809               253             CMP/EQ  #9,R0                                   ; C/Bｼｽﾃﾑﾊﾟﾗﾒｰﾀ
 6617 000002B2 8B29               254             BF      _FROM_CPUA_REWR_50                      ; いいえ
 6618                             255     
 6619                             256     ;       --------------- C/Bｼｽﾃﾑﾊﾟﾗﾒｰﾀ VUP -------------------
 6620 000002B4 D00A               257             MOV.L   #_FROM_SECT_TBL_SYSA,R0
 6621 000002B6 D10B               258             MOV.L   #_SVP_MACINE_SEL1,R1
 6622 000002B8 6211               259             MOV.W   @R1,R2
 6623 000002BA 622D               260             EXTU.W  R2,R2
 6624 000002BC D10A               261             MOV.L   #_EPROM_CODE,R1
 6625 000002BE 3210               262             CMP/EQ  R1,R2
 6626 000002C0 8B00               263             BF      _FROM_CPUA_REWR_47
 6627 000002C2 D00A               264             MOV.L   #_FROM_SECT_TBLP_SYSA,R0
 6628 000002C4                    265     _FROM_CPUA_REWR_47:
 6629 000002C4 DB0A               266             MOV.L   #_FROM_SCT_TOP_ADR,R11
 6630 000002C6 2B02               267             MOV.L   R0,@R11
 6631                             268     
 6632 000002C8 6102               269             MOV.L   @R0,R1
 6633 000002CA DA0A               270             MOV.L   #_FROM_REWR_TOP_ADR,R10
 6634 000002CC 2A12               271             MOV.L   R1,@R10
 6635                             272     
 6636 000002CE DA0A               273             MOV.L   #_CB_SYS_SIZE,R10
 6637 000002D0 31AC               274             ADD     R10,R1
 6638 000002D2 DA0A               275             MOV.L   #_FROM_REWR_END_ADR,R10
 6639 000002D4 2A12               276             MOV.L   R1,@R10
 6640                             277     
 6641 000002D6 D10A               278             MOV.L   #_VUP_DATA_AREA_CPUA,R1
 6642 000002D8 DA0A               279             MOV.L   #_VUP_DATA_AREA_ADR,R10
 6643 000002DA 2A12               280             MOV.L   R1,@R10
 6644                             281     
 6645                             282             M_BRA   _FROM_CPUA_REWR_100
 6646 000002DC A016                   M           BRA     _FROM_CPUA_REWR_100
 6647 000002DE 0009                   M           NOP
 6648                             283     
 6649                                     ***** BEGIN-POOL *****
 6650 000002E0 00000000                   DATA FOR SOURCE-LINE 257
 6651 000002E4 00000000                   DATA FOR SOURCE-LINE 258
 6652 000002E8 0000045A                   DATA FOR SOURCE-LINE 261
 6653 000002EC 00000000                   DATA FOR SOURCE-LINE 264
 6654 000002F0 00000000                   DATA FOR SOURCE-LINE 266
 6655 000002F4 00000000                   DATA FOR SOURCE-LINE 270
 6656 000002F8 00010000                   DATA FOR SOURCE-LINE 273
 6657 000002FC 00000000                   DATA FOR SOURCE-LINE 275
 6658 00000300 AC070000                   DATA FOR SOURCE-LINE 278
*** SuperH RISC engine ASSEMBLER V.7.01.02.000 ***    12/13/20 18:20:45                                                  PAGE    11
PROGRAM NAME =

 6659 00000304 00000000                   DATA FOR SOURCE-LINE 279
 6660                                     ***** END-POOL *****
 6661 00000308                    284     _FROM_CPUA_REWR_50:
 6662                             285             M_BRA   _FROM_CPUA_REWR_END
 6663 00000308 A120                   M           BRA     _FROM_CPUA_REWR_END
 6664 0000030A 0009                   M           NOP
 6665                             286     
 6666 0000030C                    287     _FROM_CPUA_REWR_100:
 6667 0000030C D009               288             MOV.L   #_FROM_SECT_TBL00,R0
 6668 0000030E D10A               289             MOV.L   #_SVP_MACINE_SEL1,R1
 6669 00000310 6211               290             MOV.W   @R1,R2
 6670 00000312 622D               291             EXTU.W  R2,R2
 6671 00000314 D109               292             MOV.L   #_EPROM_CODE,R1
 6672 00000316 3210               293             CMP/EQ  R1,R2
 6673 00000318 8B00               294             BF      _FROM_CPUA_REWR_105
 6674 0000031A D009               295             MOV.L   #_FROM_SECT_TBLP00,R0
 6675 0000031C                    296     _FROM_CPUA_REWR_105:
 6676 0000031C 6102               297             MOV.L   @R0,R1
 6677 0000031E DB09               298             MOV.L   #_FROM_TOP_ADR,R11
 6678 00000320 2B12               299             MOV.L   R1,@R11
 6679                             300     
 6680 00000322 8581               301             MOV.W   @(VUP_STR_PC,R8),R0                     ;
 6681 00000324 8191               302             MOV.W   R0,@(VUP_STR_PC,R9)                     ; ｽﾀｰﾄ応答
 6682                             303     
 6683 00000326 DA08               304             MOV.L   #_FROM_REWR_STR_FLG,R10
 6684 00000328 9003               305             MOV.W   #BIT0,R0                                ; ｽﾀｰﾄ応答済みＯＮ！
 6685 0000032A 2A01               306             MOV.W   R0,@R10
 6686                             307     
 6687 0000032C E101               308             MOV     #1,R1
 6688                             309             M_BRA   _FROM_CPUA_REWR_END
 6689 0000032E A10D                   M           BRA     _FROM_CPUA_REWR_END
 6690 00000330 0009                   M           NOP
 6691                             310     
 6692                                     ***** BEGIN-POOL *****
 6693 00000332 0001                       DATA FOR SOURCE-LINE 305
 6694 00000334 00000000                   DATA FOR SOURCE-LINE 288
 6695 00000338 00000000                   DATA FOR SOURCE-LINE 289
 6696 0000033C 0000045A                   DATA FOR SOURCE-LINE 292
 6697 00000340 00000000                   DATA FOR SOURCE-LINE 295
 6698 00000344 00000000                   DATA FOR SOURCE-LINE 298
 6699 00000348 00000000                   DATA FOR SOURCE-LINE 304
 6700                                     ***** END-POOL *****
 6701 0000034C                    311     _FROM_CPUA_REWR_150:
 6702                             312     ;       -------------------------------- 2006/12/26(INS) V05 {
 6703 0000034C D103               313             MOV.L   #_VUP_PRG_NG_DAT,R1                     ;
 6704 0000034E 6011               314             MOV.W   @R1,R0
 6705 00000350 2008               315             TST     R0,R0                                   ; ﾊﾞｰｼﾞｮﾝUP時異常あった？
 6706 00000352 8905               316             BT      _FROM_CPUA_REWR_155                     ; いいえ
 6707 00000354 819C               317             MOV.W   R0,@(VUP_REV1_SH,R9)                    ;
 6708                             318             M_BRA   _FROM_CPUA_REWR_END
 6709 00000356 A0F9                   M           BRA     _FROM_CPUA_REWR_END
 6710 00000358 0009                   M           NOP
 6711                                     ***** BEGIN-POOL *****
 6712 0000035A 0000                       ALIGNMENT CODE
 6713 0000035C 00000000                   DATA FOR SOURCE-LINE 313
 6714                                     ***** END-POOL *****
 6715 00000360                    319     _FROM_CPUA_REWR_155:
*** SuperH RISC engine ASSEMBLER V.7.01.02.000 ***    12/13/20 18:20:45                                                  PAGE    12
PROGRAM NAME =

 6716                             320     ;       -------------------------------- }
 6717                             321     
 6718                             322     ;       -------------------------------------------------
 6719                             323     ;               CPUAへ2000H受信待ち
 6720                             324     ;       -------------------------------------------------
 6721 00000360 DA02               325             MOV.L   #_FROM_REWR_STR_FLG,R10
 6722 00000362 60A1               326             MOV.W   @R10,R0
 6723 00000364 C802               327             TST     #BIT1,R0                                ; 2000Ｈ受信済み？
 6724 00000366 8903               328             BT      _FROM_CPUA_REWR_160                     ; いいえ
 6725                             329             M_BRA   _FROM_CPUA_REWR_250                     ; はい
 6726 00000368 A0D4                   M           BRA     _FROM_CPUA_REWR_250
 6727 0000036A 0009                   M           NOP
 6728                             330     
 6729                                     ***** BEGIN-POOL *****
 6730 0000036C 00000000                   DATA FOR SOURCE-LINE 325
 6731                                     ***** END-POOL *****
 6732 00000370                    331     _FROM_CPUA_REWR_160:
 6733 00000370 8584               332             MOV.W   @(VUP_REV1_PC,R8),R0
 6734 00000372 8801               333             CMP/EQ  #1,R0                                   ; 2000H受信完了？
 6735 00000374 8B20               334             BF      _FROM_CPUA_REWR_200                     ; いいえ
 6736                             335     
 6737 00000376 8585               336             MOV.W   @(VUP_REV2_PC,R8),R0                    ; データブロック番号
 6738 00000378 70FF               337             ADD     #-1,R0
 6739 0000037A D10B               338             MOV.L   #H'2000,R1
 6740 0000037C 201E               339             MULU.W  R1,R0
 6741 0000037E 001A               340             STS     MACL,R0
 6742 00000380 DC0A               341             MOV.L   #_VUP_DATA_AREA_CPUA,R12
 6743 00000382 3C0C               342             ADD     R0,R12
 6744 00000384 DB0A               343             MOV.L   #_VUP_DATA_ADR_OP1,R11
 6745 00000386 940E               344             MOV.W   #(H'2000/4),R4
 6746                             345     
 6747 00000388                    346     _FROM_CPUA_REWR_170:
 6748 00000388 60B6               347             MOV.L   @R11+,R0
 6749 0000038A 0009               348             NOP
 6750 0000038C 2C02               349             MOV.L   R0,@R12
 6751 0000038E 7C04               350             ADD     #4,R12
 6752 00000390 4410               351             DT      R4
 6753 00000392 8BF9               352             BF      _FROM_CPUA_REWR_170
 6754                             353     
 6755 00000394 8584               354             MOV.W   @(VUP_REV1_PC,R8),R0
 6756 00000396 8194               355             MOV.W   R0,@(VUP_REV1_PC,R9)                    ; 2000Ｈ受信応答
 6757                             356     
 6758 00000398 DA06               357             MOV.L   #_FROM_REWR_STR_FLG,R10
 6759 0000039A 60A1               358             MOV.W   @R10,R0
 6760 0000039C CB02               359             OR      #BIT1,R0                                ; 2000Ｈ受信完了ＯＮ！
 6761 0000039E 2A01               360             MOV.W   R0,@R10
 6762                             361     
 6763 000003A0 E101               362             MOV     #1,R1
 6764                             363             M_BRA   _FROM_CPUA_REWR_END
 6765 000003A2 A0D3                   M           BRA     _FROM_CPUA_REWR_END
 6766 000003A4 0009                   M           NOP
 6767                             364     
 6768                             365     ;       -------------------------------------------------
 6769                             366     ;               CPUBから書込み指令待ち
 6770                             367     ;       -------------------------------------------------
 6771                                     ***** BEGIN-POOL *****
 6772 000003A6 0800                       DATA FOR SOURCE-LINE 344
*** SuperH RISC engine ASSEMBLER V.7.01.02.000 ***    12/13/20 18:20:45                                                  PAGE    13
PROGRAM NAME =

 6773 000003A8 00002000                   DATA FOR SOURCE-LINE 338
 6774 000003AC AC070000                   DATA FOR SOURCE-LINE 341
 6775 000003B0 00000000                   DATA FOR SOURCE-LINE 343
 6776 000003B4 00000000                   DATA FOR SOURCE-LINE 357
 6777                                     ***** END-POOL *****
 6778 000003B8                    368     _FROM_CPUA_REWR_200:
 6779 000003B8 DA02               369             MOV.L   #_FROM_REWR_STR_FLG,R10
 6780 000003BA 60A1               370             MOV.W   @R10,R0
 6781 000003BC C804               371             TST     #BIT2,R0                                ; 書込み完了済み？
 6782 000003BE 8903               372             BT      _FROM_CPUA_REWR_202                     ; いいえ
 6783                             373             M_BRA   _FROM_CPUA_REWR_300                     ; はい
 6784 000003C0 A0B6                   M           BRA     _FROM_CPUA_REWR_300
 6785 000003C2 0009                   M           NOP
 6786                             374     
 6787                                     ***** BEGIN-POOL *****
 6788 000003C4 00000000                   DATA FOR SOURCE-LINE 369
 6789                                     ***** END-POOL *****
 6790 000003C8                    375     _FROM_CPUA_REWR_202:
 6791 000003C8 8583               376             MOV.W   @(VUP_DATA_WR_PC,R8),R0                 ;
 6792 000003CA 8801               377             CMP/EQ  #1,R0                                   ; 書込み指令有り？
 6793 000003CC 8901               378             BT      _FROM_CPUA_REWR_202A                    ; はい
 6794                             379             M_BRA   _FROM_CPUA_REWR_240                     ; いいえ
 6795 000003CE A09B                   M           BRA     _FROM_CPUA_REWR_240
 6796 000003D0 0009                   M           NOP
 6797                             380     
 6798 000003D2                    381     _FROM_CPUA_REWR_202A:
 6799                             382     ;       -------------------------------- 2006/12/26(INS) V05 {
 6800                             383     ;//2016/04/15   FAR_JSR #_VUP_PROG_SUM_CHK,R11                  ; ﾊﾞｰｼﾞｮﾝUPﾌﾟﾛｸﾞﾗﾑのSUMﾁｪｯ
                                          ｸ               サムチェック止める！！
 6801 000003D2 DB04               384             MOV.L   #_VUP_PRG_NG_DAT,R11
 6802 000003D4 61B1               385             MOV.W   @R11,R1
 6803 000003D6 2118               386             TST     R1,R1                                   ; ﾊﾞｰｼﾞｮﾝUPﾌﾟﾛｸﾞﾗﾑのSUM異常ある？
 6804 000003D8 8906               387             BT      _FROM_CPUB4_RW140                       ; いいえ
 6805 000003DA 9101               388             MOV.W   #H'FF,R1                                ; エラー有り
 6806                             389             M_BRA   _FROM_CPUA_REWR_END
 6807 000003DC A0B6                   M           BRA     _FROM_CPUA_REWR_END
 6808 000003DE 0009                   M           NOP
 6809                                     ***** BEGIN-POOL *****
 6810 000003E0 00FF                       DATA FOR SOURCE-LINE 388
 6811 000003E2 0000                       ALIGNMENT CODE
 6812 000003E4 00000000                   DATA FOR SOURCE-LINE 384
 6813                                     ***** END-POOL *****
 6814 000003E8                    390     _FROM_CPUB4_RW140:
 6815                             391     ;       -------------------------------- }
 6816                             392     
 6817                             393             PUSH_REG1 R8
 6818 000003E8 2F86                   M           MOV.L   R8,@-R15                ;PUSH=SP-4
 6819                                 M                                           ;REG=>[SP]
 6820                                 M                                           ;"-4" FF,FF,FF,FC
 6821                             394             PUSH_REG1 R9
 6822 000003EA 2F96                   M           MOV.L   R9,@-R15                ;PUSH=SP-4
 6823                                 M                                           ;REG=>[SP]
 6824                                 M                                           ;"-4" FF,FF,FF,FC
 6825                             395     ;       -------------------------------------
 6826                             396     ;       -----   ｾｸﾀnの消去              -----
 6827                             397     ;       -------------------------------------
 6828 000003EC                    398     _FROM_CPUA_REWR_203:
*** SuperH RISC engine ASSEMBLER V.7.01.02.000 ***    12/13/20 18:20:45                                                  PAGE    14
PROGRAM NAME =

 6829 000003EC D629               399             MOV.L   #_FROM_REWR_TOP_ADR,R6
 6830 000003EE 6862               400             MOV.L   @R6,R8                                  ; 書込み／消去セクタ先頭アドレス格
                                          納
 6831                             401     
 6832 000003F0 D629               402             MOV.L   #_FROM_TOP_ADR,R6
 6833 000003F2 6D62               403             MOV.L   @R6,R13
 6834                             404     
 6835                             405             FAR_JSR #_FROM_ERASE_CMND,R10                   ; FROM消去ｺﾏﾝﾄﾞ発行
 6836 000003F4 DA29                   M           MOV.L   #_FROM_ERASE_CMND,R10           ;ﾃｰﾌﾞﾙｱﾄﾞﾚｽの内容をREGへ
 6837 000003F6 4A0B                   M           JSR     @R10                    ;
 6838 000003F8 0009                   M           NOP                                     ;
 6839                             406                                                             ; In : R13<-_from_top  R0:KEEP
 6840                             407                                                             ; In : R8 <- 消去するｾｸﾀの先頭ｱﾄﾞﾚ
                                          ｽ
 6841                             408             FAR_JSR #_FROM_ERASE_POLLINKG,R10               ; 消去時のﾎﾟｰﾘﾝｸﾞ
 6842 000003FA DA29                   M           MOV.L   #_FROM_ERASE_POLLINKG,R10               ;ﾃｰﾌﾞﾙｱﾄﾞﾚｽの内容をREGへ
 6843 000003FC 4A0B                   M           JSR     @R10                    ;
 6844 000003FE 0009                   M           NOP                                     ;
 6845                             409                                                             ; In : R8 <- 消去するｾｸﾀの先頭ｱﾄﾞﾚ
                                          ｽ
 6846                             410     ;       -------------------------------------
 6847                             411     ;       -----   ｾｸﾀnの書込み            -----
 6848                             412     ;       -------------------------------------
 6849 00000400 D628               413             MOV.L   #_VUP_DATA_AREA_ADR,R6
 6850 00000402 6962               414             MOV.L   @R6,R9                                  ; 転送元先頭ｱﾄﾞﾚｽ
 6851 00000404 D623               415             MOV.L   #_FROM_REWR_TOP_ADR,R6
 6852 00000406 6862               416             MOV.L   @R6,R8                                  ; 書込み／消去セクタ先頭アドレス格
                                          納
 6853 00000408 D623               417             MOV.L   #_FROM_TOP_ADR,R6
 6854 0000040A 6D62               418             MOV.L   @R6,R13
 6855                             419     
 6856 0000040C                    420     _FROM_CPUA_REWR_205:
 6857                             421             FAR_JSR #_FROM_WRITE_CMND,R10                   ; FROM書込みｺﾏﾝﾄﾞ発行
 6858 0000040C DA26                   M           MOV.L   #_FROM_WRITE_CMND,R10           ;ﾃｰﾌﾞﾙｱﾄﾞﾚｽの内容をREGへ
 6859 0000040E 4A0B                   M           JSR     @R10                    ;
 6860 00000410 0009                   M           NOP                                     ;
 6861                             422                                                             ; In:R13<-_from_top  R0:KEEP
 6862 00000412 6095               423             MOV.W   @R9+,R0
 6863 00000414 2801               424             MOV.W   R0,@R8
 6864                             425     
 6865                             426             FAR_JSR #_FROM_WRITE_POLLINKG,R10
 6866 00000416 DA25                   M           MOV.L   #_FROM_WRITE_POLLINKG,R10               ;ﾃｰﾌﾞﾙｱﾄﾞﾚｽの内容をREGへ
 6867 00000418 4A0B                   M           JSR     @R10                    ;
 6868 0000041A 0009                   M           NOP                                     ;
 6869                             427     
 6870 0000041C 7802               428             ADD     #2,R8
 6871                             429     
 6872 0000041E D624               430             MOV.L   #_FROM_SCT_TOP_ADR,R6
 6873 00000420 6662               431             MOV.L   @R6,R6                                  ; 書込み中の先頭のセクタテーブルア
                                          ドレス
 6874 00000422 7604               432             ADD     #4,R6
 6875 00000424 6162               433             MOV.L   @R6,R1                                  ; 次のﾌﾗｯｼｭROMｾｸﾀの先頭ｱﾄﾞﾚｽ
 6876 00000426 3812               434             CMP/HS  R1,R8                                   ; 次のｾｸﾀになった？
 6877 00000428 8BF0               435             BF      _FROM_CPUA_REWR_205                     ; いいえ
 6878                             436     
 6879                             437     ;       -------------------------------------
 6880                             438     ;       -----   ｾｸﾀnのﾍﾞﾘﾌｧｲ            -----
*** SuperH RISC engine ASSEMBLER V.7.01.02.000 ***    12/13/20 18:20:45                                                  PAGE    15
PROGRAM NAME =

 6881                             439     ;       -------------------------------------
 6882 0000042A D61E               440             MOV.L   #_VUP_DATA_AREA_ADR,R6
 6883 0000042C 6962               441             MOV.L   @R6,R9                                  ; 転送元先頭ｱﾄﾞﾚｽ
 6884 0000042E D619               442             MOV.L   #_FROM_REWR_TOP_ADR,R6
 6885 00000430 6862               443             MOV.L   @R6,R8                                  ; 書込み／消去セクタ先頭アドレス格
                                          納
 6886 00000432                    444     _FROM_CPUA_REWR_210:
 6887                             445             _WDT_CLR R11,R12,R14                            ; R0,R10 USED
 6888                                 M           DI_PUSH_SR_SH3  R11, R12
 6889 00000432 0B02                   M           STC     SR,R11                  ;
 6890 00000434 9C2A                   M           MOV.W   #H'000000F0,R12         ;
 6891 00000436 2BCB                   M           OR      R12,R11         ;INT15
 6892 00000438 4F03                   M           STC.L   SR,@-R15                        ;PUSH SR
 6893 0000043A 4B0E                   M           LDC     R11,SR                  ;割込禁止（15）
 6894                                 M   
 6895 0000043C DC1D                   M           MOV.L   #_PDTRB,R12
 6896 0000043E 6BC1                   M           MOV.W   @R12,R11        ;R0:
 6897 00000440 9E25                   M           MOV.W   #BIT2,R14               ;
 6898 00000442 2BEA                   M           XOR     R14,R11 ;
 6899 00000444 2CB1                   M           MOV.W   R11,@R12        ;output
 6900                                 M   
 6901 00000446 2BEA                   M           XOR     R14,R11 ;
 6902 00000448 2CB1                   M           MOV.W   R11,@R12        ;output
 6903                                 M   
 6904 0000044A 2BEA                   M           XOR     R14,R11 ;
 6905 0000044C 2CB1                   M           MOV.W   R11,@R12        ;output
 6906                                 M   
 6907                                 M           EI_POP_SR_SH3                   ;
 6908 0000044E 4F07                   M           LDC.L   @R15+,SR                        ;POP SR
 6909 00000450 0009               446             NOP
 6910 00000452 0009               447             NOP
 6911 00000454 0009               448             NOP
 6912 00000456 0009               449             NOP
 6913 00000458 0009               450             NOP
 6914 0000045A 6095               451             MOV.W   @R9+,R0
 6915 0000045C 600D               452             EXTU.W  R0,R0
 6916 0000045E 0009               453             NOP
 6917 00000460 0009               454             NOP
 6918 00000462 0009               455             NOP
 6919 00000464 0009               456             NOP
 6920 00000466 0009               457             NOP
 6921 00000468 6185               458             MOV.W   @R8+,R1
 6922 0000046A 611D               459             EXTU.W  R1,R1
 6923                             460     
 6924 0000046C 3010               461             CMP/EQ  R1,R0
 6925 0000046E 8927               462             BT      _FROM_REWR_VEROK
 6926                             463     
 6927                             464             POP_REG1 R9
 6928                                 M                                   ; RE"+4" 00,00,00,04
 6929 00000470 69F6                   M           MOV.L   @R15+,R9        ;
 6930                             465             POP_REG1 R8
 6931                                 M                                   ; RE"+4" 00,00,00,04
 6932 00000472 68F6                   M           MOV.L   @R15+,R8        ;
 6933                             466     
 6934                             467     ;       -------------------------------- 2006/12/26(INS) V05 {
 6935 00000474 D610               468             MOV.L   #_VUP_PRG_RETRY_CNT,R6
 6936 00000476 6061               469             MOV.W   @R6,R0
*** SuperH RISC engine ASSEMBLER V.7.01.02.000 ***    12/13/20 18:20:45                                                  PAGE    16
PROGRAM NAME =

 6937 00000478 7001               470             ADD     #1,R0
 6938 0000047A 2601               471             MOV.W   R0,@R6
 6939 0000047C 8803               472             CMP/EQ  #3,R0
 6940 0000047E 8B02               473             BF      _FROM_REWR_450
 6941 00000480 9006               474             MOV.W   #H'0092,R0                              ; 書き込みリトライオーバー
 6942 00000482 D10E               475             MOV.L   #_VUP_PRG_NG_DAT,R1
 6943 00000484 2101               476             MOV.W   R0,@R1
 6944 00000486                    477     _FROM_REWR_450:
 6945                             478     ;       -------------------------------- }
 6946                             479     
 6947 00000486 9104               480             MOV.W   #H'FF,R1                                ; エラー有り
 6948                             481             M_BRA   _FROM_CPUA_REWR_END
 6949 00000488 A060                   M           BRA     _FROM_CPUA_REWR_END
 6950 0000048A 0009                   M           NOP
 6951                             482     
 6952                             483     
 6953                                     ***** BEGIN-POOL *****
 6954 0000048C 00F0                       DATA FOR SOURCE-LINE 445
 6955 0000048E 0004                       DATA FOR SOURCE-LINE 445
 6956 00000490 0092                       DATA FOR SOURCE-LINE 474
 6957 00000492 00FF                       DATA FOR SOURCE-LINE 480
 6958 00000494 00000000                   DATA FOR SOURCE-LINE 399,415,442
 6959 00000498 00000000                   DATA FOR SOURCE-LINE 402,417
 6960 0000049C 00000000                   DATA FOR SOURCE-LINE 405
 6961 000004A0 00000000                   DATA FOR SOURCE-LINE 408
 6962 000004A4 00000000                   DATA FOR SOURCE-LINE 413,440
 6963 000004A8 00000000                   DATA FOR SOURCE-LINE 421
 6964 000004AC 00000000                   DATA FOR SOURCE-LINE 426
 6965 000004B0 00000000                   DATA FOR SOURCE-LINE 430
 6966 000004B4 00000000                   DATA FOR SOURCE-LINE 445
 6967 000004B8 00000000                   DATA FOR SOURCE-LINE 468
 6968 000004BC 00000000                   DATA FOR SOURCE-LINE 475
 6969                                     ***** END-POOL *****
 6970 000004C0                    484     _FROM_REWR_VEROK:
 6971 000004C0 D609               485             MOV.L   #_FROM_SCT_TOP_ADR,R6
 6972 000004C2 6662               486             MOV.L   @R6,R6                                  ; 書込み中の先頭のセクタテーブルア
                                          ドレス
 6973 000004C4 7604               487             ADD     #4,R6
 6974 000004C6 6162               488             MOV.L   @R6,R1                                  ; 次のﾌﾗｯｼｭROMｾｸﾀの先頭ｱﾄﾞﾚｽ
 6975 000004C8 3812               489             CMP/HS  R1,R8                                   ; 次のｾｸﾀになった？
 6976 000004CA 8BB2               490             BF      _FROM_CPUA_REWR_210                     ; いいえ
 6977                             491     
 6978 000004CC D706               492             MOV.L   #_FROM_SCT_TOP_ADR,R7
 6979 000004CE 2762               493             MOV.L   R6,@R7                                  ; 書込み中の先頭のセクタテーブルア
                                          ドレス
 6980 000004D0 D706               494             MOV.L   #_VUP_DATA_AREA_ADR,R7
 6981 000004D2 2792               495             MOV.L   R9,@R7                                  ; 転送元先頭ｱﾄﾞﾚｽ
 6982 000004D4 D706               496             MOV.L   #_FROM_REWR_TOP_ADR,R7
 6983 000004D6 2782               497             MOV.L   R8,@R7                                  ; 書込み／消去セクタ先頭アドレス格
                                          納
 6984                             498     
 6985 000004D8 6162               499             MOV.L   @R6,R1                                  ; 次のﾌﾗｯｼｭROMｾｸﾀの先頭ｱﾄﾞﾚｽ
 6986 000004DA D606               500             MOV.L   #_FROM_REWR_END_ADR,R6
 6987 000004DC 6B62               501             MOV.L   @R6,R11                                 ; 書込み最終ｱﾄﾞﾚｽ
 6988 000004DE 31B2               502             CMP/HS  R11,R1                                  ; このセクタは最後？
 6989 000004E0 890A               503             BT      _FROM_CPUA_REWR_220                     ; はい
 6990                             504             M_BRA   _FROM_CPUA_REWR_203                     ; いいえ
*** SuperH RISC engine ASSEMBLER V.7.01.02.000 ***    12/13/20 18:20:45                                                  PAGE    17
PROGRAM NAME =

 6991 000004E2 AF83                   M           BRA     _FROM_CPUA_REWR_203
 6992 000004E4 0009                   M           NOP
 6993                             505     
 6994                                     ***** BEGIN-POOL *****
 6995 000004E6 0000                       ALIGNMENT CODE
 6996 000004E8 00000000                   DATA FOR SOURCE-LINE 485,492
 6997 000004EC 00000000                   DATA FOR SOURCE-LINE 494
 6998 000004F0 00000000                   DATA FOR SOURCE-LINE 496
 6999 000004F4 00000000                   DATA FOR SOURCE-LINE 500
 7000                                     ***** END-POOL *****
 7001 000004F8                    506     _FROM_CPUA_REWR_220:
 7002                             507             POP_REG1 R9
 7003                                 M                                   ; RE"+4" 00,00,00,04
 7004 000004F8 69F6                   M           MOV.L   @R15+,R9        ;
 7005                             508             POP_REG1 R8
 7006                                 M                                   ; RE"+4" 00,00,00,04
 7007 000004FA 68F6                   M           MOV.L   @R15+,R8        ;
 7008                             509     
 7009 000004FC 8583               510             MOV.W   @(VUP_DATA_WR_PC,R8),R0                 ;
 7010 000004FE 8193               511             MOV.W   R0,@(VUP_DATA_WR_PC,R9)                 ; 書込み完了応答
 7011                             512     
 7012 00000500 DA03               513             MOV.L   #_FROM_REWR_STR_FLG,R10
 7013 00000502 60A1               514             MOV.W   @R10,R0
 7014 00000504 CB04               515             OR      #BIT2,R0                                ; 書込み完了ＯＮ！
 7015 00000506 2A01               516             MOV.W   R0,@R10
 7016                             517     
 7017 00000508                    518     _FROM_CPUA_REWR_240:
 7018 00000508 E101               519             MOV     #1,R1
 7019                             520             M_BRA   _FROM_CPUA_REWR_END
 7020 0000050A A01F                   M           BRA     _FROM_CPUA_REWR_END
 7021 0000050C 0009                   M           NOP
 7022                             521     
 7023                             522     ;       -------------------------------------------------
 7024                             523     ;               CPUBから2000H転送完了信号OFF待ち
 7025                             524     ;       -------------------------------------------------
 7026                                     ***** BEGIN-POOL *****
 7027 0000050E 0000                       ALIGNMENT CODE
 7028 00000510 00000000                   DATA FOR SOURCE-LINE 513
 7029                                     ***** END-POOL *****
 7030 00000514                    525     _FROM_CPUA_REWR_250:
 7031 00000514 8584               526             MOV.W   @(VUP_REV1_PC,R8),R0                    ;
 7032 00000516 8800               527             CMP/EQ  #0,R0
 7033 00000518 8B04               528             BF      _FROM_CPUA_REWR_290                     ; いいえ
 7034                             529     
 7035 0000051A 8194               530             MOV.W   R0,@(VUP_REV1_PC,R9)                    ; 2000Ｈ受信応答
 7036                             531     
 7037 0000051C DA03               532             MOV.L   #_FROM_REWR_STR_FLG,R10
 7038 0000051E 60A1               533             MOV.W   @R10,R0
 7039 00000520 C9FD               534             AND     #NBIT1,R0
 7040 00000522 2A01               535             MOV.W   R0,@R10
 7041                             536     
 7042 00000524                    537     _FROM_CPUA_REWR_290:
 7043 00000524 E101               538             MOV     #1,R1
 7044                             539             M_BRA   _FROM_CPUA_REWR_END
 7045 00000526 A011                   M           BRA     _FROM_CPUA_REWR_END
 7046 00000528 0009                   M           NOP
 7047                             540     
*** SuperH RISC engine ASSEMBLER V.7.01.02.000 ***    12/13/20 18:20:45                                                  PAGE    18
PROGRAM NAME =

 7048                             541     ;       -------------------------------------------------
 7049                             542     ;               CPUBから書込み指令OFF待ち
 7050                             543     ;       -------------------------------------------------
 7051                                     ***** BEGIN-POOL *****
 7052 0000052A 0000                       ALIGNMENT CODE
 7053 0000052C 00000000                   DATA FOR SOURCE-LINE 532
 7054                                     ***** END-POOL *****
 7055 00000530                    544     _FROM_CPUA_REWR_300:
 7056 00000530 8583               545             MOV.W   @(VUP_DATA_WR_PC,R8),R0                 ;
 7057 00000532 8800               546             CMP/EQ  #0,R0                                   ; 書込み指令有り？
 7058 00000534 8B04               547             BF      _FROM_CPUA_REWR_340                     ; いいえ
 7059                             548     
 7060 00000536 8193               549             MOV.W   R0,@(VUP_DATA_WR_PC,R9)                 ; 書込み完了OFF応答
 7061                             550     
 7062 00000538 DA03               551             MOV.L   #_FROM_REWR_STR_FLG,R10
 7063 0000053A 60A1               552             MOV.W   @R10,R0
 7064 0000053C C9FB               553             AND     #NBIT2,R0
 7065 0000053E 2A01               554             MOV.W   R0,@R10
 7066                             555     
 7067 00000540                    556     _FROM_CPUA_REWR_340:
 7068 00000540 E101               557             MOV     #1,R1
 7069                             558             M_BRA   _FROM_CPUA_REWR_END
 7070 00000542 A003                   M           BRA     _FROM_CPUA_REWR_END
 7071 00000544 0009                   M           NOP
 7072                             559     
 7073                                     ***** BEGIN-POOL *****
 7074 00000546 0000                       ALIGNMENT CODE
 7075 00000548 00000000                   DATA FOR SOURCE-LINE 551
 7076                                     ***** END-POOL *****
 7077 0000054C                    560     _FROM_CPUA_REWR_END:
 7078                             561             SUB_END
 7079                                 M   ;;;;;;; ADD     #4,R15                  ;[不要?]
 7080 0000054C 4F26                   M           LDS.L   @R15+,PR                ;[必要]
 7081                             562             M_RTS
 7082 0000054E 000B                   M           RTS                             ;RTSの後ろの
 7083 00000550 0009                   M           NOP                             ;@R15+,PRはﾀﾞﾒ
 7084                             563     
 7085                             564     
 7086                             565     ;       **********************************************************************************
                                          ***
 7087                             566     ;       *****                                                                           **
                                          ***
 7088                             567     ;       *****                                                                           **
                                          ***
 7089                             568     ;       *****   受信データのSUMチェック                                                 **
                                          ***
 7090                             569     ;       *****                                                                           **
                                          ***
 7091                             570     ;       *****   V05 (MAKE) 2006/12/26                                                   **
                                          ***
 7092                             571     ;       *****                                                                           **
                                          ***
 7093                             572     ;       **********************************************************************************
                                          ***
 7094          5AA53CC3           573     _FROMCHK_NASI_CODE      .EQU    H'5AA53CC3
 7095                             574             .IMPORT         _FROM_SUM_CODE;
 7096 00000552                    575     _VUP_PROG_SUM_CHK:
*** SuperH RISC engine ASSEMBLER V.7.01.02.000 ***    12/13/20 18:20:45                                                  PAGE    19
PROGRAM NAME =

 7097                             576             SUB_START
 7098 00000552 4F22                   M           STS.L   PR,@-R15                ;[必要]
 7099                                 M   ;;;;;;; ADD     #-4,R15                 ;[不要?]
 7100                             577             PUSH_ALL
 7101                                 M           PUSH_REG1       R0      ;
 7102 00000554 2F06                   M           MOV.L   R0,@-R15                ;PUSH=SP-4
 7103                                 M                                           ;REG=>[SP]
 7104                                 M                                           ;"-4" FF,FF,FF,FC
 7105                                 M           PUSH_REG1       R1      ;
 7106 00000556 2F16                   M           MOV.L   R1,@-R15                ;PUSH=SP-4
 7107                                 M                                           ;REG=>[SP]
 7108                                 M                                           ;"-4" FF,FF,FF,FC
 7109                                 M           PUSH_REG1       R2      ;
 7110 00000558 2F26                   M           MOV.L   R2,@-R15                ;PUSH=SP-4
 7111                                 M                                           ;REG=>[SP]
 7112                                 M                                           ;"-4" FF,FF,FF,FC
 7113                                 M           PUSH_REG1       R3      ;
 7114 0000055A 2F36                   M           MOV.L   R3,@-R15                ;PUSH=SP-4
 7115                                 M                                           ;REG=>[SP]
 7116                                 M                                           ;"-4" FF,FF,FF,FC
 7117                                 M           PUSH_REG1       R4      ;
 7118 0000055C 2F46                   M           MOV.L   R4,@-R15                ;PUSH=SP-4
 7119                                 M                                           ;REG=>[SP]
 7120                                 M                                           ;"-4" FF,FF,FF,FC
 7121                                 M           PUSH_REG1       R5      ;
 7122 0000055E 2F56                   M           MOV.L   R5,@-R15                ;PUSH=SP-4
 7123                                 M                                           ;REG=>[SP]
 7124                                 M                                           ;"-4" FF,FF,FF,FC
 7125                                 M           PUSH_REG1       R6      ;
 7126 00000560 2F66                   M           MOV.L   R6,@-R15                ;PUSH=SP-4
 7127                                 M                                           ;REG=>[SP]
 7128                                 M                                           ;"-4" FF,FF,FF,FC
 7129                                 M           PUSH_REG1       R7      ;
 7130 00000562 2F76                   M           MOV.L   R7,@-R15                ;PUSH=SP-4
 7131                                 M                                           ;REG=>[SP]
 7132                                 M                                           ;"-4" FF,FF,FF,FC
 7133                                 M           PUSH_REG1       R8      ;
 7134 00000564 2F86                   M           MOV.L   R8,@-R15                ;PUSH=SP-4
 7135                                 M                                           ;REG=>[SP]
 7136                                 M                                           ;"-4" FF,FF,FF,FC
 7137                                 M           PUSH_REG1       R9      ;
 7138 00000566 2F96                   M           MOV.L   R9,@-R15                ;PUSH=SP-4
 7139                                 M                                           ;REG=>[SP]
 7140                                 M                                           ;"-4" FF,FF,FF,FC
 7141                                 M           PUSH_REG1       R10     ;
 7142 00000568 2FA6                   M           MOV.L   R10,@-R15               ;PUSH=SP-4
 7143                                 M                                           ;REG=>[SP]
 7144                                 M                                           ;"-4" FF,FF,FF,FC
 7145                                 M           PUSH_REG1       R11     ;
 7146 0000056A 2FB6                   M           MOV.L   R11,@-R15               ;PUSH=SP-4
 7147                                 M                                           ;REG=>[SP]
 7148                                 M                                           ;"-4" FF,FF,FF,FC
 7149                                 M           PUSH_REG1       R12     ;
 7150 0000056C 2FC6                   M           MOV.L   R12,@-R15               ;PUSH=SP-4
 7151                                 M                                           ;REG=>[SP]
 7152                                 M                                           ;"-4" FF,FF,FF,FC
 7153                                 M           PUSH_REG1       R13     ;
*** SuperH RISC engine ASSEMBLER V.7.01.02.000 ***    12/13/20 18:20:45                                                  PAGE    20
PROGRAM NAME =

 7154 0000056E 2FD6                   M           MOV.L   R13,@-R15               ;PUSH=SP-4
 7155                                 M                                           ;REG=>[SP]
 7156                                 M                                           ;"-4" FF,FF,FF,FC
 7157                                 M           PUSH_REG1       R14     ;
 7158 00000570 2FE6                   M           MOV.L   R14,@-R15               ;PUSH=SP-4
 7159                                 M                                           ;REG=>[SP]
 7160                                 M                                           ;"-4" FF,FF,FF,FC
 7161                                 M           PUSH_MACHL              ;
 7162 00000572 4F02                   M           STS.L   MACH,@-R15
 7163 00000574 4F12                   M           STS.L   MACL,@-R15
 7164                                 M           PUSH_SYS_REG    GBR     ;
 7165 00000576 4F13                   M           STC.L   GBR,@-R15
 7166                                 M           .AIF    2 EQ 3
 7167                                             .AELSE
 7168                                 C           PUSH_FPU_ALL            ;2001-07-08
 7169                                 M                   PUSH_SYS_FPU            ;2001-07-08 koma add
 7170 00000578 4F52                   M           STS.L   FPUL,@-R15
 7171 0000057A 4F62                   M           STS.L   FPSCR,@-R15
 7172                                 M                   PUSH_FPU_REG1 FR0       ;
 7173 0000057C FF0B                   M           FMOV.S  FR0,@-R15
 7174                                 M                   PUSH_FPU_REG1 FR1       ;
 7175 0000057E FF1B                   M           FMOV.S  FR1,@-R15
 7176                                 M                   PUSH_FPU_REG1 FR2       ;
 7177 00000580 FF2B                   M           FMOV.S  FR2,@-R15
 7178                                 M                   PUSH_FPU_REG1 FR3       ;
 7179 00000582 FF3B                   M           FMOV.S  FR3,@-R15
 7180                                 M                   PUSH_FPU_REG1 FR4       ;
 7181 00000584 FF4B                   M           FMOV.S  FR4,@-R15
 7182                                 M           .AENDI
 7183                             578     
 7184 00000586 8580               579             MOV.W   @(VUP_SEL_PC,R8),R0                     ; ﾊﾞｰｼﾞｮﾝUP種別CPUBから
 7185 00000588 8807               580             CMP/EQ  #7,R0                                   ; CPUAﾌﾟﾛｸﾞﾗﾑ？
 7186 0000058A 8901               581             BT      _VUP_PROG_SUMCHK_020
 7187                             582             M_BRA   _VUP_PROG_SUMCHK_EXT
 7188 0000058C A03F                   M           BRA     _VUP_PROG_SUMCHK_EXT
 7189 0000058E 0009                   M           NOP
 7190                             583     
 7191 00000590                    584     _VUP_PROG_SUMCHK_020:
 7192 00000590 D103               585             MOV.L   #_VUP_PRG_NON_SUM_CODE,R1
 7193 00000592 6011               586             MOV.W   @R1,R0
 7194 00000594 9203               587             MOV.W   #_NON_SUM_CODE,R2
 7195 00000596 3020               588             CMP/EQ  R2,R0                                   ; SUM CHECK無しｺｰﾄﾞ？
 7196 00000598 8B04               589             BF      _VUP_PROG_SUMCHK_030                    ; いいえ
 7197                             590             M_BRA   _VUP_PROG_SUMCHK_EXT                    ; はい
 7198 0000059A A038                   M           BRA     _VUP_PROG_SUMCHK_EXT
 7199 0000059C 0009                   M           NOP
 7200                             591     
 7201                                     ***** BEGIN-POOL *****
 7202 0000059E 0395                       DATA FOR SOURCE-LINE 587
 7203 000005A0 00000000                   DATA FOR SOURCE-LINE 585
 7204                                     ***** END-POOL *****
 7205 000005A4                    592     _VUP_PROG_SUMCHK_030:
 7206 000005A4 D911               593             MOV.L   #_VUP_DATA_AREA_CPUA,R9                 ; ﾊﾞｰｼﾞｮﾝUPﾌﾟﾛｸﾞﾗﾑ格納領域先頭
 7207 000005A6 D812               594             MOV.L   #_FROM_SUM_CODE,R8                      ;
 7208 000005A8 D712               595             MOV.L   #H'A0000000,R7
 7209 000005AA 3878               596             SUB     R7,R8
 7210 000005AC 389C               597             ADD     R9,R8                                   ; ﾊﾞｰｼﾞｮﾝUPﾌﾟﾛｸﾞﾗﾑ格納領域最終
*** SuperH RISC engine ASSEMBLER V.7.01.02.000 ***    12/13/20 18:20:45                                                  PAGE    21
PROGRAM NAME =

 7211 000005AE 222A               598             XOR     R2,R2                                   ; SUM作成用
 7212 000005B0 9618               599             MOV.W   #H'7FFF,R6
 7213                             600     
 7214 000005B2                    601     _VUP_PROG_SUMCHK_050:
 7215 000005B2 3982               602             CMP/HS  R8,R9                                   ; 最終ｱﾄﾞﾚｽまできた？
 7216 000005B4 8922               603             BT      _VUP_PROG_SUMCHK_100                    ; はい
 7217 000005B6 6096               604             MOV.L   @R9+,R0
 7218 000005B8 320C               605             ADD     R0,R2
 7219 000005BA 6793               606             MOV     R9,R7
 7220 000005BC 2769               607             AND     R6,R7
 7221 000005BE 2778               608             TST     R7,R7
 7222 000005C0 8BF7               609             BF      _VUP_PROG_SUMCHK_050
 7223                             610             _WDT_CLR R11,R12,R14                            ; R0,R10 USED
 7224                                 M           DI_PUSH_SR_SH3  R11, R12
 7225 000005C2 0B02                   M           STC     SR,R11                  ;
 7226 000005C4 9C0F                   M           MOV.W   #H'000000F0,R12         ;
 7227 000005C6 2BCB                   M           OR      R12,R11         ;INT15
 7228 000005C8 4F03                   M           STC.L   SR,@-R15                        ;PUSH SR
 7229 000005CA 4B0E                   M           LDC     R11,SR                  ;割込禁止（15）
 7230                                 M   
 7231 000005CC DC0A                   M           MOV.L   #_PDTRB,R12
 7232 000005CE 6BC1                   M           MOV.W   @R12,R11        ;R0:
 7233 000005D0 9E0A                   M           MOV.W   #BIT2,R14               ;
 7234 000005D2 2BEA                   M           XOR     R14,R11 ;
 7235 000005D4 2CB1                   M           MOV.W   R11,@R12        ;output
 7236                                 M   
 7237 000005D6 2BEA                   M           XOR     R14,R11 ;
 7238 000005D8 2CB1                   M           MOV.W   R11,@R12        ;output
 7239                                 M   
 7240 000005DA 2BEA                   M           XOR     R14,R11 ;
 7241 000005DC 2CB1                   M           MOV.W   R11,@R12        ;output
 7242                                 M   
 7243                                 M           EI_POP_SR_SH3                   ;
 7244 000005DE 4F07                   M           LDC.L   @R15+,SR                        ;POP SR
 7245                             611             M_BRA   _VUP_PROG_SUMCHK_050
 7246 000005E0 AFE7                   M           BRA     _VUP_PROG_SUMCHK_050
 7247 000005E2 0009                   M           NOP
 7248                             612     
 7249                                     ***** BEGIN-POOL *****
 7250 000005E4 7FFF                       DATA FOR SOURCE-LINE 599
 7251 000005E6 00F0                       DATA FOR SOURCE-LINE 610
 7252 000005E8 0004                       DATA FOR SOURCE-LINE 610
 7253 000005EA 0000                       ALIGNMENT CODE
 7254 000005EC AC070000                   DATA FOR SOURCE-LINE 593
 7255 000005F0 00000000                   DATA FOR SOURCE-LINE 594
 7256 000005F4 A0000000                   DATA FOR SOURCE-LINE 595
 7257 000005F8 00000000                   DATA FOR SOURCE-LINE 610
 7258                                     ***** END-POOL *****
 7259 000005FC                    613     _VUP_PROG_SUMCHK_100:
 7260 000005FC 6092               614             MOV.L   @R9,R0                                  ; 送られてきたSUM
 7261 000005FE D112               615             MOV.L   #_FROMCHK_NASI_CODE,R1
 7262 00000600 3010               616             CMP/EQ  R1,R0                                   ; SUM CHECK無し？
 7263 00000602 8904               617             BT      _VUP_PROG_SUMCHK_150                    ; はい
 7264 00000604 3020               618             CMP/EQ  R2,R0                                   ; SUM CHECK!!
 7265 00000606 8902               619             BT      _VUP_PROG_SUMCHK_150                    ; OK
 7266 00000608                    620     _VUP_PROG_SUMCHK_NG:
 7267 00000608 901D               621             MOV.W   #H'0091,R0                              ; 受信したﾌﾟﾛｸﾞﾗﾑのSUM異常
*** SuperH RISC engine ASSEMBLER V.7.01.02.000 ***    12/13/20 18:20:45                                                  PAGE    22
PROGRAM NAME =

 7268 0000060A D110               622             MOV.L   #_VUP_PRG_NG_DAT,R1
 7269 0000060C 2101               623             MOV.W   R0,@R1
 7270                             624     
 7271 0000060E                    625     _VUP_PROG_SUMCHK_150:
 7272 0000060E                    626     _VUP_PROG_SUMCHK_EXT:
 7273                             627             POP_ALL
 7274                                 M           .AIF    2 EQ 3
 7275                                             .AELSE
 7276                                 C           POP_FPU_ALL             ;2001-07-08
 7277                                 M                   POP_FPU_REG1 FR4        ;2001-07-08 koma add
 7278 0000060E F4F9                   M           FMOV.S  @R15+,FR4
 7279                                 M                   POP_FPU_REG1 FR3        ;
 7280 00000610 F3F9                   M           FMOV.S  @R15+,FR3
 7281                                 M                   POP_FPU_REG1 FR2        ;
 7282 00000612 F2F9                   M           FMOV.S  @R15+,FR2
 7283                                 M                   POP_FPU_REG1 FR1        ;
 7284 00000614 F1F9                   M           FMOV.S  @R15+,FR1
 7285                                 M                   POP_FPU_REG1 FR0        ;
 7286 00000616 F0F9                   M           FMOV.S  @R15+,FR0
 7287                                 M                   POP_SYS_FPU             ;
 7288 00000618 4F66                   M           LDS.L   @R15+,FPSCR
 7289 0000061A 4F56                   M           LDS.L   @R15+,FPUL
 7290                                 M           .AENDI
 7291                                 M           POP_SYS_REG     GBR     ;
 7292 0000061C 4F17                   M           LDC.L   @R15+,GBR
 7293                                 M           POP_MACHL               ;
 7294 0000061E 4F16                   M           LDS.L   @R15+,MACL
 7295 00000620 4F06                   M           LDS.L   @R15+,MACH
 7296                                 M           POP_REG1        R14     ;
 7297                                 M                                   ; RE"+4" 00,00,00,04
 7298 00000622 6EF6                   M           MOV.L   @R15+,R14        ;
 7299                                 M           POP_REG1        R13     ;
 7300                                 M                                   ; RE"+4" 00,00,00,04
 7301 00000624 6DF6                   M           MOV.L   @R15+,R13        ;
 7302                                 M           POP_REG1        R12     ;
 7303                                 M                                   ; RE"+4" 00,00,00,04
 7304 00000626 6CF6                   M           MOV.L   @R15+,R12        ;
 7305                                 M           POP_REG1        R11     ;
 7306                                 M                                   ; RE"+4" 00,00,00,04
 7307 00000628 6BF6                   M           MOV.L   @R15+,R11        ;
 7308                                 M           POP_REG1        R10     ;
 7309                                 M                                   ; RE"+4" 00,00,00,04
 7310 0000062A 6AF6                   M           MOV.L   @R15+,R10        ;
 7311                                 M           POP_REG1        R9      ;
 7312                                 M                                   ; RE"+4" 00,00,00,04
 7313 0000062C 69F6                   M           MOV.L   @R15+,R9        ;
 7314                                 M           POP_REG1        R8      ;
 7315                                 M                                   ; RE"+4" 00,00,00,04
 7316 0000062E 68F6                   M           MOV.L   @R15+,R8        ;
 7317                                 M           POP_REG1        R7      ;
 7318                                 M                                   ; RE"+4" 00,00,00,04
 7319 00000630 67F6                   M           MOV.L   @R15+,R7        ;
 7320                                 M           POP_REG1        R6      ;
 7321                                 M                                   ; RE"+4" 00,00,00,04
 7322 00000632 66F6                   M           MOV.L   @R15+,R6        ;
 7323                                 M           POP_REG1        R5      ;
 7324                                 M                                   ; RE"+4" 00,00,00,04
*** SuperH RISC engine ASSEMBLER V.7.01.02.000 ***    12/13/20 18:20:45                                                  PAGE    23
PROGRAM NAME =

 7325 00000634 65F6                   M           MOV.L   @R15+,R5        ;
 7326                                 M           POP_REG1        R4      ;
 7327                                 M                                   ; RE"+4" 00,00,00,04
 7328 00000636 64F6                   M           MOV.L   @R15+,R4        ;
 7329                                 M           POP_REG1        R3      ;
 7330                                 M                                   ; RE"+4" 00,00,00,04
 7331 00000638 63F6                   M           MOV.L   @R15+,R3        ;
 7332                                 M           POP_REG1        R2      ;
 7333                                 M                                   ; RE"+4" 00,00,00,04
 7334 0000063A 62F6                   M           MOV.L   @R15+,R2        ;
 7335                                 M           POP_REG1        R1      ;
 7336                                 M                                   ; RE"+4" 00,00,00,04
 7337 0000063C 61F6                   M           MOV.L   @R15+,R1        ;
 7338                                 M           POP_REG1        R0      ;
 7339                                 M                                   ; RE"+4" 00,00,00,04
 7340 0000063E 60F6                   M           MOV.L   @R15+,R0        ;
 7341                             628             SUB_END
 7342                                 M   ;;;;;;; ADD     #4,R15                  ;[不要?]
 7343 00000640 4F26                   M           LDS.L   @R15+,PR                ;[必要]
 7344                             629             M_RTS
 7345 00000642 000B                   M           RTS                             ;RTSの後ろの
 7346 00000644 0009                   M           NOP                             ;@R15+,PRはﾀﾞﾒ
 7347                             630     
 7348                             631     
 7349                             632     ;       **********************************************************************************
                                          ***
 7350                             633     ;       *****                                                                           **
                                          ***
 7351                             634     ;       *****           WORK RAM                                                        **
                                          ***
 7352                             635     ;       *****                                                                           **
                                          ***
 7353                             636     ;       *****                                                                           **
                                          ***
 7354                             637     ;       **********************************************************************************
                                          ***
 7355                                     ***** BEGIN-POOL *****
 7356 00000646 0091                       DATA FOR SOURCE-LINE 621
 7357 00000648 5AA53CC3                   DATA FOR SOURCE-LINE 615
 7358 0000064C 00000000                   DATA FOR SOURCE-LINE 622
 7359                                     ***** END-POOL *****
 7360 00000000                    638             .SECTION        Bvupwkram,CODE,ALIGN=4
 7361 00000000 00000004           639     _FROM_TOP_ADR           .SRES           4               ;
 7362 00000004 00000004           640     _FROM_SCT_TOP_ADR       .SRES           4               ;
 7363 00000008 00000004           641     _FROM_REWR_TOP_ADR      .SRES           4               ;
 7364 0000000C 00000004           642     _FROM_REWR_END_ADR      .SRES           4               ;
 7365 00000010 00000004           643     _VUP_DATA_AREA_ADR      .SRES           4               ;
 7366 00000014 00000002           644     _FROM_REWR_STR_FLG      .SRES           2               ;
 7367 00000018                    645             .ALIGN 4
 7368 00000018 00000020           646     _VUP_WKRAM              .SRES           2*16            ;
 7369 00000038 00000002           647     _VUP_PRG_NG_DAT         .SRES           2               ; 2006/12/26 V05
 7370 0000003A 00000002           648     _VUP_PRG_RETRY_CNT      .SRES           2               ; 2006/12/26 V05
 7371 0000003C 00000002           649     _VUP_PRG_NON_SUM_CODE   .SRES           2               ; 2006/12/26 V05
 7372                             650     
 7373                             651     
 7374 00000650                    652             .SECTION        PvupROM,CODE,ALIGN=4
 7375                             653     ;       ----------------------------------------------------------------------------------
*** SuperH RISC engine ASSEMBLER V.7.01.02.000 ***    12/13/20 18:20:45                                                  PAGE    24
PROGRAM NAME =

                                          ---
 7376                             654     ;       -----                                                                           --
                                          ---
 7377                             655     ;       -----   ＦＲＯＭへ消去コマンド発行                                              --
                                          ---
 7378                             656     ;       -----                                                                           --
                                          ---
 7379                             657     ;       -----   Input   : R13 <- _from_top                                              --
                                          ---
 7380                             658     ;       -----   Input   : R8 <- 消去するｾｸﾀの先頭ｱﾄﾞﾚｽ                                  --
                                          ---
 7381                             659     ;       -----                                                                           --
                                          ---
 7382                             660     ;       ----------------------------------------------------------------------------------
                                          ---
 7383                             661             .EXPORT _FROM_ERASE_CMND
 7384 00000650                    662     _FROM_ERASE_CMND:
 7385                             663             SUB_START
 7386 00000650 4F22                   M           STS.L   PR,@-R15                ;[必要]
 7387                                 M   ;;;;;;; ADD     #-4,R15                 ;[不要?]
 7388                             664     
 7389 00000652 9122               665             MOV.W   #FROM_ERS_CMND_DAT0,R1
 7390 00000654 D213               666             MOV.L   #FROM_ERS_CMND_ADR0,R2
 7391 00000656 4200               667             SHLL    R2
 7392 00000658 32DC               668             ADD     R13,R2
 7393 0000065A 2211               669             MOV.W   R1,@R2                                  ; 消去ｺﾏﾝﾄﾞ1(AAH)
 7394 0000065C 0009               670             NOP
 7395                             671     
 7396 0000065E 911D               672             MOV.W   #FROM_ERS_CMND_DAT1,R1
 7397 00000660 D211               673             MOV.L   #FROM_ERS_CMND_ADR1,R2
 7398 00000662 4200               674             SHLL    R2
 7399 00000664 32DC               675             ADD     R13,R2
 7400 00000666 2211               676             MOV.W   R1,@R2                                  ; 消去ｺﾏﾝﾄﾞ2(55H)
 7401 00000668 0009               677             NOP
 7402                             678     
 7403 0000066A 9118               679             MOV.W   #FROM_ERS_CMND_DAT2,R1
 7404 0000066C D20D               680             MOV.L   #FROM_ERS_CMND_ADR2,R2
 7405 0000066E 4200               681             SHLL    R2
 7406 00000670 32DC               682             ADD     R13,R2
 7407 00000672 2211               683             MOV.W   R1,@R2                                  ; 消去ｺﾏﾝﾄﾞ3(80H)
 7408 00000674 0009               684             NOP
 7409                             685     
 7410 00000676 9110               686             MOV.W   #FROM_ERS_CMND_DAT3,R1
 7411 00000678 D20A               687             MOV.L   #FROM_ERS_CMND_ADR3,R2
 7412 0000067A 4200               688             SHLL    R2
 7413 0000067C 32DC               689             ADD     R13,R2
 7414 0000067E 2211               690             MOV.W   R1,@R2                                  ; 消去ｺﾏﾝﾄﾞ4(AAH)
 7415 00000680 0009               691             NOP
 7416                             692     
 7417 00000682 910B               693             MOV.W   #FROM_ERS_CMND_DAT4,R1
 7418 00000684 D208               694             MOV.L   #FROM_ERS_CMND_ADR4,R2
 7419 00000686 4200               695             SHLL    R2
 7420 00000688 32DC               696             ADD     R13,R2
 7421 0000068A 2211               697             MOV.W   R1,@R2                                  ; 消去ｺﾏﾝﾄﾞ5(55H)
 7422 0000068C 0009               698             NOP
 7423                             699     
 7424 0000068E 9107               700             MOV.W   #FROM_ERS_DAT11,R1                      ;
*** SuperH RISC engine ASSEMBLER V.7.01.02.000 ***    12/13/20 18:20:45                                                  PAGE    25
PROGRAM NAME =

 7425 00000690 2811               701             MOV.W   R1,@R8                                  ; 消すｾｸﾀの先頭ｱﾄﾞﾚｽに消去ｺﾏﾝﾄﾞﾗｲﾄ
 7426 00000692 0009               702             NOP
 7427                             703     
 7428                             704             SUB_END
 7429                                 M   ;;;;;;; ADD     #4,R15                  ;[不要?]
 7430 00000694 4F26                   M           LDS.L   @R15+,PR                ;[必要]
 7431                             705             M_RTS
 7432 00000696 000B                   M           RTS                             ;RTSの後ろの
 7433 00000698 0009                   M           NOP                             ;@R15+,PRはﾀﾞﾒ
 7434                             706     
 7435                             707     
 7436                             708     ;       ----------------------------------------------------------------------------------
                                          ---
 7437                             709     ;       -----                                                                           --
                                          ---
 7438                             710     ;       -----   ＦＲＯＭ消去時のポーリング                                              --
                                          ---
 7439                             711     ;       -----                                                                           --
                                          ---
 7440                             712     ;       -----   Input   : R8 <- 消去先頭ｱﾄﾞﾚｽ                                           --
                                          ---
 7441                             713     ;       -----                                                                           --
                                          ---
 7442                             714     ;       ----------------------------------------------------------------------------------
                                          ---
 7443                             715             .EXPORT _FROM_ERASE_POLLINKG
 7444                                     ***** BEGIN-POOL *****
 7445 0000069A 00AA                       DATA FOR SOURCE-LINE 665,686
 7446 0000069C 0055                       DATA FOR SOURCE-LINE 672,693
 7447 0000069E 0080                       DATA FOR SOURCE-LINE 679
 7448 000006A0 0030                       DATA FOR SOURCE-LINE 700
 7449 000006A2 0000                       ALIGNMENT CODE
 7450 000006A4 00000555                   DATA FOR SOURCE-LINE 666,680,687
 7451 000006A8 000002AA                   DATA FOR SOURCE-LINE 673,694
 7452                                     ***** END-POOL *****
 7453 000006AC                    716     _FROM_ERASE_POLLINKG:
 7454                             717             SUB_START
 7455 000006AC 4F22                   M           STS.L   PR,@-R15                ;[必要]
 7456                                 M   ;;;;;;; ADD     #-4,R15                 ;[不要?]
 7457                             718     
 7458 000006AE                    719     _FEP_050:
 7459                             720             _WDT_CLR R1,R2,R3
 7460                                 M           DI_PUSH_SR_SH3  R1, R2
 7461 000006AE 0102                   M           STC     SR,R1                   ;
 7462 000006B0 9217                   M           MOV.W   #H'000000F0,R2          ;
 7463 000006B2 212B                   M           OR      R2,R1           ;INT15
 7464 000006B4 4F03                   M           STC.L   SR,@-R15                        ;PUSH SR
 7465 000006B6 410E                   M           LDC     R1,SR                   ;割込禁止（15）
 7466                                 M   
 7467 000006B8 D20B                   M           MOV.L   #_PDTRB,R2
 7468 000006BA 6121                   M           MOV.W   @R2,R1  ;R0:
 7469 000006BC 9312                   M           MOV.W   #BIT2,R3                ;
 7470 000006BE 213A                   M           XOR     R3,R1   ;
 7471 000006C0 2211                   M           MOV.W   R1,@R2  ;output
 7472                                 M   
 7473 000006C2 213A                   M           XOR     R3,R1   ;
 7474 000006C4 2211                   M           MOV.W   R1,@R2  ;output
*** SuperH RISC engine ASSEMBLER V.7.01.02.000 ***    12/13/20 18:20:45                                                  PAGE    26
PROGRAM NAME =

 7475                                 M   
 7476 000006C6 213A                   M           XOR     R3,R1   ;
 7477 000006C8 2211                   M           MOV.W   R1,@R2  ;output
 7478                                 M   
 7479                                 M           EI_POP_SR_SH3                   ;
 7480 000006CA 4F07                   M           LDC.L   @R15+,SR                        ;POP SR
 7481                             721     
 7482 000006CC 6081               722             MOV.W   @R8,R0
 7483 000006CE 6103               723             MOV     R0,R1
 7484 000006D0 C980               724             AND     #BIT7,R0
 7485 000006D2 2008               725             TST     R0,R0
 7486 000006D4 8B11               726             BF      _FEP_END
 7487                             727     
 7488 000006D6 6013               728             MOV     R1,R0
 7489 000006D8 C920               729             AND     #BIT5,R0
 7490 000006DA 2008               730             TST     R0,R0
 7491 000006DC 8B06               731             BF      _FEP_100
 7492                             732     
 7493                             733             M_BRA   _FEP_050
 7494 000006DE AFE6                   M           BRA     _FEP_050
 7495 000006E0 0009                   M           NOP
 7496                             734     
 7497                                     ***** BEGIN-POOL *****
 7498 000006E2 00F0                       DATA FOR SOURCE-LINE 720
 7499 000006E4 0004                       DATA FOR SOURCE-LINE 720
 7500 000006E6 0000                       ALIGNMENT CODE
 7501 000006E8 00000000                   DATA FOR SOURCE-LINE 720
 7502                                     ***** END-POOL *****
 7503 000006EC                    735     _FEP_100:
 7504 000006EC 6081               736             MOV.W   @R8,R0
 7505 000006EE C980               737             AND     #BIT7,R0
 7506 000006F0 2008               738             TST     R0,R0
 7507 000006F2 8B02               739             BF      _FEP_END
 7508                             740     
 7509 000006F4                    741     _FEP_ERR:                                               ; FROM消去ｴﾗｰ
 7510                             742     ;//SIT4-MC      _WDT_CLR R1,R2,R3
 7511                             743     ;//SIT4-MC      M_BRA   _FEP_ERR
 7512 000006F4 D002               744             MOV.L   #1,R0
 7513 000006F6 DA03               745             MOV.L   #_VUP_PRG_NG_DAT,R10
 7514 000006F8 2A01               746             MOV.W   R0,@R10
 7515                             747     
 7516 000006FA                    748     _FEP_END:
 7517                             749             SUB_END
 7518                                 M   ;;;;;;; ADD     #4,R15                  ;[不要?]
 7519 000006FA 4F26                   M           LDS.L   @R15+,PR                ;[必要]
 7520                             750             M_RTS
 7521 000006FC 000B                   M           RTS                             ;RTSの後ろの
 7522 000006FE 0009                   M           NOP                             ;@R15+,PRはﾀﾞﾒ
 7523                             751     
 7524                             752     
 7525                             753     ;       ----------------------------------------------------------------------------------
                                          ---
 7526                             754     ;       -----                                                                           --
                                          ---
 7527                             755     ;       -----   ＦＲＯＭへ書込みコマンド発行                                            --
                                          ---
 7528                             756     ;       -----                                                                           --
*** SuperH RISC engine ASSEMBLER V.7.01.02.000 ***    12/13/20 18:20:45                                                  PAGE    27
PROGRAM NAME =

                                          ---
 7529                             757     ;       -----   Input   : R13 <- _from_top                                              --
                                          ---
 7530                             758     ;       -----                                                                           --
                                          ---
 7531                             759     ;       ----------------------------------------------------------------------------------
                                          ---
 7532                             760             .EXPORT _FROM_WRITE_CMND
 7533                                     ***** BEGIN-POOL *****
 7534 00000700 00000001                   DATA FOR SOURCE-LINE 744
 7535 00000704 00000000                   DATA FOR SOURCE-LINE 745
 7536                                     ***** END-POOL *****
 7537 00000708                    761     _FROM_WRITE_CMND:
 7538                             762             SUB_START
 7539 00000708 4F22                   M           STS.L   PR,@-R15                ;[必要]
 7540                                 M   ;;;;;;; ADD     #-4,R15                 ;[不要?]
 7541                             763     
 7542 0000070A 9113               764             MOV.W   #FROM_WR_CMND_DAT0,R1
 7543 0000070C D20B               765             MOV.L   #FROM_WR_CMND_ADR0,R2
 7544 0000070E 4200               766             SHLL    R2
 7545 00000710 32DC               767             ADD     R13,R2
 7546 00000712 2211               768             MOV.W   R1,@R2
 7547 00000714 0009               769             NOP
 7548                             770     
 7549 00000716 910E               771             MOV.W   #FROM_WR_CMND_DAT1,R1
 7550 00000718 D209               772             MOV.L   #FROM_WR_CMND_ADR1,R2
 7551 0000071A 4200               773             SHLL    R2
 7552 0000071C 32DC               774             ADD     R13,R2
 7553 0000071E 2211               775             MOV.W   R1,@R2
 7554 00000720 0009               776             NOP
 7555                             777     
 7556 00000722 9109               778             MOV.W   #FROM_WR_CMND_DAT2,R1
 7557 00000724 D205               779             MOV.L   #FROM_WR_CMND_ADR2,R2
 7558 00000726 4200               780             SHLL    R2
 7559 00000728 32DC               781             ADD     R13,R2
 7560 0000072A 2211               782             MOV.W   R1,@R2
 7561 0000072C 0009               783             NOP
 7562                             784     
 7563                             785             SUB_END
 7564                                 M   ;;;;;;; ADD     #4,R15                  ;[不要?]
 7565 0000072E 4F26                   M           LDS.L   @R15+,PR                ;[必要]
 7566                             786             M_RTS
 7567 00000730 000B                   M           RTS                             ;RTSの後ろの
 7568 00000732 0009                   M           NOP                             ;@R15+,PRはﾀﾞﾒ
 7569                             787     
 7570                             788     
 7571                             789     ;       ----------------------------------------------------------------------------------
                                          ---
 7572                             790     ;       -----                                                                           --
                                          ---
 7573                             791     ;       -----                                                                           --
                                          ---
 7574                             792     ;       -----   ＦＲＯＭ書込み時のポーリング                                            --
                                          ---
 7575                             793     ;       -----                                                                           --
                                          ---
 7576                             794     ;       -----                                                                           --
*** SuperH RISC engine ASSEMBLER V.7.01.02.000 ***    12/13/20 18:20:45                                                  PAGE    28
PROGRAM NAME =

                                          ---
 7577                             795     ;       ----------------------------------------------------------------------------------
                                          ---
 7578                             796             .EXPORT _FROM_WRITE_POLLINKG
 7579                                     ***** BEGIN-POOL *****
 7580 00000734 00AA                       DATA FOR SOURCE-LINE 764
 7581 00000736 0055                       DATA FOR SOURCE-LINE 771
 7582 00000738 00A0                       DATA FOR SOURCE-LINE 778
 7583 0000073A 0000                       ALIGNMENT CODE
 7584 0000073C 00000555                   DATA FOR SOURCE-LINE 765,779
 7585 00000740 000002AA                   DATA FOR SOURCE-LINE 772
 7586                                     ***** END-POOL *****
 7587 00000744                    797     _FROM_WRITE_POLLINKG:
 7588                             798             SUB_START
 7589 00000744 4F22                   M           STS.L   PR,@-R15                ;[必要]
 7590                                 M   ;;;;;;; ADD     #-4,R15                 ;[不要?]
 7591                             799     
 7592 00000746                    800     _FWP_050:
 7593                             801             _WDT_CLR R1,R2,R3
 7594                                 M           DI_PUSH_SR_SH3  R1, R2
 7595 00000746 0102                   M           STC     SR,R1                   ;
 7596 00000748 921B                   M           MOV.W   #H'000000F0,R2          ;
 7597 0000074A 212B                   M           OR      R2,R1           ;INT15
 7598 0000074C 4F03                   M           STC.L   SR,@-R15                        ;PUSH SR
 7599 0000074E 410E                   M           LDC     R1,SR                   ;割込禁止（15）
 7600                                 M   
 7601 00000750 D20D                   M           MOV.L   #_PDTRB,R2
 7602 00000752 6121                   M           MOV.W   @R2,R1  ;R0:
 7603 00000754 9316                   M           MOV.W   #BIT2,R3                ;
 7604 00000756 213A                   M           XOR     R3,R1   ;
 7605 00000758 2211                   M           MOV.W   R1,@R2  ;output
 7606                                 M   
 7607 0000075A 213A                   M           XOR     R3,R1   ;
 7608 0000075C 2211                   M           MOV.W   R1,@R2  ;output
 7609                                 M   
 7610 0000075E 213A                   M           XOR     R3,R1   ;
 7611 00000760 2211                   M           MOV.W   R1,@R2  ;output
 7612                                 M   
 7613                                 M           EI_POP_SR_SH3                   ;
 7614 00000762 4F07                   M           LDC.L   @R15+,SR                        ;POP SR
 7615                             802     
 7616 00000764 D409               803             MOV.L   #H'80,R4
 7617 00000766 6181               804             MOV.W   @R8,R1
 7618 00000768 6313               805             MOV     R1,R3
 7619 0000076A 2349               806             AND     R4,R3                                   ; 読んだD7
 7620                             807     
 7621 0000076C 6203               808             MOV     R0,R2
 7622 0000076E 2249               809             AND     R4,R2                                   ; 書込んだD7
 7623                             810     
 7624 00000770 3320               811             CMP/EQ  R2,R3                                   ; 書込んだD7と読んだD7同じ？
 7625 00000772 8918               812             BT      _FWP_END                                ; はい
 7626                             813     
 7627 00000774 D406               814             MOV.L   #H'20,R4
 7628 00000776 6313               815             MOV     R1,R3
 7629 00000778 2349               816             AND     R4,R3                                   ; 読んだD5
 7630 0000077A 2338               817             TST     R3,R3                                   ; 読んだD5が１？
 7631 0000077C 8B0A               818             BF      _FWP_100                                ; はい
*** SuperH RISC engine ASSEMBLER V.7.01.02.000 ***    12/13/20 18:20:45                                                  PAGE    29
PROGRAM NAME =

 7632                             819     
 7633                             820             M_BRA   _FWP_050                                ; いいえ
 7634 0000077E AFE2                   M           BRA     _FWP_050
 7635 00000780 0009                   M           NOP
 7636                             821     
 7637                                     ***** BEGIN-POOL *****
 7638 00000782 00F0                       DATA FOR SOURCE-LINE 801
 7639 00000784 0004                       DATA FOR SOURCE-LINE 801
 7640 00000786 0000                       ALIGNMENT CODE
 7641 00000788 00000000                   DATA FOR SOURCE-LINE 801
 7642 0000078C 00000080                   DATA FOR SOURCE-LINE 803
 7643 00000790 00000020                   DATA FOR SOURCE-LINE 814
 7644                                     ***** END-POOL *****
 7645 00000794                    822     _FWP_100:
 7646 00000794 D405               823             MOV.L   #H'80,R4
 7647 00000796 6181               824             MOV.W   @R8,R1
 7648 00000798 6313               825             MOV     R1,R3
 7649 0000079A 2349               826             AND     R4,R3                                   ; 読んだD7
 7650                             827     
 7651 0000079C 3320               828             CMP/EQ  R2,R3                                   ; 書込んだD7と読んだD7同じ？（再チ
                                          ェック）
 7652 0000079E 8902               829             BT      _FWP_END                                ; はい
 7653                             830     
 7654 000007A0                    831     _FWP_ERR:                                               ; WRITEｴﾗｰ
 7655                             832     ;//SIT4-MC      _WDT_CLR R1,R2,R3
 7656                             833     ;//SIT4-MC      M_BRA   _FWP_ERR
 7657 000007A0 D003               834             MOV.L   #2,R0
 7658 000007A2 DA04               835             MOV.L   #_VUP_PRG_NG_DAT,R10
 7659 000007A4 2A01               836             MOV.W   R0,@R10
 7660                             837     
 7661 000007A6                    838     _FWP_END:
 7662                             839             SUB_END
 7663                                 M   ;;;;;;; ADD     #4,R15                  ;[不要?]
 7664 000007A6 4F26                   M           LDS.L   @R15+,PR                ;[必要]
 7665                             840             M_RTS
 7666 000007A8 000B                   M           RTS                             ;RTSの後ろの
 7667 000007AA 0009                   M           NOP                             ;@R15+,PRはﾀﾞﾒ
 7668                             841     
 7669                             842     
 7670                             843     ;       ----------------------------------------------------------------------------------
                                          ---
 7671                             844     ;       -----                                                                           --
                                          ---
 7672                             845     ;       -----                                                                           --
                                          ---
 7673                             846     ;       -----   ＦＲＯＭセクタテーブル                                                  --
                                          ---
 7674                             847     ;       -----                                                                           --
                                          ---
 7675                             848     ;       -----                                                                           --
                                          ---
 7676                             849     ;       ----------------------------------------------------------------------------------
                                          ---
 7677                                     ***** BEGIN-POOL *****
 7678 000007AC 00000080                   DATA FOR SOURCE-LINE 823
 7679 000007B0 00000002                   DATA FOR SOURCE-LINE 834
 7680 000007B4 00000000                   DATA FOR SOURCE-LINE 835
*** SuperH RISC engine ASSEMBLER V.7.01.02.000 ***    12/13/20 18:20:45                                                  PAGE    30
PROGRAM NAME =

 7681                                     ***** END-POOL *****
 7682 000007B8                    850             .ALIGN  4
 7683 000007B8                    851     _FROM_SECT_TBL00:
 7684 000007B8 A0000000           852             .DATA.L         H'A0000000                      ; ｾｸﾀ0  16kb
 7685 000007BC A0004000           853             .DATA.L         H'A0004000                      ; ｾｸﾀ1  8kb
 7686 000007C0 A0006000           854             .DATA.L         H'A0006000                      ; ｾｸﾀ2  8kb
 7687 000007C4                    855     _FROM_SECT_TBL03:
 7688 000007C4 A0008000           856             .DATA.L         H'A0008000                      ; ｾｸﾀ3  32kb
 7689 000007C8 A0010000           857             .DATA.L         H'A0010000                      ; ｾｸﾀ4  64kb
 7690 000007CC A0020000           858             .DATA.L         H'A0020000                      ; ｾｸﾀ5  64kb
 7691 000007D0 A0030000           859             .DATA.L         H'A0030000                      ; ｾｸﾀ6  64kb
 7692 000007D4 A0040000           860             .DATA.L         H'A0040000                      ; ｾｸﾀ7  64kb
 7693 000007D8 A0050000           861             .DATA.L         H'A0050000                      ; ｾｸﾀ8  64kb
 7694 000007DC A0060000           862             .DATA.L         H'A0060000                      ; ｾｸﾀ9  64kb
 7695 000007E0                    863     _FROM_SECT_TBL_SEQ:
 7696 000007E0 A0070000           864             .DATA.L         H'A0070000                      ; ｾｸﾀ10 64kb
 7697 000007E4 A0080000           865             .DATA.L         H'A0080000                      ; ｾｸﾀ11 64kb
 7698 000007E8 A0090000           866             .DATA.L         H'A0090000                      ; ｾｸﾀ12 64kb
 7699 000007EC A00A0000           867             .DATA.L         H'A00a0000                      ; ｾｸﾀ13 64kb
 7700 000007F0                    868     _FROM_SECT_TBL_SYSA:
 7701 000007F0 A00B0000           869             .DATA.L         H'A00b0000                      ; ｾｸﾀ14 64kb
 7702 000007F4                    870     _FROM_SECT_TBL_SENA:
 7703 000007F4 A00C0000           871             .DATA.L         H'A00c0000                      ; ｾｸﾀ15 64kb
 7704 000007F8 A00D0000           872             .DATA.L         H'A00d0000                      ; ｾｸﾀ16 64kb
 7705 000007FC A00E0000           873             .DATA.L         H'A00e0000                      ; ｾｸﾀ17 64kb
 7706 00000800 A00F0000           874             .DATA.L         H'A00f0000                      ; ｾｸﾀ18 64kb
 7707 00000804 A0100000           875             .DATA.L         H'A0100000                      ; DUMMY
 7708                             876     
 7709 00000808                    877     _FROM_SECT_TBLP00:
 7710 00000808 B0000000           878             .DATA.L         H'B0000000                      ; ｾｸﾀ0  16kb
 7711 0000080C B0004000           879             .DATA.L         H'B0004000                      ; ｾｸﾀ1  8kb
 7712 00000810 B0006000           880             .DATA.L         H'B0006000                      ; ｾｸﾀ2  8kb
 7713 00000814                    881     _FROM_SECT_TBLP03:
 7714 00000814 B0008000           882             .DATA.L         H'B0008000                      ; ｾｸﾀ3  32kb
 7715 00000818 B0010000           883             .DATA.L         H'B0010000                      ; ｾｸﾀ4  64kb
 7716 0000081C B0020000           884             .DATA.L         H'B0020000                      ; ｾｸﾀ5  64kb
 7717 00000820 B0030000           885             .DATA.L         H'B0030000                      ; ｾｸﾀ6  64kb
 7718 00000824 B0040000           886             .DATA.L         H'B0040000                      ; ｾｸﾀ7  64kb
 7719 00000828 B0050000           887             .DATA.L         H'B0050000                      ; ｾｸﾀ8  64kb
 7720 0000082C B0060000           888             .DATA.L         H'B0060000                      ; ｾｸﾀ9  64kb
 7721 00000830                    889     _FROM_SECT_TBLP_SEQ:
 7722 00000830 B0070000           890             .DATA.L         H'B0070000                      ; ｾｸﾀ10 64kb
 7723 00000834 B0080000           891             .DATA.L         H'B0080000                      ; ｾｸﾀ11 64kb
 7724 00000838 B0090000           892             .DATA.L         H'B0090000                      ; ｾｸﾀ12 64kb
 7725 0000083C B00A0000           893             .DATA.L         H'B00a0000                      ; ｾｸﾀ13 64kb
 7726 00000840                    894     _FROM_SECT_TBLP_SYSA:
 7727 00000840 B00B0000           895             .DATA.L         H'B00b0000                      ; ｾｸﾀ14 64kb
 7728 00000844                    896     _FROM_SECT_TBLP_SENA:
 7729 00000844 B00C0000           897             .DATA.L         H'B00c0000                      ; ｾｸﾀ15 64kb
 7730 00000848 B00D0000           898             .DATA.L         H'B00d0000                      ; ｾｸﾀ16 64kb
 7731 0000084C B00E0000           899             .DATA.L         H'B00e0000                      ; ｾｸﾀ17 64kb
 7732 00000850 B00F0000           900             .DATA.L         H'B00f0000                      ; ｾｸﾀ18 64kb
 7733 00000854 B0100000           901             .DATA.L         H'B0100000                      ; DUMMY
 7734                             902     
 7735                             903     
 7736                             904     ;★★★★★★★★★★★★★★★★★★★★★★★★★★★★★★★★★★★★★★★★★★★★
                                          ★★★★★★★★★★★★
*** SuperH RISC engine ASSEMBLER V.7.01.02.000 ***    12/13/20 18:20:45                                                  PAGE    31
PROGRAM NAME =

 7737 00000000                    905             .SECTION        PvupRAM,CODE,ALIGN=4
 7738                             906     
 7739                             907     
 7740                             908             .END
  *****TOTAL ERRORS       0
  *****TOTAL WARNINGS     0
*** SuperH RISC engine ASSEMBLER V.7.01.02.000 ***    12/13/20 18:20:45                                                  PAGE    32

*** CROSS REFERENCE LIST

NAME                             SECTION  ATTR VALUE             SEQUENCE

API_VUP_SIG_CHK_END              PvupROM       000000DC   6358  6360*
BIT0                                      EQU  00000001     14* 6377  6684 
BIT1                                      EQU  00000002     15* 6723  6760 
BIT10                                     EQU  00000400     24*
BIT11                                     EQU  00000800     25*
BIT12                                     EQU  00001000     26*
BIT13                                     EQU  00002000     27*
BIT14                                     EQU  00004000     28*
BIT15                                     EQU  00008000     29*
BIT16                                     EQU  00010000     30*
BIT17                                     EQU  00020000     31*
BIT18                                     EQU  00040000     32*
BIT19                                     EQU  00080000     33*
BIT2                                      EQU  00000004     16* 6210  6781  6897  7014  7233  7469  7603 
BIT20                                     EQU  00100000     34*
BIT21                                     EQU  00200000     35*
BIT22                                     EQU  00400000     36*
BIT23                                     EQU  00800000     37*
BIT24                                     EQU  01000000     38*
BIT25                                     EQU  02000000     39*
BIT26                                     EQU  04000000     40*
BIT27                                     EQU  08000000     41*
BIT28                                     EQU  10000000     42*
BIT29                                     EQU  20000000     43*
BIT3                                      EQU  00000008     17*
BIT30                                     EQU  40000000     44*
BIT31                                     EQU  80000000     45*
BIT4                                      EQU  00000010     18*
BIT5                                      EQU  00000020     19* 7489 
BIT6                                      EQU  00000040     20*
BIT7                                      EQU  00000080     21* 7484  7505 
BIT8                                      EQU  00000100     22*
BIT9                                      EQU  00000200     23*
Bvupwkram                        Bvupwkra SCT  00000000   7360*
FROM_DUMMY_ADR0                           EQU  00000000   5826*
FROM_ERS_ADR_BL0_0                        EQU  00000000   5842*
FROM_ERS_ADR_BL0_1                        EQU  00004000   5843*
FROM_ERS_ADR_BL0_2                        EQU  00006000   5844*
FROM_ERS_ADR_BL0_3                        EQU  00008000   5845*
FROM_ERS_ADR_BL1                          EQU  00010000   5846*
FROM_ERS_ADR_BL2                          EQU  00020000   5847*
FROM_ERS_ADR_BL3                          EQU  00030000   5848*
FROM_ERS_ADR_BL4                          EQU  00040000   5849*
FROM_ERS_ADR_BL5                          EQU  00050000   5850*
FROM_ERS_ADR_BL6                          EQU  00060000   5851*
FROM_ERS_ADR_BL7                          EQU  00070000   5852*
FROM_ERS_ADR_BL8                          EQU  00080000   5853*
FROM_ERS_ADR_BL9                          EQU  00090000   5854*
FROM_ERS_ADR_BLA                          EQU  000A0000   5855*
FROM_ERS_ADR_BLB                          EQU  000B0000   5856*
FROM_ERS_ADR_BLC                          EQU  000C0000   5857*
FROM_ERS_ADR_BLD                          EQU  000D0000   5858*
FROM_ERS_ADR_BLE                          EQU  000E0000   5859*
FROM_ERS_ADR_BLF                          EQU  000F0000   5860*
*** SuperH RISC engine ASSEMBLER V.7.01.02.000 ***    12/13/20 18:20:45                                                  PAGE    33

*** CROSS REFERENCE LIST

NAME                             SECTION  ATTR VALUE             SEQUENCE

FROM_ERS_CMND_ADR0                        EQU  00000555   5828* 7390 
FROM_ERS_CMND_ADR1                        EQU  000002AA   5829* 7397 
FROM_ERS_CMND_ADR2                        EQU  00000555   5830* 7404 
FROM_ERS_CMND_ADR3                        EQU  00000555   5831* 7411 
FROM_ERS_CMND_ADR4                        EQU  000002AA   5832* 7418 
FROM_ERS_CMND_ADR5                        EQU  00000555   5833*
FROM_ERS_CMND_DAT0                        EQU  000000AA   5834* 7389 
FROM_ERS_CMND_DAT1                        EQU  00000055   5835* 7396 
FROM_ERS_CMND_DAT2                        EQU  00000080   5836* 7403 
FROM_ERS_CMND_DAT3                        EQU  000000AA   5837* 7410 
FROM_ERS_CMND_DAT4                        EQU  00000055   5838* 7417 
FROM_ERS_CMND_DAT5                        EQU  00000010   5839*
FROM_ERS_DAT11                            EQU  00000030   5841* 7424 
FROM_WR_CMND_ADR0                         EQU  00000555   5862* 7543 
FROM_WR_CMND_ADR1                         EQU  000002AA   5863* 7550 
FROM_WR_CMND_ADR2                         EQU  00000555   5864* 7557 
FROM_WR_CMND_DAT0                         EQU  000000AA   5865* 7542 
FROM_WR_CMND_DAT1                         EQU  00000055   5866* 7549 
FROM_WR_CMND_DAT2                         EQU  000000A0   5867* 7556 
GA1_PFEX                                  EQU  00000084   2127*
GA1_PGEX                                  EQU  00000000   2154*
GA1_PHEX                                  EQU  00000000   2166*
GA2_PFEX                                  EQU  000000D0   2614*
GA2_PGEX                                  EQU  00000061   2651*
GA2_PHEX                                  EQU  00000000   2675*
HEAD_END                                  EQU  0000000A   5791*
H_BYTE                                    EQU  00000000     81*
L_BYTE                                    EQU  00000001     80*
NBIT0                                     EQU  000000FE     48*
NBIT1                                     EQU  000000FD     49* 7039 
NBIT10                                    EQU  0000FBFF     59*
NBIT11                                    EQU  0000F7FF     60*
NBIT12                                    EQU  0000EFFF     61*
NBIT13                                    EQU  0000DFFF     62*
NBIT14                                    EQU  0000BFFF     63*
NBIT15                                    EQU  00007FFF     64*
NBIT2                                     EQU  000000FB     50* 7064 
NBIT3                                     EQU  000000F7     51*
NBIT4                                     EQU  000000EF     52*
NBIT5                                     EQU  000000DF     53*
NBIT6                                     EQU  000000BF     54*
NBIT7                                     EQU  0000007F     55*
NBIT8                                     EQU  0000FEFF     57*
NBIT9                                     EQU  0000FDFF     58*
PvupRAM                          PvupRAM  SCT  00000000   7737*
PvupROM                          PvupROM  SCT  00000000   6108* 7374*
RTS_FLG                                   EQU  00000014   5796*
RXD_BUF_POI                               EQU  00000004   5788*
RXD_CNT                                   EQU  00000002   5787*
RX_END                                    EQU  0000000C   5792*
RX_ERR                                    EQU  0000000E   5793*
RX_TIMER                                  EQU  00000012   5795*
RX_TIMOUT_FLG                             EQU  00000010   5794*
SCI0_WKRAM_RE11                           EQU  00000016   5797*
*** SuperH RISC engine ASSEMBLER V.7.01.02.000 ***    12/13/20 18:20:45                                                  PAGE    34

*** CROSS REFERENCE LIST

NAME                             SECTION  ATTR VALUE             SEQUENCE

SCI0_WKRAM_RE12                           EQU  00000018   5798*
SCI0_WKRAM_RE13                           EQU  0000001A   5799*
SCI0_WKRAM_RE14                           EQU  0000001C   5800*
SCI0_WKRAM_RE15                           EQU  0000001E   5801*
SR_Init                                   EQU  000000F0   5956*
SR_Init_DI                                EQU  400000F0   5957* 6387 
TXD_BUF_POI                               EQU  00000008   5790*
TXD_CNT                                   EQU  00000006   5789*
VUP_DATA_WR_PC                            EQU  00000006   5766* 6791  7009  7010  7056  7060 
VUP_DATA_WR_SH                            EQU  00000016   5774*
VUP_END_PC                                EQU  00000004   5765*
VUP_END_SH                                EQU  00000014   5773*
VUP_REV1_PC                               EQU  00000008   5767* 6733  6755  6756  7031  7035 
VUP_REV1_SH                               EQU  00000018   5775* 6707 
VUP_REV2_PC                               EQU  0000000A   5768* 6737 
VUP_REV2_SH                               EQU  0000001A   5776*
VUP_REV3_PC                               EQU  0000000C   5769*
VUP_REV3_SH                               EQU  0000001C   5777*
VUP_REV4_PC                               EQU  0000000E   5770*
VUP_REV4_SH                               EQU  0000001E   5778*
VUP_SEL_PC                                EQU  00000000   5763* 6394  7184 
VUP_SEL_SH                                EQU  00000010   5771*
VUP_START                                 EQU  00000000   5786* 6228  6390 
VUP_STR_PC                                EQU  00000002   5764* 6324  6328  6356  6680  6681 
VUP_STR_SH                                EQU  00000012   5772*
XBIT0                                     EQU  00000000     67*
XBIT1                                     EQU  00000001     68*
XBIT2                                     EQU  00000002     69*
XBIT3                                     EQU  00000003     70*
XBIT4                                     EQU  00000004     71*
XBIT5                                     EQU  00000005     72*
XBIT6                                     EQU  00000006     73*
XBIT7                                     EQU  00000007     74*
_ADRH                                     EQU  00000016   5752*
_ADRL                                     EQU  00000014   5750*
_ADRM                                     EQU  00000015   5751*
_API_VUP_SIG_CHECK               PvupROM  EXPT 000000D0   6343  6351*
_AREA_SEL                                 EQU  00000013   5749*
_ASM_VUP_M000                    PvupROM       00000034   6199* 6231 
_ASM_VUP_MAIN                    PvupROM  EXPT 00000000   6110  6111*
_ATOB_KJYUALL_SMPCLR                      IMPT 00000000   3027 
_ATOB_KJYUALL_SMPSTART                    IMPT 00000000   3028 
_ATOB_KJYUTRD_SMPCLR                      IMPT 00000000   3031 
_ATOB_KJYUTRD_SMPSTART                    IMPT 00000000   3032 
_BAMRA                                    IMPT 00000000    301 
_BAMRB                                    IMPT 00000000    304 
_BARA                                     IMPT 00000000    300 
_BARB                                     IMPT 00000000    303 
_BASRA                                    IMPT 00000000    289 
_BASRB                                    IMPT 00000000    290 
_BBRA                                     IMPT 00000000    302 
_BBRB                                     IMPT 00000000    305 
_BCR1                                     IMPT 00000000    311 
_BCR2                                     IMPT 00000000    312 
*** SuperH RISC engine ASSEMBLER V.7.01.02.000 ***    12/13/20 18:20:45                                                  PAGE    35

*** CROSS REFERENCE LIST

NAME                             SECTION  ATTR VALUE             SEQUENCE

_BDMRB                                    IMPT 00000000    307 
_BDRB                                     IMPT 00000000    306 
_BRCR                                     IMPT 00000000    308 
_BTOA_LFT_HAB                             IMPT 00000000   3048 
_BTOA_LFT_MAX                             IMPT 00000000   3046 
_BTOA_LFT_MIN                             IMPT 00000000   3047 
_BTOA_LFT_TRDHAB                          IMPT 00000000   3061 
_BTOA_LFT_TRDMAX                          IMPT 00000000   3059 
_BTOA_LFT_TRDMIN                          IMPT 00000000   3060 
_BTOA_RIH_HAB                             IMPT 00000000   3052 
_BTOA_RIH_MAX                             IMPT 00000000   3050 
_BTOA_RIH_MIN                             IMPT 00000000   3051 
_BTOA_RIH_TRDHAB                          IMPT 00000000   3065 
_BTOA_RIH_TRDMAX                          IMPT 00000000   3063 
_BTOA_RIH_TRDMIN                          IMPT 00000000   3064 
_BTOA_TTL_HAB                             IMPT 00000000   3056 
_BTOA_TTL_MAX                             IMPT 00000000   3054 
_BTOA_TTL_MIN                             IMPT 00000000   3055 
_BTOA_TTL_TRDHAB                          IMPT 00000000   3069 
_BTOA_TTL_TRDMAX                          IMPT 00000000   3067 
_BTOA_TTL_TRDMIN                          IMPT 00000000   3068 
_BYTENH                                   EQU  00000012   5748*
_BYTENL                                   EQU  00000011   5747*
_CB2HMI_LDCMD_DAT                         IMPT 00000000   4614 
_CB2HMI_LDCMD_FLG                         IMPT 00000000   4613 
_CB_BAKUP_CMD1                            EQU  00005678    113*
_CB_BAKUP_CMD2                            EQU  00001234    114*
_CB_BAK_SUM_COD1                          EQU  5AA51234    111*
_CB_BAK_SUM_COD2                          EQU  A55A4321    112*
_CB_ERR_INFO_MEM                          EQU  00000080    137*
_CB_ERR_INFO_PSIZE                        EQU  00000008    138*
_CB_STS_BUF_1BLK                          EQU  00000040    116*  118 
_CB_STS_BUF_BLKMAX                        EQU  00000008    117*  118 
_CB_STS_BUF_MAX                           EQU  00000200    118*
_CB_STS_SAVE_FLG                          IMPT 00000000   3194 
_CB_SYS_SIZE                              EQU  00010000   5816* 6636 
_CB_TBL_SIZE                              EQU  00040000   5813* 6539 
_CB_TRD_BEFORE                            EQU  00000060    126*
_CB_TRD_BUF_DP_MAX                        EQU  00000080    130*
_CB_TRD_BUF_MAX                           EQU  00000800    127*
_CB_TRD_DP_1CNT                           EQU  00000008    129*
_CB_TRD_DP_CH                             EQU  00000004    122*
_CB_TRD_SAVE_FLG                          IMPT 00000000   3195 
_CB_TRD_SMP_CNT                           EQU  00000080    125*
_CCR                                      IMPT 00000000    291 
_CHCR0                                    IMPT 00000000    332 
_CHCR1                                    IMPT 00000000    336 
_CHCR2                                    IMPT 00000000    340 
_CHCR3                                    IMPT 00000000    344 
_CMD_1CYCLE_DSP1                          IMPT 00000000   3198 
_CMD_DAIPOS_DSP1                          IMPT 00000000   3199 
_CMD_KJTECH_DSP1                          IMPT 00000000   3202 
_CMND                                     EQU  0000000D   5743*
_CPA_SHTDAT2                              IMPT 00000000   4621 
*** SuperH RISC engine ASSEMBLER V.7.01.02.000 ***    12/13/20 18:20:45                                                  PAGE    36

*** CROSS REFERENCE LIST

NAME                             SECTION  ATTR VALUE             SEQUENCE

_CPA_SMPDAT2                              IMPT 00000000   4620 
_CPUAB_HS_VUP_64KE                        EQU  00000014   5931*
_CPUAB_HS_VUP_64KE_CODE                   EQU  A55A6789   5940*
_CPUAB_HS_VUP_8KE                         EQU  00000010   5930*
_CPUAB_HS_VUP_8KE_CODE                    EQU  9876A55A   5939*
_CPUAB_HS_VUP_BLK0                        EQU  00000008   5928*
_CPUAB_HS_VUP_BLK1                        EQU  0000000C   5929*
_CPUAB_HS_VUP_SEL                         EQU  00000000   5926*
_CPUAB_HS_VUP_STR                         EQU  00000004   5927*
_CPUAB_HS_VUP_STR_CODE                    EQU  12345AA5   5938*
_CPUATOB_STS_SAVECMD                      IMPT 00000000   4259 
_CPUATOB_STS_SAVEDAT1                     IMPT 00000000   4260 
_CPUATOB_STS_SAVEDAT2                     IMPT 00000000   4261 
_CPUATOB_STS_SAVEDAT3                     IMPT 00000000   4262 
_CPUATOD_1CYCL_SIG                        IMPT 00000000   5685 
_CPUA_CONT_MOD_CNT_PV                     IMPT 00000000   3106 
_CPUA_DNM_DIR_NOW                         IMPT 00000000   3095 
_CPUA_DNM_DIR_SET                         IMPT 00000000   3094 
_CPUA_DP_SIZEHCK_END                      IMPT 00000000   5712 
_CPUA_IRQ_ERR_INT_CNT1                    IMPT 00000000   2968 
_CPUA_IRQ_ERR_INT_CNT2                    IMPT 00000000   2969 
_CPUA_IRQ_ERR_INT_CNT3                    IMPT 00000000   2970 
_CPUA_IRQ_ERR_INT_CNT4                    IMPT 00000000   2971 
_CPUA_IRQ_ERR_INT_CNT5                    IMPT 00000000   2972 
_CPUA_IRQ_ERR_INT_CNT6                    IMPT 00000000   2973 
_CPUA_IRQ_ERR_INT_CNT7                    IMPT 00000000   2974 
_CPUA_IRQ_ERR_INT_CNT8                    IMPT 00000000   2975 
_CPUA_IRQ_ERR_INT_CNT9                    IMPT 00000000   2976 
_CPUA_LOT_CHK_FLG                         IMPT 00000000   3102 
_CPUA_LOT_CNT_FLG                         IMPT 00000000   3104 
_CPUA_OP_OUT1_PLS                         IMPT 00000000   3004 
_CPUA_OP_PG1_PLS                          IMPT 00000000   3003 
_CPUA_PLS_OUTF                            IMPT 00000000   2762 
_CPUA_PRO_SIZE                            EQU  00060000   5814* 6476  6589 
_CPUA_RCV_ACK_ET1                         IMPT 00000000   4631 
_CPUA_RCV_INI_ET1                         IMPT 00000000   4629 
_CPUA_RD_ACK                              IMPT 00000000   4643 
_CPUA_RD_ADR                              IMPT 00000000   4645 
_CPUA_RD_BUF                              IMPT 00000000   4646 
_CPUA_RD_CNT                              IMPT 00000000   4644 
_CPUA_RD_REQ                              IMPT 00000000   4642 
_CPUA_SELF2_CD1                           IMPT 00000000   2990 
_CPUA_SELF2_CD2                           IMPT 00000000   2991 
_CPUA_SELF2_CD3                           IMPT 00000000   2992 
_CPUA_SELF2_CD4                           IMPT 00000000   2993 
_CPUA_SELF2_END                           IMPT 00000000   2989 
_CPUA_SELF2_STR                           IMPT 00000000   2988 
_CPUA_SELF_HAND_FLG                       IMPT 00000000   2849 
_CPUA_SND_DAT                             IMPT 00000000   4634 
_CPUA_SND_END                             IMPT 00000000   4635 
_CPUA_SND_INI_ET1                         IMPT 00000000   4628 
_CPUA_SND_REQ_ADR                         IMPT 00000000   4632 
_CPUA_SND_REQ_CNT                         IMPT 00000000   4633 
_CPUA_SND_REQ_ET1                         IMPT 00000000   4630 
*** SuperH RISC engine ASSEMBLER V.7.01.02.000 ***    12/13/20 18:20:45                                                  PAGE    37

*** CROSS REFERENCE LIST

NAME                             SECTION  ATTR VALUE             SEQUENCE

_CPUA_SV_STEP                             IMPT 00000000   3092 
_CPUA_WR2_ACK                             IMPT 00000000   4654 
_CPUA_WR2_ADR                             IMPT 00000000   4651 
_CPUA_WR2_BUF                             IMPT 00000000   4652 
_CPUA_WR2_CNT                             IMPT 00000000   4655 
_CPUA_WR2_REQ                             IMPT 00000000   4653 
_CPUBTOA_DAT1_ACKCOD                      IMPT 00000000   3127 
_CPUBTOA_DAT1_DATTOP                      IMPT 00000000   3128 
_CPUBTOA_DAT1_REQADR                      IMPT 00000000   3123 
_CPUBTOA_DAT1_REQCNT                      IMPT 00000000   3125 
_CPUBTOA_DAT1_REQCOD                      IMPT 00000000   3126 
_CPUBTOA_DAT1_REQKND                      IMPT 00000000   3124 
_CPUBTOA_STS_LOADDAT1                     IMPT 00000000   4265 
_CPUBTOA_STS_LOADDAT2                     IMPT 00000000   4266 
_CPUBTOA_STS_LOADDAT3                     IMPT 00000000   4267 
_CPUBTOA_STS_LOADSTS                      IMPT 00000000   4264 
_CPUB_CONT_MOD_CNT_PV                     IMPT 00000000   3107 
_CPUB_DBG_MONI_CNT                        IMPT 00000000   3109 
_CPUB_DBG_MONI_STP                        IMPT 00000000   3108 
_CPUB_DNM_DIR_NOW                         IMPT 00000000   3097 
_CPUB_DNM_DIR_SET                         IMPT 00000000   3096 
_CPUB_IRQ_ERR_INT_CNT1                    IMPT 00000000   2977 
_CPUB_IRQ_ERR_INT_CNT2                    IMPT 00000000   2978 
_CPUB_IRQ_ERR_INT_CNT3                    IMPT 00000000   2979 
_CPUB_IRQ_ERR_INT_CNT4                    IMPT 00000000   2980 
_CPUB_IRQ_ERR_INT_CNT5                    IMPT 00000000   2981 
_CPUB_IRQ_ERR_INT_CNT6                    IMPT 00000000   2982 
_CPUB_IRQ_ERR_INT_CNT7                    IMPT 00000000   2983 
_CPUB_IRQ_ERR_INT_CNT8                    IMPT 00000000   2984 
_CPUB_IRQ_ERR_INT_CNT9                    IMPT 00000000   2985 
_CPUB_LOT_CHK_FLG                         IMPT 00000000   3103 
_CPUB_LOT_CNT_FLG                         IMPT 00000000   3105 
_CPUB_PLS_OUTF                            IMPT 00000000   2763 
_CPUB_PRO_SIZE                            EQU  00080000   5815*
_CPUB_SELF2_CD1                           IMPT 00000000   2997 
_CPUB_SELF2_CD2                           IMPT 00000000   2998 
_CPUB_SELF2_CD3                           IMPT 00000000   2999 
_CPUB_SELF2_CD4                           IMPT 00000000   3000 
_CPUB_SELF2_END                           IMPT 00000000   2996 
_CPUB_SELF2_STR                           IMPT 00000000   2995 
_CPUB_SELF_HAND_FLG                       IMPT 00000000   2850 
_CPUB_START_COD                           IMPT 00000000   2749 
_CPUB_SV_STEP                             IMPT 00000000   3093 
_CPUDTOA_DAT1_ACKCOD                      IMPT 00000000   5676 
_CPUDTOA_DAT1_DATTOP                      IMPT 00000000   5677 
_CPUDTOA_DAT1_REQADR                      IMPT 00000000   5672 
_CPUDTOA_DAT1_REQCNT                      IMPT 00000000   5674 
_CPUDTOA_DAT1_REQCOD                      IMPT 00000000   5675 
_CPUDTOA_DAT1_REQKND                      IMPT 00000000   5673 
_CPUD_AD_INF                              IMPT 00000000   5697 
_CPUD_PV_AD2                              IMPT 00000000   5694 
_CPUD_PV_AD3                              IMPT 00000000   5695 
_CPUD_PV_AD4                              IMPT 00000000   5696 
_CPUD_START_COD                           IMPT 00000000   3169 
*** SuperH RISC engine ASSEMBLER V.7.01.02.000 ***    12/13/20 18:20:45                                                  PAGE    38

*** CROSS REFERENCE LIST

NAME                             SECTION  ATTR VALUE             SEQUENCE

_CPU_CTRL_CLK                             IMPT 00000000   2853 
_DAR0                                     IMPT 00000000    330 
_DAR1                                     IMPT 00000000    334 
_DAR2                                     IMPT 00000000    338 
_DAR3                                     IMPT 00000000    342 
_DATA                                     EQU  00000019   5755*
_DATA_CNTH                                EQU  00000002   5732*
_DATA_CNTL                                EQU  00000001   5731*
_DBG2_MONI_A00                            IMPT 00000000   4232 
_DBG2_MONI_A01                            IMPT 00000000   4233 
_DBG2_MONI_A02                            IMPT 00000000   4234 
_DBG2_MONI_A03                            IMPT 00000000   4235 
_DBG2_MONI_A04                            IMPT 00000000   4236 
_DBG2_MONI_A05                            IMPT 00000000   4237 
_DBG2_MONI_A06                            IMPT 00000000   4238 
_DBG2_MONI_A07                            IMPT 00000000   4239 
_DBG2_MONI_B00                            IMPT 00000000   4249 
_DBG2_MONI_B01                            IMPT 00000000   4250 
_DBG2_MONI_B02                            IMPT 00000000   4251 
_DBG2_MONI_B03                            IMPT 00000000   4252 
_DBG2_MONI_B04                            IMPT 00000000   4253 
_DBG2_MONI_B05                            IMPT 00000000   4254 
_DBG2_MONI_B06                            IMPT 00000000   4255 
_DBG2_MONI_B07                            IMPT 00000000   4256 
_DBG4_MONI_A00                            IMPT 00000000   4224 
_DBG4_MONI_A01                            IMPT 00000000   4225 
_DBG4_MONI_A02                            IMPT 00000000   4226 
_DBG4_MONI_A03                            IMPT 00000000   4227 
_DBG4_MONI_A04                            IMPT 00000000   4228 
_DBG4_MONI_A05                            IMPT 00000000   4229 
_DBG4_MONI_A06                            IMPT 00000000   4230 
_DBG4_MONI_A07                            IMPT 00000000   4231 
_DBG4_MONI_B00                            IMPT 00000000   4241 
_DBG4_MONI_B01                            IMPT 00000000   4242 
_DBG4_MONI_B02                            IMPT 00000000   4243 
_DBG4_MONI_B03                            IMPT 00000000   4244 
_DBG4_MONI_B04                            IMPT 00000000   4245 
_DBG4_MONI_B05                            IMPT 00000000   4246 
_DBG4_MONI_B06                            IMPT 00000000   4247 
_DBG4_MONI_B07                            IMPT 00000000   4248 
_DEBUG_MONI_ABS_POS                       IMPT 00000000   4051 
_DEBUG_MONI_C1                            IMPT 00000000   4054 
_DEBUG_MONI_C2                            IMPT 00000000   4055 
_DEBUG_MONI_MD_DT0                        IMPT 00000000   4052 
_DEBUG_MONI_MD_DT1                        IMPT 00000000   4053 
_DEBUG_MONI_WORK1                         IMPT 00000000   4056 
_DEBUG_MONI_WORK2                         IMPT 00000000   4057 
_DEBUG_MONI_WORK3                         IMPT 00000000   4058 
_DEBUG_MONI_WORK4                         IMPT 00000000   4059 
_DEBUG_MONI_WORK5                         IMPT 00000000   4060 
_DEBUG_MONI_WORK6                         IMPT 00000000   4061 
_DENSOU_LOCK_CD                           EQU  00000008   5738*
_DMAOR                                    IMPT 00000000    345 
_DMATCR0                                  IMPT 00000000    331 
*** SuperH RISC engine ASSEMBLER V.7.01.02.000 ***    12/13/20 18:20:45                                                  PAGE    39

*** CROSS REFERENCE LIST

NAME                             SECTION  ATTR VALUE             SEQUENCE

_DMATCR1                                  IMPT 00000000    335 
_DMATCR2                                  IMPT 00000000    339 
_DMATCR3                                  IMPT 00000000    343 
_DP_COP_CB_LD_MONI_SIG                    IMPT 00000000   2752 
_DP_DBG_CPUAB_DRV_START                   IMPT 00000000   2754 
_DUMMY_SUM_CODE                           EQU  5AA53CC3    104*
_EBR1_FE800                               EQU  00000002   5878*
_EBR2_FE800                               EQU  00000003   5879*
_ECLEAR                                   EQU  000000FD   5914*
_EMG_SH2_TO_SH4                           IMPT 00000000   2809 
_EMG_SH4_TO_SH2                           IMPT 00000000   2808 
_END_STS                                  EQU  0000000F   5745*
_EPROM_CODE                               EQU  0000045A   6104* 6404  6454  6470  6485  6527  6577  6624  6671 
_ERR_INFO_CPUA_FLG                        IMPT 00000000   4290 
_ERR_INFO_CPUA_TOP                        IMPT 00000000   4291 
_ESET                                     EQU  00000002   5913*
_ESUCLEAR                                 EQU  000000DF   5912*
_ESUSET                                   EQU  00000020   5911*
_EVCLEAR                                  EQU  000000F7   5916*
_EVSET                                    EQU  00000008   5915*
_EXPEVT                                   IMPT 00000000    293 
_EXQ_SH2_TO_SH4                           IMPT 00000000   2812 
_EXQ_SH4_TO_SH2                           IMPT 00000000   2811 
_FEP_050                         PvupROM       000006AE   7458* 7494 
_FEP_100                         PvupROM       000006EC   7491  7503*
_FEP_END                         PvupROM       000006FA   7486  7507  7516*
_FEP_ERR                         PvupROM       000006F4   7509*
_FLASH_REG_TOP                            EQU  FFFFE800   5875*
_FLMCR1_FE800                             EQU  00000000   5876*
_FLMCR2_FE800                             EQU  00000001   5877*
_FROMCHK_NASI_CODE                        EQU  5AA53CC3   7094* 7261 
_FROM_CPUA_REWRITE               PvupROM       000000E8   6326  6374*
_FROM_CPUA_REWR_05               PvupROM       000000F8   6378  6386*
_FROM_CPUA_REWR_07               PvupROM       00000118   6406  6408*
_FROM_CPUA_REWR_10               PvupROM       00000168   6397  6445*
_FROM_CPUA_REWR_100              PvupROM       0000030C   6426  6499  6549  6599  6646  6666*
_FROM_CPUA_REWR_105              PvupROM       0000031C   6673  6675*
_FROM_CPUA_REWR_150              PvupROM       0000034C   6380  6701*
_FROM_CPUA_REWR_155              PvupROM       00000360   6706  6715*
_FROM_CPUA_REWR_160              PvupROM       00000370   6724  6732*
_FROM_CPUA_REWR_17               PvupROM       0000017C   6456  6458*
_FROM_CPUA_REWR_170              PvupROM       00000388   6747* 6753 
_FROM_CPUA_REWR_18               PvupROM       00000196   6472  6474*
_FROM_CPUA_REWR_19               PvupROM       000001B0   6487  6489*
_FROM_CPUA_REWR_20               PvupROM       000001F8   6447  6518*
_FROM_CPUA_REWR_200              PvupROM       000003B8   6735  6778*
_FROM_CPUA_REWR_202              PvupROM       000003C8   6782  6790*
_FROM_CPUA_REWR_202A             PvupROM       000003D2   6793  6798*
_FROM_CPUA_REWR_203              PvupROM       000003EC   6828* 6991 
_FROM_CPUA_REWR_205              PvupROM       0000040C   6856* 6877 
_FROM_CPUA_REWR_210              PvupROM       00000432   6886* 6976 
_FROM_CPUA_REWR_220              PvupROM       000004F8   6989  7001*
_FROM_CPUA_REWR_240              PvupROM       00000508   6795  7017*
_FROM_CPUA_REWR_250              PvupROM       00000514   6726  7030*
*** SuperH RISC engine ASSEMBLER V.7.01.02.000 ***    12/13/20 18:20:45                                                  PAGE    40

*** CROSS REFERENCE LIST

NAME                             SECTION  ATTR VALUE             SEQUENCE

_FROM_CPUA_REWR_27               PvupROM       0000020C   6529  6531*
_FROM_CPUA_REWR_290              PvupROM       00000524   7033  7042*
_FROM_CPUA_REWR_30               PvupROM       00000250   6520  6564*
_FROM_CPUA_REWR_300              PvupROM       00000530   6784  7055*
_FROM_CPUA_REWR_340              PvupROM       00000540   7058  7067*
_FROM_CPUA_REWR_37               PvupROM       00000268   6579  6581*
_FROM_CPUA_REWR_40               PvupROM       000002B0   6566  6615*
_FROM_CPUA_REWR_47               PvupROM       000002C4   6626  6628*
_FROM_CPUA_REWR_50               PvupROM       00000308   6617  6661*
_FROM_CPUA_REWR_END              PvupROM       0000054C   6663  6689  6709  6765  6807  6949  7020  7045  7070  7077*
_FROM_CPUB4_RW140                PvupROM       000003E8   6804  6814*
_FROM_ERASE_CMND                 PvupROM  EXPT 00000650   6836  7383  7384*
_FROM_ERASE_POLLINKG             PvupROM  EXPT 000006AC   6842  7443  7453*
_FROM_REWR_450                   PvupROM       00000486   6940  6944*
_FROM_REWR_END_ADR               Bvupwkra      0000000C   6418  6478  6541  6591  6638  6986  7364*
_FROM_REWR_STR_FLG               Bvupwkra      00000014   6331  6375  6683  6721  6758  6779  7012  7037  7062  7366*
_FROM_REWR_TOP_ADR               Bvupwkra      00000008   6413  6463  6536  6586  6633  6829  6851  6884  6982  7363*
_FROM_REWR_VEROK                 PvupROM       000004C0   6925  6970*
_FROM_SCT_TOP_ADR                Bvupwkra      00000004   6409  6459  6532  6582  6629  6872  6971  6978  7362*
_FROM_SECT_TBL00                 PvupROM       000007B8   6466  6569  6667  7683*
_FROM_SECT_TBL03                 PvupROM       000007C4   6450  6481  7687*
_FROM_SECT_TBLP00                PvupROM       00000808   6473  6580  6674  7709*
_FROM_SECT_TBLP03                PvupROM       00000814   6457  6488  7713*
_FROM_SECT_TBLP_SENA             PvupROM       00000844   6530  7728*
_FROM_SECT_TBLP_SEQ              PvupROM       00000830   6407  7721*
_FROM_SECT_TBLP_SYSA             PvupROM       00000840   6627  7726*
_FROM_SECT_TBL_SENA              PvupROM       000007F4   6523  7702*
_FROM_SECT_TBL_SEQ               PvupROM       000007E0   6400  7695*
_FROM_SECT_TBL_SYSA              PvupROM       000007F0   6620  7700*
_FROM_SUM_CODE                            IMPT 00000000   7095  7207 
_FROM_TOP_ADR                    Bvupwkra      00000000   6677  6832  6853  7361*
_FROM_WRITE_CMND                 PvupROM  EXPT 00000708   6858  7532  7537*
_FROM_WRITE_POLLINKG             PvupROM  EXPT 00000744   6866  7578  7587*
_FRQCR                                    IMPT 00000000    348 
_FWESET                                   EQU  00000080   5908*
_FWP_050                         PvupROM       00000746   7592* 7634 
_FWP_100                         PvupROM       00000794   7631  7645*
_FWP_END                         PvupROM       000007A6   7625  7652  7661*
_FWP_ERR                         PvupROM       000007A0   7654*
_GAM_TBL_SIZE                             EQU  00040000   5811*
_GPIOIC                                   IMPT 00000000    326 
_HD_CMP_PLS_A1                            IMPT 00000000   2765 
_HD_CMP_PLS_B1                            IMPT 00000000   2766 
_HMI2CB_LDCMD_DAT                         IMPT 00000000   4612 
_HMI2CB_LDCMD_FLG                         IMPT 00000000   4611 
_HND_SHTCNT_FLG2                          IMPT 00000000   4623 
_HND_SMPCNT_FLG2                          IMPT 00000000   4622 
_HS_PVP_LOTCNT_FLG                        IMPT 00000000   3189 
_HS_PVP_TAKIKI_FLG                        IMPT 00000000   3188 
_HS_SVCHG_A_TO_B                          IMPT 00000000   3187 
_HS_SVCHG_B_TO_A                          IMPT 00000000   3164 
_ICR                                      IMPT 00000000    355 
_INTEVT                                   IMPT 00000000    294 
_INT_Address_load                         IMPT 00000000   5983 
*** SuperH RISC engine ASSEMBLER V.7.01.02.000 ***    12/13/20 18:20:45                                                  PAGE    41

*** CROSS REFERENCE LIST

NAME                             SECTION  ATTR VALUE             SEQUENCE

_INT_Address_store                        IMPT 00000000   5985 
_INT_DMAC_DMAE                            IMPT 00000000   6077 
_INT_DMAC_DMTE0                           IMPT 00000000   6069 
_INT_DMAC_DMTE1                           IMPT 00000000   6071 
_INT_DMAC_DMTE2                           IMPT 00000000   6073 
_INT_DMAC_DMTE3                           IMPT 00000000   6075 
_INT_Extern_0000                          IMPT 00000000   6001 
_INT_Extern_0001                          IMPT 00000000   6003 
_INT_Extern_0010                          IMPT 00000000   6005 
_INT_Extern_0011                          IMPT 00000000   6007 
_INT_Extern_0100                          IMPT 00000000   6009 
_INT_Extern_0101                          IMPT 00000000   6011 
_INT_Extern_0110                          IMPT 00000000   6013 
_INT_Extern_0111                          IMPT 00000000   6015 
_INT_Extern_1000                          IMPT 00000000   6017 
_INT_Extern_1001                          IMPT 00000000   6019 
_INT_Extern_1010                          IMPT 00000000   6021 
_INT_Extern_1011                          IMPT 00000000   6023 
_INT_Extern_1100                          IMPT 00000000   6025 
_INT_Extern_1101                          IMPT 00000000   6027 
_INT_Extern_1110                          IMPT 00000000   6029 
_INT_FPU                                  IMPT 00000000   5987 
_INT_HUDI                                 IMPT 00000000   6065 
_INT_Illegal_FPU                          IMPT 00000000   6097 
_INT_Illegal_code                         IMPT 00000000   5993 
_INT_Illegal_slot                         IMPT 00000000   5995 
_INT_Illegal_slot_FPU                     IMPT 00000000   6099 
_INT_Input_Capture                        IMPT 00000000   6039 
_INT_NMI                                  IMPT 00000000   5997 
_INT_REF_RCMI                             IMPT 00000000   6057 
_INT_REF_ROVI                             IMPT 00000000   6059 
_INT_RTC_ATI                              IMPT 00000000   6041 
_INT_RTC_CUI                              IMPT 00000000   6045 
_INT_RTC_PRI                              IMPT 00000000   6043 
_INT_Reserved140                          IMPT 00000000   5989 
_INT_Reserved3E0                          IMPT 00000000   6031 
_INT_Reserved5C0                          IMPT 00000000   6061 
_INT_Reserved5E0                          IMPT 00000000   6063 
_INT_Reserved620                          IMPT 00000000   6067 
_INT_Reserved6E0                          IMPT 00000000   6079 
_INT_Reserved780                          IMPT 00000000   6089 
_INT_Reserved7A0                          IMPT 00000000   6091 
_INT_Reserved7C0                          IMPT 00000000   6093 
_INT_Reserved7E0                          IMPT 00000000   6095 
_INT_SCIF_BRI                             IMPT 00000000   6085 
_INT_SCIF_ERI                             IMPT 00000000   6081 
_INT_SCIF_RXI                             IMPT 00000000   6083 
_INT_SCIF_TXI                             IMPT 00000000   6087 
_INT_SCI_ERI                              IMPT 00000000   6047 
_INT_SCI_RXI                              IMPT 00000000   6049 
_INT_SCI_TEI                              IMPT 00000000   6053 
_INT_SCI_TXI                              IMPT 00000000   6051 
_INT_TLBInitial_Page                      IMPT 00000000   5977 
_INT_TLBMiss_Load                         IMPT 00000000   5973 
*** SuperH RISC engine ASSEMBLER V.7.01.02.000 ***    12/13/20 18:20:45                                                  PAGE    42

*** CROSS REFERENCE LIST

NAME                             SECTION  ATTR VALUE             SEQUENCE

_INT_TLBMiss_Store                        IMPT 00000000   5975 
_INT_TLBProtect_Load                      IMPT 00000000   5979 
_INT_TLBProtect_Store                     IMPT 00000000   5981 
_INT_TRAPA                                IMPT 00000000   5991 
_INT_Timer_Under_0                        IMPT 00000000   6033 
_INT_Timer_Under_1                        IMPT 00000000   6035 
_INT_Timer_Under_2                        IMPT 00000000   6037 
_INT_User_Break                           IMPT 00000000   5999 
_INT_WDT                                  IMPT 00000000   6055 
_IPRA                                     IMPT 00000000    356 
_IPRB                                     IMPT 00000000    357 
_IPRC                                     IMPT 00000000    358 
_IPRD                                     IMPT 00000000    359 
_KEEPRY_BKUP_FLG                          IMPT 00000000   3191 
_KISYU_GOKAN_CD                           EQU  00000007   5737*
_LOD_AREA0                                EQU  00000000   5722*
_LOD_AREA1                                EQU  00000001   5723*
_LOD_CMND_RD                              EQU  00000000   5721*
_LOD_CMND_WR                              EQU  00000001   5720*
_MAXErase                                 EQU  00000064   5917*
_MAXVerify                                EQU  000003E8   5918*
_MCR                                      IMPT 00000000    316 
_MMUCR                                    IMPT 00000000    288 
_MODE                                     EQU  0000000E   5744*
_Manual_Reset                             IMPT 00000000   5965 
_NON_SUM_CODE                             EQU  00000395   6105* 7194 
_PASSWARD_HH                              EQU  0000000C   5742*
_PASSWARD_HL                              EQU  0000000B   5741*
_PASSWARD_LH                              EQU  0000000A   5740*
_PASSWARD_LL                              EQU  00000009   5739*
_PCLEAR                                   EQU  000000FE   5905*
_PCR                                      IMPT 00000000    317 
_PCTRA                                    IMPT 00000000    322 
_PCTRB                                    IMPT 00000000    324 
_PDTRA                                    IMPT 00000000    323 
_PDTRB                                    IMPT 00000000    325  6208  6895  7231  7467  7601 
_PSET                                     EQU  00000001   5904*
_PSUCLEAR                                 EQU  000000EF   5903*
_PSUSET                                   EQU  00000010   5902*
_PTEA                                     IMPT 00000000    295 
_PTEH                                     IMPT 00000000    284 
_PTEL                                     IMPT 00000000    285 
_PVCLEAR                                  EQU  000000FB   5907*
_PVOP2_WAIT_CODA                          IMPT 00000000   3005 
_PVOP2_WAIT_CODB                          IMPT 00000000   3006 
_PVPAB_ARA1_KAJ_L                         IMPT 00000000   3041 
_PVPAB_ARA1_KAJ_R                         IMPT 00000000   3042 
_PVPAB_ARA1_KAJ_T                         IMPT 00000000   3043 
_PVPAB_DBG_KYUIN1                         IMPT 00000000   3016 
_PVPAB_DBG_KYUIN2                         IMPT 00000000   3017 
_PVPAB_DBG_KYUIN3                         IMPT 00000000   3018 
_PVPAB_KAJLIV_LFT                         IMPT 00000000   3036 
_PVPAB_KAJLIV_RIH                         IMPT 00000000   3037 
_PVPAB_KAJLIV_TTL                         IMPT 00000000   3038 
*** SuperH RISC engine ASSEMBLER V.7.01.02.000 ***    12/13/20 18:20:45                                                  PAGE    43

*** CROSS REFERENCE LIST

NAME                             SECTION  ATTR VALUE             SEQUENCE

_PVPAB_SH2_AD_DAT2                        IMPT 00000000   3013 
_PVPAB_SH2_AD_DAT3                        IMPT 00000000   3014 
_PVPAB_SH2_AD_DAT4                        IMPT 00000000   3015 
_PVPAB_SH2_AD_DATA                        IMPT 00000000   3012 
_PVP_1ROT_CALSPM                          IMPT 00000000   3622 
_PVP_360_DEG                              IMPT 00000000   3633 
_PVP_ABS_ENC_SPD                          IMPT 00000000   4191 
_PVP_ABS_OUT_SPD                          IMPT 00000000   4192 
_PVP_ARA1_KAJ_L                           IMPT 00000000   3618 
_PVP_ARA1_KAJ_R                           IMPT 00000000   3617 
_PVP_ARA1_KAJ_T                           IMPT 00000000   3619 
_PVP_ARA1_KAJ_T2                          IMPT 00000000   3686 
_PVP_A_LOT_CNT1                           IMPT 00000000   4200 
_PVP_A_LOT_CNT2                           IMPT 00000000   4202 
_PVP_A_LOT_CNT3                           IMPT 00000000   4204 
_PVP_A_LOT_CNT4                           IMPT 00000000   4206 
_PVP_A_LOT_CNT5                           IMPT 00000000   4208 
_PVP_BAKORG_PLS1                          IMPT 00000000   3629 
_PVP_BAKORG_PLS2                          IMPT 00000000   3630 
_PVP_BREAK_DIG                            IMPT 00000000   4156 
_PVP_BREAK_TIM1                           IMPT 00000000   4161 
_PVP_BRK_ENC_SPD                          IMPT 00000000   4195 
_PVP_BRK_OUT_SPD                          IMPT 00000000   4196 
_PVP_B_LOT_CNT1                           IMPT 00000000   4201 
_PVP_B_LOT_CNT2                           IMPT 00000000   4203 
_PVP_B_LOT_CNT3                           IMPT 00000000   4205 
_PVP_B_LOT_CNT4                           IMPT 00000000   4207 
_PVP_B_LOT_CNT5                           IMPT 00000000   4209 
_PVP_CB_A_VER                             IMPT 00000000   4274 
_PVP_CB_B_VER                             IMPT 00000000   4275 
_PVP_CB_C_VER                             IMPT 00000000   4294 
_PVP_CKAGL_OVBIT                          IMPT 00000000   4559 
_PVP_CKLMT_AGL                            IMPT 00000000   5708 
_PVP_CKLMT_AGL01                          IMPT 00000000   4561 
_PVP_CKLMT_AGL02                          IMPT 00000000   4562 
_PVP_CKLMT_AGL03                          IMPT 00000000   4563 
_PVP_CKLMT_AGL04                          IMPT 00000000   4564 
_PVP_CKLMT_AGL05                          IMPT 00000000   4565 
_PVP_CKLMT_AGL06                          IMPT 00000000   4566 
_PVP_CKLMT_AGL07                          IMPT 00000000   4567 
_PVP_CKLMT_AGL08                          IMPT 00000000   4568 
_PVP_CKLMT_AGL09                          IMPT 00000000   4569 
_PVP_CKLMT_AGL10                          IMPT 00000000   4570 
_PVP_CKLMT_AGLTOP                         IMPT 00000000   4560 
_PVP_CKLMT_MDSPD                          IMPT 00000000   3761 
_PVP_CKLMT_SPD                            IMPT 00000000   5709 
_PVP_CKLMT_SPD01                          IMPT 00000000   3764 
_PVP_CKLMT_SPD02                          IMPT 00000000   3765 
_PVP_CKLMT_SPD03                          IMPT 00000000   3766 
_PVP_CKLMT_SPD04                          IMPT 00000000   3767 
_PVP_CKLMT_SPD05                          IMPT 00000000   3768 
_PVP_CKLMT_SPD06                          IMPT 00000000   3769 
_PVP_CKLMT_SPD07                          IMPT 00000000   3770 
_PVP_CKLMT_SPD08                          IMPT 00000000   3771 
*** SuperH RISC engine ASSEMBLER V.7.01.02.000 ***    12/13/20 18:20:45                                                  PAGE    44

*** CROSS REFERENCE LIST

NAME                             SECTION  ATTR VALUE             SEQUENCE

_PVP_CKLMT_SPD09                          IMPT 00000000   3772 
_PVP_CKLMT_SPD10                          IMPT 00000000   3773 
_PVP_CKLMT_SPDTOP                         IMPT 00000000   3763 
_PVP_CKSPD_LMBIT                          IMPT 00000000   4583 
_PVP_CKSPD_OVBIT                          IMPT 00000000   3760 
_PVP_CKSPD_STPBT                          IMPT 00000000   4584 
_PVP_COM_ADR                              IMPT 00000000   4158 
_PVP_COM_ERR                              IMPT 00000000   4157 
_PVP_CPUA_ANAIN                           IMPT 00000000   4186 
_PVP_CPUA_TEPPLS                          IMPT 00000000   4184 
_PVP_CPUB_ANAIN                           IMPT 00000000   4187 
_PVP_CPUB_TEPPLS                          IMPT 00000000   4185 
_PVP_CYCLE_SPM1                           IMPT 00000000   4145 
_PVP_CYCLE_TIME0                          IMPT 00000000   4142 
_PVP_DEB_DAT0                             IMPT 00000000   4081 
_PVP_DEB_DAT1                             IMPT 00000000   4082 
_PVP_DEB_DAT2                             IMPT 00000000   4083 
_PVP_DEB_DAT3                             IMPT 00000000   4084 
_PVP_DEB_DAT4                             IMPT 00000000   4085 
_PVP_DEB_DAT5                             IMPT 00000000   4086 
_PVP_DEB_DAT6                             IMPT 00000000   4087 
_PVP_DEB_DAT7                             IMPT 00000000   4088 
_PVP_DEB_DAT8                             IMPT 00000000   4089 
_PVP_DEB_DAT9                             IMPT 00000000   4090 
_PVP_DISP_SPM2                            IMPT 00000000   4146 
_PVP_DYHITO_HOSLNG                        IMPT 00000000   4148 
_PVP_DYHITO_POS                           IMPT 00000000   4149 
_PVP_ECO_METER                            IMPT 00000000   4213 
_PVP_ENC_PLS_SPD                          IMPT 00000000   4189 
_PVP_ENC_SPD_DIR                          IMPT 00000000   4197 
_PVP_ENC_SPD_PER                          IMPT 00000000   4193 
_PVP_EPM_KAISE                            IMPT 00000000   4216 
_PVP_EPM_SYOHI                            IMPT 00000000   4215 
_PVP_GMNSEQ_CNT01                         IMPT 00000000   4163 
_PVP_GMNSEQ_CNT02                         IMPT 00000000   4164 
_PVP_GMNSEQ_CNT03                         IMPT 00000000   4165 
_PVP_GMNSEQ_CNT04                         IMPT 00000000   4166 
_PVP_GMNSEQ_CNT05                         IMPT 00000000   4167 
_PVP_GMNSEQ_CNT06                         IMPT 00000000   4168 
_PVP_GMNSEQ_CNT07                         IMPT 00000000   4169 
_PVP_GMNSEQ_CNT08                         IMPT 00000000   4170 
_PVP_GMNSEQ_TIM01                         IMPT 00000000   4172 
_PVP_GMNSEQ_TIM02                         IMPT 00000000   4173 
_PVP_GMNSEQ_TIM03                         IMPT 00000000   4174 
_PVP_GMNSEQ_TIM04                         IMPT 00000000   4175 
_PVP_GMNSEQ_TIM05                         IMPT 00000000   4176 
_PVP_GMNSEQ_TIM06                         IMPT 00000000   4177 
_PVP_GMNSEQ_TIM07                         IMPT 00000000   4178 
_PVP_GMNSEQ_TIM08                         IMPT 00000000   4179 
_PVP_IVW_DOT                              IMPT 00000000   4218 
_PVP_KAJLIV_LFT                           IMPT 00000000   3602 
_PVP_KAJLIV_RIH                           IMPT 00000000   3604 
_PVP_KAJLIV_TTL                           IMPT 00000000   3603 
_PVP_LFEED_POS                            IMPT 00000000   4587 
*** SuperH RISC engine ASSEMBLER V.7.01.02.000 ***    12/13/20 18:20:45                                                  PAGE    45

*** CROSS REFERENCE LIST

NAME                             SECTION  ATTR VALUE             SEQUENCE

_PVP_MENTE_CNT                            IMPT 00000000   3688 
_PVP_MONALM1_TOP                          IMPT 00000000   4104 
_PVP_MONALM_A01                           IMPT 00000000   4117 
_PVP_MONALM_A02                           IMPT 00000000   4118 
_PVP_MONALM_A03                           IMPT 00000000   4119 
_PVP_MONALM_A04                           IMPT 00000000   4120 
_PVP_MONALM_A05                           IMPT 00000000   4121 
_PVP_MONALM_A06                           IMPT 00000000   4122 
_PVP_MONALM_A07                           IMPT 00000000   4123 
_PVP_MONALM_A08                           IMPT 00000000   4124 
_PVP_MONALM_B01                           IMPT 00000000   4125 
_PVP_MONALM_B02                           IMPT 00000000   4126 
_PVP_MONALM_B03                           IMPT 00000000   4127 
_PVP_MONALM_B04                           IMPT 00000000   4128 
_PVP_MONALM_B05                           IMPT 00000000   4129 
_PVP_MONALM_B06                           IMPT 00000000   4130 
_PVP_MONALM_B07                           IMPT 00000000   4131 
_PVP_MONALM_B08                           IMPT 00000000   4132 
_PVP_MONALM_C01                           IMPT 00000000   4109 
_PVP_MONALM_C02                           IMPT 00000000   4110 
_PVP_MONALM_C03                           IMPT 00000000   4111 
_PVP_MONALM_C04                           IMPT 00000000   4112 
_PVP_MONALM_C05                           IMPT 00000000   4113 
_PVP_MONALM_C06                           IMPT 00000000   4114 
_PVP_MONALM_C07                           IMPT 00000000   4115 
_PVP_MONALM_C08                           IMPT 00000000   4116 
_PVP_MONALM_P01                           IMPT 00000000   4105 
_PVP_MONALM_P02                           IMPT 00000000   4106 
_PVP_MONALM_P03                           IMPT 00000000   4107 
_PVP_MONALM_P04                           IMPT 00000000   4108 
_PVP_MOTINS_AG2                           IMPT 00000000   3752 
_PVP_MOTINS_AG3                           IMPT 00000000   3755 
_PVP_MOTINS_AGL                           IMPT 00000000   3747 
_PVP_MOTINS_DAN                           IMPT 00000000   3746 
_PVP_MOTINS_DANAFT                        IMPT 00000000   3776 
_PVP_MOTINS_DANBEF                        IMPT 00000000   3775 
_PVP_MOTINS_INF                           IMPT 00000000   3757 
_PVP_MOTINS_POS                           IMPT 00000000   3748 
_PVP_MOTINS_PS2                           IMPT 00000000   3751 
_PVP_MOTINS_PS3                           IMPT 00000000   3756 
_PVP_MOT_ACT_STEP                         IMPT 00000000   5706 
_PVP_MOT_STS                              IMPT 00000000   5707 
_PVP_NOW_ANGLE00                          IMPT 00000000   4141 
_PVP_NOW_ANGLE_RNA                        IMPT 00000000   4147 
_PVP_NOW_POSI000                          IMPT 00000000   4139 
_PVP_ORGRNA_MOV1                          IMPT 00000000   3625 
_PVP_ORGRNA_MOV2                          IMPT 00000000   3626 
_PVP_ORGSTRK_LEG1                         IMPT 00000000   3627 
_PVP_ORGSTRK_LEG2                         IMPT 00000000   3628 
_PVP_OUT_PLS_SPD                          IMPT 00000000   4190 
_PVP_OUT_SPD_DIR                          IMPT 00000000   4198 
_PVP_OUT_SPD_PER                          IMPT 00000000   4194 
_PVP_PAR_A_CHAR                           IMPT 00000000   4284 
_PVP_PAR_A_VER                            IMPT 00000000   4278 
*** SuperH RISC engine ASSEMBLER V.7.01.02.000 ***    12/13/20 18:20:45                                                  PAGE    46

*** CROSS REFERENCE LIST

NAME                             SECTION  ATTR VALUE             SEQUENCE

_PVP_PAR_B_CHAR                           IMPT 00000000   4285 
_PVP_PAR_B_VER                            IMPT 00000000   4279 
_PVP_PAR_C_CHAR                           IMPT 00000000   4296 
_PVP_PAR_C_VER                            IMPT 00000000   4295 
_PVP_PG12_DEG1                            IMPT 00000000   3695 
_PVP_PG_DEG1                              IMPT 00000000   3634 
_PVP_PG_DEG1X                             IMPT 00000000   3691 
_PVP_PG_DEG2                              IMPT 00000000   3635 
_PVP_PG_DEG2X                             IMPT 00000000   3692 
_PVP_PG_PLS1                              IMPT 00000000   3693 
_PVP_PG_PLS2                              IMPT 00000000   3694 
_PVP_POWER_KWH                            IMPT 00000000   4214 
_PVP_POWER_MONI                           IMPT 00000000   4182 
_PVP_RENIA_BUP1                           IMPT 00000000   3678 
_PVP_RENIA_BUP2                           IMPT 00000000   3679 
_PVP_RENIA_BUP3                           IMPT 00000000   3680 
_PVP_RENIA_BUP4                           IMPT 00000000   3681 
_PVP_RENIA_POS1                           IMPT 00000000   3631 
_PVP_RENIA_POS2                           IMPT 00000000   3632 
_PVP_RENIA_POSI0                          IMPT 00000000   4140 
_PVP_RNABUP_ENB                           IMPT 00000000   3682 
_PVP_RNAORG_PLS1                          IMPT 00000000   4138 
_PVP_RNA_STLORK                           IMPT 00000000   4154 
_PVP_SEQ_ERR                              IMPT 00000000   4159 
_PVP_SINKAKU_UPDN1                        IMPT 00000000   4578 
_PVP_SINKAKU_UPDN2                        IMPT 00000000   4579 
_PVP_SLIDE_POS                            IMPT 00000000   4150 
_PVP_STOP_TIM                             IMPT 00000000   4155 
_PVP_TAIKITEN_POS                         IMPT 00000000   4152 
_PVP_TAIKI_POS                            IMPT 00000000   4151 
_PVP_TBL_A_CHAR                           IMPT 00000000   4286 
_PVP_TBL_A_VER                            IMPT 00000000   4280 
_PVP_TBL_B_CHAR                           IMPT 00000000   4287 
_PVP_TBL_B_VER                            IMPT 00000000   4281 
_PVP_TBL_C_CHAR                           IMPT 00000000   4298 
_PVP_TBL_C_VER                            IMPT 00000000   4297 
_PVP_WTJUD_AGL                            IMPT 00000000   4574 
_PVP_WTJUD_POS                            IMPT 00000000   4575 
_PVP_WTJUD_SNO                            IMPT 00000000   4573 
_PVP_ZURE_PLS                             IMPT 00000000   3636 
_PVP_ZURE_RNA                             IMPT 00000000   3637 
_PVSET                                    EQU  00000004   5906*
_PVX_RNA_DIGDT                            IMPT 00000000   2805 
_PVX_RNA_INDAT                            IMPT 00000000   2801 
_PVX_RNA_PLS_P                            IMPT 00000000   2807 
_PVX_RNA_POSD1                            IMPT 00000000   2802 
_PVX_RNA_POSD2                            IMPT 00000000   2803 
_PVX_RNA_POSDT                            IMPT 00000000   2804 
_PVX_SH4_OUTPLS                           IMPT 00000000   2814 
_PVX_SH4_SFTY_IN                          IMPT 00000000   2806 
_PV_CB_STS_DAT_TOP                        IMPT 00000000   4095 
_PV_CB_STS_POINT                          IMPT 00000000   4097 
_PV_CB_TRD_DAT_TOP                        IMPT 00000000   4096 
_PV_CB_TRD_POINT                          IMPT 00000000   4098 
*** SuperH RISC engine ASSEMBLER V.7.01.02.000 ***    12/13/20 18:20:45                                                  PAGE    47

*** CROSS REFERENCE LIST

NAME                             SECTION  ATTR VALUE             SEQUENCE

_PV_POWER_ON_CNT                          IMPT 00000000   4099 
_PowerON_Reset                            IMPT 00000000   5961 
_QACR0                                    IMPT 00000000    296 
_QACR1                                    IMPT 00000000    297 
_RFCR                                     IMPT 00000000    321 
_RTCNT                                    IMPT 00000000    319 
_RTCOR                                    IMPT 00000000    320 
_RTCSR                                    IMPT 00000000    318 
_SAR0                                     IMPT 00000000    329 
_SAR1                                     IMPT 00000000    333 
_SAR2                                     IMPT 00000000    337 
_SAR3                                     IMPT 00000000    341 
_SCBRR1                                   IMPT 00000000    377 
_SCBRR2                                   IMPT 00000000    387 
_SCFCR2                                   IMPT 00000000    392 
_SCFDR2                                   IMPT 00000000    393 
_SCFRDR2                                  IMPT 00000000    391 
_SCFSR2                                   IMPT 00000000    390 
_SCFTDR2                                  IMPT 00000000    389 
_SCLSR2                                   IMPT 00000000    395 
_SCRDR1                                   IMPT 00000000    381 
_SCSCMR1                                  IMPT 00000000    382 
_SCSCR1                                   IMPT 00000000    378 
_SCSCR2                                   IMPT 00000000    388 
_SCSMR1                                   IMPT 00000000    376 
_SCSMR2                                   IMPT 00000000    386 
_SCSPTR1                                  IMPT 00000000    383 
_SCSPTR2                                  IMPT 00000000    394 
_SCSSR1                                   IMPT 00000000    380 
_SCTDR1                                   IMPT 00000000    379 
_SEQAB_DP_TOP                             IMPT 00000000   3115 
_SEQ_DP_TOP                               IMPT 00000000   4604 
_SEQ_NO                                   EQU  00000010   5746*
_SEQ_PAR_000                              IMPT 00000000   4660 
_SEQ_PAR_001                              IMPT 00000000   4661 
_SEQ_PAR_002                              IMPT 00000000   4662 
_SEQ_PAR_003                              IMPT 00000000   4663 
_SEQ_PAR_004                              IMPT 00000000   4664 
_SEQ_PAR_005                              IMPT 00000000   4665 
_SEQ_PAR_006                              IMPT 00000000   4666 
_SEQ_PAR_007                              IMPT 00000000   4667 
_SEQ_PAR_008                              IMPT 00000000   4668 
_SEQ_PAR_009                              IMPT 00000000   4669 
_SEQ_PAR_010                              IMPT 00000000   4670 
_SEQ_PAR_011                              IMPT 00000000   4671 
_SEQ_PAR_012                              IMPT 00000000   4672 
_SEQ_PAR_013                              IMPT 00000000   4673 
_SEQ_PAR_014                              IMPT 00000000   4674 
_SEQ_PAR_015                              IMPT 00000000   4675 
_SEQ_PAR_016                              IMPT 00000000   4676 
_SEQ_PAR_017                              IMPT 00000000   4677 
_SEQ_PAR_018                              IMPT 00000000   4678 
_SEQ_PAR_019                              IMPT 00000000   4679 
_SEQ_PAR_020                              IMPT 00000000   4680 
*** SuperH RISC engine ASSEMBLER V.7.01.02.000 ***    12/13/20 18:20:45                                                  PAGE    48

*** CROSS REFERENCE LIST

NAME                             SECTION  ATTR VALUE             SEQUENCE

_SEQ_PAR_021                              IMPT 00000000   4681 
_SEQ_PAR_022                              IMPT 00000000   4682 
_SEQ_PAR_023                              IMPT 00000000   4683 
_SEQ_PAR_024                              IMPT 00000000   4684 
_SEQ_PAR_025                              IMPT 00000000   4685 
_SEQ_PAR_026                              IMPT 00000000   4686 
_SEQ_PAR_027                              IMPT 00000000   4687 
_SEQ_PAR_028                              IMPT 00000000   4688 
_SEQ_PAR_029                              IMPT 00000000   4689 
_SEQ_PAR_030                              IMPT 00000000   4690 
_SEQ_PAR_031                              IMPT 00000000   4691 
_SEQ_PAR_032                              IMPT 00000000   4692 
_SEQ_PAR_033                              IMPT 00000000   4693 
_SEQ_PAR_034                              IMPT 00000000   4694 
_SEQ_PAR_035                              IMPT 00000000   4695 
_SEQ_PAR_036                              IMPT 00000000   4696 
_SEQ_PAR_037                              IMPT 00000000   4697 
_SEQ_PAR_038                              IMPT 00000000   4698 
_SEQ_PAR_039                              IMPT 00000000   4699 
_SEQ_PAR_040                              IMPT 00000000   4700 
_SEQ_PAR_041                              IMPT 00000000   4701 
_SEQ_PAR_042                              IMPT 00000000   4702 
_SEQ_PAR_043                              IMPT 00000000   4703 
_SEQ_PAR_044                              IMPT 00000000   4704 
_SEQ_PAR_045                              IMPT 00000000   4705 
_SEQ_PAR_046                              IMPT 00000000   4706 
_SEQ_PAR_047                              IMPT 00000000   4707 
_SEQ_PAR_048                              IMPT 00000000   4708 
_SEQ_PAR_049                              IMPT 00000000   4709 
_SEQ_PAR_050                              IMPT 00000000   4710 
_SEQ_PAR_051                              IMPT 00000000   4711 
_SEQ_PAR_052                              IMPT 00000000   4712 
_SEQ_PAR_053                              IMPT 00000000   4713 
_SEQ_PAR_054                              IMPT 00000000   4714 
_SEQ_PAR_055                              IMPT 00000000   4715 
_SEQ_PAR_056                              IMPT 00000000   4716 
_SEQ_PAR_057                              IMPT 00000000   4717 
_SEQ_PAR_058                              IMPT 00000000   4718 
_SEQ_PAR_059                              IMPT 00000000   4719 
_SEQ_PAR_060                              IMPT 00000000   4720 
_SEQ_PAR_061                              IMPT 00000000   4721 
_SEQ_PAR_062                              IMPT 00000000   4722 
_SEQ_PAR_063                              IMPT 00000000   4723 
_SEQ_PAR_064                              IMPT 00000000   4724 
_SEQ_PAR_065                              IMPT 00000000   4725 
_SEQ_PAR_066                              IMPT 00000000   4726 
_SEQ_PAR_067                              IMPT 00000000   4727 
_SEQ_PAR_068                              IMPT 00000000   4728 
_SEQ_PAR_069                              IMPT 00000000   4729 
_SEQ_PAR_070                              IMPT 00000000   4730 
_SEQ_PAR_071                              IMPT 00000000   4731 
_SEQ_PAR_072                              IMPT 00000000   4732 
_SEQ_PAR_073                              IMPT 00000000   4733 
_SEQ_PAR_074                              IMPT 00000000   4734 
*** SuperH RISC engine ASSEMBLER V.7.01.02.000 ***    12/13/20 18:20:45                                                  PAGE    49

*** CROSS REFERENCE LIST

NAME                             SECTION  ATTR VALUE             SEQUENCE

_SEQ_PAR_075                              IMPT 00000000   4735 
_SEQ_PAR_076                              IMPT 00000000   4736 
_SEQ_PAR_077                              IMPT 00000000   4737 
_SEQ_PAR_078                              IMPT 00000000   4738 
_SEQ_PAR_079                              IMPT 00000000   4739 
_SEQ_PAR_080                              IMPT 00000000   4740 
_SEQ_PAR_081                              IMPT 00000000   4741 
_SEQ_PAR_082                              IMPT 00000000   4742 
_SEQ_PAR_083                              IMPT 00000000   4743 
_SEQ_PAR_084                              IMPT 00000000   4744 
_SEQ_PAR_085                              IMPT 00000000   4745 
_SEQ_PAR_086                              IMPT 00000000   4746 
_SEQ_PAR_087                              IMPT 00000000   4747 
_SEQ_PAR_088                              IMPT 00000000   4748 
_SEQ_PAR_089                              IMPT 00000000   4749 
_SEQ_PAR_090                              IMPT 00000000   4750 
_SEQ_PAR_091                              IMPT 00000000   4751 
_SEQ_PAR_092                              IMPT 00000000   4752 
_SEQ_PAR_093                              IMPT 00000000   4753 
_SEQ_PAR_094                              IMPT 00000000   4754 
_SEQ_PAR_095                              IMPT 00000000   4755 
_SEQ_PAR_096                              IMPT 00000000   4756 
_SEQ_PAR_097                              IMPT 00000000   4757 
_SEQ_PAR_098                              IMPT 00000000   4758 
_SEQ_PAR_099                              IMPT 00000000   4759 
_SEQ_PAR_100                              IMPT 00000000   4760 
_SEQ_PAR_101                              IMPT 00000000   4761 
_SEQ_PAR_102                              IMPT 00000000   4762 
_SEQ_PAR_103                              IMPT 00000000   4763 
_SEQ_PAR_104                              IMPT 00000000   4764 
_SEQ_PAR_105                              IMPT 00000000   4765 
_SEQ_PAR_106                              IMPT 00000000   4766 
_SEQ_PAR_107                              IMPT 00000000   4767 
_SEQ_PAR_108                              IMPT 00000000   4768 
_SEQ_PAR_109                              IMPT 00000000   4769 
_SEQ_PAR_110                              IMPT 00000000   4770 
_SEQ_PAR_111                              IMPT 00000000   4771 
_SEQ_PAR_112                              IMPT 00000000   4772 
_SEQ_PAR_113                              IMPT 00000000   4773 
_SEQ_PAR_114                              IMPT 00000000   4774 
_SEQ_PAR_115                              IMPT 00000000   4775 
_SEQ_PAR_116                              IMPT 00000000   4776 
_SEQ_PAR_117                              IMPT 00000000   4777 
_SEQ_PAR_118                              IMPT 00000000   4778 
_SEQ_PAR_119                              IMPT 00000000   4779 
_SEQ_PAR_120                              IMPT 00000000   4780 
_SEQ_PAR_121                              IMPT 00000000   4781 
_SEQ_PAR_122                              IMPT 00000000   4782 
_SEQ_PAR_123                              IMPT 00000000   4783 
_SEQ_PAR_124                              IMPT 00000000   4784 
_SEQ_PAR_125                              IMPT 00000000   4785 
_SEQ_PAR_126                              IMPT 00000000   4786 
_SEQ_PAR_127                              IMPT 00000000   4787 
_SEQ_PAR_128                              IMPT 00000000   4788 
*** SuperH RISC engine ASSEMBLER V.7.01.02.000 ***    12/13/20 18:20:45                                                  PAGE    50

*** CROSS REFERENCE LIST

NAME                             SECTION  ATTR VALUE             SEQUENCE

_SEQ_PAR_129                              IMPT 00000000   4789 
_SEQ_PAR_130                              IMPT 00000000   4790 
_SEQ_PAR_131                              IMPT 00000000   4791 
_SEQ_PAR_132                              IMPT 00000000   4792 
_SEQ_PAR_133                              IMPT 00000000   4793 
_SEQ_PAR_134                              IMPT 00000000   4794 
_SEQ_PAR_135                              IMPT 00000000   4795 
_SEQ_PAR_136                              IMPT 00000000   4796 
_SEQ_PAR_137                              IMPT 00000000   4797 
_SEQ_PAR_138                              IMPT 00000000   4798 
_SEQ_PAR_139                              IMPT 00000000   4799 
_SEQ_PAR_140                              IMPT 00000000   4800 
_SEQ_PAR_141                              IMPT 00000000   4801 
_SEQ_PAR_142                              IMPT 00000000   4802 
_SEQ_PAR_143                              IMPT 00000000   4803 
_SEQ_PAR_144                              IMPT 00000000   4804 
_SEQ_PAR_145                              IMPT 00000000   4805 
_SEQ_PAR_146                              IMPT 00000000   4806 
_SEQ_PAR_147                              IMPT 00000000   4807 
_SEQ_PAR_148                              IMPT 00000000   4808 
_SEQ_PAR_149                              IMPT 00000000   4809 
_SEQ_PAR_150                              IMPT 00000000   4810 
_SEQ_PAR_151                              IMPT 00000000   4811 
_SEQ_PAR_152                              IMPT 00000000   4812 
_SEQ_PAR_153                              IMPT 00000000   4813 
_SEQ_PAR_154                              IMPT 00000000   4814 
_SEQ_PAR_155                              IMPT 00000000   4815 
_SEQ_PAR_156                              IMPT 00000000   4816 
_SEQ_PAR_157                              IMPT 00000000   4817 
_SEQ_PAR_158                              IMPT 00000000   4818 
_SEQ_PAR_159                              IMPT 00000000   4819 
_SEQ_PAR_160                              IMPT 00000000   4820 
_SEQ_PAR_161                              IMPT 00000000   4821 
_SEQ_PAR_162                              IMPT 00000000   4822 
_SEQ_PAR_163                              IMPT 00000000   4823 
_SEQ_PAR_164                              IMPT 00000000   4824 
_SEQ_PAR_165                              IMPT 00000000   4825 
_SEQ_PAR_166                              IMPT 00000000   4826 
_SEQ_PAR_167                              IMPT 00000000   4827 
_SEQ_PAR_168                              IMPT 00000000   4828 
_SEQ_PAR_169                              IMPT 00000000   4829 
_SEQ_PAR_170                              IMPT 00000000   4830 
_SEQ_PAR_171                              IMPT 00000000   4831 
_SEQ_PAR_172                              IMPT 00000000   4832 
_SEQ_PAR_173                              IMPT 00000000   4833 
_SEQ_PAR_174                              IMPT 00000000   4834 
_SEQ_PAR_175                              IMPT 00000000   4835 
_SEQ_PAR_176                              IMPT 00000000   4836 
_SEQ_PAR_177                              IMPT 00000000   4837 
_SEQ_PAR_178                              IMPT 00000000   4838 
_SEQ_PAR_179                              IMPT 00000000   4839 
_SEQ_PAR_180                              IMPT 00000000   4840 
_SEQ_PAR_181                              IMPT 00000000   4841 
_SEQ_PAR_182                              IMPT 00000000   4842 
*** SuperH RISC engine ASSEMBLER V.7.01.02.000 ***    12/13/20 18:20:45                                                  PAGE    51

*** CROSS REFERENCE LIST

NAME                             SECTION  ATTR VALUE             SEQUENCE

_SEQ_PAR_183                              IMPT 00000000   4843 
_SEQ_PAR_184                              IMPT 00000000   4844 
_SEQ_PAR_185                              IMPT 00000000   4845 
_SEQ_PAR_186                              IMPT 00000000   4846 
_SEQ_PAR_187                              IMPT 00000000   4847 
_SEQ_PAR_188                              IMPT 00000000   4848 
_SEQ_PAR_189                              IMPT 00000000   4849 
_SEQ_PAR_190                              IMPT 00000000   4850 
_SEQ_PAR_191                              IMPT 00000000   4851 
_SEQ_PAR_192                              IMPT 00000000   4852 
_SEQ_PAR_193                              IMPT 00000000   4853 
_SEQ_PAR_194                              IMPT 00000000   4854 
_SEQ_PAR_195                              IMPT 00000000   4855 
_SEQ_PAR_196                              IMPT 00000000   4856 
_SEQ_PAR_197                              IMPT 00000000   4857 
_SEQ_PAR_198                              IMPT 00000000   4858 
_SEQ_PAR_199                              IMPT 00000000   4859 
_SEQ_PAR_200                              IMPT 00000000   4860 
_SEQ_PAR_201                              IMPT 00000000   4861 
_SEQ_PAR_202                              IMPT 00000000   4862 
_SEQ_PAR_203                              IMPT 00000000   4863 
_SEQ_PAR_204                              IMPT 00000000   4864 
_SEQ_PAR_205                              IMPT 00000000   4865 
_SEQ_PAR_206                              IMPT 00000000   4866 
_SEQ_PAR_207                              IMPT 00000000   4867 
_SEQ_PAR_208                              IMPT 00000000   4868 
_SEQ_PAR_209                              IMPT 00000000   4869 
_SEQ_PAR_210                              IMPT 00000000   4870 
_SEQ_PAR_211                              IMPT 00000000   4871 
_SEQ_PAR_212                              IMPT 00000000   4872 
_SEQ_PAR_213                              IMPT 00000000   4873 
_SEQ_PAR_214                              IMPT 00000000   4874 
_SEQ_PAR_215                              IMPT 00000000   4875 
_SEQ_PAR_216                              IMPT 00000000   4876 
_SEQ_PAR_217                              IMPT 00000000   4877 
_SEQ_PAR_218                              IMPT 00000000   4878 
_SEQ_PAR_219                              IMPT 00000000   4879 
_SEQ_PAR_220                              IMPT 00000000   4880 
_SEQ_PAR_221                              IMPT 00000000   4881 
_SEQ_PAR_222                              IMPT 00000000   4882 
_SEQ_PAR_223                              IMPT 00000000   4883 
_SEQ_PAR_224                              IMPT 00000000   4884 
_SEQ_PAR_225                              IMPT 00000000   4885 
_SEQ_PAR_226                              IMPT 00000000   4886 
_SEQ_PAR_227                              IMPT 00000000   4887 
_SEQ_PAR_228                              IMPT 00000000   4888 
_SEQ_PAR_229                              IMPT 00000000   4889 
_SEQ_PAR_230                              IMPT 00000000   4890 
_SEQ_PAR_231                              IMPT 00000000   4891 
_SEQ_PAR_232                              IMPT 00000000   4892 
_SEQ_PAR_233                              IMPT 00000000   4893 
_SEQ_PAR_234                              IMPT 00000000   4894 
_SEQ_PAR_235                              IMPT 00000000   4895 
_SEQ_PAR_236                              IMPT 00000000   4896 
*** SuperH RISC engine ASSEMBLER V.7.01.02.000 ***    12/13/20 18:20:45                                                  PAGE    52

*** CROSS REFERENCE LIST

NAME                             SECTION  ATTR VALUE             SEQUENCE

_SEQ_PAR_237                              IMPT 00000000   4897 
_SEQ_PAR_238                              IMPT 00000000   4898 
_SEQ_PAR_239                              IMPT 00000000   4899 
_SEQ_PAR_240                              IMPT 00000000   4900 
_SEQ_PAR_241                              IMPT 00000000   4901 
_SEQ_PAR_242                              IMPT 00000000   4902 
_SEQ_PAR_243                              IMPT 00000000   4903 
_SEQ_PAR_244                              IMPT 00000000   4904 
_SEQ_PAR_245                              IMPT 00000000   4905 
_SEQ_PAR_246                              IMPT 00000000   4906 
_SEQ_PAR_247                              IMPT 00000000   4907 
_SEQ_PAR_248                              IMPT 00000000   4908 
_SEQ_PAR_249                              IMPT 00000000   4909 
_SEQ_PAR_250                              IMPT 00000000   4910 
_SEQ_PAR_251                              IMPT 00000000   4911 
_SEQ_PAR_252                              IMPT 00000000   4912 
_SEQ_PAR_253                              IMPT 00000000   4913 
_SEQ_PAR_254                              IMPT 00000000   4914 
_SEQ_PAR_255                              IMPT 00000000   4915 
_SEQ_PAR_256                              IMPT 00000000   4916 
_SEQ_PAR_257                              IMPT 00000000   4917 
_SEQ_PAR_258                              IMPT 00000000   4918 
_SEQ_PAR_259                              IMPT 00000000   4919 
_SEQ_PAR_260                              IMPT 00000000   4920 
_SEQ_PAR_261                              IMPT 00000000   4921 
_SEQ_PAR_262                              IMPT 00000000   4922 
_SEQ_PAR_263                              IMPT 00000000   4923 
_SEQ_PAR_264                              IMPT 00000000   4924 
_SEQ_PAR_265                              IMPT 00000000   4925 
_SEQ_PAR_266                              IMPT 00000000   4926 
_SEQ_PAR_267                              IMPT 00000000   4927 
_SEQ_PAR_268                              IMPT 00000000   4928 
_SEQ_PAR_269                              IMPT 00000000   4929 
_SEQ_PAR_270                              IMPT 00000000   4930 
_SEQ_PAR_271                              IMPT 00000000   4931 
_SEQ_PAR_272                              IMPT 00000000   4932 
_SEQ_PAR_273                              IMPT 00000000   4933 
_SEQ_PAR_274                              IMPT 00000000   4934 
_SEQ_PAR_275                              IMPT 00000000   4935 
_SEQ_PAR_276                              IMPT 00000000   4936 
_SEQ_PAR_277                              IMPT 00000000   4937 
_SEQ_PAR_278                              IMPT 00000000   4938 
_SEQ_PAR_279                              IMPT 00000000   4939 
_SEQ_PAR_280                              IMPT 00000000   4940 
_SEQ_PAR_281                              IMPT 00000000   4941 
_SEQ_PAR_282                              IMPT 00000000   4942 
_SEQ_PAR_283                              IMPT 00000000   4943 
_SEQ_PAR_284                              IMPT 00000000   4944 
_SEQ_PAR_285                              IMPT 00000000   4945 
_SEQ_PAR_286                              IMPT 00000000   4946 
_SEQ_PAR_287                              IMPT 00000000   4947 
_SEQ_PAR_288                              IMPT 00000000   4948 
_SEQ_PAR_289                              IMPT 00000000   4949 
_SEQ_PAR_290                              IMPT 00000000   4950 
*** SuperH RISC engine ASSEMBLER V.7.01.02.000 ***    12/13/20 18:20:45                                                  PAGE    53

*** CROSS REFERENCE LIST

NAME                             SECTION  ATTR VALUE             SEQUENCE

_SEQ_PAR_291                              IMPT 00000000   4951 
_SEQ_PAR_292                              IMPT 00000000   4952 
_SEQ_PAR_293                              IMPT 00000000   4953 
_SEQ_PAR_294                              IMPT 00000000   4954 
_SEQ_PAR_295                              IMPT 00000000   4955 
_SEQ_PAR_296                              IMPT 00000000   4956 
_SEQ_PAR_297                              IMPT 00000000   4957 
_SEQ_PAR_298                              IMPT 00000000   4958 
_SEQ_PAR_299                              IMPT 00000000   4959 
_SEQ_PAR_300                              IMPT 00000000   4960 
_SEQ_PAR_301                              IMPT 00000000   4961 
_SEQ_PAR_302                              IMPT 00000000   4962 
_SEQ_PAR_303                              IMPT 00000000   4963 
_SEQ_PAR_304                              IMPT 00000000   4964 
_SEQ_PAR_305                              IMPT 00000000   4965 
_SEQ_PAR_306                              IMPT 00000000   4966 
_SEQ_PAR_307                              IMPT 00000000   4967 
_SEQ_PAR_308                              IMPT 00000000   4968 
_SEQ_PAR_309                              IMPT 00000000   4969 
_SEQ_PAR_310                              IMPT 00000000   4970 
_SEQ_PAR_311                              IMPT 00000000   4971 
_SEQ_PAR_312                              IMPT 00000000   4972 
_SEQ_PAR_313                              IMPT 00000000   4973 
_SEQ_PAR_314                              IMPT 00000000   4974 
_SEQ_PAR_315                              IMPT 00000000   4975 
_SEQ_PAR_316                              IMPT 00000000   4976 
_SEQ_PAR_317                              IMPT 00000000   4977 
_SEQ_PAR_318                              IMPT 00000000   4978 
_SEQ_PAR_319                              IMPT 00000000   4979 
_SEQ_PAR_320                              IMPT 00000000   4980 
_SEQ_PAR_321                              IMPT 00000000   4981 
_SEQ_PAR_322                              IMPT 00000000   4982 
_SEQ_PAR_323                              IMPT 00000000   4983 
_SEQ_PAR_324                              IMPT 00000000   4984 
_SEQ_PAR_325                              IMPT 00000000   4985 
_SEQ_PAR_326                              IMPT 00000000   4986 
_SEQ_PAR_327                              IMPT 00000000   4987 
_SEQ_PAR_328                              IMPT 00000000   4988 
_SEQ_PAR_329                              IMPT 00000000   4989 
_SEQ_PAR_330                              IMPT 00000000   4990 
_SEQ_PAR_331                              IMPT 00000000   4991 
_SEQ_PAR_332                              IMPT 00000000   4992 
_SEQ_PAR_333                              IMPT 00000000   4993 
_SEQ_PAR_334                              IMPT 00000000   4994 
_SEQ_PAR_335                              IMPT 00000000   4995 
_SEQ_PAR_336                              IMPT 00000000   4996 
_SEQ_PAR_337                              IMPT 00000000   4997 
_SEQ_PAR_338                              IMPT 00000000   4998 
_SEQ_PAR_339                              IMPT 00000000   4999 
_SEQ_PAR_340                              IMPT 00000000   5000 
_SEQ_PAR_341                              IMPT 00000000   5001 
_SEQ_PAR_342                              IMPT 00000000   5002 
_SEQ_PAR_343                              IMPT 00000000   5003 
_SEQ_PAR_344                              IMPT 00000000   5004 
*** SuperH RISC engine ASSEMBLER V.7.01.02.000 ***    12/13/20 18:20:45                                                  PAGE    54

*** CROSS REFERENCE LIST

NAME                             SECTION  ATTR VALUE             SEQUENCE

_SEQ_PAR_345                              IMPT 00000000   5005 
_SEQ_PAR_346                              IMPT 00000000   5006 
_SEQ_PAR_347                              IMPT 00000000   5007 
_SEQ_PAR_348                              IMPT 00000000   5008 
_SEQ_PAR_349                              IMPT 00000000   5009 
_SEQ_PAR_350                              IMPT 00000000   5010 
_SEQ_PAR_351                              IMPT 00000000   5011 
_SEQ_PAR_352                              IMPT 00000000   5012 
_SEQ_PAR_353                              IMPT 00000000   5013 
_SEQ_PAR_354                              IMPT 00000000   5014 
_SEQ_PAR_355                              IMPT 00000000   5015 
_SEQ_PAR_356                              IMPT 00000000   5016 
_SEQ_PAR_357                              IMPT 00000000   5017 
_SEQ_PAR_358                              IMPT 00000000   5018 
_SEQ_PAR_359                              IMPT 00000000   5019 
_SEQ_PAR_360                              IMPT 00000000   5020 
_SEQ_PAR_361                              IMPT 00000000   5021 
_SEQ_PAR_362                              IMPT 00000000   5022 
_SEQ_PAR_363                              IMPT 00000000   5023 
_SEQ_PAR_364                              IMPT 00000000   5024 
_SEQ_PAR_365                              IMPT 00000000   5025 
_SEQ_PAR_366                              IMPT 00000000   5026 
_SEQ_PAR_367                              IMPT 00000000   5027 
_SEQ_PAR_368                              IMPT 00000000   5028 
_SEQ_PAR_369                              IMPT 00000000   5029 
_SEQ_PAR_370                              IMPT 00000000   5030 
_SEQ_PAR_371                              IMPT 00000000   5031 
_SEQ_PAR_372                              IMPT 00000000   5032 
_SEQ_PAR_373                              IMPT 00000000   5033 
_SEQ_PAR_374                              IMPT 00000000   5034 
_SEQ_PAR_375                              IMPT 00000000   5035 
_SEQ_PAR_376                              IMPT 00000000   5036 
_SEQ_PAR_377                              IMPT 00000000   5037 
_SEQ_PAR_378                              IMPT 00000000   5038 
_SEQ_PAR_379                              IMPT 00000000   5039 
_SEQ_PAR_380                              IMPT 00000000   5040 
_SEQ_PAR_381                              IMPT 00000000   5041 
_SEQ_PAR_382                              IMPT 00000000   5042 
_SEQ_PAR_383                              IMPT 00000000   5043 
_SEQ_PAR_384                              IMPT 00000000   5044 
_SEQ_PAR_385                              IMPT 00000000   5045 
_SEQ_PAR_386                              IMPT 00000000   5046 
_SEQ_PAR_387                              IMPT 00000000   5047 
_SEQ_PAR_388                              IMPT 00000000   5048 
_SEQ_PAR_389                              IMPT 00000000   5049 
_SEQ_PAR_390                              IMPT 00000000   5050 
_SEQ_PAR_391                              IMPT 00000000   5051 
_SEQ_PAR_392                              IMPT 00000000   5052 
_SEQ_PAR_393                              IMPT 00000000   5053 
_SEQ_PAR_394                              IMPT 00000000   5054 
_SEQ_PAR_395                              IMPT 00000000   5055 
_SEQ_PAR_396                              IMPT 00000000   5056 
_SEQ_PAR_397                              IMPT 00000000   5057 
_SEQ_PAR_398                              IMPT 00000000   5058 
*** SuperH RISC engine ASSEMBLER V.7.01.02.000 ***    12/13/20 18:20:45                                                  PAGE    55

*** CROSS REFERENCE LIST

NAME                             SECTION  ATTR VALUE             SEQUENCE

_SEQ_PAR_399                              IMPT 00000000   5059 
_SEQ_PAR_400                              IMPT 00000000   5060 
_SEQ_PAR_401                              IMPT 00000000   5061 
_SEQ_PAR_402                              IMPT 00000000   5062 
_SEQ_PAR_403                              IMPT 00000000   5063 
_SEQ_PAR_404                              IMPT 00000000   5064 
_SEQ_PAR_405                              IMPT 00000000   5065 
_SEQ_PAR_406                              IMPT 00000000   5066 
_SEQ_PAR_407                              IMPT 00000000   5067 
_SEQ_PAR_408                              IMPT 00000000   5068 
_SEQ_PAR_409                              IMPT 00000000   5069 
_SEQ_PAR_410                              IMPT 00000000   5070 
_SEQ_PAR_411                              IMPT 00000000   5071 
_SEQ_PAR_412                              IMPT 00000000   5072 
_SEQ_PAR_413                              IMPT 00000000   5073 
_SEQ_PAR_414                              IMPT 00000000   5074 
_SEQ_PAR_415                              IMPT 00000000   5075 
_SEQ_PAR_416                              IMPT 00000000   5076 
_SEQ_PAR_417                              IMPT 00000000   5077 
_SEQ_PAR_418                              IMPT 00000000   5078 
_SEQ_PAR_419                              IMPT 00000000   5079 
_SEQ_PAR_420                              IMPT 00000000   5080 
_SEQ_PAR_421                              IMPT 00000000   5081 
_SEQ_PAR_422                              IMPT 00000000   5082 
_SEQ_PAR_423                              IMPT 00000000   5083 
_SEQ_PAR_424                              IMPT 00000000   5084 
_SEQ_PAR_425                              IMPT 00000000   5085 
_SEQ_PAR_426                              IMPT 00000000   5086 
_SEQ_PAR_427                              IMPT 00000000   5087 
_SEQ_PAR_428                              IMPT 00000000   5088 
_SEQ_PAR_429                              IMPT 00000000   5089 
_SEQ_PAR_430                              IMPT 00000000   5090 
_SEQ_PAR_431                              IMPT 00000000   5091 
_SEQ_PAR_432                              IMPT 00000000   5092 
_SEQ_PAR_433                              IMPT 00000000   5093 
_SEQ_PAR_434                              IMPT 00000000   5094 
_SEQ_PAR_435                              IMPT 00000000   5095 
_SEQ_PAR_436                              IMPT 00000000   5096 
_SEQ_PAR_437                              IMPT 00000000   5097 
_SEQ_PAR_438                              IMPT 00000000   5098 
_SEQ_PAR_439                              IMPT 00000000   5099 
_SEQ_PAR_440                              IMPT 00000000   5100 
_SEQ_PAR_441                              IMPT 00000000   5101 
_SEQ_PAR_442                              IMPT 00000000   5102 
_SEQ_PAR_443                              IMPT 00000000   5103 
_SEQ_PAR_444                              IMPT 00000000   5104 
_SEQ_PAR_445                              IMPT 00000000   5105 
_SEQ_PAR_446                              IMPT 00000000   5106 
_SEQ_PAR_447                              IMPT 00000000   5107 
_SEQ_PAR_448                              IMPT 00000000   5108 
_SEQ_PAR_449                              IMPT 00000000   5109 
_SEQ_PAR_450                              IMPT 00000000   5110 
_SEQ_PAR_451                              IMPT 00000000   5111 
_SEQ_PAR_452                              IMPT 00000000   5112 
*** SuperH RISC engine ASSEMBLER V.7.01.02.000 ***    12/13/20 18:20:45                                                  PAGE    56

*** CROSS REFERENCE LIST

NAME                             SECTION  ATTR VALUE             SEQUENCE

_SEQ_PAR_453                              IMPT 00000000   5113 
_SEQ_PAR_454                              IMPT 00000000   5114 
_SEQ_PAR_455                              IMPT 00000000   5115 
_SEQ_PAR_456                              IMPT 00000000   5116 
_SEQ_PAR_457                              IMPT 00000000   5117 
_SEQ_PAR_458                              IMPT 00000000   5118 
_SEQ_PAR_459                              IMPT 00000000   5119 
_SEQ_PAR_460                              IMPT 00000000   5120 
_SEQ_PAR_461                              IMPT 00000000   5121 
_SEQ_PAR_462                              IMPT 00000000   5122 
_SEQ_PAR_463                              IMPT 00000000   5123 
_SEQ_PAR_464                              IMPT 00000000   5124 
_SEQ_PAR_465                              IMPT 00000000   5125 
_SEQ_PAR_466                              IMPT 00000000   5126 
_SEQ_PAR_467                              IMPT 00000000   5127 
_SEQ_PAR_468                              IMPT 00000000   5128 
_SEQ_PAR_469                              IMPT 00000000   5129 
_SEQ_PAR_470                              IMPT 00000000   5130 
_SEQ_PAR_471                              IMPT 00000000   5131 
_SEQ_PAR_472                              IMPT 00000000   5132 
_SEQ_PAR_473                              IMPT 00000000   5133 
_SEQ_PAR_474                              IMPT 00000000   5134 
_SEQ_PAR_475                              IMPT 00000000   5135 
_SEQ_PAR_476                              IMPT 00000000   5136 
_SEQ_PAR_477                              IMPT 00000000   5137 
_SEQ_PAR_478                              IMPT 00000000   5138 
_SEQ_PAR_479                              IMPT 00000000   5139 
_SEQ_PAR_480                              IMPT 00000000   5140 
_SEQ_PAR_481                              IMPT 00000000   5141 
_SEQ_PAR_482                              IMPT 00000000   5142 
_SEQ_PAR_483                              IMPT 00000000   5143 
_SEQ_PAR_484                              IMPT 00000000   5144 
_SEQ_PAR_485                              IMPT 00000000   5145 
_SEQ_PAR_486                              IMPT 00000000   5146 
_SEQ_PAR_487                              IMPT 00000000   5147 
_SEQ_PAR_488                              IMPT 00000000   5148 
_SEQ_PAR_489                              IMPT 00000000   5149 
_SEQ_PAR_490                              IMPT 00000000   5150 
_SEQ_PAR_491                              IMPT 00000000   5151 
_SEQ_PAR_492                              IMPT 00000000   5152 
_SEQ_PAR_493                              IMPT 00000000   5153 
_SEQ_PAR_494                              IMPT 00000000   5154 
_SEQ_PAR_495                              IMPT 00000000   5155 
_SEQ_PAR_496                              IMPT 00000000   5156 
_SEQ_PAR_497                              IMPT 00000000   5157 
_SEQ_PAR_498                              IMPT 00000000   5158 
_SEQ_PAR_499                              IMPT 00000000   5159 
_SEQ_PAR_500                              IMPT 00000000   5160 
_SEQ_PAR_501                              IMPT 00000000   5161 
_SEQ_PAR_502                              IMPT 00000000   5162 
_SEQ_PAR_503                              IMPT 00000000   5163 
_SEQ_PAR_504                              IMPT 00000000   5164 
_SEQ_PAR_505                              IMPT 00000000   5165 
_SEQ_PAR_506                              IMPT 00000000   5166 
*** SuperH RISC engine ASSEMBLER V.7.01.02.000 ***    12/13/20 18:20:45                                                  PAGE    57

*** CROSS REFERENCE LIST

NAME                             SECTION  ATTR VALUE             SEQUENCE

_SEQ_PAR_507                              IMPT 00000000   5167 
_SEQ_PAR_508                              IMPT 00000000   5168 
_SEQ_PAR_509                              IMPT 00000000   5169 
_SEQ_PAR_510                              IMPT 00000000   5170 
_SEQ_PAR_511                              IMPT 00000000   5171 
_SEQ_PAR_512                              IMPT 00000000   5172 
_SEQ_PAR_513                              IMPT 00000000   5173 
_SEQ_PAR_514                              IMPT 00000000   5174 
_SEQ_PAR_515                              IMPT 00000000   5175 
_SEQ_PAR_516                              IMPT 00000000   5176 
_SEQ_PAR_517                              IMPT 00000000   5177 
_SEQ_PAR_518                              IMPT 00000000   5178 
_SEQ_PAR_519                              IMPT 00000000   5179 
_SEQ_PAR_520                              IMPT 00000000   5180 
_SEQ_PAR_521                              IMPT 00000000   5181 
_SEQ_PAR_522                              IMPT 00000000   5182 
_SEQ_PAR_523                              IMPT 00000000   5183 
_SEQ_PAR_524                              IMPT 00000000   5184 
_SEQ_PAR_525                              IMPT 00000000   5185 
_SEQ_PAR_526                              IMPT 00000000   5186 
_SEQ_PAR_527                              IMPT 00000000   5187 
_SEQ_PAR_528                              IMPT 00000000   5188 
_SEQ_PAR_529                              IMPT 00000000   5189 
_SEQ_PAR_530                              IMPT 00000000   5190 
_SEQ_PAR_531                              IMPT 00000000   5191 
_SEQ_PAR_532                              IMPT 00000000   5192 
_SEQ_PAR_533                              IMPT 00000000   5193 
_SEQ_PAR_534                              IMPT 00000000   5194 
_SEQ_PAR_535                              IMPT 00000000   5195 
_SEQ_PAR_536                              IMPT 00000000   5196 
_SEQ_PAR_537                              IMPT 00000000   5197 
_SEQ_PAR_538                              IMPT 00000000   5198 
_SEQ_PAR_539                              IMPT 00000000   5199 
_SEQ_PAR_540                              IMPT 00000000   5200 
_SEQ_PAR_541                              IMPT 00000000   5201 
_SEQ_PAR_542                              IMPT 00000000   5202 
_SEQ_PAR_543                              IMPT 00000000   5203 
_SEQ_PAR_544                              IMPT 00000000   5204 
_SEQ_PAR_545                              IMPT 00000000   5205 
_SEQ_PAR_546                              IMPT 00000000   5206 
_SEQ_PAR_547                              IMPT 00000000   5207 
_SEQ_PAR_548                              IMPT 00000000   5208 
_SEQ_PAR_549                              IMPT 00000000   5209 
_SEQ_PAR_550                              IMPT 00000000   5210 
_SEQ_PAR_551                              IMPT 00000000   5211 
_SEQ_PAR_552                              IMPT 00000000   5212 
_SEQ_PAR_553                              IMPT 00000000   5213 
_SEQ_PAR_554                              IMPT 00000000   5214 
_SEQ_PAR_555                              IMPT 00000000   5215 
_SEQ_PAR_556                              IMPT 00000000   5216 
_SEQ_PAR_557                              IMPT 00000000   5217 
_SEQ_PAR_558                              IMPT 00000000   5218 
_SEQ_PAR_559                              IMPT 00000000   5219 
_SEQ_PAR_560                              IMPT 00000000   5220 
*** SuperH RISC engine ASSEMBLER V.7.01.02.000 ***    12/13/20 18:20:45                                                  PAGE    58

*** CROSS REFERENCE LIST

NAME                             SECTION  ATTR VALUE             SEQUENCE

_SEQ_PAR_561                              IMPT 00000000   5221 
_SEQ_PAR_562                              IMPT 00000000   5222 
_SEQ_PAR_563                              IMPT 00000000   5223 
_SEQ_PAR_564                              IMPT 00000000   5224 
_SEQ_PAR_565                              IMPT 00000000   5225 
_SEQ_PAR_566                              IMPT 00000000   5226 
_SEQ_PAR_567                              IMPT 00000000   5227 
_SEQ_PAR_568                              IMPT 00000000   5228 
_SEQ_PAR_569                              IMPT 00000000   5229 
_SEQ_PAR_570                              IMPT 00000000   5230 
_SEQ_PAR_571                              IMPT 00000000   5231 
_SEQ_PAR_572                              IMPT 00000000   5232 
_SEQ_PAR_573                              IMPT 00000000   5233 
_SEQ_PAR_574                              IMPT 00000000   5234 
_SEQ_PAR_575                              IMPT 00000000   5235 
_SEQ_PAR_576                              IMPT 00000000   5236 
_SEQ_PAR_577                              IMPT 00000000   5237 
_SEQ_PAR_578                              IMPT 00000000   5238 
_SEQ_PAR_579                              IMPT 00000000   5239 
_SEQ_PAR_580                              IMPT 00000000   5240 
_SEQ_PAR_581                              IMPT 00000000   5241 
_SEQ_PAR_582                              IMPT 00000000   5242 
_SEQ_PAR_583                              IMPT 00000000   5243 
_SEQ_PAR_584                              IMPT 00000000   5244 
_SEQ_PAR_585                              IMPT 00000000   5245 
_SEQ_PAR_586                              IMPT 00000000   5246 
_SEQ_PAR_587                              IMPT 00000000   5247 
_SEQ_PAR_588                              IMPT 00000000   5248 
_SEQ_PAR_589                              IMPT 00000000   5249 
_SEQ_PAR_590                              IMPT 00000000   5250 
_SEQ_PAR_591                              IMPT 00000000   5251 
_SEQ_PAR_592                              IMPT 00000000   5252 
_SEQ_PAR_593                              IMPT 00000000   5253 
_SEQ_PAR_594                              IMPT 00000000   5254 
_SEQ_PAR_595                              IMPT 00000000   5255 
_SEQ_PAR_596                              IMPT 00000000   5256 
_SEQ_PAR_597                              IMPT 00000000   5257 
_SEQ_PAR_598                              IMPT 00000000   5258 
_SEQ_PAR_599                              IMPT 00000000   5259 
_SEQ_PAR_600                              IMPT 00000000   5260 
_SEQ_PAR_601                              IMPT 00000000   5261 
_SEQ_PAR_602                              IMPT 00000000   5262 
_SEQ_PAR_603                              IMPT 00000000   5263 
_SEQ_PAR_604                              IMPT 00000000   5264 
_SEQ_PAR_605                              IMPT 00000000   5265 
_SEQ_PAR_606                              IMPT 00000000   5266 
_SEQ_PAR_607                              IMPT 00000000   5267 
_SEQ_PAR_608                              IMPT 00000000   5268 
_SEQ_PAR_609                              IMPT 00000000   5269 
_SEQ_PAR_610                              IMPT 00000000   5270 
_SEQ_PAR_611                              IMPT 00000000   5271 
_SEQ_PAR_612                              IMPT 00000000   5272 
_SEQ_PAR_613                              IMPT 00000000   5273 
_SEQ_PAR_614                              IMPT 00000000   5274 
*** SuperH RISC engine ASSEMBLER V.7.01.02.000 ***    12/13/20 18:20:45                                                  PAGE    59

*** CROSS REFERENCE LIST

NAME                             SECTION  ATTR VALUE             SEQUENCE

_SEQ_PAR_615                              IMPT 00000000   5275 
_SEQ_PAR_616                              IMPT 00000000   5276 
_SEQ_PAR_617                              IMPT 00000000   5277 
_SEQ_PAR_618                              IMPT 00000000   5278 
_SEQ_PAR_619                              IMPT 00000000   5279 
_SEQ_PAR_620                              IMPT 00000000   5280 
_SEQ_PAR_621                              IMPT 00000000   5281 
_SEQ_PAR_622                              IMPT 00000000   5282 
_SEQ_PAR_623                              IMPT 00000000   5283 
_SEQ_PAR_624                              IMPT 00000000   5284 
_SEQ_PAR_625                              IMPT 00000000   5285 
_SEQ_PAR_626                              IMPT 00000000   5286 
_SEQ_PAR_627                              IMPT 00000000   5287 
_SEQ_PAR_628                              IMPT 00000000   5288 
_SEQ_PAR_629                              IMPT 00000000   5289 
_SEQ_PAR_630                              IMPT 00000000   5290 
_SEQ_PAR_631                              IMPT 00000000   5291 
_SEQ_PAR_632                              IMPT 00000000   5292 
_SEQ_PAR_633                              IMPT 00000000   5293 
_SEQ_PAR_634                              IMPT 00000000   5294 
_SEQ_PAR_635                              IMPT 00000000   5295 
_SEQ_PAR_636                              IMPT 00000000   5296 
_SEQ_PAR_637                              IMPT 00000000   5297 
_SEQ_PAR_638                              IMPT 00000000   5298 
_SEQ_PAR_639                              IMPT 00000000   5299 
_SEQ_PAR_640                              IMPT 00000000   5300 
_SEQ_PAR_641                              IMPT 00000000   5301 
_SEQ_PAR_642                              IMPT 00000000   5302 
_SEQ_PAR_643                              IMPT 00000000   5303 
_SEQ_PAR_644                              IMPT 00000000   5304 
_SEQ_PAR_645                              IMPT 00000000   5305 
_SEQ_PAR_646                              IMPT 00000000   5306 
_SEQ_PAR_647                              IMPT 00000000   5307 
_SEQ_PAR_648                              IMPT 00000000   5308 
_SEQ_PAR_649                              IMPT 00000000   5309 
_SEQ_PAR_650                              IMPT 00000000   5310 
_SEQ_PAR_651                              IMPT 00000000   5311 
_SEQ_PAR_652                              IMPT 00000000   5312 
_SEQ_PAR_653                              IMPT 00000000   5313 
_SEQ_PAR_654                              IMPT 00000000   5314 
_SEQ_PAR_655                              IMPT 00000000   5315 
_SEQ_PAR_656                              IMPT 00000000   5316 
_SEQ_PAR_657                              IMPT 00000000   5317 
_SEQ_PAR_658                              IMPT 00000000   5318 
_SEQ_PAR_659                              IMPT 00000000   5319 
_SEQ_PAR_660                              IMPT 00000000   5320 
_SEQ_PAR_661                              IMPT 00000000   5321 
_SEQ_PAR_662                              IMPT 00000000   5322 
_SEQ_PAR_663                              IMPT 00000000   5323 
_SEQ_PAR_664                              IMPT 00000000   5324 
_SEQ_PAR_665                              IMPT 00000000   5325 
_SEQ_PAR_666                              IMPT 00000000   5326 
_SEQ_PAR_667                              IMPT 00000000   5327 
_SEQ_PAR_668                              IMPT 00000000   5328 
*** SuperH RISC engine ASSEMBLER V.7.01.02.000 ***    12/13/20 18:20:45                                                  PAGE    60

*** CROSS REFERENCE LIST

NAME                             SECTION  ATTR VALUE             SEQUENCE

_SEQ_PAR_669                              IMPT 00000000   5329 
_SEQ_PAR_670                              IMPT 00000000   5330 
_SEQ_PAR_671                              IMPT 00000000   5331 
_SEQ_PAR_672                              IMPT 00000000   5332 
_SEQ_PAR_673                              IMPT 00000000   5333 
_SEQ_PAR_674                              IMPT 00000000   5334 
_SEQ_PAR_675                              IMPT 00000000   5335 
_SEQ_PAR_676                              IMPT 00000000   5336 
_SEQ_PAR_677                              IMPT 00000000   5337 
_SEQ_PAR_678                              IMPT 00000000   5338 
_SEQ_PAR_679                              IMPT 00000000   5339 
_SEQ_PAR_680                              IMPT 00000000   5340 
_SEQ_PAR_681                              IMPT 00000000   5341 
_SEQ_PAR_682                              IMPT 00000000   5342 
_SEQ_PAR_683                              IMPT 00000000   5343 
_SEQ_PAR_684                              IMPT 00000000   5344 
_SEQ_PAR_685                              IMPT 00000000   5345 
_SEQ_PAR_686                              IMPT 00000000   5346 
_SEQ_PAR_687                              IMPT 00000000   5347 
_SEQ_PAR_688                              IMPT 00000000   5348 
_SEQ_PAR_689                              IMPT 00000000   5349 
_SEQ_PAR_690                              IMPT 00000000   5350 
_SEQ_PAR_691                              IMPT 00000000   5351 
_SEQ_PAR_692                              IMPT 00000000   5352 
_SEQ_PAR_693                              IMPT 00000000   5353 
_SEQ_PAR_694                              IMPT 00000000   5354 
_SEQ_PAR_695                              IMPT 00000000   5355 
_SEQ_PAR_696                              IMPT 00000000   5356 
_SEQ_PAR_697                              IMPT 00000000   5357 
_SEQ_PAR_698                              IMPT 00000000   5358 
_SEQ_PAR_699                              IMPT 00000000   5359 
_SEQ_PAR_700                              IMPT 00000000   5360 
_SEQ_PAR_701                              IMPT 00000000   5361 
_SEQ_PAR_702                              IMPT 00000000   5362 
_SEQ_PAR_703                              IMPT 00000000   5363 
_SEQ_PAR_704                              IMPT 00000000   5364 
_SEQ_PAR_705                              IMPT 00000000   5365 
_SEQ_PAR_706                              IMPT 00000000   5366 
_SEQ_PAR_707                              IMPT 00000000   5367 
_SEQ_PAR_708                              IMPT 00000000   5368 
_SEQ_PAR_709                              IMPT 00000000   5369 
_SEQ_PAR_710                              IMPT 00000000   5370 
_SEQ_PAR_711                              IMPT 00000000   5371 
_SEQ_PAR_712                              IMPT 00000000   5372 
_SEQ_PAR_713                              IMPT 00000000   5373 
_SEQ_PAR_714                              IMPT 00000000   5374 
_SEQ_PAR_715                              IMPT 00000000   5375 
_SEQ_PAR_716                              IMPT 00000000   5376 
_SEQ_PAR_717                              IMPT 00000000   5377 
_SEQ_PAR_718                              IMPT 00000000   5378 
_SEQ_PAR_719                              IMPT 00000000   5379 
_SEQ_PAR_720                              IMPT 00000000   5380 
_SEQ_PAR_721                              IMPT 00000000   5381 
_SEQ_PAR_722                              IMPT 00000000   5382 
*** SuperH RISC engine ASSEMBLER V.7.01.02.000 ***    12/13/20 18:20:45                                                  PAGE    61

*** CROSS REFERENCE LIST

NAME                             SECTION  ATTR VALUE             SEQUENCE

_SEQ_PAR_723                              IMPT 00000000   5383 
_SEQ_PAR_724                              IMPT 00000000   5384 
_SEQ_PAR_725                              IMPT 00000000   5385 
_SEQ_PAR_726                              IMPT 00000000   5386 
_SEQ_PAR_727                              IMPT 00000000   5387 
_SEQ_PAR_728                              IMPT 00000000   5388 
_SEQ_PAR_729                              IMPT 00000000   5389 
_SEQ_PAR_730                              IMPT 00000000   5390 
_SEQ_PAR_731                              IMPT 00000000   5391 
_SEQ_PAR_732                              IMPT 00000000   5392 
_SEQ_PAR_733                              IMPT 00000000   5393 
_SEQ_PAR_734                              IMPT 00000000   5394 
_SEQ_PAR_735                              IMPT 00000000   5395 
_SEQ_PAR_736                              IMPT 00000000   5396 
_SEQ_PAR_737                              IMPT 00000000   5397 
_SEQ_PAR_738                              IMPT 00000000   5398 
_SEQ_PAR_739                              IMPT 00000000   5399 
_SEQ_PAR_740                              IMPT 00000000   5400 
_SEQ_PAR_741                              IMPT 00000000   5401 
_SEQ_PAR_742                              IMPT 00000000   5402 
_SEQ_PAR_743                              IMPT 00000000   5403 
_SEQ_PAR_744                              IMPT 00000000   5404 
_SEQ_PAR_745                              IMPT 00000000   5405 
_SEQ_PAR_746                              IMPT 00000000   5406 
_SEQ_PAR_747                              IMPT 00000000   5407 
_SEQ_PAR_748                              IMPT 00000000   5408 
_SEQ_PAR_749                              IMPT 00000000   5409 
_SEQ_PAR_750                              IMPT 00000000   5410 
_SEQ_PAR_751                              IMPT 00000000   5411 
_SEQ_PAR_752                              IMPT 00000000   5412 
_SEQ_PAR_753                              IMPT 00000000   5413 
_SEQ_PAR_754                              IMPT 00000000   5414 
_SEQ_PAR_755                              IMPT 00000000   5415 
_SEQ_PAR_756                              IMPT 00000000   5416 
_SEQ_PAR_757                              IMPT 00000000   5417 
_SEQ_PAR_758                              IMPT 00000000   5418 
_SEQ_PAR_759                              IMPT 00000000   5419 
_SEQ_PAR_760                              IMPT 00000000   5420 
_SEQ_PAR_761                              IMPT 00000000   5421 
_SEQ_PAR_762                              IMPT 00000000   5422 
_SEQ_PAR_763                              IMPT 00000000   5423 
_SEQ_PAR_764                              IMPT 00000000   5424 
_SEQ_PAR_765                              IMPT 00000000   5425 
_SEQ_PAR_766                              IMPT 00000000   5426 
_SEQ_PAR_767                              IMPT 00000000   5427 
_SEQ_PAR_768                              IMPT 00000000   5428 
_SEQ_PAR_769                              IMPT 00000000   5429 
_SEQ_PAR_770                              IMPT 00000000   5430 
_SEQ_PAR_771                              IMPT 00000000   5431 
_SEQ_PAR_772                              IMPT 00000000   5432 
_SEQ_PAR_773                              IMPT 00000000   5433 
_SEQ_PAR_774                              IMPT 00000000   5434 
_SEQ_PAR_775                              IMPT 00000000   5435 
_SEQ_PAR_776                              IMPT 00000000   5436 
*** SuperH RISC engine ASSEMBLER V.7.01.02.000 ***    12/13/20 18:20:45                                                  PAGE    62

*** CROSS REFERENCE LIST

NAME                             SECTION  ATTR VALUE             SEQUENCE

_SEQ_PAR_777                              IMPT 00000000   5437 
_SEQ_PAR_778                              IMPT 00000000   5438 
_SEQ_PAR_779                              IMPT 00000000   5439 
_SEQ_PAR_780                              IMPT 00000000   5440 
_SEQ_PAR_781                              IMPT 00000000   5441 
_SEQ_PAR_782                              IMPT 00000000   5442 
_SEQ_PAR_783                              IMPT 00000000   5443 
_SEQ_PAR_784                              IMPT 00000000   5444 
_SEQ_PAR_785                              IMPT 00000000   5445 
_SEQ_PAR_786                              IMPT 00000000   5446 
_SEQ_PAR_787                              IMPT 00000000   5447 
_SEQ_PAR_788                              IMPT 00000000   5448 
_SEQ_PAR_789                              IMPT 00000000   5449 
_SEQ_PAR_790                              IMPT 00000000   5450 
_SEQ_PAR_791                              IMPT 00000000   5451 
_SEQ_PAR_792                              IMPT 00000000   5452 
_SEQ_PAR_793                              IMPT 00000000   5453 
_SEQ_PAR_794                              IMPT 00000000   5454 
_SEQ_PAR_795                              IMPT 00000000   5455 
_SEQ_PAR_796                              IMPT 00000000   5456 
_SEQ_PAR_797                              IMPT 00000000   5457 
_SEQ_PAR_798                              IMPT 00000000   5458 
_SEQ_PAR_799                              IMPT 00000000   5459 
_SEQ_PAR_800                              IMPT 00000000   5460 
_SEQ_PAR_801                              IMPT 00000000   5461 
_SEQ_PAR_802                              IMPT 00000000   5462 
_SEQ_PAR_803                              IMPT 00000000   5463 
_SEQ_PAR_804                              IMPT 00000000   5464 
_SEQ_PAR_805                              IMPT 00000000   5465 
_SEQ_PAR_806                              IMPT 00000000   5466 
_SEQ_PAR_807                              IMPT 00000000   5467 
_SEQ_PAR_808                              IMPT 00000000   5468 
_SEQ_PAR_809                              IMPT 00000000   5469 
_SEQ_PAR_810                              IMPT 00000000   5470 
_SEQ_PAR_811                              IMPT 00000000   5471 
_SEQ_PAR_812                              IMPT 00000000   5472 
_SEQ_PAR_813                              IMPT 00000000   5473 
_SEQ_PAR_814                              IMPT 00000000   5474 
_SEQ_PAR_815                              IMPT 00000000   5475 
_SEQ_PAR_816                              IMPT 00000000   5476 
_SEQ_PAR_817                              IMPT 00000000   5477 
_SEQ_PAR_818                              IMPT 00000000   5478 
_SEQ_PAR_819                              IMPT 00000000   5479 
_SEQ_PAR_820                              IMPT 00000000   5480 
_SEQ_PAR_821                              IMPT 00000000   5481 
_SEQ_PAR_822                              IMPT 00000000   5482 
_SEQ_PAR_823                              IMPT 00000000   5483 
_SEQ_PAR_824                              IMPT 00000000   5484 
_SEQ_PAR_825                              IMPT 00000000   5485 
_SEQ_PAR_826                              IMPT 00000000   5486 
_SEQ_PAR_827                              IMPT 00000000   5487 
_SEQ_PAR_828                              IMPT 00000000   5488 
_SEQ_PAR_829                              IMPT 00000000   5489 
_SEQ_PAR_830                              IMPT 00000000   5490 
*** SuperH RISC engine ASSEMBLER V.7.01.02.000 ***    12/13/20 18:20:45                                                  PAGE    63

*** CROSS REFERENCE LIST

NAME                             SECTION  ATTR VALUE             SEQUENCE

_SEQ_PAR_831                              IMPT 00000000   5491 
_SEQ_PAR_832                              IMPT 00000000   5492 
_SEQ_PAR_833                              IMPT 00000000   5493 
_SEQ_PAR_834                              IMPT 00000000   5494 
_SEQ_PAR_835                              IMPT 00000000   5495 
_SEQ_PAR_836                              IMPT 00000000   5496 
_SEQ_PAR_837                              IMPT 00000000   5497 
_SEQ_PAR_838                              IMPT 00000000   5498 
_SEQ_PAR_839                              IMPT 00000000   5499 
_SEQ_PAR_840                              IMPT 00000000   5500 
_SEQ_PAR_841                              IMPT 00000000   5501 
_SEQ_PAR_842                              IMPT 00000000   5502 
_SEQ_PAR_843                              IMPT 00000000   5503 
_SEQ_PAR_844                              IMPT 00000000   5504 
_SEQ_PAR_845                              IMPT 00000000   5505 
_SEQ_PAR_846                              IMPT 00000000   5506 
_SEQ_PAR_847                              IMPT 00000000   5507 
_SEQ_PAR_848                              IMPT 00000000   5508 
_SEQ_PAR_849                              IMPT 00000000   5509 
_SEQ_PAR_850                              IMPT 00000000   5510 
_SEQ_PAR_851                              IMPT 00000000   5511 
_SEQ_PAR_852                              IMPT 00000000   5512 
_SEQ_PAR_853                              IMPT 00000000   5513 
_SEQ_PAR_854                              IMPT 00000000   5514 
_SEQ_PAR_855                              IMPT 00000000   5515 
_SEQ_PAR_856                              IMPT 00000000   5516 
_SEQ_PAR_857                              IMPT 00000000   5517 
_SEQ_PAR_858                              IMPT 00000000   5518 
_SEQ_PAR_859                              IMPT 00000000   5519 
_SEQ_PAR_860                              IMPT 00000000   5520 
_SEQ_PAR_861                              IMPT 00000000   5521 
_SEQ_PAR_862                              IMPT 00000000   5522 
_SEQ_PAR_863                              IMPT 00000000   5523 
_SEQ_PAR_864                              IMPT 00000000   5524 
_SEQ_PAR_865                              IMPT 00000000   5525 
_SEQ_PAR_866                              IMPT 00000000   5526 
_SEQ_PAR_867                              IMPT 00000000   5527 
_SEQ_PAR_868                              IMPT 00000000   5528 
_SEQ_PAR_869                              IMPT 00000000   5529 
_SEQ_PAR_870                              IMPT 00000000   5530 
_SEQ_PAR_871                              IMPT 00000000   5531 
_SEQ_PAR_872                              IMPT 00000000   5532 
_SEQ_PAR_873                              IMPT 00000000   5533 
_SEQ_PAR_874                              IMPT 00000000   5534 
_SEQ_PAR_875                              IMPT 00000000   5535 
_SEQ_PAR_876                              IMPT 00000000   5536 
_SEQ_PAR_877                              IMPT 00000000   5537 
_SEQ_PAR_878                              IMPT 00000000   5538 
_SEQ_PAR_879                              IMPT 00000000   5539 
_SEQ_PAR_880                              IMPT 00000000   5540 
_SEQ_PAR_881                              IMPT 00000000   5541 
_SEQ_PAR_882                              IMPT 00000000   5542 
_SEQ_PAR_883                              IMPT 00000000   5543 
_SEQ_PAR_884                              IMPT 00000000   5544 
*** SuperH RISC engine ASSEMBLER V.7.01.02.000 ***    12/13/20 18:20:45                                                  PAGE    64

*** CROSS REFERENCE LIST

NAME                             SECTION  ATTR VALUE             SEQUENCE

_SEQ_PAR_885                              IMPT 00000000   5545 
_SEQ_PAR_886                              IMPT 00000000   5546 
_SEQ_PAR_887                              IMPT 00000000   5547 
_SEQ_PAR_888                              IMPT 00000000   5548 
_SEQ_PAR_889                              IMPT 00000000   5549 
_SEQ_PAR_890                              IMPT 00000000   5550 
_SEQ_PAR_891                              IMPT 00000000   5551 
_SEQ_PAR_892                              IMPT 00000000   5552 
_SEQ_PAR_893                              IMPT 00000000   5553 
_SEQ_PAR_894                              IMPT 00000000   5554 
_SEQ_PAR_895                              IMPT 00000000   5555 
_SEQ_PAR_896                              IMPT 00000000   5556 
_SEQ_PAR_897                              IMPT 00000000   5557 
_SEQ_PAR_898                              IMPT 00000000   5558 
_SEQ_PAR_899                              IMPT 00000000   5559 
_SEQ_PAR_900                              IMPT 00000000   5560 
_SEQ_PAR_901                              IMPT 00000000   5561 
_SEQ_PAR_902                              IMPT 00000000   5562 
_SEQ_PAR_903                              IMPT 00000000   5563 
_SEQ_PAR_904                              IMPT 00000000   5564 
_SEQ_PAR_905                              IMPT 00000000   5565 
_SEQ_PAR_906                              IMPT 00000000   5566 
_SEQ_PAR_907                              IMPT 00000000   5567 
_SEQ_PAR_908                              IMPT 00000000   5568 
_SEQ_PAR_909                              IMPT 00000000   5569 
_SEQ_PAR_910                              IMPT 00000000   5570 
_SEQ_PAR_911                              IMPT 00000000   5571 
_SEQ_PAR_912                              IMPT 00000000   5572 
_SEQ_PAR_913                              IMPT 00000000   5573 
_SEQ_PAR_914                              IMPT 00000000   5574 
_SEQ_PAR_915                              IMPT 00000000   5575 
_SEQ_PAR_916                              IMPT 00000000   5576 
_SEQ_PAR_917                              IMPT 00000000   5577 
_SEQ_PAR_918                              IMPT 00000000   5578 
_SEQ_PAR_919                              IMPT 00000000   5579 
_SEQ_PAR_920                              IMPT 00000000   5580 
_SEQ_PAR_921                              IMPT 00000000   5581 
_SEQ_PAR_922                              IMPT 00000000   5582 
_SEQ_PAR_923                              IMPT 00000000   5583 
_SEQ_PAR_924                              IMPT 00000000   5584 
_SEQ_PAR_925                              IMPT 00000000   5585 
_SEQ_PAR_926                              IMPT 00000000   5586 
_SEQ_PAR_927                              IMPT 00000000   5587 
_SEQ_PAR_928                              IMPT 00000000   5588 
_SEQ_PAR_929                              IMPT 00000000   5589 
_SEQ_PAR_930                              IMPT 00000000   5590 
_SEQ_PAR_931                              IMPT 00000000   5591 
_SEQ_PAR_932                              IMPT 00000000   5592 
_SEQ_PAR_933                              IMPT 00000000   5593 
_SEQ_PAR_934                              IMPT 00000000   5594 
_SEQ_PAR_935                              IMPT 00000000   5595 
_SEQ_PAR_936                              IMPT 00000000   5596 
_SEQ_PAR_937                              IMPT 00000000   5597 
_SEQ_PAR_938                              IMPT 00000000   5598 
*** SuperH RISC engine ASSEMBLER V.7.01.02.000 ***    12/13/20 18:20:45                                                  PAGE    65

*** CROSS REFERENCE LIST

NAME                             SECTION  ATTR VALUE             SEQUENCE

_SEQ_PAR_939                              IMPT 00000000   5599 
_SEQ_PAR_940                              IMPT 00000000   5600 
_SEQ_PAR_941                              IMPT 00000000   5601 
_SEQ_PAR_942                              IMPT 00000000   5602 
_SEQ_PAR_943                              IMPT 00000000   5603 
_SEQ_PAR_944                              IMPT 00000000   5604 
_SEQ_PAR_945                              IMPT 00000000   5605 
_SEQ_PAR_946                              IMPT 00000000   5606 
_SEQ_PAR_947                              IMPT 00000000   5607 
_SEQ_PAR_948                              IMPT 00000000   5608 
_SEQ_PAR_949                              IMPT 00000000   5609 
_SEQ_PAR_950                              IMPT 00000000   5610 
_SEQ_PAR_951                              IMPT 00000000   5611 
_SEQ_PAR_952                              IMPT 00000000   5612 
_SEQ_PAR_953                              IMPT 00000000   5613 
_SEQ_PAR_954                              IMPT 00000000   5614 
_SEQ_PAR_955                              IMPT 00000000   5615 
_SEQ_PAR_956                              IMPT 00000000   5616 
_SEQ_PAR_957                              IMPT 00000000   5617 
_SEQ_PAR_958                              IMPT 00000000   5618 
_SEQ_PAR_959                              IMPT 00000000   5619 
_SEQ_PAR_960                              IMPT 00000000   5620 
_SEQ_PAR_961                              IMPT 00000000   5621 
_SEQ_PAR_962                              IMPT 00000000   5622 
_SEQ_PAR_963                              IMPT 00000000   5623 
_SEQ_PAR_964                              IMPT 00000000   5624 
_SEQ_PAR_965                              IMPT 00000000   5625 
_SEQ_PAR_966                              IMPT 00000000   5626 
_SEQ_PAR_967                              IMPT 00000000   5627 
_SEQ_PAR_968                              IMPT 00000000   5628 
_SEQ_PAR_969                              IMPT 00000000   5629 
_SEQ_PAR_970                              IMPT 00000000   5630 
_SEQ_PAR_971                              IMPT 00000000   5631 
_SEQ_PAR_972                              IMPT 00000000   5632 
_SEQ_PAR_973                              IMPT 00000000   5633 
_SEQ_PAR_974                              IMPT 00000000   5634 
_SEQ_PAR_975                              IMPT 00000000   5635 
_SEQ_PAR_976                              IMPT 00000000   5636 
_SEQ_PAR_977                              IMPT 00000000   5637 
_SEQ_PAR_978                              IMPT 00000000   5638 
_SEQ_PAR_979                              IMPT 00000000   5639 
_SEQ_PAR_980                              IMPT 00000000   5640 
_SEQ_PAR_981                              IMPT 00000000   5641 
_SEQ_PAR_982                              IMPT 00000000   5642 
_SEQ_PAR_983                              IMPT 00000000   5643 
_SEQ_PAR_984                              IMPT 00000000   5644 
_SEQ_PAR_985                              IMPT 00000000   5645 
_SEQ_PAR_986                              IMPT 00000000   5646 
_SEQ_PAR_987                              IMPT 00000000   5647 
_SEQ_PAR_988                              IMPT 00000000   5648 
_SEQ_PAR_989                              IMPT 00000000   5649 
_SEQ_PAR_990                              IMPT 00000000   5650 
_SEQ_PAR_991                              IMPT 00000000   5651 
_SEQ_PAR_992                              IMPT 00000000   5652 
*** SuperH RISC engine ASSEMBLER V.7.01.02.000 ***    12/13/20 18:20:45                                                  PAGE    66

*** CROSS REFERENCE LIST

NAME                             SECTION  ATTR VALUE             SEQUENCE

_SEQ_PAR_993                              IMPT 00000000   5653 
_SEQ_PAR_994                              IMPT 00000000   5654 
_SEQ_PAR_995                              IMPT 00000000   5655 
_SEQ_PAR_996                              IMPT 00000000   5656 
_SEQ_PAR_997                              IMPT 00000000   5657 
_SEQ_PAR_998                              IMPT 00000000   5658 
_SEQ_PAR_999                              IMPT 00000000   5659 
_SEQ_PRO_SIZE                             EQU  00010000   5812* 6416 
_SETUZOKU_IDH                             EQU  00000006   5736*
_SETUZOKU_IDL                             EQU  00000005   5735*
_SETUZOKU_PRO                             EQU  00000004   5734*
_SH2_1STS                                 EQU  00000019   5881* 5882 
_SH2_ADD_PLS                              IMPT 00000000   2954 
_SH2_AD_DATA                              IMPT 00000000   3166 
_SH2_BAS_FRQ_SV                           IMPT 00000000   2915 
_SH2_CMP_STS1                             IMPT 00000000   2825 
_SH2_CMP_STS2                             IMPT 00000000   2827 
_SH2_CNT_REST_HF                          IMPT 00000000   2926 
_SH2_CNT_REST_PLS                         IMPT 00000000   2910 
_SH2_DBG_KAGEN                            IMPT 00000000   3168 
_SH2_DNM_CALC_INFO                        IMPT 00000000   3089 
_SH2_GPOINT_LNG                           IMPT 00000000   2770 
_SH2_GPOINT_LNGDSP                        IMPT 00000000   2772 
_SH2_GPOINT_SPDDSP                        IMPT 00000000   2774 
_SH2_HD_CNT_CNT                           IMPT 00000000   2845 
_SH2_HD_CNT_STOP                          IMPT 00000000   2841 
_SH2_HD_CTRL_BUSY                         IMPT 00000000   2833 
_SH2_HD_CTRL_REDY                         IMPT 00000000   2831 
_SH2_HD_HLDSTOP1                          IMPT 00000000   3073 
_SH2_HD_HLDSTOP2                          IMPT 00000000   3076 
_SH2_HD_NEAR_ZERO                         IMPT 00000000   2839 
_SH2_HD_POS_START                         IMPT 00000000   2835 
_SH2_HD_SFTY_AUTO                         IMPT 00000000   2837 
_SH2_HD_STEP_END                          IMPT 00000000   2843 
_SH2_LNGH_ADD_SR                          IMPT 00000000   2911 
_SH2_LOT_CNT_A                            IMPT 00000000   2922 
_SH2_LOT_STEP_A                           IMPT 00000000   2923 
_SH2_MAIN_CLK                             IMPT 00000000   3167 
_SH2_NOW_FRQ_PV                           IMPT 00000000   2917 
_SH2_NOW_STEP                             IMPT 00000000   2961 
_SH2_OBJ_ENC360                           IMPT 00000000   3083 
_SH2_PDOWN_FLG                            IMPT 00000000   3165 
_SH2_PLSI_ACCS                            IMPT 00000000   2919 
_SH2_PLSI_LATE                            IMPT 00000000   2920 
_SH2_POS_STS1                             IMPT 00000000   2823 
_SH2_PV_ENC_SPD_PER                       IMPT 00000000   3085 
_SH2_PV_OUT_SPD_PER                       IMPT 00000000   3084 
_SH2_REST_PLS_RL                          IMPT 00000000   2913 
_SH2_REST_PLS_SR                          IMPT 00000000   2912 
_SH2_REST_RL_HF                           IMPT 00000000   2925 
_SH2_REST_SR_HF                           IMPT 00000000   2924 
_SH2_SCAN_AVLMAX                          IMPT 00000000   3179 
_SH2_SCAN_AVLPV                           IMPT 00000000   3180 
_SH2_SCAN_REALMAX                         IMPT 00000000   3178 
*** SuperH RISC engine ASSEMBLER V.7.01.02.000 ***    12/13/20 18:20:45                                                  PAGE    67

*** CROSS REFERENCE LIST

NAME                             SECTION  ATTR VALUE             SEQUENCE

_SH2_STEP1_FRQ                            IMPT 00000000   2943 
_SH2_STEP1_PV_PLS                         IMPT 00000000   2933 
_SH2_STEP1_REST_P                         IMPT 00000000   2938 
_SH2_STEP1_SV_PLS                         IMPT 00000000   2928 
_SH2_STEP1_TIM                            IMPT 00000000   2948 
_SH2_STEP2_FRQ                            IMPT 00000000   2944 
_SH2_STEP2_PV_PLS                         IMPT 00000000   2934 
_SH2_STEP2_REST_P                         IMPT 00000000   2939 
_SH2_STEP2_SV_PLS                         IMPT 00000000   2929 
_SH2_STEP2_TIM                            IMPT 00000000   2949 
_SH2_STEP3_FRQ                            IMPT 00000000   2945 
_SH2_STEP3_PV_PLS                         IMPT 00000000   2935 
_SH2_STEP3_REST_P                         IMPT 00000000   2940 
_SH2_STEP3_SV_PLS                         IMPT 00000000   2930 
_SH2_STEP3_TIM                            IMPT 00000000   2950 
_SH2_STEP4_FRQ                            IMPT 00000000   2946 
_SH2_STEP4_PV_PLS                         IMPT 00000000   2936 
_SH2_STEP4_REST_P                         IMPT 00000000   2941 
_SH2_STEP4_SV_PLS                         IMPT 00000000   2931 
_SH2_STEP4_TIM                            IMPT 00000000   2951 
_SH2_STEP5_FRQ                            IMPT 00000000   2947 
_SH2_STEP5_PV_PLS                         IMPT 00000000   2937 
_SH2_STEP5_REST_P                         IMPT 00000000   2942 
_SH2_STEP5_SV_PLS                         IMPT 00000000   2932 
_SH2_STEP5_TIM                            IMPT 00000000   2952 
_SH2_STEP_FRQ                             IMPT 00000000   2959 
_SH2_STEP_NO                              IMPT 00000000   2816 
_SH2_STEP_PV_PLS                          IMPT 00000000   2957 
_SH2_STEP_REST_P                          IMPT 00000000   2958 
_SH2_STEP_SV_PLS                          IMPT 00000000   2956 
_SH2_STEP_TIM                             IMPT 00000000   2960 
_SH2_TOP_FRQ_SV                           IMPT 00000000   2916 
_SH2_TOTAL_PLS                            IMPT 00000000   2953 
_SH2_VLV_SIG                              IMPT 00000000   3080 
_SH2toSH4_TEPSIG                          IMPT 00000000   2777 
_SH4_ADD_PLS                              IMPT 00000000   2902 
_SH4_BAS_FRQ_SV                           IMPT 00000000   2863 
_SH4_CMP_STS1                             IMPT 00000000   2824 
_SH4_CMP_STS2                             IMPT 00000000   2826 
_SH4_CNT_REST_HF                          IMPT 00000000   2874 
_SH4_CNT_REST_PLS                         IMPT 00000000   2859 
_SH4_DNM_CALC_INFO                        IMPT 00000000   3088 
_SH4_GPOINT_LNG                           IMPT 00000000   2769 
_SH4_GPOINT_LNGDSP                        IMPT 00000000   2771 
_SH4_GPOINT_SPDDSP                        IMPT 00000000   2773 
_SH4_HD_CNT_CNT                           IMPT 00000000   2844 
_SH4_HD_CNT_STOP                          IMPT 00000000   2840 
_SH4_HD_CTRL_BUSY                         IMPT 00000000   2832 
_SH4_HD_CTRL_REDY                         IMPT 00000000   2830 
_SH4_HD_HLDSTOP1                          IMPT 00000000   3072 
_SH4_HD_HLDSTOP2                          IMPT 00000000   3075 
_SH4_HD_NEAR_ZERO                         IMPT 00000000   2838 
_SH4_HD_POS_START                         IMPT 00000000   2834 
_SH4_HD_SFTY_AUTO                         IMPT 00000000   2836 
*** SuperH RISC engine ASSEMBLER V.7.01.02.000 ***    12/13/20 18:20:45                                                  PAGE    68

*** CROSS REFERENCE LIST

NAME                             SECTION  ATTR VALUE             SEQUENCE

_SH4_HD_STEP_END                          IMPT 00000000   2842 
_SH4_LNGH_ADD_SR                          IMPT 00000000   2860 
_SH4_LOT_CNT_A                            IMPT 00000000   2870 
_SH4_LOT_STEP_A                           IMPT 00000000   2871 
_SH4_NOW_FRQ_PV                           IMPT 00000000   2865 
_SH4_NOW_STEP                             IMPT 00000000   2908 
_SH4_ORG_DIR_REV                          IMPT 00000000   2753 
_SH4_PDOWN_FLG                            IMPT 00000000   3192 
_SH4_PLSI_ACCS                            IMPT 00000000   2867 
_SH4_PLSI_LATE                            IMPT 00000000   2868 
_SH4_POS_STS1                             IMPT 00000000   2822 
_SH4_REST_PLS_RL                          IMPT 00000000   2862 
_SH4_REST_PLS_SR                          IMPT 00000000   2861 
_SH4_REST_RL_HF                           IMPT 00000000   2873 
_SH4_REST_SR_HF                           IMPT 00000000   2872 
_SH4_STEP1_FRQ                            IMPT 00000000   2891 
_SH4_STEP1_PV_PLS                         IMPT 00000000   2881 
_SH4_STEP1_REST_P                         IMPT 00000000   2886 
_SH4_STEP1_SV_PLS                         IMPT 00000000   2876 
_SH4_STEP1_TIM                            IMPT 00000000   2896 
_SH4_STEP2_FRQ                            IMPT 00000000   2892 
_SH4_STEP2_PV_PLS                         IMPT 00000000   2882 
_SH4_STEP2_REST_P                         IMPT 00000000   2887 
_SH4_STEP2_SV_PLS                         IMPT 00000000   2877 
_SH4_STEP2_TIM                            IMPT 00000000   2897 
_SH4_STEP3_FRQ                            IMPT 00000000   2893 
_SH4_STEP3_PV_PLS                         IMPT 00000000   2883 
_SH4_STEP3_REST_P                         IMPT 00000000   2888 
_SH4_STEP3_SV_PLS                         IMPT 00000000   2878 
_SH4_STEP3_TIM                            IMPT 00000000   2898 
_SH4_STEP4_FRQ                            IMPT 00000000   2894 
_SH4_STEP4_PV_PLS                         IMPT 00000000   2884 
_SH4_STEP4_REST_P                         IMPT 00000000   2889 
_SH4_STEP4_SV_PLS                         IMPT 00000000   2879 
_SH4_STEP4_TIM                            IMPT 00000000   2899 
_SH4_STEP5_FRQ                            IMPT 00000000   2895 
_SH4_STEP5_PV_PLS                         IMPT 00000000   2885 
_SH4_STEP5_REST_P                         IMPT 00000000   2890 
_SH4_STEP5_SV_PLS                         IMPT 00000000   2880 
_SH4_STEP5_TIM                            IMPT 00000000   2900 
_SH4_STEP_FRQ                             IMPT 00000000   2906 
_SH4_STEP_NO                              IMPT 00000000   2815 
_SH4_STEP_PV_PLS                          IMPT 00000000   2904 
_SH4_STEP_REST_P                          IMPT 00000000   2905 
_SH4_STEP_SV_PLS                          IMPT 00000000   2903 
_SH4_STEP_TIM                             IMPT 00000000   2907 
_SH4_TOP_FRQ_SV                           IMPT 00000000   2864 
_SH4_TOTAL_PLS                            IMPT 00000000   2901 
_SH4_VLV_SIG                              IMPT 00000000   3079 
_SH4toSH2_TEPSIG                          IMPT 00000000   2776 
_SH_CNTSTOP_FLG                           IMPT 00000000   2794 
_SH_OUTPLS_DELT                           IMPT 00000000   2795 
_SH_POSCTL_ACC                            IMPT 00000000   2782 
_SH_POSCTL_CAL_REST                       IMPT 00000000   2788 
*** SuperH RISC engine ASSEMBLER V.7.01.02.000 ***    12/13/20 18:20:45                                                  PAGE    69

*** CROSS REFERENCE LIST

NAME                             SECTION  ATTR VALUE             SEQUENCE

_SH_POSCTL_HENSA                          IMPT 00000000   2789 
_SH_POSCTL_LSIFREQ                        IMPT 00000000   2790 
_SH_POSCTL_OFS                            IMPT 00000000   2783 
_SH_POSCTL_PV_ABSPLS                      IMPT 00000000   2786 
_SH_POSCTL_REST_PLS                       IMPT 00000000   2787 
_SH_POSCTL_RL_ABSPLS                      IMPT 00000000   2785 
_SH_POSCTL_RL_SPD                         IMPT 00000000   2781 
_SH_POSCTL_SV_ABSPLS                      IMPT 00000000   2784 
_SH_POSCTL_SV_SPD                         IMPT 00000000   2780 
_SH_SQ200_IN                              IMPT 00000000   2793 
_START_ACK_COD                            EQU  00004321    212*
_START_REQ_COD                            EQU  00009876    211*
_STBCR                                    IMPT 00000000    349 
_STBCR2                                   IMPT 00000000    352 
_STR_CODE                                 EQU  00000000   5730*
_SVB_ARA1_KAJ_T2                          IMPT 00000000   3264 
_SVB_BAKORG_PLS1                          IMPT 00000000   3255 
_SVB_BAKORG_PLS2                          IMPT 00000000   3256 
_SVB_DYHITO_POS                           IMPT 00000000   3252 
_SVB_RENIA_BUP1                           IMPT 00000000   3258 
_SVB_RENIA_BUP2                           IMPT 00000000   3259 
_SVB_RENIA_BUP3                           IMPT 00000000   3260 
_SVB_RENIA_BUP4                           IMPT 00000000   3261 
_SVB_RNAORG_PLS1                          IMPT 00000000   3250 
_SVB_SLIDE_POS                            IMPT 00000000   3253 
_SVOP2_WAIT_ANSA                          IMPT 00000000   3007 
_SVOP2_WAIT_ANSB                          IMPT 00000000   3008 
_SVP_ACCLAT_TIM1                          IMPT 00000000   3302 
_SVP_ACCLAT_TIMP                          IMPT 00000000   3725 
_SVP_AMP100P_VLT                          IMPT 00000000   3349 
_SVP_AMPERR_TIM1                          IMPT 00000000   3323 
_SVP_AMPERR_TIM2                          IMPT 00000000   3325 
_SVP_AMPERR_TIM3                          IMPT 00000000   3327 
_SVP_AMPERR_VLT1                          IMPT 00000000   3322 
_SVP_AMPERR_VLT2                          IMPT 00000000   3324 
_SVP_AMPERR_VLT3                          IMPT 00000000   3326 
_SVP_ARACHK_LNG1                          IMPT 00000000   3308 
_SVP_ATCOL_CYC                            IMPT 00000000   3402 
_SVP_ATCOL_SPAG                           IMPT 00000000   3406 
_SVP_ATCOL_SPNO                           IMPT 00000000   3405 
_SVP_ATCOL_STAG                           IMPT 00000000   3404 
_SVP_ATCOL_STNO                           IMPT 00000000   3403 
_SVP_ATSLID_BAKLNG                        IMPT 00000000   3585 
_SVP_ATSLID_COEF1                         IMPT 00000000   3586 
_SVP_ATSLID_DNOBJ1                        IMPT 00000000   3583 
_SVP_ATSLID_OBJ1                          IMPT 00000000   3582 
_SVP_ATSLID_UPOBJ1                        IMPT 00000000   3584 
_SVP_BREAK_DIG                            IMPT 00000000   3332 
_SVP_BREAK_DIG_RAT                        IMPT 00000000   3427 
_SVP_BREAK_TIM1                           IMPT 00000000   3333 
_SVP_BREAK_TIM_RAT                        IMPT 00000000   3428 
_SVP_CAMFUN_SEL00                         IMPT 00000000   3564 
_SVP_CAMFUN_SEL01                         IMPT 00000000   3565 
_SVP_CAMFUN_SEL02                         IMPT 00000000   3566 
*** SuperH RISC engine ASSEMBLER V.7.01.02.000 ***    12/13/20 18:20:45                                                  PAGE    70

*** CROSS REFERENCE LIST

NAME                             SECTION  ATTR VALUE             SEQUENCE

_SVP_CAMFUN_SEL03                         IMPT 00000000   3567 
_SVP_CAMFUN_SEL04                         IMPT 00000000   3568 
_SVP_CAMFUN_SEL05                         IMPT 00000000   3569 
_SVP_CAMFUN_SEL06                         IMPT 00000000   3570 
_SVP_CAMFUN_SEL07                         IMPT 00000000   3571 
_SVP_CAMFUN_SEL08                         IMPT 00000000   3572 
_SVP_CAMFUN_SEL09                         IMPT 00000000   3573 
_SVP_CAMFUN_SEL0A                         IMPT 00000000   3574 
_SVP_CAMFUN_SEL0B                         IMPT 00000000   3575 
_SVP_CAMFUN_SEL0C                         IMPT 00000000   3576 
_SVP_CAMFUN_SEL0D                         IMPT 00000000   3577 
_SVP_CAMFUN_SEL0E                         IMPT 00000000   3578 
_SVP_CAMFUN_SEL0F                         IMPT 00000000   3579 
_SVP_CAMFUN_SEL_TOP                       IMPT 00000000   3563 
_SVP_CNT_CNT                              IMPT 00000000   3331 
_SVP_CNT_TIM                              IMPT 00000000   3330 
_SVP_DAIHAI_LNG1                          IMPT 00000000   3318 
_SVP_DAIHAI_LNG2                          IMPT 00000000   3319 
_SVP_DAIHAI_LNG3                          IMPT 00000000   3320 
_SVP_DAIHAI_ORG0                          IMPT 00000000   3527 
_SVP_DAIHSA_LENG                          IMPT 00000000   3538 
_SVP_DANSAM_LEN                           IMPT 00000000   3668 
_SVP_DEB_ADR0                             IMPT 00000000   4069 
_SVP_DEB_ADR1                             IMPT 00000000   4070 
_SVP_DEB_ADR2                             IMPT 00000000   4071 
_SVP_DEB_ADR3                             IMPT 00000000   4072 
_SVP_DEB_ADR4                             IMPT 00000000   4073 
_SVP_DEB_SEL0                             IMPT 00000000   4075 
_SVP_DEB_SEL1                             IMPT 00000000   4076 
_SVP_DEB_SEL2                             IMPT 00000000   4077 
_SVP_DEB_SEL3                             IMPT 00000000   4078 
_SVP_DEB_SEL4                             IMPT 00000000   4079 
_SVP_DNAREA_INP0                          IMPT 00000000   3536 
_SVP_DNAREA_INP1                          IMPT 00000000   3305 
_SVP_DNAREA_JUDG                          IMPT 00000000   3286 
_SVP_DNDATA_A21                           IMPT 00000000   4319 
_SVP_DNDINC_SPD1                          IMPT 00000000   3290 
_SVP_DND_STOPDIG1                         IMPT 00000000   3610 
_SVP_DNSTOP_A21                           IMPT 00000000   4322 
_SVP_ECOM_BASE                            IMPT 00000000   3722 
_SVP_ECOM_SCAL                            IMPT 00000000   3723 
_SVP_EJECAM_OFR                           IMPT 00000000   4437 
_SVP_EJECAM_ONR                           IMPT 00000000   4436 
_SVP_EP_ADJSIN                            IMPT 00000000   3720 
_SVP_EP_ADJVAL                            IMPT 00000000   3721 
_SVP_EP_K1                                IMPT 00000000   3718 
_SVP_EP_K2                                IMPT 00000000   3719 
_SVP_EP_LTM                               IMPT 00000000   3717 
_SVP_EP_TRQ                               IMPT 00000000   3716 
_SVP_EP_VMX                               IMPT 00000000   3715 
_SVP_EP_VOF                               IMPT 00000000   3714 
_SVP_FCLS_STR_DEG                         IMPT 00000000   3696 
_SVP_FCLS_STR_HENS                        IMPT 00000000   3697 
_SVP_FCLS_ZIKI_SPD1                       IMPT 00000000   3698 
*** SuperH RISC engine ASSEMBLER V.7.01.02.000 ***    12/13/20 18:20:45                                                  PAGE    71

*** CROSS REFERENCE LIST

NAME                             SECTION  ATTR VALUE             SEQUENCE

_SVP_FCLS_ZIKI_SPD2                       IMPT 00000000   3699 
_SVP_FED_DEG                              IMPT 00000000   4453 
_SVP_FED_POS                              IMPT 00000000   4454 
_SVP_GENITI_A21                           IMPT 00000000   4320 
_SVP_GMNSEQ_CNT01                         IMPT 00000000   3545 
_SVP_GMNSEQ_CNT02                         IMPT 00000000   3546 
_SVP_GMNSEQ_CNT03                         IMPT 00000000   3547 
_SVP_GMNSEQ_CNT04                         IMPT 00000000   3548 
_SVP_GMNSEQ_CNT05                         IMPT 00000000   3549 
_SVP_GMNSEQ_CNT06                         IMPT 00000000   3550 
_SVP_GMNSEQ_CNT07                         IMPT 00000000   3551 
_SVP_GMNSEQ_CNT08                         IMPT 00000000   3552 
_SVP_GMNSEQ_TIM01                         IMPT 00000000   3554 
_SVP_GMNSEQ_TIM02                         IMPT 00000000   3555 
_SVP_GMNSEQ_TIM03                         IMPT 00000000   3556 
_SVP_GMNSEQ_TIM04                         IMPT 00000000   3557 
_SVP_GMNSEQ_TIM05                         IMPT 00000000   3558 
_SVP_GMNSEQ_TIM06                         IMPT 00000000   3559 
_SVP_GMNSEQ_TIM07                         IMPT 00000000   3560 
_SVP_GMNSEQ_TIM08                         IMPT 00000000   3561 
_SVP_HOSEI_SPD                            IMPT 00000000   3666 
_SVP_HOSRAG_PLS1                          IMPT 00000000   3664 
_SVP_HOSRAG_PLS2                          IMPT 00000000   3665 
_SVP_INCDIR_SEL1                          IMPT 00000000   3275 
_SVP_INCENC_ELNG                          IMPT 00000000   3312 
_SVP_INCHEN_ELNG                          IMPT 00000000   3311 
_SVP_INCPLS_1REV                          IMPT 00000000   3276 
_SVP_INCPLS_HOSM                          IMPT 00000000   3278 
_SVP_INCPLS_HOSN                          IMPT 00000000   3277 
_SVP_INCPOS_KP01                          IMPT 00000000   3300 
_SVP_INCREV_ELNG                          IMPT 00000000   3316 
_SVP_INCRNA_ELNG                          IMPT 00000000   3313 
_SVP_INCSTP_ELNG                          IMPT 00000000   3314 
_SVP_INPPOS_TIM1                          IMPT 00000000   3307 
_SVP_INTLIM_AGL                           IMPT 00000000   4356 
_SVP_INTLIM_POS                           IMPT 00000000   4357 
_SVP_INTLIM_SNO                           IMPT 00000000   4355 
_SVP_KAJAREA_EAG                          IMPT 00000000   4309 
_SVP_KAJAREA_ENO                          IMPT 00000000   4308 
_SVP_KAJAREA_SAG                          IMPT 00000000   4307 
_SVP_KAJAREA_SEL                          IMPT 00000000   4310 
_SVP_KAJAREA_SNO                          IMPT 00000000   4306 
_SVP_KAJOBJ_HAB                           IMPT 00000000   4352 
_SVP_KAJYUU_OBJP                          IMPT 00000000   3598 
_SVP_KAJYUU_PRS1                          IMPT 00000000   3597 
_SVP_KAJYUU_PV1                           IMPT 00000000   3599 
_SVP_KANDO_A21                            IMPT 00000000   4317 
_SVP_KATTCH_EAG                           IMPT 00000000   4314 
_SVP_KATTCH_SAG                           IMPT 00000000   4313 
_SVP_KATTCH_SPD                           IMPT 00000000   3208 
_SVP_KJEND_DIG1                           IMPT 00000000   3616 
_SVP_KJEND_STEP1                          IMPT 00000000   3615 
_SVP_KJSTR_DIG1                           IMPT 00000000   3614 
_SVP_KJSTR_STEP1                          IMPT 00000000   3613 
*** SuperH RISC engine ASSEMBLER V.7.01.02.000 ***    12/13/20 18:20:45                                                  PAGE    72

*** CROSS REFERENCE LIST

NAME                             SECTION  ATTR VALUE             SEQUENCE

_SVP_LFEED_ENDDEG                         IMPT 00000000   4468 
_SVP_LFEED_ENDNO                          IMPT 00000000   4469 
_SVP_LFEED_ENDPOS                         IMPT 00000000   4467 
_SVP_LFEED_GMNSQ1                         IMPT 00000000   4475 
_SVP_LFEED_GMNSQ2                         IMPT 00000000   4476 
_SVP_LFEED_GMNSQ3                         IMPT 00000000   4477 
_SVP_LFEED_GMNSQ4                         IMPT 00000000   4478 
_SVP_LFEED_HOSIN                          IMPT 00000000   4473 
_SVP_LFEED_HOSOT                          IMPT 00000000   4474 
_SVP_LFEED_LNG1                           IMPT 00000000   4463 
_SVP_LFEED_SELNO                          IMPT 00000000   4472 
_SVP_LFEED_SPD1                           IMPT 00000000   4470 
_SVP_LFEED_SPD2                           IMPT 00000000   4471 
_SVP_LFEED_STRDEG                         IMPT 00000000   4465 
_SVP_LFEED_STRNO                          IMPT 00000000   4466 
_SVP_LFEED_STRPOS                         IMPT 00000000   4464 
_SVP_LSAABN_AGL1                          IMPT 00000000   3352 
_SVP_LSAABN_AGL2                          IMPT 00000000   3353 
_SVP_MACINE_SEL1                          IMPT 00000000   3345  6401  6451  6467  6482  6524  6570  6621  6668 
_SVP_MANSAMER_PLS                         IMPT 00000000   3671 
_SVP_MANSAM_LEN                           IMPT 00000000   3667 
_SVP_MAX_KJYU                             IMPT 00000000   3429 
_SVP_MISCAM_OFR                           IMPT 00000000   4439 
_SVP_MISCAM_ONR                           IMPT 00000000   4438 
_SVP_MOADR0_SQH                           IMPT 00000000   3364 
_SVP_MOADR0_SQL                           IMPT 00000000   3365 
_SVP_MOADR1_SQH                           IMPT 00000000   3366 
_SVP_MOADR1_SQL                           IMPT 00000000   3367 
_SVP_MOADR2_SQH                           IMPT 00000000   3368 
_SVP_MOADR2_SQL                           IMPT 00000000   3369 
_SVP_MOADR3_SQH                           IMPT 00000000   3370 
_SVP_MOADR3_SQL                           IMPT 00000000   3371 
_SVP_MOADR4_SQH                           IMPT 00000000   3372 
_SVP_MOADR4_SQL                           IMPT 00000000   3373 
_SVP_MOADR5_SQH                           IMPT 00000000   3374 
_SVP_MOADR5_SQL                           IMPT 00000000   3375 
_SVP_MOADR6_SQH                           IMPT 00000000   3376 
_SVP_MOADR6_SQL                           IMPT 00000000   3377 
_SVP_MOADR7_SQH                           IMPT 00000000   3378 
_SVP_MOADR7_SQL                           IMPT 00000000   3379 
_SVP_MOADR8_SQH                           IMPT 00000000   3380 
_SVP_MOADR8_SQL                           IMPT 00000000   3381 
_SVP_MOADR9_SQH                           IMPT 00000000   3382 
_SVP_MOADR9_SQL                           IMPT 00000000   3383 
_SVP_MOADRA_SQH                           IMPT 00000000   3384 
_SVP_MOADRA_SQL                           IMPT 00000000   3385 
_SVP_MOADRB_SQH                           IMPT 00000000   3386 
_SVP_MOADRB_SQL                           IMPT 00000000   3387 
_SVP_MOADRC_SQH                           IMPT 00000000   3388 
_SVP_MOADRC_SQL                           IMPT 00000000   3389 
_SVP_MOADRD_SQH                           IMPT 00000000   3390 
_SVP_MOADRD_SQL                           IMPT 00000000   3391 
_SVP_MOADRE_SQH                           IMPT 00000000   3392 
_SVP_MOADRE_SQL                           IMPT 00000000   3393 
*** SuperH RISC engine ASSEMBLER V.7.01.02.000 ***    12/13/20 18:20:45                                                  PAGE    73

*** CROSS REFERENCE LIST

NAME                             SECTION  ATTR VALUE             SEQUENCE

_SVP_MOADRF_SQH                           IMPT 00000000   3394 
_SVP_MOADRF_SQL                           IMPT 00000000   3395 
_SVP_MODORI_A21                           IMPT 00000000   4321 
_SVP_MONALM_S01                           IMPT 00000000   3591 
_SVP_MONALM_S02                           IMPT 00000000   3592 
_SVP_MONALM_S03                           IMPT 00000000   3593 
_SVP_MONALM_S04                           IMPT 00000000   3594 
_SVP_MOTMAX_FREQ                          IMPT 00000000   3281 
_SVP_MOTREP_CNT                           IMPT 00000000   4432 
_SVP_MOTREP_SPD                           IMPT 00000000   4431 
_SVP_MOTREP_STGE                          IMPT 00000000   4430 
_SVP_MOTREP_STGS                          IMPT 00000000   4429 
_SVP_MOTRPM_MAXM                          IMPT 00000000   3279 
_SVP_MOTRPM_MAXP                          IMPT 00000000   3724 
_SVP_MOTWT_TIM                            IMPT 00000000   3337 
_SVP_MOT_CSR_STEP                         IMPT 00000000   4445 
_SVP_MOT_FIX                              IMPT 00000000   4441 
_SVP_MOT_INF                              IMPT 00000000   4452 
_SVP_MOT_PAGE                             IMPT 00000000   4444 
_SVP_MOT_SEND_REQ                         IMPT 00000000   4446 
_SVP_MRTION_SEL1                          IMPT 00000000   3528 
_SVP_MTSTEP_MAXM                          IMPT 00000000   3529 
_SVP_NEG_OFS_LNG                          IMPT 00000000   3348 
_SVP_OBJARA_INP0                          IMPT 00000000   3537 
_SVP_OBJARA_INP1                          IMPT 00000000   3306 
_SVP_OBJECT_DG                            IMPT 00000000   4448 
_SVP_OBJECT_DG01                          IMPT 00000000   3459 
_SVP_OBJECT_DG02                          IMPT 00000000   3460 
_SVP_OBJECT_DG03                          IMPT 00000000   3461 
_SVP_OBJECT_DG04                          IMPT 00000000   3462 
_SVP_OBJECT_DG05                          IMPT 00000000   3463 
_SVP_OBJECT_DG06                          IMPT 00000000   3464 
_SVP_OBJECT_DG07                          IMPT 00000000   3465 
_SVP_OBJECT_DG08                          IMPT 00000000   3466 
_SVP_OBJECT_DG09                          IMPT 00000000   3467 
_SVP_OBJECT_DG10                          IMPT 00000000   3468 
_SVP_OBJECT_DG11                          IMPT 00000000   3469 
_SVP_OBJECT_DG12                          IMPT 00000000   3470 
_SVP_OBJECT_DG13                          IMPT 00000000   3471 
_SVP_OBJECT_DG14                          IMPT 00000000   3472 
_SVP_OBJECT_DG15                          IMPT 00000000   3473 
_SVP_OBJECT_DG16                          IMPT 00000000   3474 
_SVP_OBJECT_DG17                          IMPT 00000000   3475 
_SVP_OBJECT_DG18                          IMPT 00000000   3476 
_SVP_OBJECT_DG19                          IMPT 00000000   3477 
_SVP_OBJECT_DG20                          IMPT 00000000   3478 
_SVP_OBJECT_DIG_TOP                       IMPT 00000000   3458 
_SVP_OBJECT_POS_TOP                       IMPT 00000000   3436 
_SVP_OBJECT_PRS                           IMPT 00000000   4451 
_SVP_OBJECT_PRS01                         IMPT 00000000   3415 
_SVP_OBJECT_PRS02                         IMPT 00000000   3416 
_SVP_OBJECT_PRS03                         IMPT 00000000   3417 
_SVP_OBJECT_PRS04                         IMPT 00000000   3418 
_SVP_OBJECT_PRS05                         IMPT 00000000   3419 
*** SuperH RISC engine ASSEMBLER V.7.01.02.000 ***    12/13/20 18:20:45                                                  PAGE    74

*** CROSS REFERENCE LIST

NAME                             SECTION  ATTR VALUE             SEQUENCE

_SVP_OBJECT_PRS06                         IMPT 00000000   3420 
_SVP_OBJECT_PRS07                         IMPT 00000000   3421 
_SVP_OBJECT_PRS08                         IMPT 00000000   3422 
_SVP_OBJECT_PRS09                         IMPT 00000000   3423 
_SVP_OBJECT_PRS10                         IMPT 00000000   3424 
_SVP_OBJECT_PRS_TOP                       IMPT 00000000   3414 
_SVP_OBJECT_PS                            IMPT 00000000   4447 
_SVP_OBJECT_PS01                          IMPT 00000000   3437 
_SVP_OBJECT_PS02                          IMPT 00000000   3438 
_SVP_OBJECT_PS03                          IMPT 00000000   3439 
_SVP_OBJECT_PS04                          IMPT 00000000   3440 
_SVP_OBJECT_PS05                          IMPT 00000000   3441 
_SVP_OBJECT_PS06                          IMPT 00000000   3442 
_SVP_OBJECT_PS07                          IMPT 00000000   3443 
_SVP_OBJECT_PS08                          IMPT 00000000   3444 
_SVP_OBJECT_PS09                          IMPT 00000000   3445 
_SVP_OBJECT_PS10                          IMPT 00000000   3446 
_SVP_OBJECT_PS11                          IMPT 00000000   3447 
_SVP_OBJECT_PS12                          IMPT 00000000   3448 
_SVP_OBJECT_PS13                          IMPT 00000000   3449 
_SVP_OBJECT_PS14                          IMPT 00000000   3450 
_SVP_OBJECT_PS15                          IMPT 00000000   3451 
_SVP_OBJECT_PS16                          IMPT 00000000   3452 
_SVP_OBJECT_PS17                          IMPT 00000000   3453 
_SVP_OBJECT_PS18                          IMPT 00000000   3454 
_SVP_OBJECT_PS19                          IMPT 00000000   3455 
_SVP_OBJECT_PS20                          IMPT 00000000   3456 
_SVP_OBJECT_SP                            IMPT 00000000   4449 
_SVP_OBJECT_SP01                          IMPT 00000000   3481 
_SVP_OBJECT_SP02                          IMPT 00000000   3482 
_SVP_OBJECT_SP03                          IMPT 00000000   3483 
_SVP_OBJECT_SP04                          IMPT 00000000   3484 
_SVP_OBJECT_SP05                          IMPT 00000000   3485 
_SVP_OBJECT_SP06                          IMPT 00000000   3486 
_SVP_OBJECT_SP07                          IMPT 00000000   3487 
_SVP_OBJECT_SP08                          IMPT 00000000   3488 
_SVP_OBJECT_SP09                          IMPT 00000000   3489 
_SVP_OBJECT_SP10                          IMPT 00000000   3490 
_SVP_OBJECT_SP11                          IMPT 00000000   3491 
_SVP_OBJECT_SP12                          IMPT 00000000   3492 
_SVP_OBJECT_SP13                          IMPT 00000000   3493 
_SVP_OBJECT_SP14                          IMPT 00000000   3494 
_SVP_OBJECT_SP15                          IMPT 00000000   3495 
_SVP_OBJECT_SP16                          IMPT 00000000   3496 
_SVP_OBJECT_SP17                          IMPT 00000000   3497 
_SVP_OBJECT_SP18                          IMPT 00000000   3498 
_SVP_OBJECT_SP19                          IMPT 00000000   3499 
_SVP_OBJECT_SP20                          IMPT 00000000   3500 
_SVP_OBJECT_SPD_TOP                       IMPT 00000000   3480 
_SVP_OBJECT_TIM_TOP                       IMPT 00000000   3502 
_SVP_OBJECT_TM                            IMPT 00000000   4450 
_SVP_OBJECT_TM01                          IMPT 00000000   3503 
_SVP_OBJECT_TM02                          IMPT 00000000   3504 
_SVP_OBJECT_TM03                          IMPT 00000000   3505 
*** SuperH RISC engine ASSEMBLER V.7.01.02.000 ***    12/13/20 18:20:45                                                  PAGE    75

*** CROSS REFERENCE LIST

NAME                             SECTION  ATTR VALUE             SEQUENCE

_SVP_OBJECT_TM04                          IMPT 00000000   3506 
_SVP_OBJECT_TM05                          IMPT 00000000   3507 
_SVP_OBJECT_TM06                          IMPT 00000000   3508 
_SVP_OBJECT_TM07                          IMPT 00000000   3509 
_SVP_OBJECT_TM08                          IMPT 00000000   3510 
_SVP_OBJECT_TM09                          IMPT 00000000   3511 
_SVP_OBJECT_TM10                          IMPT 00000000   3512 
_SVP_OBJECT_TM11                          IMPT 00000000   3513 
_SVP_OBJECT_TM12                          IMPT 00000000   3514 
_SVP_OBJECT_TM13                          IMPT 00000000   3515 
_SVP_OBJECT_TM14                          IMPT 00000000   3516 
_SVP_OBJECT_TM15                          IMPT 00000000   3517 
_SVP_OBJECT_TM16                          IMPT 00000000   3518 
_SVP_OBJECT_TM17                          IMPT 00000000   3519 
_SVP_OBJECT_TM18                          IMPT 00000000   3520 
_SVP_OBJECT_TM19                          IMPT 00000000   3521 
_SVP_OBJECT_TM20                          IMPT 00000000   3522 
_SVP_ONESTR_SPD2                          IMPT 00000000   3728 
_SVP_ORGCAL_DAT1                          IMPT 00000000   3640 
_SVP_ORGCAL_DAT2                          IMPT 00000000   3641 
_SVP_ORGCAL_DAT3                          IMPT 00000000   3642 
_SVP_ORGCAL_DAT4                          IMPT 00000000   3643 
_SVP_ORGCAL_DAT5                          IMPT 00000000   3644 
_SVP_ORGCAL_DAT6                          IMPT 00000000   3645 
_SVP_ORGFWD_AGL                           IMPT 00000000   3735 
_SVP_ORGLDN_DEG                           IMPT 00000000   3657 
_SVP_ORGLUP_DEG                           IMPT 00000000   3656 
_SVP_ORGMEM_DEG1                          IMPT 00000000   3658 
_SVP_ORGMEM_DEG1A                         IMPT 00000000   3675 
_SVP_ORGMEM_DEG2                          IMPT 00000000   3660 
_SVP_ORGMEM_DEG2A                         IMPT 00000000   3676 
_SVP_ORGMEM_DEGS1                         IMPT 00000000   3659 
_SVP_ORGMEM_DEGS2                         IMPT 00000000   3661 
_SVP_ORGMPL_SEL1                          IMPT 00000000   3662 
_SVP_ORGMPL_SEL2                          IMPT 00000000   3663 
_SVP_ORGRDN_DEG                           IMPT 00000000   3655 
_SVP_ORGREV_AGL                           IMPT 00000000   3734 
_SVP_ORGRUP_DEG                           IMPT 00000000   3654 
_SVP_ORGSOK_PLS                           IMPT 00000000   3639 
_SVP_ORGSTRK_LEN1                         IMPT 00000000   3646 
_SVP_ORGSTRK_LEN2                         IMPT 00000000   3647 
_SVP_OUTPLS_HOSA                          IMPT 00000000   3342 
_SVP_OUTPLS_HOSB                          IMPT 00000000   3343 
_SVP_OVERE1_A26                           IMPT 00000000   4328 
_SVP_OVERE1_A27                           IMPT 00000000   4336 
_SVP_OVERE1_A28                           IMPT 00000000   4344 
_SVP_OVERE2_A26                           IMPT 00000000   4330 
_SVP_OVERE2_A27                           IMPT 00000000   4338 
_SVP_OVERE2_A28                           IMPT 00000000   4346 
_SVP_OVERE3_A26                           IMPT 00000000   4332 
_SVP_OVERE3_A27                           IMPT 00000000   4340 
_SVP_OVERE3_A28                           IMPT 00000000   4348 
_SVP_OVERLIDE_COF                         IMPT 00000000   3607 
_SVP_PLSAHI_PLS                           IMPT 00000000   3355 
*** SuperH RISC engine ASSEMBLER V.7.01.02.000 ***    12/13/20 18:20:45                                                  PAGE    76

*** CROSS REFERENCE LIST

NAME                             SECTION  ATTR VALUE             SEQUENCE

_SVP_PLSALO_PLS                           IMPT 00000000   3354 
_SVP_PSMOD_SEL                            IMPT 00000000   3338 
_SVP_RAD                                  IMPT 00000000   3733 
_SVP_RCAMOF_D000                          IMPT 00000000   3788 
_SVP_RCAMOF_D001                          IMPT 00000000   3792 
_SVP_RCAMOF_D002                          IMPT 00000000   3796 
_SVP_RCAMOF_D003                          IMPT 00000000   3800 
_SVP_RCAMOF_D004                          IMPT 00000000   3804 
_SVP_RCAMOF_D005                          IMPT 00000000   3808 
_SVP_RCAMOF_D006                          IMPT 00000000   3812 
_SVP_RCAMOF_D007                          IMPT 00000000   3816 
_SVP_RCAMOF_D008                          IMPT 00000000   3820 
_SVP_RCAMOF_D009                          IMPT 00000000   3824 
_SVP_RCAMOF_D00A                          IMPT 00000000   3828 
_SVP_RCAMOF_D00B                          IMPT 00000000   3832 
_SVP_RCAMOF_D00C                          IMPT 00000000   3836 
_SVP_RCAMOF_D00D                          IMPT 00000000   3840 
_SVP_RCAMOF_D00E                          IMPT 00000000   3844 
_SVP_RCAMOF_D00F                          IMPT 00000000   3848 
_SVP_RCAMOF_D010                          IMPT 00000000   3852 
_SVP_RCAMOF_D011                          IMPT 00000000   3856 
_SVP_RCAMOF_D012                          IMPT 00000000   3860 
_SVP_RCAMOF_D013                          IMPT 00000000   3864 
_SVP_RCAMOF_D014                          IMPT 00000000   3868 
_SVP_RCAMOF_D015                          IMPT 00000000   3872 
_SVP_RCAMOF_D016                          IMPT 00000000   3876 
_SVP_RCAMOF_D017                          IMPT 00000000   3880 
_SVP_RCAMOF_D018                          IMPT 00000000   3884 
_SVP_RCAMOF_D019                          IMPT 00000000   3888 
_SVP_RCAMOF_D01A                          IMPT 00000000   3892 
_SVP_RCAMOF_D01B                          IMPT 00000000   3896 
_SVP_RCAMOF_D01C                          IMPT 00000000   3900 
_SVP_RCAMOF_D01D                          IMPT 00000000   3904 
_SVP_RCAMOF_D01E                          IMPT 00000000   3908 
_SVP_RCAMOF_D01F                          IMPT 00000000   3912 
_SVP_RCAMOF_D020                          IMPT 00000000   3916 
_SVP_RCAMOF_D021                          IMPT 00000000   3920 
_SVP_RCAMOF_D022                          IMPT 00000000   3924 
_SVP_RCAMOF_D023                          IMPT 00000000   3928 
_SVP_RCAMOF_D024                          IMPT 00000000   3932 
_SVP_RCAMOF_D025                          IMPT 00000000   3936 
_SVP_RCAMOF_D026                          IMPT 00000000   3940 
_SVP_RCAMOF_D027                          IMPT 00000000   3944 
_SVP_RCAMOF_D028                          IMPT 00000000   3948 
_SVP_RCAMOF_D029                          IMPT 00000000   3952 
_SVP_RCAMOF_D02A                          IMPT 00000000   3956 
_SVP_RCAMOF_D02B                          IMPT 00000000   3960 
_SVP_RCAMOF_D02C                          IMPT 00000000   3964 
_SVP_RCAMOF_D02D                          IMPT 00000000   3968 
_SVP_RCAMOF_D02E                          IMPT 00000000   3972 
_SVP_RCAMOF_D02F                          IMPT 00000000   3976 
_SVP_RCAMOF_D100                          IMPT 00000000   3981 
_SVP_RCAMOF_D101                          IMPT 00000000   3985 
_SVP_RCAMOF_D102                          IMPT 00000000   3989 
*** SuperH RISC engine ASSEMBLER V.7.01.02.000 ***    12/13/20 18:20:45                                                  PAGE    77

*** CROSS REFERENCE LIST

NAME                             SECTION  ATTR VALUE             SEQUENCE

_SVP_RCAMOF_D103                          IMPT 00000000   3993 
_SVP_RCAMOF_D104                          IMPT 00000000   3997 
_SVP_RCAMOF_D105                          IMPT 00000000   4001 
_SVP_RCAMOF_D106                          IMPT 00000000   4005 
_SVP_RCAMOF_D107                          IMPT 00000000   4009 
_SVP_RCAMOF_D108                          IMPT 00000000   4013 
_SVP_RCAMOF_D109                          IMPT 00000000   4017 
_SVP_RCAMOF_D10A                          IMPT 00000000   4021 
_SVP_RCAMOF_D10B                          IMPT 00000000   4025 
_SVP_RCAMOF_D10C                          IMPT 00000000   4029 
_SVP_RCAMOF_D10D                          IMPT 00000000   4033 
_SVP_RCAMOF_D10E                          IMPT 00000000   4037 
_SVP_RCAMOF_D10F                          IMPT 00000000   4041 
_SVP_RCAMOF_D110                          IMPT 00000000   4489 
_SVP_RCAMOF_D111                          IMPT 00000000   4493 
_SVP_RCAMOF_D112                          IMPT 00000000   4497 
_SVP_RCAMOF_D113                          IMPT 00000000   4501 
_SVP_RCAMOF_D114                          IMPT 00000000   4505 
_SVP_RCAMOF_D115                          IMPT 00000000   4509 
_SVP_RCAMOF_D116                          IMPT 00000000   4513 
_SVP_RCAMOF_D117                          IMPT 00000000   4517 
_SVP_RCAMOF_D118                          IMPT 00000000   4521 
_SVP_RCAMOF_D119                          IMPT 00000000   4525 
_SVP_RCAMOF_D11A                          IMPT 00000000   4529 
_SVP_RCAMOF_D11B                          IMPT 00000000   4533 
_SVP_RCAMOF_D11C                          IMPT 00000000   4537 
_SVP_RCAMOF_D11D                          IMPT 00000000   4541 
_SVP_RCAMOF_D11E                          IMPT 00000000   4545 
_SVP_RCAMOF_D11F                          IMPT 00000000   4549 
_SVP_RCAMOF_P000                          IMPT 00000000   3787 
_SVP_RCAMOF_P001                          IMPT 00000000   3791 
_SVP_RCAMOF_P002                          IMPT 00000000   3795 
_SVP_RCAMOF_P003                          IMPT 00000000   3799 
_SVP_RCAMOF_P004                          IMPT 00000000   3803 
_SVP_RCAMOF_P005                          IMPT 00000000   3807 
_SVP_RCAMOF_P006                          IMPT 00000000   3811 
_SVP_RCAMOF_P007                          IMPT 00000000   3815 
_SVP_RCAMOF_P008                          IMPT 00000000   3819 
_SVP_RCAMOF_P009                          IMPT 00000000   3823 
_SVP_RCAMOF_P00A                          IMPT 00000000   3827 
_SVP_RCAMOF_P00B                          IMPT 00000000   3831 
_SVP_RCAMOF_P00C                          IMPT 00000000   3835 
_SVP_RCAMOF_P00D                          IMPT 00000000   3839 
_SVP_RCAMOF_P00E                          IMPT 00000000   3843 
_SVP_RCAMOF_P00F                          IMPT 00000000   3847 
_SVP_RCAMOF_P010                          IMPT 00000000   3851 
_SVP_RCAMOF_P011                          IMPT 00000000   3855 
_SVP_RCAMOF_P012                          IMPT 00000000   3859 
_SVP_RCAMOF_P013                          IMPT 00000000   3863 
_SVP_RCAMOF_P014                          IMPT 00000000   3867 
_SVP_RCAMOF_P015                          IMPT 00000000   3871 
_SVP_RCAMOF_P016                          IMPT 00000000   3875 
_SVP_RCAMOF_P017                          IMPT 00000000   3879 
_SVP_RCAMOF_P018                          IMPT 00000000   3883 
*** SuperH RISC engine ASSEMBLER V.7.01.02.000 ***    12/13/20 18:20:45                                                  PAGE    78

*** CROSS REFERENCE LIST

NAME                             SECTION  ATTR VALUE             SEQUENCE

_SVP_RCAMOF_P019                          IMPT 00000000   3887 
_SVP_RCAMOF_P01A                          IMPT 00000000   3891 
_SVP_RCAMOF_P01B                          IMPT 00000000   3895 
_SVP_RCAMOF_P01C                          IMPT 00000000   3899 
_SVP_RCAMOF_P01D                          IMPT 00000000   3903 
_SVP_RCAMOF_P01E                          IMPT 00000000   3907 
_SVP_RCAMOF_P01F                          IMPT 00000000   3911 
_SVP_RCAMOF_P020                          IMPT 00000000   3915 
_SVP_RCAMOF_P021                          IMPT 00000000   3919 
_SVP_RCAMOF_P022                          IMPT 00000000   3923 
_SVP_RCAMOF_P023                          IMPT 00000000   3927 
_SVP_RCAMOF_P024                          IMPT 00000000   3931 
_SVP_RCAMOF_P025                          IMPT 00000000   3935 
_SVP_RCAMOF_P026                          IMPT 00000000   3939 
_SVP_RCAMOF_P027                          IMPT 00000000   3943 
_SVP_RCAMOF_P028                          IMPT 00000000   3947 
_SVP_RCAMOF_P029                          IMPT 00000000   3951 
_SVP_RCAMOF_P02A                          IMPT 00000000   3955 
_SVP_RCAMOF_P02B                          IMPT 00000000   3959 
_SVP_RCAMOF_P02C                          IMPT 00000000   3963 
_SVP_RCAMOF_P02D                          IMPT 00000000   3967 
_SVP_RCAMOF_P02E                          IMPT 00000000   3971 
_SVP_RCAMOF_P02F                          IMPT 00000000   3975 
_SVP_RCAMOF_P100                          IMPT 00000000   3980 
_SVP_RCAMOF_P101                          IMPT 00000000   3984 
_SVP_RCAMOF_P102                          IMPT 00000000   3988 
_SVP_RCAMOF_P103                          IMPT 00000000   3992 
_SVP_RCAMOF_P104                          IMPT 00000000   3996 
_SVP_RCAMOF_P105                          IMPT 00000000   4000 
_SVP_RCAMOF_P106                          IMPT 00000000   4004 
_SVP_RCAMOF_P107                          IMPT 00000000   4008 
_SVP_RCAMOF_P108                          IMPT 00000000   4012 
_SVP_RCAMOF_P109                          IMPT 00000000   4016 
_SVP_RCAMOF_P10A                          IMPT 00000000   4020 
_SVP_RCAMOF_P10B                          IMPT 00000000   4024 
_SVP_RCAMOF_P10C                          IMPT 00000000   4028 
_SVP_RCAMOF_P10D                          IMPT 00000000   4032 
_SVP_RCAMOF_P10E                          IMPT 00000000   4036 
_SVP_RCAMOF_P10F                          IMPT 00000000   4040 
_SVP_RCAMOF_P110                          IMPT 00000000   4488 
_SVP_RCAMOF_P111                          IMPT 00000000   4492 
_SVP_RCAMOF_P112                          IMPT 00000000   4496 
_SVP_RCAMOF_P113                          IMPT 00000000   4500 
_SVP_RCAMOF_P114                          IMPT 00000000   4504 
_SVP_RCAMOF_P115                          IMPT 00000000   4508 
_SVP_RCAMOF_P116                          IMPT 00000000   4512 
_SVP_RCAMOF_P117                          IMPT 00000000   4516 
_SVP_RCAMOF_P118                          IMPT 00000000   4520 
_SVP_RCAMOF_P119                          IMPT 00000000   4524 
_SVP_RCAMOF_P11A                          IMPT 00000000   4528 
_SVP_RCAMOF_P11B                          IMPT 00000000   4532 
_SVP_RCAMOF_P11C                          IMPT 00000000   4536 
_SVP_RCAMOF_P11D                          IMPT 00000000   4540 
_SVP_RCAMOF_P11E                          IMPT 00000000   4544 
*** SuperH RISC engine ASSEMBLER V.7.01.02.000 ***    12/13/20 18:20:45                                                  PAGE    79

*** CROSS REFERENCE LIST

NAME                             SECTION  ATTR VALUE             SEQUENCE

_SVP_RCAMOF_P11F                          IMPT 00000000   4548 
_SVP_RCAMOF_SA00                          IMPT 00000000   4363 
_SVP_RCAMOF_SA01                          IMPT 00000000   4367 
_SVP_RCAMOF_SA02                          IMPT 00000000   4371 
_SVP_RCAMOF_SA03                          IMPT 00000000   4375 
_SVP_RCAMOF_SA04                          IMPT 00000000   4379 
_SVP_RCAMOF_SA05                          IMPT 00000000   4383 
_SVP_RCAMOF_SA06                          IMPT 00000000   4387 
_SVP_RCAMOF_SA07                          IMPT 00000000   4391 
_SVP_RCAMOF_SA08                          IMPT 00000000   4395 
_SVP_RCAMOF_SA09                          IMPT 00000000   4399 
_SVP_RCAMOF_SA10                          IMPT 00000000   4403 
_SVP_RCAMOF_SA11                          IMPT 00000000   4407 
_SVP_RCAMOF_SA12                          IMPT 00000000   4411 
_SVP_RCAMOF_SA13                          IMPT 00000000   4415 
_SVP_RCAMOF_SA14                          IMPT 00000000   4419 
_SVP_RCAMOF_SA15                          IMPT 00000000   4423 
_SVP_RCAMOF_ST00                          IMPT 00000000   4364 
_SVP_RCAMOF_ST01                          IMPT 00000000   4368 
_SVP_RCAMOF_ST02                          IMPT 00000000   4372 
_SVP_RCAMOF_ST03                          IMPT 00000000   4376 
_SVP_RCAMOF_ST04                          IMPT 00000000   4380 
_SVP_RCAMOF_ST05                          IMPT 00000000   4384 
_SVP_RCAMOF_ST06                          IMPT 00000000   4388 
_SVP_RCAMOF_ST07                          IMPT 00000000   4392 
_SVP_RCAMOF_ST08                          IMPT 00000000   4396 
_SVP_RCAMOF_ST09                          IMPT 00000000   4400 
_SVP_RCAMOF_ST10                          IMPT 00000000   4404 
_SVP_RCAMOF_ST11                          IMPT 00000000   4408 
_SVP_RCAMOF_ST12                          IMPT 00000000   4412 
_SVP_RCAMOF_ST13                          IMPT 00000000   4416 
_SVP_RCAMOF_ST14                          IMPT 00000000   4420 
_SVP_RCAMOF_ST15                          IMPT 00000000   4424 
_SVP_RCAMON_D000                          IMPT 00000000   3786 
_SVP_RCAMON_D001                          IMPT 00000000   3790 
_SVP_RCAMON_D002                          IMPT 00000000   3794 
_SVP_RCAMON_D003                          IMPT 00000000   3798 
_SVP_RCAMON_D004                          IMPT 00000000   3802 
_SVP_RCAMON_D005                          IMPT 00000000   3806 
_SVP_RCAMON_D006                          IMPT 00000000   3810 
_SVP_RCAMON_D007                          IMPT 00000000   3814 
_SVP_RCAMON_D008                          IMPT 00000000   3818 
_SVP_RCAMON_D009                          IMPT 00000000   3822 
_SVP_RCAMON_D00A                          IMPT 00000000   3826 
_SVP_RCAMON_D00B                          IMPT 00000000   3830 
_SVP_RCAMON_D00C                          IMPT 00000000   3834 
_SVP_RCAMON_D00D                          IMPT 00000000   3838 
_SVP_RCAMON_D00E                          IMPT 00000000   3842 
_SVP_RCAMON_D00F                          IMPT 00000000   3846 
_SVP_RCAMON_D010                          IMPT 00000000   3850 
_SVP_RCAMON_D011                          IMPT 00000000   3854 
_SVP_RCAMON_D012                          IMPT 00000000   3858 
_SVP_RCAMON_D013                          IMPT 00000000   3862 
_SVP_RCAMON_D014                          IMPT 00000000   3866 
*** SuperH RISC engine ASSEMBLER V.7.01.02.000 ***    12/13/20 18:20:45                                                  PAGE    80

*** CROSS REFERENCE LIST

NAME                             SECTION  ATTR VALUE             SEQUENCE

_SVP_RCAMON_D015                          IMPT 00000000   3870 
_SVP_RCAMON_D016                          IMPT 00000000   3874 
_SVP_RCAMON_D017                          IMPT 00000000   3878 
_SVP_RCAMON_D018                          IMPT 00000000   3882 
_SVP_RCAMON_D019                          IMPT 00000000   3886 
_SVP_RCAMON_D01A                          IMPT 00000000   3890 
_SVP_RCAMON_D01B                          IMPT 00000000   3894 
_SVP_RCAMON_D01C                          IMPT 00000000   3898 
_SVP_RCAMON_D01D                          IMPT 00000000   3902 
_SVP_RCAMON_D01E                          IMPT 00000000   3906 
_SVP_RCAMON_D01F                          IMPT 00000000   3910 
_SVP_RCAMON_D020                          IMPT 00000000   3914 
_SVP_RCAMON_D021                          IMPT 00000000   3918 
_SVP_RCAMON_D022                          IMPT 00000000   3922 
_SVP_RCAMON_D023                          IMPT 00000000   3926 
_SVP_RCAMON_D024                          IMPT 00000000   3930 
_SVP_RCAMON_D025                          IMPT 00000000   3934 
_SVP_RCAMON_D026                          IMPT 00000000   3938 
_SVP_RCAMON_D027                          IMPT 00000000   3942 
_SVP_RCAMON_D028                          IMPT 00000000   3946 
_SVP_RCAMON_D029                          IMPT 00000000   3950 
_SVP_RCAMON_D02A                          IMPT 00000000   3954 
_SVP_RCAMON_D02B                          IMPT 00000000   3958 
_SVP_RCAMON_D02C                          IMPT 00000000   3962 
_SVP_RCAMON_D02D                          IMPT 00000000   3966 
_SVP_RCAMON_D02E                          IMPT 00000000   3970 
_SVP_RCAMON_D02F                          IMPT 00000000   3974 
_SVP_RCAMON_D100                          IMPT 00000000   3979 
_SVP_RCAMON_D101                          IMPT 00000000   3983 
_SVP_RCAMON_D102                          IMPT 00000000   3987 
_SVP_RCAMON_D103                          IMPT 00000000   3991 
_SVP_RCAMON_D104                          IMPT 00000000   3995 
_SVP_RCAMON_D105                          IMPT 00000000   3999 
_SVP_RCAMON_D106                          IMPT 00000000   4003 
_SVP_RCAMON_D107                          IMPT 00000000   4007 
_SVP_RCAMON_D108                          IMPT 00000000   4011 
_SVP_RCAMON_D109                          IMPT 00000000   4015 
_SVP_RCAMON_D10A                          IMPT 00000000   4019 
_SVP_RCAMON_D10B                          IMPT 00000000   4023 
_SVP_RCAMON_D10C                          IMPT 00000000   4027 
_SVP_RCAMON_D10D                          IMPT 00000000   4031 
_SVP_RCAMON_D10E                          IMPT 00000000   4035 
_SVP_RCAMON_D10F                          IMPT 00000000   4039 
_SVP_RCAMON_D110                          IMPT 00000000   4487 
_SVP_RCAMON_D111                          IMPT 00000000   4491 
_SVP_RCAMON_D112                          IMPT 00000000   4495 
_SVP_RCAMON_D113                          IMPT 00000000   4499 
_SVP_RCAMON_D114                          IMPT 00000000   4503 
_SVP_RCAMON_D115                          IMPT 00000000   4507 
_SVP_RCAMON_D116                          IMPT 00000000   4511 
_SVP_RCAMON_D117                          IMPT 00000000   4515 
_SVP_RCAMON_D118                          IMPT 00000000   4519 
_SVP_RCAMON_D119                          IMPT 00000000   4523 
_SVP_RCAMON_D11A                          IMPT 00000000   4527 
*** SuperH RISC engine ASSEMBLER V.7.01.02.000 ***    12/13/20 18:20:45                                                  PAGE    81

*** CROSS REFERENCE LIST

NAME                             SECTION  ATTR VALUE             SEQUENCE

_SVP_RCAMON_D11B                          IMPT 00000000   4531 
_SVP_RCAMON_D11C                          IMPT 00000000   4535 
_SVP_RCAMON_D11D                          IMPT 00000000   4539 
_SVP_RCAMON_D11E                          IMPT 00000000   4543 
_SVP_RCAMON_D11F                          IMPT 00000000   4547 
_SVP_RCAMON_P000                          IMPT 00000000   3785 
_SVP_RCAMON_P001                          IMPT 00000000   3789 
_SVP_RCAMON_P002                          IMPT 00000000   3793 
_SVP_RCAMON_P003                          IMPT 00000000   3797 
_SVP_RCAMON_P004                          IMPT 00000000   3801 
_SVP_RCAMON_P005                          IMPT 00000000   3805 
_SVP_RCAMON_P006                          IMPT 00000000   3809 
_SVP_RCAMON_P007                          IMPT 00000000   3813 
_SVP_RCAMON_P008                          IMPT 00000000   3817 
_SVP_RCAMON_P009                          IMPT 00000000   3821 
_SVP_RCAMON_P00A                          IMPT 00000000   3825 
_SVP_RCAMON_P00B                          IMPT 00000000   3829 
_SVP_RCAMON_P00C                          IMPT 00000000   3833 
_SVP_RCAMON_P00D                          IMPT 00000000   3837 
_SVP_RCAMON_P00E                          IMPT 00000000   3841 
_SVP_RCAMON_P00F                          IMPT 00000000   3845 
_SVP_RCAMON_P010                          IMPT 00000000   3849 
_SVP_RCAMON_P011                          IMPT 00000000   3853 
_SVP_RCAMON_P012                          IMPT 00000000   3857 
_SVP_RCAMON_P013                          IMPT 00000000   3861 
_SVP_RCAMON_P014                          IMPT 00000000   3865 
_SVP_RCAMON_P015                          IMPT 00000000   3869 
_SVP_RCAMON_P016                          IMPT 00000000   3873 
_SVP_RCAMON_P017                          IMPT 00000000   3877 
_SVP_RCAMON_P018                          IMPT 00000000   3881 
_SVP_RCAMON_P019                          IMPT 00000000   3885 
_SVP_RCAMON_P01A                          IMPT 00000000   3889 
_SVP_RCAMON_P01B                          IMPT 00000000   3893 
_SVP_RCAMON_P01C                          IMPT 00000000   3897 
_SVP_RCAMON_P01D                          IMPT 00000000   3901 
_SVP_RCAMON_P01E                          IMPT 00000000   3905 
_SVP_RCAMON_P01F                          IMPT 00000000   3909 
_SVP_RCAMON_P020                          IMPT 00000000   3913 
_SVP_RCAMON_P021                          IMPT 00000000   3917 
_SVP_RCAMON_P022                          IMPT 00000000   3921 
_SVP_RCAMON_P023                          IMPT 00000000   3925 
_SVP_RCAMON_P024                          IMPT 00000000   3929 
_SVP_RCAMON_P025                          IMPT 00000000   3933 
_SVP_RCAMON_P026                          IMPT 00000000   3937 
_SVP_RCAMON_P027                          IMPT 00000000   3941 
_SVP_RCAMON_P028                          IMPT 00000000   3945 
_SVP_RCAMON_P029                          IMPT 00000000   3949 
_SVP_RCAMON_P02A                          IMPT 00000000   3953 
_SVP_RCAMON_P02B                          IMPT 00000000   3957 
_SVP_RCAMON_P02C                          IMPT 00000000   3961 
_SVP_RCAMON_P02D                          IMPT 00000000   3965 
_SVP_RCAMON_P02E                          IMPT 00000000   3969 
_SVP_RCAMON_P02F                          IMPT 00000000   3973 
_SVP_RCAMON_P100                          IMPT 00000000   3978 
*** SuperH RISC engine ASSEMBLER V.7.01.02.000 ***    12/13/20 18:20:45                                                  PAGE    82

*** CROSS REFERENCE LIST

NAME                             SECTION  ATTR VALUE             SEQUENCE

_SVP_RCAMON_P101                          IMPT 00000000   3982 
_SVP_RCAMON_P102                          IMPT 00000000   3986 
_SVP_RCAMON_P103                          IMPT 00000000   3990 
_SVP_RCAMON_P104                          IMPT 00000000   3994 
_SVP_RCAMON_P105                          IMPT 00000000   3998 
_SVP_RCAMON_P106                          IMPT 00000000   4002 
_SVP_RCAMON_P107                          IMPT 00000000   4006 
_SVP_RCAMON_P108                          IMPT 00000000   4010 
_SVP_RCAMON_P109                          IMPT 00000000   4014 
_SVP_RCAMON_P10A                          IMPT 00000000   4018 
_SVP_RCAMON_P10B                          IMPT 00000000   4022 
_SVP_RCAMON_P10C                          IMPT 00000000   4026 
_SVP_RCAMON_P10D                          IMPT 00000000   4030 
_SVP_RCAMON_P10E                          IMPT 00000000   4034 
_SVP_RCAMON_P10F                          IMPT 00000000   4038 
_SVP_RCAMON_P110                          IMPT 00000000   4486 
_SVP_RCAMON_P111                          IMPT 00000000   4490 
_SVP_RCAMON_P112                          IMPT 00000000   4494 
_SVP_RCAMON_P113                          IMPT 00000000   4498 
_SVP_RCAMON_P114                          IMPT 00000000   4502 
_SVP_RCAMON_P115                          IMPT 00000000   4506 
_SVP_RCAMON_P116                          IMPT 00000000   4510 
_SVP_RCAMON_P117                          IMPT 00000000   4514 
_SVP_RCAMON_P118                          IMPT 00000000   4518 
_SVP_RCAMON_P119                          IMPT 00000000   4522 
_SVP_RCAMON_P11A                          IMPT 00000000   4526 
_SVP_RCAMON_P11B                          IMPT 00000000   4530 
_SVP_RCAMON_P11C                          IMPT 00000000   4534 
_SVP_RCAMON_P11D                          IMPT 00000000   4538 
_SVP_RCAMON_P11E                          IMPT 00000000   4542 
_SVP_RCAMON_P11F                          IMPT 00000000   4546 
_SVP_RCAMON_POS_TOP                       IMPT 00000000   3784 
_SVP_RCAMON_SA00                          IMPT 00000000   4361 
_SVP_RCAMON_SA01                          IMPT 00000000   4365 
_SVP_RCAMON_SA02                          IMPT 00000000   4369 
_SVP_RCAMON_SA03                          IMPT 00000000   4373 
_SVP_RCAMON_SA04                          IMPT 00000000   4377 
_SVP_RCAMON_SA05                          IMPT 00000000   4381 
_SVP_RCAMON_SA06                          IMPT 00000000   4385 
_SVP_RCAMON_SA07                          IMPT 00000000   4389 
_SVP_RCAMON_SA08                          IMPT 00000000   4393 
_SVP_RCAMON_SA09                          IMPT 00000000   4397 
_SVP_RCAMON_SA10                          IMPT 00000000   4401 
_SVP_RCAMON_SA11                          IMPT 00000000   4405 
_SVP_RCAMON_SA12                          IMPT 00000000   4409 
_SVP_RCAMON_SA13                          IMPT 00000000   4413 
_SVP_RCAMON_SA14                          IMPT 00000000   4417 
_SVP_RCAMON_SA15                          IMPT 00000000   4421 
_SVP_RCAMON_ST00                          IMPT 00000000   4362 
_SVP_RCAMON_ST01                          IMPT 00000000   4366 
_SVP_RCAMON_ST02                          IMPT 00000000   4370 
_SVP_RCAMON_ST03                          IMPT 00000000   4374 
_SVP_RCAMON_ST04                          IMPT 00000000   4378 
_SVP_RCAMON_ST05                          IMPT 00000000   4382 
*** SuperH RISC engine ASSEMBLER V.7.01.02.000 ***    12/13/20 18:20:45                                                  PAGE    83

*** CROSS REFERENCE LIST

NAME                             SECTION  ATTR VALUE             SEQUENCE

_SVP_RCAMON_ST06                          IMPT 00000000   4386 
_SVP_RCAMON_ST07                          IMPT 00000000   4390 
_SVP_RCAMON_ST08                          IMPT 00000000   4394 
_SVP_RCAMON_ST09                          IMPT 00000000   4398 
_SVP_RCAMON_ST10                          IMPT 00000000   4402 
_SVP_RCAMON_ST11                          IMPT 00000000   4406 
_SVP_RCAMON_ST12                          IMPT 00000000   4410 
_SVP_RCAMON_ST13                          IMPT 00000000   4414 
_SVP_RCAMON_ST14                          IMPT 00000000   4418 
_SVP_RCAMON_ST15                          IMPT 00000000   4422 
_SVP_RCAMON_TIM_TOP                       IMPT 00000000   3977 
_SVP_REVDAT_SPD1                          IMPT 00000000   3293 
_SVP_REVDAT_SPD2                          IMPT 00000000   3294 
_SVP_REVDAT_SPD3                          IMPT 00000000   3295 
_SVP_RISE_CMP1                            IMPT 00000000   3739 
_SVP_RISE_CMP2                            IMPT 00000000   3740 
_SVP_RISE_CMP3                            IMPT 00000000   3741 
_SVP_RISE_DLY1                            IMPT 00000000   3742 
_SVP_RISE_DLY2                            IMPT 00000000   3743 
_SVP_RISE_ZWID                            IMPT 00000000   3738 
_SVP_RNADIR_SEL1                          IMPT 00000000   3274 
_SVP_RNADIR_SEL2                          IMPT 00000000   3674 
_SVP_RNAORGMEM_LEG1                       IMPT 00000000   3648 
_SVP_RNAORGMEM_LEG2                       IMPT 00000000   3650 
_SVP_RNAORG_PLS1                          IMPT 00000000   3649 
_SVP_RNAORG_PLS2                          IMPT 00000000   3651 
_SVP_RNAORG_POS1                          IMPT 00000000   3282 
_SVP_RNAORG_SIN1                          IMPT 00000000   3652 
_SVP_RNAORG_SIN2                          IMPT 00000000   3653 
_SVP_RNAPOS_KP01                          IMPT 00000000   3301 
_SVP_RNAPOS_MAXP                          IMPT 00000000   3283 
_SVP_RNAPOS_MINP                          IMPT 00000000   3284 
_SVP_RNAREV_ELNG                          IMPT 00000000   3317 
_SVP_RNASTP_ELNG                          IMPT 00000000   3315 
_SVP_RNA_STLORK                           IMPT 00000000   3341 
_SVP_ROALM1_A26                           IMPT 00000000   4329 
_SVP_ROALM1_A27                           IMPT 00000000   4337 
_SVP_ROALM1_A28                           IMPT 00000000   4345 
_SVP_ROALM2_A26                           IMPT 00000000   4331 
_SVP_ROALM2_A27                           IMPT 00000000   4339 
_SVP_ROALM2_A28                           IMPT 00000000   4347 
_SVP_ROALM3_A26                           IMPT 00000000   4333 
_SVP_ROALM3_A27                           IMPT 00000000   4341 
_SVP_ROALM3_A28                           IMPT 00000000   4349 
_SVP_ROTCAM_OFR                           IMPT 00000000   4435 
_SVP_ROTCAM_ONR                           IMPT 00000000   4434 
_SVP_RPARAM_TOP1                          IMPT 00000000   3269 
_SVP_RUNSAMER_LEN1                        IMPT 00000000   3669 
_SVP_RUNSAMER_LEN2                        IMPT 00000000   3670 
_SVP_RUNSAMER_PLS                         IMPT 00000000   3672 
_SVP_SLIDE_S                              IMPT 00000000   3732 
_SVP_SLID_POS1                            IMPT 00000000   3541 
_SVP_SLID_POS2                            IMPT 00000000   3542 
_SVP_SLID_POS3                            IMPT 00000000   3543 
*** SuperH RISC engine ASSEMBLER V.7.01.02.000 ***    12/13/20 18:20:45                                                  PAGE    84

*** CROSS REFERENCE LIST

NAME                             SECTION  ATTR VALUE             SEQUENCE

_SVP_SLPOS_DIR                            IMPT 00000000   4325 
_SVP_SL_TENPOS                            IMPT 00000000   4324 
_SVP_SMPCYC_TIM                           IMPT 00000000   3363 
_SVP_SMPCYC_TIM2                          IMPT 00000000   4427 
_SVP_SMPMAX_CNT                           IMPT 00000000   3361 
_SVP_SMPMAX_CNT2                          IMPT 00000000   4426 
_SVP_SMPSTR_AGL                           IMPT 00000000   3357 
_SVP_SMPSTR_FUK                           IMPT 00000000   3358 
_SVP_SMPSTR_KAJ                           IMPT 00000000   3356 
_SVP_SMPSTR_SEH                           IMPT 00000000   3359 
_SVP_SMPSTR_SQL                           IMPT 00000000   3360 
_SVP_SMPTRG_CNT                           IMPT 00000000   3362 
_SVP_SMPTRG_CNT1                          IMPT 00000000   3411 
_SVP_SMP_CNT                              IMPT 00000000   3398 
_SVP_SSCURV_TIM1                          IMPT 00000000   3303 
_SVP_STDINC_SPD1                          IMPT 00000000   3292 
_SVP_SYNC_ERR_DEGA                        IMPT 00000000   3700 
_SVP_SYNC_ERR_DEGB                        IMPT 00000000   3701 
_SVP_SYNC_ERR_DEGC                        IMPT 00000000   3702 
_SVP_SYNC_ERR_DEGD                        IMPT 00000000   3703 
_SVP_SYNC_ERR_PGA                         IMPT 00000000   3708 
_SVP_SYNC_ERR_PGB                         IMPT 00000000   3709 
_SVP_SYNC_ERR_PGC                         IMPT 00000000   3710 
_SVP_SYNC_ERR_PGD                         IMPT 00000000   3711 
_SVP_SYNC_ERR_RNAA                        IMPT 00000000   3704 
_SVP_SYNC_ERR_RNAB                        IMPT 00000000   3705 
_SVP_SYNC_ERR_RNAC                        IMPT 00000000   3706 
_SVP_SYNC_ERR_RNAD                        IMPT 00000000   3707 
_SVP_TEPDAT_SPD1                          IMPT 00000000   3296 
_SVP_TEPLAT_DAT1                          IMPT 00000000   3297 
_SVP_TEPLAT_DAT2                          IMPT 00000000   3298 
_SVP_TRDCSR_RNAD                          IMPT 00000000   3410 
_SVP_TRDCSR_RNAU                          IMPT 00000000   3409 
_SVP_TRD_CNT                              IMPT 00000000   3399 
_SVP_UPAREA_DIG0                          IMPT 00000000   3532 
_SVP_UPAREA_DIG1                          IMPT 00000000   3309 
_SVP_UPAREA_INP1                          IMPT 00000000   3304 
_SVP_UPAREA_JUDG                          IMPT 00000000   3285 
_SVP_UPAREA_POS0                          IMPT 00000000   3531 
_SVP_UPAREA_SPD0                          IMPT 00000000   3533 
_SVP_UPAREA_SPD1                          IMPT 00000000   3291 
_SVP_UPAREA_TIM0                          IMPT 00000000   3534 
_SVP_UPDATA_A21                           IMPT 00000000   4318 
_SVP_UPHOLD_DIG                           IMPT 00000000   3344 
_SVP_UPSTOP_A21                           IMPT 00000000   4323 
_SVP_VIB_KJYU_TTL                         IMPT 00000000   3430 
_SVP_VOLST_L                              IMPT 00000000   3731 
_SVP_WTTIM_MAX                            IMPT 00000000   4358 
_SVP_WT_DIG1                              IMPT 00000000   3334 
_SVP_WT_DIG2                              IMPT 00000000   3335 
_SVP_WT_DIG3                              IMPT 00000000   3336 
_SWECLEAR                                 EQU  000000BF   5910*
_SWESET                                   EQU  00000040   5909*
_SYORI_STS                                EQU  00000003   5733*
*** SuperH RISC engine ASSEMBLER V.7.01.02.000 ***    12/13/20 18:20:45                                                  PAGE    85

*** CROSS REFERENCE LIST

NAME                             SECTION  ATTR VALUE             SEQUENCE

_TBL_Reset                                IMPT 00000000   5969 
_TCNT0                                    IMPT 00000000    365 
_TCNT1                                    IMPT 00000000    368 
_TCNT2                                    IMPT 00000000    371 
_TCOR0                                    IMPT 00000000    364 
_TCOR1                                    IMPT 00000000    367 
_TCOR2                                    IMPT 00000000    370 
_TCPR2                                    IMPT 00000000    373 
_TCR0                                     IMPT 00000000    366 
_TCR1                                     IMPT 00000000    369 
_TCR2                                     IMPT 00000000    372 
_TEA                                      IMPT 00000000    287 
_TOCR                                     IMPT 00000000    362 
_TRA                                      IMPT 00000000    292 
_TSTR                                     IMPT 00000000    363 
_TTB                                      IMPT 00000000    286 
_VUPCHECK_EQU                             EQU  11AB3739     97*
_VUP_DATA_ADR_OP1                         IMPT 00000000   3246  6744 
_VUP_DATA_AREA_ADR               Bvupwkra      00000010   6422  6495  6545  6595  6642  6849  6882  6980  7365*
_VUP_DATA_AREA_CPUA                       EQU  AC070000   5809* 6421  6493  6544  6594  6641  6742  7206 
_VUP_DATA_AREA_CPUB                       EQU  00400000   5810*
_VUP_HSAREA_A_TO_B                        IMPT 00000000   3225  6322 
_VUP_HSAREA_B_TO_A                        IMPT 00000000   3218  6321  6355 
_VUP_MAIN                        PvupROM       000000A8   6224  6316*
_VUP_PRG_NG_DAT                  Bvupwkra      00000038   6703  6801  6942  7268  7369* 7513  7658 
_VUP_PRG_NON_SUM_CODE            Bvupwkra      0000003C   6574  7192  7371*
_VUP_PRG_RETRY_CNT               Bvupwkra      0000003A   6935  7370*
_VUP_PROG_SUMCHK_020             PvupROM       00000590   7186  7191*
_VUP_PROG_SUMCHK_030             PvupROM       000005A4   7196  7205*
_VUP_PROG_SUMCHK_050             PvupROM       000005B2   7214* 7222  7246 
_VUP_PROG_SUMCHK_100             PvupROM       000005FC   7216  7259*
_VUP_PROG_SUMCHK_150             PvupROM       0000060E   7263  7265  7271*
_VUP_PROG_SUMCHK_EXT             PvupROM       0000060E   7188  7198  7272*
_VUP_PROG_SUMCHK_NG              PvupROM       00000608   7266*
_VUP_PROG_SUM_CHK                PvupROM       00000552   7096*
_VUP_WKRAM                       Bvupwkra      00000018   6228  6390  7368*
_WCR1                                     IMPT 00000000    313 
_WCR2                                     IMPT 00000000    314 
_WCR3                                     IMPT 00000000    315 
_WDT_573u                                 EQU  0000A579   5901*
_WDT_9m                                   EQU  0000A57D   5900*
_WDT_A_TO_B_ANS                           IMPT 00000000   2758 
_WDT_A_TO_B_REQ                           IMPT 00000000   2757 
_WDT_B_TO_A_ANS                           IMPT 00000000   2760 
_WDT_B_TO_A_REQ                           IMPT 00000000   2759 
_WDT_TCSR                                 EQU  FFFF8610   5899*
_WORD_SUUH                                EQU  00000018   5754*
_WORD_SUUL                                EQU  00000017   5753*
_WTCNT                                    IMPT 00000000    350 
_WTCSR                                    IMPT 00000000    351 
_Wait100u                                 EQU  000003EA   5892*
_Wait10m                                  EQU  000186A2   5895*
_Wait10u                                  EQU  00000066   5888*
_Wait1u                                   EQU  0000000C   5883*
*** SuperH RISC engine ASSEMBLER V.7.01.02.000 ***    12/13/20 18:20:45                                                  PAGE    86

*** CROSS REFERENCE LIST

NAME                             SECTION  ATTR VALUE             SEQUENCE

_Wait200u                                 EQU  000007D2   5893*
_Wait20u                                  EQU  000000CA   5889*
_Wait2s                                   EQU  01312D02   5897*
_Wait2u                                   EQU  00000016   5884*
_Wait30u                                  EQU  0000012E   5890*
_Wait4u                                   EQU  0000002A   5885*
_Wait50m                                  EQU  0007A122   5896*
_Wait50u                                  EQU  000001F6   5891*
_Wait5m                                   EQU  0000C352   5894*
_Wait5u                                   EQU  00000034   5886*
_Wait6u                                   EQU  0000003E   5887*
_Wait_STS                                 EQU  00000064   5882* 5883  5884  5885  5886  5887  5888  5889  5890  5891  5892  5893 
                                                          5894  5895  5896  5897 
*** SuperH RISC engine ASSEMBLER V.7.01.02.000 ***    12/13/20 18:20:45                                                  PAGE    87

*** SECTION DATA LIST

SECTION                          ATTRIBUTE    SIZE             START

PvupROM                          REL-CODE    000000858        
Bvupwkram                        REL-CODE    00000003E        
PvupRAM                          REL-CODE    000000000        
