*** SuperH RISC engine ASSEMBLER V.7.01.02.000 ***    07/04/21 19:29:14                                                  PAGE     1
PROGRAM NAME =

    1                               1     ;****************************************************************************************
    2                               2     ;* File Name    : ssa_Main.src
    3                               3     ;* Function     : シーケンス メイン処理
    4                               4     ;* Author       : Designed by T.Akiba, Coded by T.Akiba
    5                               5     ;* Date         : 2009-11-20 Akiba
    6                               6     ;* Update       : 2010-08-11 Y.Kobayashi(コード整理)
    7                               7     ;****************************************************************************************
    8                               8     
    9                               9     ;********************************************************************
   10                              10     ;* INCLUDE
   11                              11     ;********************************************************************
 2338                              20     
 2339 00000000                     21             .SECTION        P,CODE
 2340                              22     
 2341                              23     ;********************************************************************
 2342                              24     ;* EXTERN 宣言 MEMORY,HARD
 2343                              25     ;********************************************************************
 2344                              26             .IMPORT         _SEQ_CALL_TBL1          ;
 2345                              27             .IMPORT         _SEQ_DATA_TBL1          ;
 2346                              28             .IMPORT         _SEQ_RUN_CHG1_MAIN;     ;
 2347                              29             .IMPORT         _SEQ_RUN_CHG2_MAIN;     ;
 2348                              30             .IMPORT         _SEQ_RUN_CHG3_MAIN;     ;
 2349                              31     
 2350                              32     ;********************************************************************
 2351                              33     ;* PUBLIC 宣言 PROGRAM
 2352                              34     ;********************************************************************
 2353                              35             .EXPORT         _SEQ_BACK_GROUND_INIT   ;
 2354                              36             .EXPORT         _SEQ_MAIN               ;
 2355                              37     
 2356                              38             .IMPORT         _ssc_InitSArea          ;
 2357                              39             .IMPORT         _SeqRunFlg              ;
 2358                              40             .IMPORT         _SEQ_COM1_TOP           ;
 2359                              41             .IMPORT         _SEQ_COM2_TOP           ;
 2360                              42             .IMPORT         _SEQ_COM3_TOP           ;
 2361                              43             .IMPORT         _SeqPOU1                ;
 2362                              44             .IMPORT         _SeqPOU2                ;
 2363                              45             .IMPORT         _SeqPOU3                ;
 2364                              46             .IMPORT         _SeqPOURun1Flg          ; POU1 運転ﾌﾗｸﾞ(0:運転可,1:運転不可)
 2365                              47             .IMPORT         _SeqPOURun2Flg          ; POU2 運転ﾌﾗｸﾞ(0:運転可,1:運転不可)
 2366                              48             .IMPORT         _SeqPOURun3Flg          ; POU3 運転ﾌﾗｸﾞ(0:運転可,1:運転不可)
 2367                              49     
 2368                              50     
 2369                              51     ;********************************************************************
 2370                              52     ;* FUNCTION     : シーケンスにかかわる起動前イニシャル
 2371                              53     ;* DATE         : 09/11/20 Akiba
 2372                              54     ;* UPDATE       : 10/08/26 Y.Kobayashi
 2373                              55     ;********************************************************************
 2374 00000000                     56     _SEQ_BACK_GROUND_INIT
 2375                              57             SUB_START
 2376 00000000 4F22                   M           STS.L   PR,@-R15                ;[必要]
 2377                                 M   ;;;;;;; ADD     #-4,R15                 ;[不要?]
 2378                              58             PUSH_ALL
 2379                                 M           PUSH_REG1       R0      ;
 2380 00000002 2F06                   M           MOV.L   R0,@-R15                ;PUSH=SP-4
 2381                                 M                                           ;REG=>[SP]
 2382                                 M                                           ;"-4" FF,FF,FF,FC
 2383                                 M           PUSH_REG1       R1      ;
*** SuperH RISC engine ASSEMBLER V.7.01.02.000 ***    07/04/21 19:29:14                                                  PAGE     2
PROGRAM NAME =

 2384 00000004 2F16                   M           MOV.L   R1,@-R15                ;PUSH=SP-4
 2385                                 M                                           ;REG=>[SP]
 2386                                 M                                           ;"-4" FF,FF,FF,FC
 2387                                 M           PUSH_REG1       R2      ;
 2388 00000006 2F26                   M           MOV.L   R2,@-R15                ;PUSH=SP-4
 2389                                 M                                           ;REG=>[SP]
 2390                                 M                                           ;"-4" FF,FF,FF,FC
 2391                                 M           PUSH_REG1       R3      ;
 2392 00000008 2F36                   M           MOV.L   R3,@-R15                ;PUSH=SP-4
 2393                                 M                                           ;REG=>[SP]
 2394                                 M                                           ;"-4" FF,FF,FF,FC
 2395                                 M           PUSH_REG1       R4      ;
 2396 0000000A 2F46                   M           MOV.L   R4,@-R15                ;PUSH=SP-4
 2397                                 M                                           ;REG=>[SP]
 2398                                 M                                           ;"-4" FF,FF,FF,FC
 2399                                 M           PUSH_REG1       R5      ;
 2400 0000000C 2F56                   M           MOV.L   R5,@-R15                ;PUSH=SP-4
 2401                                 M                                           ;REG=>[SP]
 2402                                 M                                           ;"-4" FF,FF,FF,FC
 2403                                 M           PUSH_REG1       R6      ;
 2404 0000000E 2F66                   M           MOV.L   R6,@-R15                ;PUSH=SP-4
 2405                                 M                                           ;REG=>[SP]
 2406                                 M                                           ;"-4" FF,FF,FF,FC
 2407                                 M           PUSH_REG1       R7      ;
 2408 00000010 2F76                   M           MOV.L   R7,@-R15                ;PUSH=SP-4
 2409                                 M                                           ;REG=>[SP]
 2410                                 M                                           ;"-4" FF,FF,FF,FC
 2411                                 M           PUSH_REG1       R8      ;
 2412 00000012 2F86                   M           MOV.L   R8,@-R15                ;PUSH=SP-4
 2413                                 M                                           ;REG=>[SP]
 2414                                 M                                           ;"-4" FF,FF,FF,FC
 2415                                 M           PUSH_REG1       R9      ;
 2416 00000014 2F96                   M           MOV.L   R9,@-R15                ;PUSH=SP-4
 2417                                 M                                           ;REG=>[SP]
 2418                                 M                                           ;"-4" FF,FF,FF,FC
 2419                                 M           PUSH_REG1       R10     ;
 2420 00000016 2FA6                   M           MOV.L   R10,@-R15               ;PUSH=SP-4
 2421                                 M                                           ;REG=>[SP]
 2422                                 M                                           ;"-4" FF,FF,FF,FC
 2423                                 M           PUSH_REG1       R11     ;
 2424 00000018 2FB6                   M           MOV.L   R11,@-R15               ;PUSH=SP-4
 2425                                 M                                           ;REG=>[SP]
 2426                                 M                                           ;"-4" FF,FF,FF,FC
 2427                                 M           PUSH_REG1       R12     ;
 2428 0000001A 2FC6                   M           MOV.L   R12,@-R15               ;PUSH=SP-4
 2429                                 M                                           ;REG=>[SP]
 2430                                 M                                           ;"-4" FF,FF,FF,FC
 2431                                 M           PUSH_REG1       R13     ;
 2432 0000001C 2FD6                   M           MOV.L   R13,@-R15               ;PUSH=SP-4
 2433                                 M                                           ;REG=>[SP]
 2434                                 M                                           ;"-4" FF,FF,FF,FC
 2435                                 M           PUSH_REG1       R14     ;
 2436 0000001E 2FE6                   M           MOV.L   R14,@-R15               ;PUSH=SP-4
 2437                                 M                                           ;REG=>[SP]
 2438                                 M                                           ;"-4" FF,FF,FF,FC
 2439                                 M           PUSH_MACHL              ;
 2440 00000020 4F02                   M           STS.L   MACH,@-R15
*** SuperH RISC engine ASSEMBLER V.7.01.02.000 ***    07/04/21 19:29:14                                                  PAGE     3
PROGRAM NAME =

 2441 00000022 4F12                   M           STS.L   MACL,@-R15
 2442                                 M           PUSH_SYS_REG    GBR     ;
 2443 00000024 4F13                   M           STC.L   GBR,@-R15
 2444                                 M           .AIF    3 EQ 3
 2445                                             .AELSE
 2446                                             PUSH_FPU_ALL            ;2001-07-08
 2447                                             .AENDI
 2448                              59     
 2449                              60             FAR_JSR #_ssc_InitSArea,R0              ; ｼｽﾃﾑ領域の初期化(ｼｽﾊﾟﾗの転送) 10/08/26 A
                                          dd Y.Kobayashi
 2450 00000026 D011                   M           MOV.L   #_ssc_InitSArea,R0              ;ﾃｰﾌﾞﾙｱﾄﾞﾚｽの内容をREGへ
 2451 00000028 400B                   M           JSR     @R0                     ;
 2452 0000002A 0009                   M           NOP                                     ;
 2453                              61             FAR_JSR #_SEQ_L_POP,R0                  ; 保持ﾒﾓﾘ領域読出処理実行
 2454 0000002C D010                   M           MOV.L   #_SEQ_L_POP,R0          ;ﾃｰﾌﾞﾙｱﾄﾞﾚｽの内容をREGへ
 2455 0000002E 400B                   M           JSR     @R0                     ;
 2456 00000030 0009                   M           NOP                                     ;
 2457                              62     
 2458 00000032 D510                63             MOV.L   #_SeqPOU1,R5                    ; 転送先ｱﾄﾞﾚｽSET
 2459 00000034 D210                64             MOV.L   #_SEQ_COM1_TOP,R2               ; 転送元ｱﾄﾞﾚｽSET
 2460                              65             FAR_JSR #_SEQ_POU_RD,R0                 ; POU情報読出処理実行
 2461 00000036 D011                   M           MOV.L   #_SEQ_POU_RD,R0         ;ﾃｰﾌﾞﾙｱﾄﾞﾚｽの内容をREGへ
 2462 00000038 400B                   M           JSR     @R0                     ;
 2463 0000003A 0009                   M           NOP                                     ;
 2464                              66     
 2465 0000003C D510                67             MOV.L   #_SeqPOU2,R5                    ; 転送先ｱﾄﾞﾚｽSET
 2466 0000003E D211                68             MOV.L   #_SEQ_COM2_TOP,R2               ; 転送元ｱﾄﾞﾚｽSET
 2467                              69             FAR_JSR #_SEQ_POU_RD,R0                 ; POU情報読出処理実行
 2468 00000040 D00E                   M           MOV.L   #_SEQ_POU_RD,R0         ;ﾃｰﾌﾞﾙｱﾄﾞﾚｽの内容をREGへ
 2469 00000042 400B                   M           JSR     @R0                     ;
 2470 00000044 0009                   M           NOP                                     ;
 2471                              70     
 2472 00000046 D510                71             MOV.L   #_SeqPOU3,R5                    ; 転送先ｱﾄﾞﾚｽSET
 2473 00000048 D210                72             MOV.L   #_SEQ_COM3_TOP,R2               ; 転送元ｱﾄﾞﾚｽSET
 2474                              73             FAR_JSR #_SEQ_POU_RD,R0                 ; POU情報読出処理実行
 2475 0000004A D00C                   M           MOV.L   #_SEQ_POU_RD,R0         ;ﾃｰﾌﾞﾙｱﾄﾞﾚｽの内容をREGへ
 2476 0000004C 400B                   M           JSR     @R0                     ;
 2477 0000004E 0009                   M           NOP                                     ;
 2478                              74     
 2479 00000050 D108                75             MOV.L   #_SeqPOU1,R1                    ; POU1 ｻｲｽﾞ情報確認
 2480 00000052 D20F                76             MOV.L   #D'12,R2                        ;
 2481 00000054 312C                77             ADD.L   R2,R1                           ;
 2482 00000056 6011                78             MOV.W   @R1,R0                          ;
 2483 00000058 9106                79             MOV.W   #D'1,R1                         ;
 2484 0000005A 3013                80             CMP/GE  R1,R0                           ;
 2485 0000005C 891C                81             BT      _SEQ_BACK_GROUND_INIT100        ;
 2486 0000005E D00D                82             MOV.L   #_SeqPOURun1Flg,R0              ; POU1 ﾌﾟﾛｸﾞﾗﾑなしにより運転不可
 2487 00000060 9102                83             MOV.W   #D'1,R1                         ;
 2488 00000062 2011                84             MOV.W   R1,@R0                          ;
 2489                              85             M_BRA   _SEQ_BACK_GROUND_INIT101        ;
 2490 00000064 A01F                   M           BRA     _SEQ_BACK_GROUND_INIT101
 2491 00000066 0009                   M           NOP
 2492                              86     
 2493                                     ***** BEGIN-POOL *****
 2494 00000068 0001                       DATA FOR SOURCE-LINE 79,83
 2495 0000006A 0000                       ALIGNMENT CODE
 2496 0000006C 00000000                   DATA FOR SOURCE-LINE 60
*** SuperH RISC engine ASSEMBLER V.7.01.02.000 ***    07/04/21 19:29:14                                                  PAGE     4
PROGRAM NAME =

 2497 00000070 00000000                   DATA FOR SOURCE-LINE 61
 2498 00000074 00000000                   DATA FOR SOURCE-LINE 63,75
 2499 00000078 00000000                   DATA FOR SOURCE-LINE 64
 2500 0000007C 00000000                   DATA FOR SOURCE-LINE 65,69,73
 2501 00000080 00000000                   DATA FOR SOURCE-LINE 67
 2502 00000084 00000000                   DATA FOR SOURCE-LINE 68
 2503 00000088 00000000                   DATA FOR SOURCE-LINE 71
 2504 0000008C 00000000                   DATA FOR SOURCE-LINE 72
 2505 00000090 0000000C                   DATA FOR SOURCE-LINE 76
 2506 00000094 00000000                   DATA FOR SOURCE-LINE 82
 2507                                     ***** END-POOL *****
 2508 00000098                     87     _SEQ_BACK_GROUND_INIT100;
 2509                              88     
 2510                              89             FAR_JSR #_SEQ_INIT1,R0                  ; ｼｰｹﾝｽｲﾆｼｬﾙ1処理実行
 2511 00000098 D009                   M           MOV.L   #_SEQ_INIT1,R0          ;ﾃｰﾌﾞﾙｱﾄﾞﾚｽの内容をREGへ
 2512 0000009A 400B                   M           JSR     @R0                     ;
 2513 0000009C 0009                   M           NOP                                     ;
 2514 0000009E D109                90             MOV.L   #_SEQ_CMP_ERR1,R1               ;
 2515 000000A0 6011                91             MOV.W   @R1,R0                          ; CMP OK = R0:0000 , CMP NG = R0:FFFF
 2516 000000A2 2008                92             TST     R0,R0                           ;
 2517 000000A4 8B50                93             BF      _SEQ_BACK_GROUND_INIT400        ;
 2518                              94     
 2519 000000A6                     95     _SEQ_BACK_GROUND_INIT101;
 2520                              96     
 2521 000000A6 D108                97             MOV.L   #_SeqPOU2,R1                    ; POU3 ｻｲｽﾞ情報確認
 2522 000000A8 D208                98             MOV.L   #D'12,R2                        ;
 2523 000000AA 312C                99             ADD.L   R2,R1                           ;
 2524 000000AC 6011               100             MOV.W   @R1,R0                          ;
 2525 000000AE 9106               101             MOV.W   #D'1,R1                         ;
 2526 000000B0 3013               102             CMP/GE  R1,R0                           ;
 2527 000000B2 890F               103             BT      _SEQ_BACK_GROUND_INIT200        ;
 2528 000000B4 D006               104             MOV.L   #_SeqPOURun2Flg,R0              ; POU2 ﾌﾟﾛｸﾞﾗﾑなしにより運転不可
 2529 000000B6 9102               105             MOV.W   #D'1,R1                         ;
 2530 000000B8 2011               106             MOV.W   R1,@R0                          ;
 2531                             107             M_BRA   _SEQ_BACK_GROUND_INIT201        ;
 2532 000000BA A012                   M           BRA     _SEQ_BACK_GROUND_INIT201
 2533 000000BC 0009                   M           NOP
 2534                             108     
 2535                                     ***** BEGIN-POOL *****
 2536 000000BE 0001                       DATA FOR SOURCE-LINE 101,105
 2537 000000C0 00000000                   DATA FOR SOURCE-LINE 89
 2538 000000C4 00000000                   DATA FOR SOURCE-LINE 90
 2539 000000C8 00000000                   DATA FOR SOURCE-LINE 97
 2540 000000CC 0000000C                   DATA FOR SOURCE-LINE 98
 2541 000000D0 00000000                   DATA FOR SOURCE-LINE 104
 2542                                     ***** END-POOL *****
 2543 000000D4                    109     _SEQ_BACK_GROUND_INIT200;
 2544                             110     
 2545                             111             FAR_JSR #_SEQ_INIT2,R0                  ; ｼｰｹﾝｽｲﾆｼｬﾙ2処理実行
 2546 000000D4 D009                   M           MOV.L   #_SEQ_INIT2,R0          ;ﾃｰﾌﾞﾙｱﾄﾞﾚｽの内容をREGへ
 2547 000000D6 400B                   M           JSR     @R0                     ;
 2548 000000D8 0009                   M           NOP                                     ;
 2549 000000DA D109               112             MOV.L   #_SEQ_CMP_ERR2,R1               ;
 2550 000000DC 6011               113             MOV.W   @R1,R0                          ; CMP OK = R0:0000 , CMP NG = R0:FFFF
 2551 000000DE 2008               114             TST     R0,R0                           ;
 2552 000000E0 8B32               115             BF      _SEQ_BACK_GROUND_INIT400        ;
 2553                             116     
*** SuperH RISC engine ASSEMBLER V.7.01.02.000 ***    07/04/21 19:29:14                                                  PAGE     5
PROGRAM NAME =

 2554 000000E2                    117     _SEQ_BACK_GROUND_INIT201;
 2555                             118     
 2556 000000E2 D108               119             MOV.L   #_SeqPOU3,R1                    ; POU3 ｻｲｽﾞ情報確認
 2557 000000E4 D208               120             MOV.L   #D'12,R2                        ;
 2558 000000E6 312C               121             ADD.L   R2,R1                           ;
 2559 000000E8 6011               122             MOV.W   @R1,R0                          ;
 2560 000000EA 9106               123             MOV.W   #D'1,R1                         ;
 2561 000000EC 3013               124             CMP/GE  R1,R0                           ;
 2562 000000EE 890F               125             BT      _SEQ_BACK_GROUND_INIT300        ;
 2563 000000F0 D006               126             MOV.L   #_SeqPOURun3Flg,R0              ; POU3 ﾌﾟﾛｸﾞﾗﾑなしにより運転不可
 2564 000000F2 9102               127             MOV.W   #D'1,R1                         ;
 2565 000000F4 2011               128             MOV.W   R1,@R0                          ;
 2566                             129             M_BRA   _SEQ_BACK_GROUND_INIT301        ;
 2567 000000F6 A012                   M           BRA     _SEQ_BACK_GROUND_INIT301
 2568 000000F8 0009                   M           NOP
 2569                             130     
 2570                                     ***** BEGIN-POOL *****
 2571 000000FA 0001                       DATA FOR SOURCE-LINE 123,127
 2572 000000FC 00000000                   DATA FOR SOURCE-LINE 111
 2573 00000100 00000000                   DATA FOR SOURCE-LINE 112
 2574 00000104 00000000                   DATA FOR SOURCE-LINE 119
 2575 00000108 0000000C                   DATA FOR SOURCE-LINE 120
 2576 0000010C 00000000                   DATA FOR SOURCE-LINE 126
 2577                                     ***** END-POOL *****
 2578 00000110                    131     _SEQ_BACK_GROUND_INIT300;
 2579                             132     
 2580                             133             FAR_JSR #_SEQ_INIT3,R0                  ; ｼｰｹﾝｽｲﾆｼｬﾙ3処理実行
 2581 00000110 D008                   M           MOV.L   #_SEQ_INIT3,R0          ;ﾃｰﾌﾞﾙｱﾄﾞﾚｽの内容をREGへ
 2582 00000112 400B                   M           JSR     @R0                     ;
 2583 00000114 0009                   M           NOP                                     ;
 2584 00000116 D108               134             MOV.L   #_SEQ_CMP_ERR3,R1               ;
 2585 00000118 6011               135             MOV.W   @R1,R0                          ; CMP OK = R0:0000 , CMP NG = R0:FFFF
 2586 0000011A 2008               136             TST     R0,R0                           ;
 2587 0000011C 8B14               137             BF      _SEQ_BACK_GROUND_INIT400        ;
 2588                             138     
 2589 0000011E                    139     _SEQ_BACK_GROUND_INIT301;
 2590                             140     
 2591 0000011E D007               141             MOV.L   #_SeqSysStat,R0                 ;
 2592 00000120 9106               142             MOV.W   #BIT0,R1                        ;
 2593 00000122 2011               143             MOV.W   R1,@R0                          ; ｼｰｹﾝｽｼｽﾃﾑ情報(起動ﾋﾞｯﾄON)
 2594 00000124 D006               144             MOV.L   #_SeqRunFlg,R0                  ;
 2595 00000126 2011               145             MOV.W   R1,@R0                          ;
 2596 00000128 D006               146             MOV.L   #_SEQ_CMP_START,R0              ;
 2597 0000012A 2011               147             MOV.W   R1,@R0                          ;
 2598                             148             M_BRA   _SEQ_BACK_GROUND_INIT500        ;
 2599 0000012C A012                   M           BRA     _SEQ_BACK_GROUND_INIT500
 2600 0000012E 0009                   M           NOP
 2601                             149     
 2602                                     ***** BEGIN-POOL *****
 2603 00000130 0001                       DATA FOR SOURCE-LINE 142
 2604 00000132 0000                       ALIGNMENT CODE
 2605 00000134 00000000                   DATA FOR SOURCE-LINE 133
 2606 00000138 00000000                   DATA FOR SOURCE-LINE 134
 2607 0000013C 00000000                   DATA FOR SOURCE-LINE 141
 2608 00000140 00000000                   DATA FOR SOURCE-LINE 144
 2609 00000144 00000000                   DATA FOR SOURCE-LINE 146
 2610                                     ***** END-POOL *****
*** SuperH RISC engine ASSEMBLER V.7.01.02.000 ***    07/04/21 19:29:14                                                  PAGE     6
PROGRAM NAME =

 2611 00000148                    150     _SEQ_BACK_GROUND_INIT400;
 2612 00000148 D00E               151             MOV.L   #_SeqSysStat,R0                 ;
 2613 0000014A 9118               152             MOV.W   #(BIT2 + BIT1),R1               ;
 2614 0000014C 2011               153             MOV.W   R1,@R0                          ; ｼｰｹﾝｽｼｽﾃﾑ情報(停止･重故障ﾋﾞｯﾄON)
 2615 0000014E 9117               154             MOV.W   #D'0,R1                         ;
 2616 00000150 D00D               155             MOV.L   #_SeqRunFlg,R0                  ;
 2617 00000152 2011               156             MOV.W   R1,@R0                          ;
 2618                             157     
 2619 00000154                    158     _SEQ_BACK_GROUND_INIT500;
 2620                             159             POP_ALL
 2621                                 M           .AIF    3 EQ 3
 2622                                             .AELSE
 2623                                             POP_FPU_ALL             ;2001-07-08
 2624                                             .AENDI
 2625                                 M           POP_SYS_REG     GBR     ;
 2626 00000154 4F17                   M           LDC.L   @R15+,GBR
 2627                                 M           POP_MACHL               ;
 2628 00000156 4F16                   M           LDS.L   @R15+,MACL
 2629 00000158 4F06                   M           LDS.L   @R15+,MACH
 2630                                 M           POP_REG1        R14     ;
 2631                                 M                                   ; RE"+4" 00,00,00,04
 2632 0000015A 6EF6                   M           MOV.L   @R15+,R14        ;
 2633                                 M           POP_REG1        R13     ;
 2634                                 M                                   ; RE"+4" 00,00,00,04
 2635 0000015C 6DF6                   M           MOV.L   @R15+,R13        ;
 2636                                 M           POP_REG1        R12     ;
 2637                                 M                                   ; RE"+4" 00,00,00,04
 2638 0000015E 6CF6                   M           MOV.L   @R15+,R12        ;
 2639                                 M           POP_REG1        R11     ;
 2640                                 M                                   ; RE"+4" 00,00,00,04
 2641 00000160 6BF6                   M           MOV.L   @R15+,R11        ;
 2642                                 M           POP_REG1        R10     ;
 2643                                 M                                   ; RE"+4" 00,00,00,04
 2644 00000162 6AF6                   M           MOV.L   @R15+,R10        ;
 2645                                 M           POP_REG1        R9      ;
 2646                                 M                                   ; RE"+4" 00,00,00,04
 2647 00000164 69F6                   M           MOV.L   @R15+,R9        ;
 2648                                 M           POP_REG1        R8      ;
 2649                                 M                                   ; RE"+4" 00,00,00,04
 2650 00000166 68F6                   M           MOV.L   @R15+,R8        ;
 2651                                 M           POP_REG1        R7      ;
 2652                                 M                                   ; RE"+4" 00,00,00,04
 2653 00000168 67F6                   M           MOV.L   @R15+,R7        ;
 2654                                 M           POP_REG1        R6      ;
 2655                                 M                                   ; RE"+4" 00,00,00,04
 2656 0000016A 66F6                   M           MOV.L   @R15+,R6        ;
 2657                                 M           POP_REG1        R5      ;
 2658                                 M                                   ; RE"+4" 00,00,00,04
 2659 0000016C 65F6                   M           MOV.L   @R15+,R5        ;
 2660                                 M           POP_REG1        R4      ;
 2661                                 M                                   ; RE"+4" 00,00,00,04
 2662 0000016E 64F6                   M           MOV.L   @R15+,R4        ;
 2663                                 M           POP_REG1        R3      ;
 2664                                 M                                   ; RE"+4" 00,00,00,04
 2665 00000170 63F6                   M           MOV.L   @R15+,R3        ;
 2666                                 M           POP_REG1        R2      ;
 2667                                 M                                   ; RE"+4" 00,00,00,04
*** SuperH RISC engine ASSEMBLER V.7.01.02.000 ***    07/04/21 19:29:14                                                  PAGE     7
PROGRAM NAME =

 2668 00000172 62F6                   M           MOV.L   @R15+,R2        ;
 2669                                 M           POP_REG1        R1      ;
 2670                                 M                                   ; RE"+4" 00,00,00,04
 2671 00000174 61F6                   M           MOV.L   @R15+,R1        ;
 2672                                 M           POP_REG1        R0      ;
 2673                                 M                                   ; RE"+4" 00,00,00,04
 2674 00000176 60F6                   M           MOV.L   @R15+,R0        ;
 2675                             160             SUB_END
 2676                                 M   ;;;;;;; ADD     #4,R15                  ;[不要?]
 2677 00000178 4F26                   M           LDS.L   @R15+,PR                ;[必要]
 2678                             161             M_RTS
 2679 0000017A 000B                   M           RTS                             ;RTSの後ろの
 2680 0000017C 0009                   M           NOP                             ;@R15+,PRはﾀﾞﾒ
 2681                             162     
 2682                             163     ;********************************************************************
 2683                             164     ;* FUNCTION     : シーケンスにかかわるメインルーチン
 2684                             165     ;* DATE         : 09/11/20 Akiba
 2685                             166     ;* UPDATE       :
 2686                             167     ;********************************************************************
 2687                                     ***** BEGIN-POOL *****
 2688 0000017E 0006                       DATA FOR SOURCE-LINE 152
 2689 00000180 0000                       DATA FOR SOURCE-LINE 154
 2690 00000182 0000                       ALIGNMENT CODE
 2691 00000184 00000000                   DATA FOR SOURCE-LINE 151
 2692 00000188 00000000                   DATA FOR SOURCE-LINE 155
 2693                                     ***** END-POOL *****
 2694 0000018C                    168     _SEQ_MAIN;
 2695                             169             SUB_START
 2696 0000018C 4F22                   M           STS.L   PR,@-R15                ;[必要]
 2697                                 M   ;;;;;;; ADD     #-4,R15                 ;[不要?]
 2698                             170             PUSH_ALL
 2699                                 M           PUSH_REG1       R0      ;
 2700 0000018E 2F06                   M           MOV.L   R0,@-R15                ;PUSH=SP-4
 2701                                 M                                           ;REG=>[SP]
 2702                                 M                                           ;"-4" FF,FF,FF,FC
 2703                                 M           PUSH_REG1       R1      ;
 2704 00000190 2F16                   M           MOV.L   R1,@-R15                ;PUSH=SP-4
 2705                                 M                                           ;REG=>[SP]
 2706                                 M                                           ;"-4" FF,FF,FF,FC
 2707                                 M           PUSH_REG1       R2      ;
 2708 00000192 2F26                   M           MOV.L   R2,@-R15                ;PUSH=SP-4
 2709                                 M                                           ;REG=>[SP]
 2710                                 M                                           ;"-4" FF,FF,FF,FC
 2711                                 M           PUSH_REG1       R3      ;
 2712 00000194 2F36                   M           MOV.L   R3,@-R15                ;PUSH=SP-4
 2713                                 M                                           ;REG=>[SP]
 2714                                 M                                           ;"-4" FF,FF,FF,FC
 2715                                 M           PUSH_REG1       R4      ;
 2716 00000196 2F46                   M           MOV.L   R4,@-R15                ;PUSH=SP-4
 2717                                 M                                           ;REG=>[SP]
 2718                                 M                                           ;"-4" FF,FF,FF,FC
 2719                                 M           PUSH_REG1       R5      ;
 2720 00000198 2F56                   M           MOV.L   R5,@-R15                ;PUSH=SP-4
 2721                                 M                                           ;REG=>[SP]
 2722                                 M                                           ;"-4" FF,FF,FF,FC
 2723                                 M           PUSH_REG1       R6      ;
 2724 0000019A 2F66                   M           MOV.L   R6,@-R15                ;PUSH=SP-4
*** SuperH RISC engine ASSEMBLER V.7.01.02.000 ***    07/04/21 19:29:14                                                  PAGE     8
PROGRAM NAME =

 2725                                 M                                           ;REG=>[SP]
 2726                                 M                                           ;"-4" FF,FF,FF,FC
 2727                                 M           PUSH_REG1       R7      ;
 2728 0000019C 2F76                   M           MOV.L   R7,@-R15                ;PUSH=SP-4
 2729                                 M                                           ;REG=>[SP]
 2730                                 M                                           ;"-4" FF,FF,FF,FC
 2731                                 M           PUSH_REG1       R8      ;
 2732 0000019E 2F86                   M           MOV.L   R8,@-R15                ;PUSH=SP-4
 2733                                 M                                           ;REG=>[SP]
 2734                                 M                                           ;"-4" FF,FF,FF,FC
 2735                                 M           PUSH_REG1       R9      ;
 2736 000001A0 2F96                   M           MOV.L   R9,@-R15                ;PUSH=SP-4
 2737                                 M                                           ;REG=>[SP]
 2738                                 M                                           ;"-4" FF,FF,FF,FC
 2739                                 M           PUSH_REG1       R10     ;
 2740 000001A2 2FA6                   M           MOV.L   R10,@-R15               ;PUSH=SP-4
 2741                                 M                                           ;REG=>[SP]
 2742                                 M                                           ;"-4" FF,FF,FF,FC
 2743                                 M           PUSH_REG1       R11     ;
 2744 000001A4 2FB6                   M           MOV.L   R11,@-R15               ;PUSH=SP-4
 2745                                 M                                           ;REG=>[SP]
 2746                                 M                                           ;"-4" FF,FF,FF,FC
 2747                                 M           PUSH_REG1       R12     ;
 2748 000001A6 2FC6                   M           MOV.L   R12,@-R15               ;PUSH=SP-4
 2749                                 M                                           ;REG=>[SP]
 2750                                 M                                           ;"-4" FF,FF,FF,FC
 2751                                 M           PUSH_REG1       R13     ;
 2752 000001A8 2FD6                   M           MOV.L   R13,@-R15               ;PUSH=SP-4
 2753                                 M                                           ;REG=>[SP]
 2754                                 M                                           ;"-4" FF,FF,FF,FC
 2755                                 M           PUSH_REG1       R14     ;
 2756 000001AA 2FE6                   M           MOV.L   R14,@-R15               ;PUSH=SP-4
 2757                                 M                                           ;REG=>[SP]
 2758                                 M                                           ;"-4" FF,FF,FF,FC
 2759                                 M           PUSH_MACHL              ;
 2760 000001AC 4F02                   M           STS.L   MACH,@-R15
 2761 000001AE 4F12                   M           STS.L   MACL,@-R15
 2762                                 M           PUSH_SYS_REG    GBR     ;
 2763 000001B0 4F13                   M           STC.L   GBR,@-R15
 2764                                 M           .AIF    3 EQ 3
 2765                                             .AELSE
 2766                                             PUSH_FPU_ALL            ;2001-07-08
 2767                                             .AENDI
 2768                             171     
 2769                             172     ;; --------- ステップ実行時間計測用 START ----------
 2770                             173     ;;      "DE2"信号にて波形観測
 2771                             174     ;;      MOV.L   #H'F8050020,R0
 2772                             175     ;;      MOV.W   @R0,R1
 2773                             176     ;;      MOV.W   #H'10,R2
 2774                             177     ;;      OR      R2,R1
 2775                             178     ;;      MOV.W   R1,@R0
 2776                             179     ;; --------- ステップ実行時間計測用 END ----------
 2777                             180     
 2778                             181     ;;      FAR_JSR #_SEQ_RUN_MAIN1,R0              ; ｼｰｹﾝｽﾒｲﾝﾙｰﾁﾝ1実行     Add 100106 AKIBA
 2779                             182     
 2780                             183     ;;      MOV.L   #_SEQ_CMP_START,R1              ; ｺﾝﾊﾟｲﾙ中ﾌﾗｸﾞ確認
 2781                             184     ;;      MOV.W   @R1,R0
*** SuperH RISC engine ASSEMBLER V.7.01.02.000 ***    07/04/21 19:29:14                                                  PAGE     9
PROGRAM NAME =

 2782                             185     ;;      CMP/EQ  #0,R0
 2783                             186     ;;      BT      SEQ_MAIN_100
 2784                             187     ;;      FAR_JSR #_SEQ_RUN_MAIN2,R0              ; ｼｰｹﾝｽﾒｲﾝﾙｰﾁﾝ2実行
 2785                             188     
 2786                             189     ;;      FAR_JSR #_SEQ_RUN_MAIN3,R0              ; ｼｰｹﾝｽﾒｲﾝﾙｰﾁﾝ3実行     Add 100106 AKIBA
 2787                             190     
 2788                             191     ;; --------- ステップ実行時間計測用 START ----------
 2789                             192     ;;      "DE2"信号にて波形観測
 2790                             193     ;;      MOV.L   #H'F8050020,R0
 2791                             194     ;;      MOV.W   @R0,R1
 2792                             195     ;;      MOV.W   #H'EF,R2
 2793                             196     ;;      AND     R2,R1
 2794                             197     ;;      MOV.W   R1,@R0
 2795                             198     ;; --------- ステップ実行時間計測用 END ----------
 2796                             199     
 2797 000001B2                    200     SEQ_MAIN_100:
 2798                             201             POP_ALL
 2799                                 M           .AIF    3 EQ 3
 2800                                             .AELSE
 2801                                             POP_FPU_ALL             ;2001-07-08
 2802                                             .AENDI
 2803                                 M           POP_SYS_REG     GBR     ;
 2804 000001B2 4F17                   M           LDC.L   @R15+,GBR
 2805                                 M           POP_MACHL               ;
 2806 000001B4 4F16                   M           LDS.L   @R15+,MACL
 2807 000001B6 4F06                   M           LDS.L   @R15+,MACH
 2808                                 M           POP_REG1        R14     ;
 2809                                 M                                   ; RE"+4" 00,00,00,04
 2810 000001B8 6EF6                   M           MOV.L   @R15+,R14        ;
 2811                                 M           POP_REG1        R13     ;
 2812                                 M                                   ; RE"+4" 00,00,00,04
 2813 000001BA 6DF6                   M           MOV.L   @R15+,R13        ;
 2814                                 M           POP_REG1        R12     ;
 2815                                 M                                   ; RE"+4" 00,00,00,04
 2816 000001BC 6CF6                   M           MOV.L   @R15+,R12        ;
 2817                                 M           POP_REG1        R11     ;
 2818                                 M                                   ; RE"+4" 00,00,00,04
 2819 000001BE 6BF6                   M           MOV.L   @R15+,R11        ;
 2820                                 M           POP_REG1        R10     ;
 2821                                 M                                   ; RE"+4" 00,00,00,04
 2822 000001C0 6AF6                   M           MOV.L   @R15+,R10        ;
 2823                                 M           POP_REG1        R9      ;
 2824                                 M                                   ; RE"+4" 00,00,00,04
 2825 000001C2 69F6                   M           MOV.L   @R15+,R9        ;
 2826                                 M           POP_REG1        R8      ;
 2827                                 M                                   ; RE"+4" 00,00,00,04
 2828 000001C4 68F6                   M           MOV.L   @R15+,R8        ;
 2829                                 M           POP_REG1        R7      ;
 2830                                 M                                   ; RE"+4" 00,00,00,04
 2831 000001C6 67F6                   M           MOV.L   @R15+,R7        ;
 2832                                 M           POP_REG1        R6      ;
 2833                                 M                                   ; RE"+4" 00,00,00,04
 2834 000001C8 66F6                   M           MOV.L   @R15+,R6        ;
 2835                                 M           POP_REG1        R5      ;
 2836                                 M                                   ; RE"+4" 00,00,00,04
 2837 000001CA 65F6                   M           MOV.L   @R15+,R5        ;
 2838                                 M           POP_REG1        R4      ;
*** SuperH RISC engine ASSEMBLER V.7.01.02.000 ***    07/04/21 19:29:14                                                  PAGE    10
PROGRAM NAME =

 2839                                 M                                   ; RE"+4" 00,00,00,04
 2840 000001CC 64F6                   M           MOV.L   @R15+,R4        ;
 2841                                 M           POP_REG1        R3      ;
 2842                                 M                                   ; RE"+4" 00,00,00,04
 2843 000001CE 63F6                   M           MOV.L   @R15+,R3        ;
 2844                                 M           POP_REG1        R2      ;
 2845                                 M                                   ; RE"+4" 00,00,00,04
 2846 000001D0 62F6                   M           MOV.L   @R15+,R2        ;
 2847                                 M           POP_REG1        R1      ;
 2848                                 M                                   ; RE"+4" 00,00,00,04
 2849 000001D2 61F6                   M           MOV.L   @R15+,R1        ;
 2850                                 M           POP_REG1        R0      ;
 2851                                 M                                   ; RE"+4" 00,00,00,04
 2852 000001D4 60F6                   M           MOV.L   @R15+,R0        ;
 2853                             202             SUB_END
 2854                                 M   ;;;;;;; ADD     #4,R15                  ;[不要?]
 2855 000001D6 4F26                   M           LDS.L   @R15+,PR                ;[必要]
 2856                             203             M_RTS
 2857 000001D8 000B                   M           RTS                             ;RTSの後ろの
 2858 000001DA 0009                   M           NOP                             ;@R15+,PRはﾀﾞﾒ
 2859                             204     
 2860                             205     ;********************************************************************
 2861                             206     ;* FUNCTION     : POU1 イニシャル処理
 2862                             207     ;* DATE         : 09/11/20 Akiba
 2863                             208     ;* UPDATE       :
 2864                             209     ;********************************************************************
 2865 000001DC                    210     _SEQ_INIT1:
 2866                             211             SUB_START
 2867 000001DC 4F22                   M           STS.L   PR,@-R15                ;[必要]
 2868                                 M   ;;;;;;; ADD     #-4,R15                 ;[不要?]
 2869                             212             PUSH_ALL
 2870                                 M           PUSH_REG1       R0      ;
 2871 000001DE 2F06                   M           MOV.L   R0,@-R15                ;PUSH=SP-4
 2872                                 M                                           ;REG=>[SP]
 2873                                 M                                           ;"-4" FF,FF,FF,FC
 2874                                 M           PUSH_REG1       R1      ;
 2875 000001E0 2F16                   M           MOV.L   R1,@-R15                ;PUSH=SP-4
 2876                                 M                                           ;REG=>[SP]
 2877                                 M                                           ;"-4" FF,FF,FF,FC
 2878                                 M           PUSH_REG1       R2      ;
 2879 000001E2 2F26                   M           MOV.L   R2,@-R15                ;PUSH=SP-4
 2880                                 M                                           ;REG=>[SP]
 2881                                 M                                           ;"-4" FF,FF,FF,FC
 2882                                 M           PUSH_REG1       R3      ;
 2883 000001E4 2F36                   M           MOV.L   R3,@-R15                ;PUSH=SP-4
 2884                                 M                                           ;REG=>[SP]
 2885                                 M                                           ;"-4" FF,FF,FF,FC
 2886                                 M           PUSH_REG1       R4      ;
 2887 000001E6 2F46                   M           MOV.L   R4,@-R15                ;PUSH=SP-4
 2888                                 M                                           ;REG=>[SP]
 2889                                 M                                           ;"-4" FF,FF,FF,FC
 2890                                 M           PUSH_REG1       R5      ;
 2891 000001E8 2F56                   M           MOV.L   R5,@-R15                ;PUSH=SP-4
 2892                                 M                                           ;REG=>[SP]
 2893                                 M                                           ;"-4" FF,FF,FF,FC
 2894                                 M           PUSH_REG1       R6      ;
 2895 000001EA 2F66                   M           MOV.L   R6,@-R15                ;PUSH=SP-4
*** SuperH RISC engine ASSEMBLER V.7.01.02.000 ***    07/04/21 19:29:14                                                  PAGE    11
PROGRAM NAME =

 2896                                 M                                           ;REG=>[SP]
 2897                                 M                                           ;"-4" FF,FF,FF,FC
 2898                                 M           PUSH_REG1       R7      ;
 2899 000001EC 2F76                   M           MOV.L   R7,@-R15                ;PUSH=SP-4
 2900                                 M                                           ;REG=>[SP]
 2901                                 M                                           ;"-4" FF,FF,FF,FC
 2902                                 M           PUSH_REG1       R8      ;
 2903 000001EE 2F86                   M           MOV.L   R8,@-R15                ;PUSH=SP-4
 2904                                 M                                           ;REG=>[SP]
 2905                                 M                                           ;"-4" FF,FF,FF,FC
 2906                                 M           PUSH_REG1       R9      ;
 2907 000001F0 2F96                   M           MOV.L   R9,@-R15                ;PUSH=SP-4
 2908                                 M                                           ;REG=>[SP]
 2909                                 M                                           ;"-4" FF,FF,FF,FC
 2910                                 M           PUSH_REG1       R10     ;
 2911 000001F2 2FA6                   M           MOV.L   R10,@-R15               ;PUSH=SP-4
 2912                                 M                                           ;REG=>[SP]
 2913                                 M                                           ;"-4" FF,FF,FF,FC
 2914                                 M           PUSH_REG1       R11     ;
 2915 000001F4 2FB6                   M           MOV.L   R11,@-R15               ;PUSH=SP-4
 2916                                 M                                           ;REG=>[SP]
 2917                                 M                                           ;"-4" FF,FF,FF,FC
 2918                                 M           PUSH_REG1       R12     ;
 2919 000001F6 2FC6                   M           MOV.L   R12,@-R15               ;PUSH=SP-4
 2920                                 M                                           ;REG=>[SP]
 2921                                 M                                           ;"-4" FF,FF,FF,FC
 2922                                 M           PUSH_REG1       R13     ;
 2923 000001F8 2FD6                   M           MOV.L   R13,@-R15               ;PUSH=SP-4
 2924                                 M                                           ;REG=>[SP]
 2925                                 M                                           ;"-4" FF,FF,FF,FC
 2926                                 M           PUSH_REG1       R14     ;
 2927 000001FA 2FE6                   M           MOV.L   R14,@-R15               ;PUSH=SP-4
 2928                                 M                                           ;REG=>[SP]
 2929                                 M                                           ;"-4" FF,FF,FF,FC
 2930                                 M           PUSH_MACHL              ;
 2931 000001FC 4F02                   M           STS.L   MACH,@-R15
 2932 000001FE 4F12                   M           STS.L   MACL,@-R15
 2933                                 M           PUSH_SYS_REG    GBR     ;
 2934 00000200 4F13                   M           STC.L   GBR,@-R15
 2935                                 M           .AIF    3 EQ 3
 2936                                             .AELSE
 2937                                             PUSH_FPU_ALL            ;2001-07-08
 2938                                             .AENDI
 2939                             213     
 2940                             214             FAR_JSR #_SEQ_RUN_CHG1_MAIN,R0
 2941 00000202 D00C                   M           MOV.L   #_SEQ_RUN_CHG1_MAIN,R0          ;ﾃｰﾌﾞﾙｱﾄﾞﾚｽの内容をREGへ
 2942 00000204 400B                   M           JSR     @R0                     ;
 2943 00000206 0009                   M           NOP                                     ;
 2944                             215     
 2945                             216             POP_ALL
 2946                                 M           .AIF    3 EQ 3
 2947                                             .AELSE
 2948                                             POP_FPU_ALL             ;2001-07-08
 2949                                             .AENDI
 2950                                 M           POP_SYS_REG     GBR     ;
 2951 00000208 4F17                   M           LDC.L   @R15+,GBR
 2952                                 M           POP_MACHL               ;
*** SuperH RISC engine ASSEMBLER V.7.01.02.000 ***    07/04/21 19:29:14                                                  PAGE    12
PROGRAM NAME =

 2953 0000020A 4F16                   M           LDS.L   @R15+,MACL
 2954 0000020C 4F06                   M           LDS.L   @R15+,MACH
 2955                                 M           POP_REG1        R14     ;
 2956                                 M                                   ; RE"+4" 00,00,00,04
 2957 0000020E 6EF6                   M           MOV.L   @R15+,R14        ;
 2958                                 M           POP_REG1        R13     ;
 2959                                 M                                   ; RE"+4" 00,00,00,04
 2960 00000210 6DF6                   M           MOV.L   @R15+,R13        ;
 2961                                 M           POP_REG1        R12     ;
 2962                                 M                                   ; RE"+4" 00,00,00,04
 2963 00000212 6CF6                   M           MOV.L   @R15+,R12        ;
 2964                                 M           POP_REG1        R11     ;
 2965                                 M                                   ; RE"+4" 00,00,00,04
 2966 00000214 6BF6                   M           MOV.L   @R15+,R11        ;
 2967                                 M           POP_REG1        R10     ;
 2968                                 M                                   ; RE"+4" 00,00,00,04
 2969 00000216 6AF6                   M           MOV.L   @R15+,R10        ;
 2970                                 M           POP_REG1        R9      ;
 2971                                 M                                   ; RE"+4" 00,00,00,04
 2972 00000218 69F6                   M           MOV.L   @R15+,R9        ;
 2973                                 M           POP_REG1        R8      ;
 2974                                 M                                   ; RE"+4" 00,00,00,04
 2975 0000021A 68F6                   M           MOV.L   @R15+,R8        ;
 2976                                 M           POP_REG1        R7      ;
 2977                                 M                                   ; RE"+4" 00,00,00,04
 2978 0000021C 67F6                   M           MOV.L   @R15+,R7        ;
 2979                                 M           POP_REG1        R6      ;
 2980                                 M                                   ; RE"+4" 00,00,00,04
 2981 0000021E 66F6                   M           MOV.L   @R15+,R6        ;
 2982                                 M           POP_REG1        R5      ;
 2983                                 M                                   ; RE"+4" 00,00,00,04
 2984 00000220 65F6                   M           MOV.L   @R15+,R5        ;
 2985                                 M           POP_REG1        R4      ;
 2986                                 M                                   ; RE"+4" 00,00,00,04
 2987 00000222 64F6                   M           MOV.L   @R15+,R4        ;
 2988                                 M           POP_REG1        R3      ;
 2989                                 M                                   ; RE"+4" 00,00,00,04
 2990 00000224 63F6                   M           MOV.L   @R15+,R3        ;
 2991                                 M           POP_REG1        R2      ;
 2992                                 M                                   ; RE"+4" 00,00,00,04
 2993 00000226 62F6                   M           MOV.L   @R15+,R2        ;
 2994                                 M           POP_REG1        R1      ;
 2995                                 M                                   ; RE"+4" 00,00,00,04
 2996 00000228 61F6                   M           MOV.L   @R15+,R1        ;
 2997                                 M           POP_REG1        R0      ;
 2998                                 M                                   ; RE"+4" 00,00,00,04
 2999 0000022A 60F6                   M           MOV.L   @R15+,R0        ;
 3000                             217             SUB_END
 3001                                 M   ;;;;;;; ADD     #4,R15                  ;[不要?]
 3002 0000022C 4F26                   M           LDS.L   @R15+,PR                ;[必要]
 3003                             218             M_RTS
 3004 0000022E 000B                   M           RTS                             ;RTSの後ろの
 3005 00000230 0009                   M           NOP                             ;@R15+,PRはﾀﾞﾒ
 3006                             219     
 3007                             220     ;********************************************************************
 3008                             221     ;* FUNCTION     : POU2 イニシャル処理
 3009                             222     ;* DATE         : 09/11/20 Akiba
*** SuperH RISC engine ASSEMBLER V.7.01.02.000 ***    07/04/21 19:29:14                                                  PAGE    13
PROGRAM NAME =

 3010                             223     ;* UPDATE       :
 3011                             224     ;********************************************************************
 3012                                     ***** BEGIN-POOL *****
 3013 00000232 0000                       ALIGNMENT CODE
 3014 00000234 00000000                   DATA FOR SOURCE-LINE 214
 3015                                     ***** END-POOL *****
 3016 00000238                    225     _SEQ_INIT2:
 3017                             226             SUB_START
 3018 00000238 4F22                   M           STS.L   PR,@-R15                ;[必要]
 3019                                 M   ;;;;;;; ADD     #-4,R15                 ;[不要?]
 3020                             227             PUSH_ALL
 3021                                 M           PUSH_REG1       R0      ;
 3022 0000023A 2F06                   M           MOV.L   R0,@-R15                ;PUSH=SP-4
 3023                                 M                                           ;REG=>[SP]
 3024                                 M                                           ;"-4" FF,FF,FF,FC
 3025                                 M           PUSH_REG1       R1      ;
 3026 0000023C 2F16                   M           MOV.L   R1,@-R15                ;PUSH=SP-4
 3027                                 M                                           ;REG=>[SP]
 3028                                 M                                           ;"-4" FF,FF,FF,FC
 3029                                 M           PUSH_REG1       R2      ;
 3030 0000023E 2F26                   M           MOV.L   R2,@-R15                ;PUSH=SP-4
 3031                                 M                                           ;REG=>[SP]
 3032                                 M                                           ;"-4" FF,FF,FF,FC
 3033                                 M           PUSH_REG1       R3      ;
 3034 00000240 2F36                   M           MOV.L   R3,@-R15                ;PUSH=SP-4
 3035                                 M                                           ;REG=>[SP]
 3036                                 M                                           ;"-4" FF,FF,FF,FC
 3037                                 M           PUSH_REG1       R4      ;
 3038 00000242 2F46                   M           MOV.L   R4,@-R15                ;PUSH=SP-4
 3039                                 M                                           ;REG=>[SP]
 3040                                 M                                           ;"-4" FF,FF,FF,FC
 3041                                 M           PUSH_REG1       R5      ;
 3042 00000244 2F56                   M           MOV.L   R5,@-R15                ;PUSH=SP-4
 3043                                 M                                           ;REG=>[SP]
 3044                                 M                                           ;"-4" FF,FF,FF,FC
 3045                                 M           PUSH_REG1       R6      ;
 3046 00000246 2F66                   M           MOV.L   R6,@-R15                ;PUSH=SP-4
 3047                                 M                                           ;REG=>[SP]
 3048                                 M                                           ;"-4" FF,FF,FF,FC
 3049                                 M           PUSH_REG1       R7      ;
 3050 00000248 2F76                   M           MOV.L   R7,@-R15                ;PUSH=SP-4
 3051                                 M                                           ;REG=>[SP]
 3052                                 M                                           ;"-4" FF,FF,FF,FC
 3053                                 M           PUSH_REG1       R8      ;
 3054 0000024A 2F86                   M           MOV.L   R8,@-R15                ;PUSH=SP-4
 3055                                 M                                           ;REG=>[SP]
 3056                                 M                                           ;"-4" FF,FF,FF,FC
 3057                                 M           PUSH_REG1       R9      ;
 3058 0000024C 2F96                   M           MOV.L   R9,@-R15                ;PUSH=SP-4
 3059                                 M                                           ;REG=>[SP]
 3060                                 M                                           ;"-4" FF,FF,FF,FC
 3061                                 M           PUSH_REG1       R10     ;
 3062 0000024E 2FA6                   M           MOV.L   R10,@-R15               ;PUSH=SP-4
 3063                                 M                                           ;REG=>[SP]
 3064                                 M                                           ;"-4" FF,FF,FF,FC
 3065                                 M           PUSH_REG1       R11     ;
 3066 00000250 2FB6                   M           MOV.L   R11,@-R15               ;PUSH=SP-4
*** SuperH RISC engine ASSEMBLER V.7.01.02.000 ***    07/04/21 19:29:14                                                  PAGE    14
PROGRAM NAME =

 3067                                 M                                           ;REG=>[SP]
 3068                                 M                                           ;"-4" FF,FF,FF,FC
 3069                                 M           PUSH_REG1       R12     ;
 3070 00000252 2FC6                   M           MOV.L   R12,@-R15               ;PUSH=SP-4
 3071                                 M                                           ;REG=>[SP]
 3072                                 M                                           ;"-4" FF,FF,FF,FC
 3073                                 M           PUSH_REG1       R13     ;
 3074 00000254 2FD6                   M           MOV.L   R13,@-R15               ;PUSH=SP-4
 3075                                 M                                           ;REG=>[SP]
 3076                                 M                                           ;"-4" FF,FF,FF,FC
 3077                                 M           PUSH_REG1       R14     ;
 3078 00000256 2FE6                   M           MOV.L   R14,@-R15               ;PUSH=SP-4
 3079                                 M                                           ;REG=>[SP]
 3080                                 M                                           ;"-4" FF,FF,FF,FC
 3081                                 M           PUSH_MACHL              ;
 3082 00000258 4F02                   M           STS.L   MACH,@-R15
 3083 0000025A 4F12                   M           STS.L   MACL,@-R15
 3084                                 M           PUSH_SYS_REG    GBR     ;
 3085 0000025C 4F13                   M           STC.L   GBR,@-R15
 3086                                 M           .AIF    3 EQ 3
 3087                                             .AELSE
 3088                                             PUSH_FPU_ALL            ;2001-07-08
 3089                                             .AENDI
 3090                             228     
 3091                             229             FAR_JSR #_SEQ_RUN_CHG2_MAIN,R0
 3092 0000025E D00C                   M           MOV.L   #_SEQ_RUN_CHG2_MAIN,R0          ;ﾃｰﾌﾞﾙｱﾄﾞﾚｽの内容をREGへ
 3093 00000260 400B                   M           JSR     @R0                     ;
 3094 00000262 0009                   M           NOP                                     ;
 3095                             230     
 3096                             231             POP_ALL
 3097                                 M           .AIF    3 EQ 3
 3098                                             .AELSE
 3099                                             POP_FPU_ALL             ;2001-07-08
 3100                                             .AENDI
 3101                                 M           POP_SYS_REG     GBR     ;
 3102 00000264 4F17                   M           LDC.L   @R15+,GBR
 3103                                 M           POP_MACHL               ;
 3104 00000266 4F16                   M           LDS.L   @R15+,MACL
 3105 00000268 4F06                   M           LDS.L   @R15+,MACH
 3106                                 M           POP_REG1        R14     ;
 3107                                 M                                   ; RE"+4" 00,00,00,04
 3108 0000026A 6EF6                   M           MOV.L   @R15+,R14        ;
 3109                                 M           POP_REG1        R13     ;
 3110                                 M                                   ; RE"+4" 00,00,00,04
 3111 0000026C 6DF6                   M           MOV.L   @R15+,R13        ;
 3112                                 M           POP_REG1        R12     ;
 3113                                 M                                   ; RE"+4" 00,00,00,04
 3114 0000026E 6CF6                   M           MOV.L   @R15+,R12        ;
 3115                                 M           POP_REG1        R11     ;
 3116                                 M                                   ; RE"+4" 00,00,00,04
 3117 00000270 6BF6                   M           MOV.L   @R15+,R11        ;
 3118                                 M           POP_REG1        R10     ;
 3119                                 M                                   ; RE"+4" 00,00,00,04
 3120 00000272 6AF6                   M           MOV.L   @R15+,R10        ;
 3121                                 M           POP_REG1        R9      ;
 3122                                 M                                   ; RE"+4" 00,00,00,04
 3123 00000274 69F6                   M           MOV.L   @R15+,R9        ;
*** SuperH RISC engine ASSEMBLER V.7.01.02.000 ***    07/04/21 19:29:14                                                  PAGE    15
PROGRAM NAME =

 3124                                 M           POP_REG1        R8      ;
 3125                                 M                                   ; RE"+4" 00,00,00,04
 3126 00000276 68F6                   M           MOV.L   @R15+,R8        ;
 3127                                 M           POP_REG1        R7      ;
 3128                                 M                                   ; RE"+4" 00,00,00,04
 3129 00000278 67F6                   M           MOV.L   @R15+,R7        ;
 3130                                 M           POP_REG1        R6      ;
 3131                                 M                                   ; RE"+4" 00,00,00,04
 3132 0000027A 66F6                   M           MOV.L   @R15+,R6        ;
 3133                                 M           POP_REG1        R5      ;
 3134                                 M                                   ; RE"+4" 00,00,00,04
 3135 0000027C 65F6                   M           MOV.L   @R15+,R5        ;
 3136                                 M           POP_REG1        R4      ;
 3137                                 M                                   ; RE"+4" 00,00,00,04
 3138 0000027E 64F6                   M           MOV.L   @R15+,R4        ;
 3139                                 M           POP_REG1        R3      ;
 3140                                 M                                   ; RE"+4" 00,00,00,04
 3141 00000280 63F6                   M           MOV.L   @R15+,R3        ;
 3142                                 M           POP_REG1        R2      ;
 3143                                 M                                   ; RE"+4" 00,00,00,04
 3144 00000282 62F6                   M           MOV.L   @R15+,R2        ;
 3145                                 M           POP_REG1        R1      ;
 3146                                 M                                   ; RE"+4" 00,00,00,04
 3147 00000284 61F6                   M           MOV.L   @R15+,R1        ;
 3148                                 M           POP_REG1        R0      ;
 3149                                 M                                   ; RE"+4" 00,00,00,04
 3150 00000286 60F6                   M           MOV.L   @R15+,R0        ;
 3151                             232             SUB_END
 3152                                 M   ;;;;;;; ADD     #4,R15                  ;[不要?]
 3153 00000288 4F26                   M           LDS.L   @R15+,PR                ;[必要]
 3154                             233             M_RTS
 3155 0000028A 000B                   M           RTS                             ;RTSの後ろの
 3156 0000028C 0009                   M           NOP                             ;@R15+,PRはﾀﾞﾒ
 3157                             234     
 3158                             235     ;********************************************************************
 3159                             236     ;* FUNCTION     : POU3 イニシャル処理
 3160                             237     ;* DATE         : 09/11/20 Akiba
 3161                             238     ;* UPDATE       :
 3162                             239     ;********************************************************************
 3163                                     ***** BEGIN-POOL *****
 3164 0000028E 0000                       ALIGNMENT CODE
 3165 00000290 00000000                   DATA FOR SOURCE-LINE 229
 3166                                     ***** END-POOL *****
 3167 00000294                    240     _SEQ_INIT3:
 3168                             241             SUB_START
 3169 00000294 4F22                   M           STS.L   PR,@-R15                ;[必要]
 3170                                 M   ;;;;;;; ADD     #-4,R15                 ;[不要?]
 3171                             242             PUSH_ALL
 3172                                 M           PUSH_REG1       R0      ;
 3173 00000296 2F06                   M           MOV.L   R0,@-R15                ;PUSH=SP-4
 3174                                 M                                           ;REG=>[SP]
 3175                                 M                                           ;"-4" FF,FF,FF,FC
 3176                                 M           PUSH_REG1       R1      ;
 3177 00000298 2F16                   M           MOV.L   R1,@-R15                ;PUSH=SP-4
 3178                                 M                                           ;REG=>[SP]
 3179                                 M                                           ;"-4" FF,FF,FF,FC
 3180                                 M           PUSH_REG1       R2      ;
*** SuperH RISC engine ASSEMBLER V.7.01.02.000 ***    07/04/21 19:29:14                                                  PAGE    16
PROGRAM NAME =

 3181 0000029A 2F26                   M           MOV.L   R2,@-R15                ;PUSH=SP-4
 3182                                 M                                           ;REG=>[SP]
 3183                                 M                                           ;"-4" FF,FF,FF,FC
 3184                                 M           PUSH_REG1       R3      ;
 3185 0000029C 2F36                   M           MOV.L   R3,@-R15                ;PUSH=SP-4
 3186                                 M                                           ;REG=>[SP]
 3187                                 M                                           ;"-4" FF,FF,FF,FC
 3188                                 M           PUSH_REG1       R4      ;
 3189 0000029E 2F46                   M           MOV.L   R4,@-R15                ;PUSH=SP-4
 3190                                 M                                           ;REG=>[SP]
 3191                                 M                                           ;"-4" FF,FF,FF,FC
 3192                                 M           PUSH_REG1       R5      ;
 3193 000002A0 2F56                   M           MOV.L   R5,@-R15                ;PUSH=SP-4
 3194                                 M                                           ;REG=>[SP]
 3195                                 M                                           ;"-4" FF,FF,FF,FC
 3196                                 M           PUSH_REG1       R6      ;
 3197 000002A2 2F66                   M           MOV.L   R6,@-R15                ;PUSH=SP-4
 3198                                 M                                           ;REG=>[SP]
 3199                                 M                                           ;"-4" FF,FF,FF,FC
 3200                                 M           PUSH_REG1       R7      ;
 3201 000002A4 2F76                   M           MOV.L   R7,@-R15                ;PUSH=SP-4
 3202                                 M                                           ;REG=>[SP]
 3203                                 M                                           ;"-4" FF,FF,FF,FC
 3204                                 M           PUSH_REG1       R8      ;
 3205 000002A6 2F86                   M           MOV.L   R8,@-R15                ;PUSH=SP-4
 3206                                 M                                           ;REG=>[SP]
 3207                                 M                                           ;"-4" FF,FF,FF,FC
 3208                                 M           PUSH_REG1       R9      ;
 3209 000002A8 2F96                   M           MOV.L   R9,@-R15                ;PUSH=SP-4
 3210                                 M                                           ;REG=>[SP]
 3211                                 M                                           ;"-4" FF,FF,FF,FC
 3212                                 M           PUSH_REG1       R10     ;
 3213 000002AA 2FA6                   M           MOV.L   R10,@-R15               ;PUSH=SP-4
 3214                                 M                                           ;REG=>[SP]
 3215                                 M                                           ;"-4" FF,FF,FF,FC
 3216                                 M           PUSH_REG1       R11     ;
 3217 000002AC 2FB6                   M           MOV.L   R11,@-R15               ;PUSH=SP-4
 3218                                 M                                           ;REG=>[SP]
 3219                                 M                                           ;"-4" FF,FF,FF,FC
 3220                                 M           PUSH_REG1       R12     ;
 3221 000002AE 2FC6                   M           MOV.L   R12,@-R15               ;PUSH=SP-4
 3222                                 M                                           ;REG=>[SP]
 3223                                 M                                           ;"-4" FF,FF,FF,FC
 3224                                 M           PUSH_REG1       R13     ;
 3225 000002B0 2FD6                   M           MOV.L   R13,@-R15               ;PUSH=SP-4
 3226                                 M                                           ;REG=>[SP]
 3227                                 M                                           ;"-4" FF,FF,FF,FC
 3228                                 M           PUSH_REG1       R14     ;
 3229 000002B2 2FE6                   M           MOV.L   R14,@-R15               ;PUSH=SP-4
 3230                                 M                                           ;REG=>[SP]
 3231                                 M                                           ;"-4" FF,FF,FF,FC
 3232                                 M           PUSH_MACHL              ;
 3233 000002B4 4F02                   M           STS.L   MACH,@-R15
 3234 000002B6 4F12                   M           STS.L   MACL,@-R15
 3235                                 M           PUSH_SYS_REG    GBR     ;
 3236 000002B8 4F13                   M           STC.L   GBR,@-R15
 3237                                 M           .AIF    3 EQ 3
*** SuperH RISC engine ASSEMBLER V.7.01.02.000 ***    07/04/21 19:29:14                                                  PAGE    17
PROGRAM NAME =

 3238                                             .AELSE
 3239                                             PUSH_FPU_ALL            ;2001-07-08
 3240                                             .AENDI
 3241                             243     
 3242                             244             FAR_JSR #_SEQ_RUN_CHG3_MAIN,R0
 3243 000002BA D00C                   M           MOV.L   #_SEQ_RUN_CHG3_MAIN,R0          ;ﾃｰﾌﾞﾙｱﾄﾞﾚｽの内容をREGへ
 3244 000002BC 400B                   M           JSR     @R0                     ;
 3245 000002BE 0009                   M           NOP                                     ;
 3246                             245     
 3247                             246             POP_ALL
 3248                                 M           .AIF    3 EQ 3
 3249                                             .AELSE
 3250                                             POP_FPU_ALL             ;2001-07-08
 3251                                             .AENDI
 3252                                 M           POP_SYS_REG     GBR     ;
 3253 000002C0 4F17                   M           LDC.L   @R15+,GBR
 3254                                 M           POP_MACHL               ;
 3255 000002C2 4F16                   M           LDS.L   @R15+,MACL
 3256 000002C4 4F06                   M           LDS.L   @R15+,MACH
 3257                                 M           POP_REG1        R14     ;
 3258                                 M                                   ; RE"+4" 00,00,00,04
 3259 000002C6 6EF6                   M           MOV.L   @R15+,R14        ;
 3260                                 M           POP_REG1        R13     ;
 3261                                 M                                   ; RE"+4" 00,00,00,04
 3262 000002C8 6DF6                   M           MOV.L   @R15+,R13        ;
 3263                                 M           POP_REG1        R12     ;
 3264                                 M                                   ; RE"+4" 00,00,00,04
 3265 000002CA 6CF6                   M           MOV.L   @R15+,R12        ;
 3266                                 M           POP_REG1        R11     ;
 3267                                 M                                   ; RE"+4" 00,00,00,04
 3268 000002CC 6BF6                   M           MOV.L   @R15+,R11        ;
 3269                                 M           POP_REG1        R10     ;
 3270                                 M                                   ; RE"+4" 00,00,00,04
 3271 000002CE 6AF6                   M           MOV.L   @R15+,R10        ;
 3272                                 M           POP_REG1        R9      ;
 3273                                 M                                   ; RE"+4" 00,00,00,04
 3274 000002D0 69F6                   M           MOV.L   @R15+,R9        ;
 3275                                 M           POP_REG1        R8      ;
 3276                                 M                                   ; RE"+4" 00,00,00,04
 3277 000002D2 68F6                   M           MOV.L   @R15+,R8        ;
 3278                                 M           POP_REG1        R7      ;
 3279                                 M                                   ; RE"+4" 00,00,00,04
 3280 000002D4 67F6                   M           MOV.L   @R15+,R7        ;
 3281                                 M           POP_REG1        R6      ;
 3282                                 M                                   ; RE"+4" 00,00,00,04
 3283 000002D6 66F6                   M           MOV.L   @R15+,R6        ;
 3284                                 M           POP_REG1        R5      ;
 3285                                 M                                   ; RE"+4" 00,00,00,04
 3286 000002D8 65F6                   M           MOV.L   @R15+,R5        ;
 3287                                 M           POP_REG1        R4      ;
 3288                                 M                                   ; RE"+4" 00,00,00,04
 3289 000002DA 64F6                   M           MOV.L   @R15+,R4        ;
 3290                                 M           POP_REG1        R3      ;
 3291                                 M                                   ; RE"+4" 00,00,00,04
 3292 000002DC 63F6                   M           MOV.L   @R15+,R3        ;
 3293                                 M           POP_REG1        R2      ;
 3294                                 M                                   ; RE"+4" 00,00,00,04
*** SuperH RISC engine ASSEMBLER V.7.01.02.000 ***    07/04/21 19:29:14                                                  PAGE    18
PROGRAM NAME =

 3295 000002DE 62F6                   M           MOV.L   @R15+,R2        ;
 3296                                 M           POP_REG1        R1      ;
 3297                                 M                                   ; RE"+4" 00,00,00,04
 3298 000002E0 61F6                   M           MOV.L   @R15+,R1        ;
 3299                                 M           POP_REG1        R0      ;
 3300                                 M                                   ; RE"+4" 00,00,00,04
 3301 000002E2 60F6                   M           MOV.L   @R15+,R0        ;
 3302                             247             SUB_END
 3303                                 M   ;;;;;;; ADD     #4,R15                  ;[不要?]
 3304 000002E4 4F26                   M           LDS.L   @R15+,PR                ;[必要]
 3305                             248             M_RTS
 3306 000002E6 000B                   M           RTS                             ;RTSの後ろの
 3307 000002E8 0009                   M           NOP                             ;@R15+,PRはﾀﾞﾒ
 3308                             249     
 3309                             250     ;********************************************************************
 3310                             251     ;* FUNCTION     : 保持メモリ領域読出処理
 3311                             252     ;* DATE         : 09/11/20 Akiba
 3312                             253     ;* UPDATE       :
 3313                             254     ;********************************************************************
 3314                             255             .IMPORT _SeqMemM                        ; L領域ﾊﾞｯｸｱｯﾌﾟ情報
 3315                                     ***** BEGIN-POOL *****
 3316 000002EA 0000                       ALIGNMENT CODE
 3317 000002EC 00000000                   DATA FOR SOURCE-LINE 244
 3318                                     ***** END-POOL *****
 3319 000002F0                    256             .ALIGN  4
 3320 000002F0                    257     _SEQ_L_POP:
 3321                             258             SUB_START
 3322 000002F0 4F22                   M           STS.L   PR,@-R15                ;[必要]
 3323                                 M   ;;;;;;; ADD     #-4,R15                 ;[不要?]
 3324                             259     
 3325                             260             DI_PUSH_SR_SH3  WK_REG1=R2,WK_REG2=R4   ; 割込ﾏｽｸ
 3326 000002F2 0202                   M           STC     SR,R2                   ;
 3327 000002F4 9415                   M           MOV.W   #H'000000F0,R4          ;
 3328 000002F6 224B                   M           OR      R4,R2           ;INT15
 3329 000002F8 4F03                   M           STC.L   SR,@-R15                        ;PUSH SR
 3330 000002FA 420E                   M           LDC     R2,SR                   ;割込禁止（15）
 3331 000002FC D30A               261             MOV.L   #_SeqLd_MKIND_TBL_TOP,R3        ;
 3332 000002FE D10B               262             MOV.L   #D'16,R1                        ;
 3333 00000300 331C               263             ADD.L   R1,R3                           ;
 3334 00000302 6132               264             MOV.L   @R3,R1                          ;
 3335 00000304 D50A               265             MOV.L   #_SeqMemM,R5                    ;
 3336 00000306 6351               266             MOV.W   @R5,R3                          ;
 3337 00000308 2131               267             MOV.W   R3,@R1                          ;
 3338 0000030A 200A               268             XOR     R0,R0                           ;
 3339                             269     
 3340 0000030C                    270     _SEQ_L_POP10:
 3341 0000030C 930A               271             MOV.W   #1,R3                           ;
 3342 0000030E 303C               272             ADD     R3,R0                           ;
 3343 00000310 8820               273             CMP/EQ  #_SEQ_L_SET,R0                  ; 32ward転送完了？
 3344 00000312 8911               274             BT      _SEQ_L_POP20                    ; 転送完了
 3345                             275     
 3346 00000314 D307               276             MOV.L   #D'2,R3                         ;
 3347 00000316 353C               277             ADD.L   R3,R5                           ;
 3348 00000318 313C               278             ADD.L   R3,R1                           ;
 3349 0000031A 6351               279             MOV.W   @R5,R3                          ;
 3350 0000031C 2131               280             MOV.W   R3,@R1                          ;
 3351                             281             M_BRA   _SEQ_L_POP10                    ;
*** SuperH RISC engine ASSEMBLER V.7.01.02.000 ***    07/04/21 19:29:14                                                  PAGE    19
PROGRAM NAME =

 3352 0000031E AFF5                   M           BRA     _SEQ_L_POP10
 3353 00000320 0009                   M           NOP
 3354                             282     
 3355                                     ***** BEGIN-POOL *****
 3356 00000322 00F0                       DATA FOR SOURCE-LINE 260
 3357 00000324 0001                       DATA FOR SOURCE-LINE 271
 3358 00000326 0000                       ALIGNMENT CODE
 3359 00000328 00000000                   DATA FOR SOURCE-LINE 261
 3360 0000032C 00000010                   DATA FOR SOURCE-LINE 262
 3361 00000330 00000000                   DATA FOR SOURCE-LINE 265
 3362 00000334 00000002                   DATA FOR SOURCE-LINE 276
 3363                                     ***** END-POOL *****
 3364 00000338                    283     _SEQ_L_POP20:
 3365                             284             EI_POP_SR_SH3                           ; 割込ﾏｽｸ解除
 3366 00000338 4F07                   M           LDC.L   @R15+,SR                        ;POP SR
 3367                             285             SUB_END
 3368                                 M   ;;;;;;; ADD     #4,R15                  ;[不要?]
 3369 0000033A 4F26                   M           LDS.L   @R15+,PR                ;[必要]
 3370                             286             M_RTS
 3371 0000033C 000B                   M           RTS                             ;RTSの後ろの
 3372 0000033E 0009                   M           NOP                             ;@R15+,PRはﾀﾞﾒ
 3373                             287     
 3374                             288     ;********************************************************************
 3375                             289     ;* FUNCTION     : POU情報レジスタ作成処理
 3376                             290     ;* DATE         : 09/11/20 Akiba
 3377                             291     ;* UPDATE       :
 3378                             292     ;********************************************************************
 3379 00000340                    293             .ALIGN  4
 3380 00000340                    294     _SEQ_POU_RD:
 3381                             295             SUB_START
 3382 00000340 4F22                   M           STS.L   PR,@-R15                ;[必要]
 3383                                 M   ;;;;;;; ADD     #-4,R15                 ;[不要?]
 3384                             296     
 3385 00000342 6122               297             MOV.L   @R2,R1                          ;
 3386 00000344 2512               298             MOV.L   R1,@R5                          ;
 3387 00000346 200A               299             XOR     R0,R0                           ;
 3388                             300     
 3389 00000348                    301     _SEQ_POU_RD10:
 3390 00000348 D105               302             MOV.L   #1,R1                           ;
 3391 0000034A 301C               303             ADD     R1,R0                           ;
 3392 0000034C D105               304             MOV.L   #_SEQ_POU_SET,R1                ;
 3393 0000034E 3010               305             CMP/EQ  R1,R0                           ; 32ward転送完了？
 3394 00000350 890C               306             BT      _SEQ_POU_RD20                   ; 転送完了
 3395                             307     
 3396 00000352 D105               308             MOV.L   #D'4,R1                         ;
 3397 00000354 321C               309             ADD.L   R1,R2                           ;
 3398 00000356 351C               310             ADD.L   R1,R5                           ;
 3399 00000358 6122               311             MOV.L   @R2,R1                          ;
 3400 0000035A 2512               312             MOV.L   R1,@R5                          ;
 3401                             313             M_BRA   _SEQ_POU_RD10                   ;
 3402 0000035C AFF4                   M           BRA     _SEQ_POU_RD10
 3403 0000035E 0009                   M           NOP
 3404                             314     
 3405                                     ***** BEGIN-POOL *****
 3406 00000360 00000001                   DATA FOR SOURCE-LINE 302
 3407 00000364 00004000                   DATA FOR SOURCE-LINE 304
 3408 00000368 00000004                   DATA FOR SOURCE-LINE 308
*** SuperH RISC engine ASSEMBLER V.7.01.02.000 ***    07/04/21 19:29:14                                                  PAGE    20
PROGRAM NAME =

 3409                                     ***** END-POOL *****
 3410 0000036C                    315     _SEQ_POU_RD20:
 3411                             316             SUB_END
 3412                                 M   ;;;;;;; ADD     #4,R15                  ;[不要?]
 3413 0000036C 4F26                   M           LDS.L   @R15+,PR                ;[必要]
 3414                             317             M_RTS
 3415 0000036E 000B                   M           RTS                             ;RTSの後ろの
 3416 00000370 0009                   M           NOP                             ;@R15+,PRはﾀﾞﾒ
 3417                             318     
 3418                             319     ;********************************************************************
 3419                             320     ;* FUNCTION     : POU1 RUN処理
 3420                             321     ;* DATE         : 09/11/20 Akiba
 3421                             322     ;* UPDATE       :
 3422                             323     ;********************************************************************
 3423                             324             .EXPORT         _SEQ_RUN_MAIN1
 3424                             325     
 3425 00000372                    326     _SEQ_RUN_MAIN1:
 3426                             327             SUB_START
 3427 00000372 4F22                   M           STS.L   PR,@-R15                ;[必要]
 3428                                 M   ;;;;;;; ADD     #-4,R15                 ;[不要?]
 3429                             328             PUSH_ALL
 3430                                 M           PUSH_REG1       R0      ;
 3431 00000374 2F06                   M           MOV.L   R0,@-R15                ;PUSH=SP-4
 3432                                 M                                           ;REG=>[SP]
 3433                                 M                                           ;"-4" FF,FF,FF,FC
 3434                                 M           PUSH_REG1       R1      ;
 3435 00000376 2F16                   M           MOV.L   R1,@-R15                ;PUSH=SP-4
 3436                                 M                                           ;REG=>[SP]
 3437                                 M                                           ;"-4" FF,FF,FF,FC
 3438                                 M           PUSH_REG1       R2      ;
 3439 00000378 2F26                   M           MOV.L   R2,@-R15                ;PUSH=SP-4
 3440                                 M                                           ;REG=>[SP]
 3441                                 M                                           ;"-4" FF,FF,FF,FC
 3442                                 M           PUSH_REG1       R3      ;
 3443 0000037A 2F36                   M           MOV.L   R3,@-R15                ;PUSH=SP-4
 3444                                 M                                           ;REG=>[SP]
 3445                                 M                                           ;"-4" FF,FF,FF,FC
 3446                                 M           PUSH_REG1       R4      ;
 3447 0000037C 2F46                   M           MOV.L   R4,@-R15                ;PUSH=SP-4
 3448                                 M                                           ;REG=>[SP]
 3449                                 M                                           ;"-4" FF,FF,FF,FC
 3450                                 M           PUSH_REG1       R5      ;
 3451 0000037E 2F56                   M           MOV.L   R5,@-R15                ;PUSH=SP-4
 3452                                 M                                           ;REG=>[SP]
 3453                                 M                                           ;"-4" FF,FF,FF,FC
 3454                                 M           PUSH_REG1       R6      ;
 3455 00000380 2F66                   M           MOV.L   R6,@-R15                ;PUSH=SP-4
 3456                                 M                                           ;REG=>[SP]
 3457                                 M                                           ;"-4" FF,FF,FF,FC
 3458                                 M           PUSH_REG1       R7      ;
 3459 00000382 2F76                   M           MOV.L   R7,@-R15                ;PUSH=SP-4
 3460                                 M                                           ;REG=>[SP]
 3461                                 M                                           ;"-4" FF,FF,FF,FC
 3462                                 M           PUSH_REG1       R8      ;
 3463 00000384 2F86                   M           MOV.L   R8,@-R15                ;PUSH=SP-4
 3464                                 M                                           ;REG=>[SP]
 3465                                 M                                           ;"-4" FF,FF,FF,FC
*** SuperH RISC engine ASSEMBLER V.7.01.02.000 ***    07/04/21 19:29:14                                                  PAGE    21
PROGRAM NAME =

 3466                                 M           PUSH_REG1       R9      ;
 3467 00000386 2F96                   M           MOV.L   R9,@-R15                ;PUSH=SP-4
 3468                                 M                                           ;REG=>[SP]
 3469                                 M                                           ;"-4" FF,FF,FF,FC
 3470                                 M           PUSH_REG1       R10     ;
 3471 00000388 2FA6                   M           MOV.L   R10,@-R15               ;PUSH=SP-4
 3472                                 M                                           ;REG=>[SP]
 3473                                 M                                           ;"-4" FF,FF,FF,FC
 3474                                 M           PUSH_REG1       R11     ;
 3475 0000038A 2FB6                   M           MOV.L   R11,@-R15               ;PUSH=SP-4
 3476                                 M                                           ;REG=>[SP]
 3477                                 M                                           ;"-4" FF,FF,FF,FC
 3478                                 M           PUSH_REG1       R12     ;
 3479 0000038C 2FC6                   M           MOV.L   R12,@-R15               ;PUSH=SP-4
 3480                                 M                                           ;REG=>[SP]
 3481                                 M                                           ;"-4" FF,FF,FF,FC
 3482                                 M           PUSH_REG1       R13     ;
 3483 0000038E 2FD6                   M           MOV.L   R13,@-R15               ;PUSH=SP-4
 3484                                 M                                           ;REG=>[SP]
 3485                                 M                                           ;"-4" FF,FF,FF,FC
 3486                                 M           PUSH_REG1       R14     ;
 3487 00000390 2FE6                   M           MOV.L   R14,@-R15               ;PUSH=SP-4
 3488                                 M                                           ;REG=>[SP]
 3489                                 M                                           ;"-4" FF,FF,FF,FC
 3490                                 M           PUSH_MACHL              ;
 3491 00000392 4F02                   M           STS.L   MACH,@-R15
 3492 00000394 4F12                   M           STS.L   MACL,@-R15
 3493                                 M           PUSH_SYS_REG    GBR     ;
 3494 00000396 4F13                   M           STC.L   GBR,@-R15
 3495                                 M           .AIF    3 EQ 3
 3496                                             .AELSE
 3497                                             PUSH_FPU_ALL            ;2001-07-08
 3498                                             .AENDI
 3499                             329     
 3500 00000398 D118               330             MOV.L   #_SEQ_CMP_ERR1,R1               ; CMP OK = BX:0000 , CMP NG = BX:FFFF
 3501 0000039A 6011               331             MOV.W   @R1,R0                          ;
 3502 0000039C 2008               332             TST     R0,R0                           ;
 3503 0000039E 8B18               333             BF      _SEQ_RUN_MAIN1_1000             ;
 3504                             334     
 3505 000003A0 D517               335             MOV.L   #_X_PUSH_TOP1,R5                ; 退避先ﾚｼﾞｽﾀSET
 3506                             336             FAR_JSR #_SEQ_X_PUSH,R0                 ; X領域の退避
 3507 000003A2 D018                   M           MOV.L   #_SEQ_X_PUSH,R0         ;ﾃｰﾌﾞﾙｱﾄﾞﾚｽの内容をREGへ
 3508 000003A4 400B                   M           JSR     @R0                     ;
 3509 000003A6 0009                   M           NOP                                     ;
 3510                             337     
 3511 000003A8 D517               338             MOV.L   #_DI_X_TOP2,R5                  ;
 3512                             339             FAR_JSR #_SEQ_X_POP,R0                  ; 実入力ﾚｼﾞｽﾀのSET
 3513 000003AA D018                   M           MOV.L   #_SEQ_X_POP,R0          ;ﾃｰﾌﾞﾙｱﾄﾞﾚｽの内容をREGへ
 3514 000003AC 400B                   M           JSR     @R0                     ;
 3515 000003AE 0009                   M           NOP                                     ;
 3516                             340     
 3517                             341             FAR_JSR #_SEQ_REG_START_SET1,R0         ; ﾚｼﾞｽﾀ設定
 3518 000003B0 D017                   M           MOV.L   #_SEQ_REG_START_SET1,R0         ;ﾃｰﾌﾞﾙｱﾄﾞﾚｽの内容をREGへ
 3519 000003B2 400B                   M           JSR     @R0                     ;
 3520 000003B4 0009                   M           NOP                                     ;
 3521                             342     
 3522 000003B6 D117               343             MOV.L   #_SeqPOURun1Flg,R1              ; POU1 運転ﾌﾗｸﾞ確認(0:運転可,1:運転不可)
*** SuperH RISC engine ASSEMBLER V.7.01.02.000 ***    07/04/21 19:29:14                                                  PAGE    22
PROGRAM NAME =

 3523 000003B8 6011               344             MOV.W   @R1,R0                          ;
 3524 000003BA 2008               345             TST     R0,R0                           ;
 3525 000003BC 8B05               346             BF      _SEQ_RUN_MAIN1_100              ;
 3526                             347     
 3527                             348     ;; --------- ステップ実行時間計測用 START ----------
 3528                             349     ;;      "DE2"信号にて波形観測
 3529                             350     ;;      MOV.L   #H'F8050020,R0
 3530                             351     ;;      MOV.W   @R0,R1
 3531                             352     ;;      MOV.W   #H'10,R2
 3532                             353     ;;      OR      R2,R1
 3533                             354     ;;      MOV.W   R1,@R0
 3534                             355     ;; --------- ステップ実行時間計測用 END ----------
 3535                             356     
 3536                             357             FAR_JSR #_SEQ_RUN1_TOP,R0               ;(実ｼｰｹﾝｽ)
 3537 000003BE D016                   M           MOV.L   #_SEQ_RUN1_TOP,R0               ;ﾃｰﾌﾞﾙｱﾄﾞﾚｽの内容をREGへ
 3538 000003C0 400B                   M           JSR     @R0                     ;
 3539 000003C2 0009                   M           NOP                                     ;
 3540                             358     
 3541                             359     ;; --------- ステップ実行時間計測用 START ----------
 3542                             360     ;;      "DE2"信号にて波形観測
 3543                             361     ;;      MOV.L   #H'F8050020,R0
 3544                             362     ;;      MOV.W   @R0,R1
 3545                             363     ;;      MOV.W   #H'EF,R2
 3546                             364     ;;      AND     R2,R1
 3547                             365     ;;      MOV.W   R1,@R0
 3548                             366     ;; --------- ステップ実行時間計測用 END ----------
 3549                             367     
 3550                             368             FAR_JSR #_SEQ_L_PUSH,R0                 ; 保持ﾒﾓﾘ領域書込処理実行
 3551 000003C4 D015                   M           MOV.L   #_SEQ_L_PUSH,R0         ;ﾃｰﾌﾞﾙｱﾄﾞﾚｽの内容をREGへ
 3552 000003C6 400B                   M           JSR     @R0                     ;
 3553 000003C8 0009                   M           NOP                                     ;
 3554                             369     
 3555 000003CA                    370     _SEQ_RUN_MAIN1_100:
 3556 000003CA D50D               371             MOV.L   #_X_PUSH_TOP1,R5                ; 退避元ﾚｼﾞｽﾀSET
 3557                             372             FAR_JSR #_SEQ_X_POP,R0                  ; X領域の退避情報を戻す
 3558 000003CC D00F                   M           MOV.L   #_SEQ_X_POP,R0          ;ﾃｰﾌﾞﾙｱﾄﾞﾚｽの内容をREGへ
 3559 000003CE 400B                   M           JSR     @R0                     ;
 3560 000003D0 0009                   M           NOP                                     ;
 3561                             373     
 3562 000003D2                    374     _SEQ_RUN_MAIN1_1000:
 3563                             375             POP_ALL
 3564                                 M           .AIF    3 EQ 3
 3565                                             .AELSE
 3566                                             POP_FPU_ALL             ;2001-07-08
 3567                                             .AENDI
 3568                                 M           POP_SYS_REG     GBR     ;
 3569 000003D2 4F17                   M           LDC.L   @R15+,GBR
 3570                                 M           POP_MACHL               ;
 3571 000003D4 4F16                   M           LDS.L   @R15+,MACL
 3572 000003D6 4F06                   M           LDS.L   @R15+,MACH
 3573                                 M           POP_REG1        R14     ;
 3574                                 M                                   ; RE"+4" 00,00,00,04
 3575 000003D8 6EF6                   M           MOV.L   @R15+,R14        ;
 3576                                 M           POP_REG1        R13     ;
 3577                                 M                                   ; RE"+4" 00,00,00,04
 3578 000003DA 6DF6                   M           MOV.L   @R15+,R13        ;
 3579                                 M           POP_REG1        R12     ;
*** SuperH RISC engine ASSEMBLER V.7.01.02.000 ***    07/04/21 19:29:14                                                  PAGE    23
PROGRAM NAME =

 3580                                 M                                   ; RE"+4" 00,00,00,04
 3581 000003DC 6CF6                   M           MOV.L   @R15+,R12        ;
 3582                                 M           POP_REG1        R11     ;
 3583                                 M                                   ; RE"+4" 00,00,00,04
 3584 000003DE 6BF6                   M           MOV.L   @R15+,R11        ;
 3585                                 M           POP_REG1        R10     ;
 3586                                 M                                   ; RE"+4" 00,00,00,04
 3587 000003E0 6AF6                   M           MOV.L   @R15+,R10        ;
 3588                                 M           POP_REG1        R9      ;
 3589                                 M                                   ; RE"+4" 00,00,00,04
 3590 000003E2 69F6                   M           MOV.L   @R15+,R9        ;
 3591                                 M           POP_REG1        R8      ;
 3592                                 M                                   ; RE"+4" 00,00,00,04
 3593 000003E4 68F6                   M           MOV.L   @R15+,R8        ;
 3594                                 M           POP_REG1        R7      ;
 3595                                 M                                   ; RE"+4" 00,00,00,04
 3596 000003E6 67F6                   M           MOV.L   @R15+,R7        ;
 3597                                 M           POP_REG1        R6      ;
 3598                                 M                                   ; RE"+4" 00,00,00,04
 3599 000003E8 66F6                   M           MOV.L   @R15+,R6        ;
 3600                                 M           POP_REG1        R5      ;
 3601                                 M                                   ; RE"+4" 00,00,00,04
 3602 000003EA 65F6                   M           MOV.L   @R15+,R5        ;
 3603                                 M           POP_REG1        R4      ;
 3604                                 M                                   ; RE"+4" 00,00,00,04
 3605 000003EC 64F6                   M           MOV.L   @R15+,R4        ;
 3606                                 M           POP_REG1        R3      ;
 3607                                 M                                   ; RE"+4" 00,00,00,04
 3608 000003EE 63F6                   M           MOV.L   @R15+,R3        ;
 3609                                 M           POP_REG1        R2      ;
 3610                                 M                                   ; RE"+4" 00,00,00,04
 3611 000003F0 62F6                   M           MOV.L   @R15+,R2        ;
 3612                                 M           POP_REG1        R1      ;
 3613                                 M                                   ; RE"+4" 00,00,00,04
 3614 000003F2 61F6                   M           MOV.L   @R15+,R1        ;
 3615                                 M           POP_REG1        R0      ;
 3616                                 M                                   ; RE"+4" 00,00,00,04
 3617 000003F4 60F6                   M           MOV.L   @R15+,R0        ;
 3618                             376             SUB_END
 3619                                 M   ;;;;;;; ADD     #4,R15                  ;[不要?]
 3620 000003F6 4F26                   M           LDS.L   @R15+,PR                ;[必要]
 3621                             377             M_RTS
 3622 000003F8 000B                   M           RTS                             ;RTSの後ろの
 3623 000003FA 0009                   M           NOP                             ;@R15+,PRはﾀﾞﾒ
 3624                             378     
 3625                             379     ;********************************************************************
 3626                             380     ;* FUNCTION     : POU2 RUN処理
 3627                             381     ;* DATE         : 09/11/20 Akiba
 3628                             382     ;* UPDATE       :
 3629                             383     ;********************************************************************
 3630                             384             .EXPORT         _SEQ_RUN_MAIN2
 3631                             385     
 3632                                     ***** BEGIN-POOL *****
 3633 000003FC 00000000                   DATA FOR SOURCE-LINE 330
 3634 00000400 00000000                   DATA FOR SOURCE-LINE 335,371
 3635 00000404 00000000                   DATA FOR SOURCE-LINE 336
 3636 00000408 00000000                   DATA FOR SOURCE-LINE 338
*** SuperH RISC engine ASSEMBLER V.7.01.02.000 ***    07/04/21 19:29:14                                                  PAGE    24
PROGRAM NAME =

 3637 0000040C 00000000                   DATA FOR SOURCE-LINE 339,372
 3638 00000410 00000000                   DATA FOR SOURCE-LINE 341
 3639 00000414 00000000                   DATA FOR SOURCE-LINE 343
 3640 00000418 00000000                   DATA FOR SOURCE-LINE 357
 3641 0000041C 00000000                   DATA FOR SOURCE-LINE 368
 3642                                     ***** END-POOL *****
 3643 00000420                    386     _SEQ_RUN_MAIN2:
 3644                             387             SUB_START
 3645 00000420 4F22                   M           STS.L   PR,@-R15                ;[必要]
 3646                                 M   ;;;;;;; ADD     #-4,R15                 ;[不要?]
 3647                             388             PUSH_ALL
 3648                                 M           PUSH_REG1       R0      ;
 3649 00000422 2F06                   M           MOV.L   R0,@-R15                ;PUSH=SP-4
 3650                                 M                                           ;REG=>[SP]
 3651                                 M                                           ;"-4" FF,FF,FF,FC
 3652                                 M           PUSH_REG1       R1      ;
 3653 00000424 2F16                   M           MOV.L   R1,@-R15                ;PUSH=SP-4
 3654                                 M                                           ;REG=>[SP]
 3655                                 M                                           ;"-4" FF,FF,FF,FC
 3656                                 M           PUSH_REG1       R2      ;
 3657 00000426 2F26                   M           MOV.L   R2,@-R15                ;PUSH=SP-4
 3658                                 M                                           ;REG=>[SP]
 3659                                 M                                           ;"-4" FF,FF,FF,FC
 3660                                 M           PUSH_REG1       R3      ;
 3661 00000428 2F36                   M           MOV.L   R3,@-R15                ;PUSH=SP-4
 3662                                 M                                           ;REG=>[SP]
 3663                                 M                                           ;"-4" FF,FF,FF,FC
 3664                                 M           PUSH_REG1       R4      ;
 3665 0000042A 2F46                   M           MOV.L   R4,@-R15                ;PUSH=SP-4
 3666                                 M                                           ;REG=>[SP]
 3667                                 M                                           ;"-4" FF,FF,FF,FC
 3668                                 M           PUSH_REG1       R5      ;
 3669 0000042C 2F56                   M           MOV.L   R5,@-R15                ;PUSH=SP-4
 3670                                 M                                           ;REG=>[SP]
 3671                                 M                                           ;"-4" FF,FF,FF,FC
 3672                                 M           PUSH_REG1       R6      ;
 3673 0000042E 2F66                   M           MOV.L   R6,@-R15                ;PUSH=SP-4
 3674                                 M                                           ;REG=>[SP]
 3675                                 M                                           ;"-4" FF,FF,FF,FC
 3676                                 M           PUSH_REG1       R7      ;
 3677 00000430 2F76                   M           MOV.L   R7,@-R15                ;PUSH=SP-4
 3678                                 M                                           ;REG=>[SP]
 3679                                 M                                           ;"-4" FF,FF,FF,FC
 3680                                 M           PUSH_REG1       R8      ;
 3681 00000432 2F86                   M           MOV.L   R8,@-R15                ;PUSH=SP-4
 3682                                 M                                           ;REG=>[SP]
 3683                                 M                                           ;"-4" FF,FF,FF,FC
 3684                                 M           PUSH_REG1       R9      ;
 3685 00000434 2F96                   M           MOV.L   R9,@-R15                ;PUSH=SP-4
 3686                                 M                                           ;REG=>[SP]
 3687                                 M                                           ;"-4" FF,FF,FF,FC
 3688                                 M           PUSH_REG1       R10     ;
 3689 00000436 2FA6                   M           MOV.L   R10,@-R15               ;PUSH=SP-4
 3690                                 M                                           ;REG=>[SP]
 3691                                 M                                           ;"-4" FF,FF,FF,FC
 3692                                 M           PUSH_REG1       R11     ;
 3693 00000438 2FB6                   M           MOV.L   R11,@-R15               ;PUSH=SP-4
*** SuperH RISC engine ASSEMBLER V.7.01.02.000 ***    07/04/21 19:29:14                                                  PAGE    25
PROGRAM NAME =

 3694                                 M                                           ;REG=>[SP]
 3695                                 M                                           ;"-4" FF,FF,FF,FC
 3696                                 M           PUSH_REG1       R12     ;
 3697 0000043A 2FC6                   M           MOV.L   R12,@-R15               ;PUSH=SP-4
 3698                                 M                                           ;REG=>[SP]
 3699                                 M                                           ;"-4" FF,FF,FF,FC
 3700                                 M           PUSH_REG1       R13     ;
 3701 0000043C 2FD6                   M           MOV.L   R13,@-R15               ;PUSH=SP-4
 3702                                 M                                           ;REG=>[SP]
 3703                                 M                                           ;"-4" FF,FF,FF,FC
 3704                                 M           PUSH_REG1       R14     ;
 3705 0000043E 2FE6                   M           MOV.L   R14,@-R15               ;PUSH=SP-4
 3706                                 M                                           ;REG=>[SP]
 3707                                 M                                           ;"-4" FF,FF,FF,FC
 3708                                 M           PUSH_MACHL              ;
 3709 00000440 4F02                   M           STS.L   MACH,@-R15
 3710 00000442 4F12                   M           STS.L   MACL,@-R15
 3711                                 M           PUSH_SYS_REG    GBR     ;
 3712 00000444 4F13                   M           STC.L   GBR,@-R15
 3713                                 M           .AIF    3 EQ 3
 3714                                             .AELSE
 3715                                             PUSH_FPU_ALL            ;2001-07-08
 3716                                             .AENDI
 3717                             389     
 3718 00000446 D115               390             MOV.L   #_SEQ_CMP_ERR2,R1               ; CMP OK = BX:0000 , CMP NG = BX:FFFF
 3719 00000448 6011               391             MOV.W   @R1,R0                          ;
 3720 0000044A 2008               392             TST     R0,R0                           ;
 3721 0000044C 8B10               393             BF      _SEQ_RUN_MAIN2_1000             ;
 3722                             394     
 3723 0000044E D514               395             MOV.L   #_DI_X_TOP2,R5                  ;
 3724                             396             FAR_JSR #_SEQ_X_POP,R0                  ; 実入力ﾚｼﾞｽﾀのSET
 3725 00000450 D014                   M           MOV.L   #_SEQ_X_POP,R0          ;ﾃｰﾌﾞﾙｱﾄﾞﾚｽの内容をREGへ
 3726 00000452 400B                   M           JSR     @R0                     ;
 3727 00000454 0009                   M           NOP                                     ;
 3728                             397     
 3729                             398             FAR_JSR #_SEQ_REG_START_SET2,R0         ; ﾚｼﾞｽﾀ設定
 3730 00000456 D014                   M           MOV.L   #_SEQ_REG_START_SET2,R0         ;ﾃｰﾌﾞﾙｱﾄﾞﾚｽの内容をREGへ
 3731 00000458 400B                   M           JSR     @R0                     ;
 3732 0000045A 0009                   M           NOP                                     ;
 3733                             399     
 3734 0000045C D113               400             MOV.L   #_SeqPOURun2Flg,R1              ; POU2 運転ﾌﾗｸﾞ確認(0:運転可,1:運転不可)
 3735 0000045E 6011               401             MOV.W   @R1,R0                          ;
 3736 00000460 2008               402             TST     R0,R0                           ;
 3737 00000462 8B05               403             BF      _SEQ_RUN_MAIN2_1000             ;
 3738                             404     
 3739                             405     ;; --------- ステップ実行時間計測用 START ----------
 3740                             406     ;;      "DE2"信号にて波形観測
 3741                             407     ;;      MOV.L   #H'F8050020,R0
 3742                             408     ;;      MOV.W   @R0,R1
 3743                             409     ;;      MOV.W   #H'10,R2
 3744                             410     ;;      OR      R2,R1
 3745                             411     ;;      MOV.W   R1,@R0
 3746                             412     ;; --------- ステップ実行時間計測用 END ----------
 3747                             413     
 3748                             414             FAR_JSR #_SEQ_RUN2_TOP,R0               ;(実ｼｰｹﾝｽ)
 3749 00000464 D012                   M           MOV.L   #_SEQ_RUN2_TOP,R0               ;ﾃｰﾌﾞﾙｱﾄﾞﾚｽの内容をREGへ
 3750 00000466 400B                   M           JSR     @R0                     ;
*** SuperH RISC engine ASSEMBLER V.7.01.02.000 ***    07/04/21 19:29:14                                                  PAGE    26
PROGRAM NAME =

 3751 00000468 0009                   M           NOP                                     ;
 3752                             415     
 3753                             416     ;; --------- ステップ実行時間計測用 START ----------
 3754                             417     ;;      "DE2"信号にて波形観測
 3755                             418     ;;      MOV.L   #H'F8050020,R0
 3756                             419     ;;      MOV.W   @R0,R1
 3757                             420     ;;      MOV.W   #H'EF,R2
 3758                             421     ;;      AND     R2,R1
 3759                             422     ;;      MOV.W   R1,@R0
 3760                             423     ;; --------- ステップ実行時間計測用 END ----------
 3761                             424     
 3762                             425             FAR_JSR #_SEQ_L_PUSH,R0                 ; 保持ﾒﾓﾘ領域書込処理実行
 3763 0000046A D012                   M           MOV.L   #_SEQ_L_PUSH,R0         ;ﾃｰﾌﾞﾙｱﾄﾞﾚｽの内容をREGへ
 3764 0000046C 400B                   M           JSR     @R0                     ;
 3765 0000046E 0009                   M           NOP                                     ;
 3766                             426     
 3767 00000470                    427     _SEQ_RUN_MAIN2_1000:
 3768                             428             POP_ALL
 3769                                 M           .AIF    3 EQ 3
 3770                                             .AELSE
 3771                                             POP_FPU_ALL             ;2001-07-08
 3772                                             .AENDI
 3773                                 M           POP_SYS_REG     GBR     ;
 3774 00000470 4F17                   M           LDC.L   @R15+,GBR
 3775                                 M           POP_MACHL               ;
 3776 00000472 4F16                   M           LDS.L   @R15+,MACL
 3777 00000474 4F06                   M           LDS.L   @R15+,MACH
 3778                                 M           POP_REG1        R14     ;
 3779                                 M                                   ; RE"+4" 00,00,00,04
 3780 00000476 6EF6                   M           MOV.L   @R15+,R14        ;
 3781                                 M           POP_REG1        R13     ;
 3782                                 M                                   ; RE"+4" 00,00,00,04
 3783 00000478 6DF6                   M           MOV.L   @R15+,R13        ;
 3784                                 M           POP_REG1        R12     ;
 3785                                 M                                   ; RE"+4" 00,00,00,04
 3786 0000047A 6CF6                   M           MOV.L   @R15+,R12        ;
 3787                                 M           POP_REG1        R11     ;
 3788                                 M                                   ; RE"+4" 00,00,00,04
 3789 0000047C 6BF6                   M           MOV.L   @R15+,R11        ;
 3790                                 M           POP_REG1        R10     ;
 3791                                 M                                   ; RE"+4" 00,00,00,04
 3792 0000047E 6AF6                   M           MOV.L   @R15+,R10        ;
 3793                                 M           POP_REG1        R9      ;
 3794                                 M                                   ; RE"+4" 00,00,00,04
 3795 00000480 69F6                   M           MOV.L   @R15+,R9        ;
 3796                                 M           POP_REG1        R8      ;
 3797                                 M                                   ; RE"+4" 00,00,00,04
 3798 00000482 68F6                   M           MOV.L   @R15+,R8        ;
 3799                                 M           POP_REG1        R7      ;
 3800                                 M                                   ; RE"+4" 00,00,00,04
 3801 00000484 67F6                   M           MOV.L   @R15+,R7        ;
 3802                                 M           POP_REG1        R6      ;
 3803                                 M                                   ; RE"+4" 00,00,00,04
 3804 00000486 66F6                   M           MOV.L   @R15+,R6        ;
 3805                                 M           POP_REG1        R5      ;
 3806                                 M                                   ; RE"+4" 00,00,00,04
 3807 00000488 65F6                   M           MOV.L   @R15+,R5        ;
*** SuperH RISC engine ASSEMBLER V.7.01.02.000 ***    07/04/21 19:29:14                                                  PAGE    27
PROGRAM NAME =

 3808                                 M           POP_REG1        R4      ;
 3809                                 M                                   ; RE"+4" 00,00,00,04
 3810 0000048A 64F6                   M           MOV.L   @R15+,R4        ;
 3811                                 M           POP_REG1        R3      ;
 3812                                 M                                   ; RE"+4" 00,00,00,04
 3813 0000048C 63F6                   M           MOV.L   @R15+,R3        ;
 3814                                 M           POP_REG1        R2      ;
 3815                                 M                                   ; RE"+4" 00,00,00,04
 3816 0000048E 62F6                   M           MOV.L   @R15+,R2        ;
 3817                                 M           POP_REG1        R1      ;
 3818                                 M                                   ; RE"+4" 00,00,00,04
 3819 00000490 61F6                   M           MOV.L   @R15+,R1        ;
 3820                                 M           POP_REG1        R0      ;
 3821                                 M                                   ; RE"+4" 00,00,00,04
 3822 00000492 60F6                   M           MOV.L   @R15+,R0        ;
 3823                             429             SUB_END
 3824                                 M   ;;;;;;; ADD     #4,R15                  ;[不要?]
 3825 00000494 4F26                   M           LDS.L   @R15+,PR                ;[必要]
 3826                             430             M_RTS
 3827 00000496 000B                   M           RTS                             ;RTSの後ろの
 3828 00000498 0009                   M           NOP                             ;@R15+,PRはﾀﾞﾒ
 3829                             431     
 3830                             432     ;********************************************************************
 3831                             433     ;* FUNCTION     : POU3 RUN処理
 3832                             434     ;* DATE         : 09/11/20 Akiba
 3833                             435     ;* UPDATE       :
 3834                             436     ;********************************************************************
 3835                             437             .EXPORT         _SEQ_RUN_MAIN3
 3836                             438             .IMPORT         _ssc_UpdateSArea
 3837                             439     
 3838                                     ***** BEGIN-POOL *****
 3839 0000049A 0000                       ALIGNMENT CODE
 3840 0000049C 00000000                   DATA FOR SOURCE-LINE 390
 3841 000004A0 00000000                   DATA FOR SOURCE-LINE 395
 3842 000004A4 00000000                   DATA FOR SOURCE-LINE 396
 3843 000004A8 00000000                   DATA FOR SOURCE-LINE 398
 3844 000004AC 00000000                   DATA FOR SOURCE-LINE 400
 3845 000004B0 00000000                   DATA FOR SOURCE-LINE 414
 3846 000004B4 00000000                   DATA FOR SOURCE-LINE 425
 3847                                     ***** END-POOL *****
 3848 000004B8                    440     _SEQ_RUN_MAIN3:
 3849                             441             SUB_START
 3850 000004B8 4F22                   M           STS.L   PR,@-R15                ;[必要]
 3851                                 M   ;;;;;;; ADD     #-4,R15                 ;[不要?]
 3852                             442             PUSH_ALL
 3853                                 M           PUSH_REG1       R0      ;
 3854 000004BA 2F06                   M           MOV.L   R0,@-R15                ;PUSH=SP-4
 3855                                 M                                           ;REG=>[SP]
 3856                                 M                                           ;"-4" FF,FF,FF,FC
 3857                                 M           PUSH_REG1       R1      ;
 3858 000004BC 2F16                   M           MOV.L   R1,@-R15                ;PUSH=SP-4
 3859                                 M                                           ;REG=>[SP]
 3860                                 M                                           ;"-4" FF,FF,FF,FC
 3861                                 M           PUSH_REG1       R2      ;
 3862 000004BE 2F26                   M           MOV.L   R2,@-R15                ;PUSH=SP-4
 3863                                 M                                           ;REG=>[SP]
 3864                                 M                                           ;"-4" FF,FF,FF,FC
*** SuperH RISC engine ASSEMBLER V.7.01.02.000 ***    07/04/21 19:29:14                                                  PAGE    28
PROGRAM NAME =

 3865                                 M           PUSH_REG1       R3      ;
 3866 000004C0 2F36                   M           MOV.L   R3,@-R15                ;PUSH=SP-4
 3867                                 M                                           ;REG=>[SP]
 3868                                 M                                           ;"-4" FF,FF,FF,FC
 3869                                 M           PUSH_REG1       R4      ;
 3870 000004C2 2F46                   M           MOV.L   R4,@-R15                ;PUSH=SP-4
 3871                                 M                                           ;REG=>[SP]
 3872                                 M                                           ;"-4" FF,FF,FF,FC
 3873                                 M           PUSH_REG1       R5      ;
 3874 000004C4 2F56                   M           MOV.L   R5,@-R15                ;PUSH=SP-4
 3875                                 M                                           ;REG=>[SP]
 3876                                 M                                           ;"-4" FF,FF,FF,FC
 3877                                 M           PUSH_REG1       R6      ;
 3878 000004C6 2F66                   M           MOV.L   R6,@-R15                ;PUSH=SP-4
 3879                                 M                                           ;REG=>[SP]
 3880                                 M                                           ;"-4" FF,FF,FF,FC
 3881                                 M           PUSH_REG1       R7      ;
 3882 000004C8 2F76                   M           MOV.L   R7,@-R15                ;PUSH=SP-4
 3883                                 M                                           ;REG=>[SP]
 3884                                 M                                           ;"-4" FF,FF,FF,FC
 3885                                 M           PUSH_REG1       R8      ;
 3886 000004CA 2F86                   M           MOV.L   R8,@-R15                ;PUSH=SP-4
 3887                                 M                                           ;REG=>[SP]
 3888                                 M                                           ;"-4" FF,FF,FF,FC
 3889                                 M           PUSH_REG1       R9      ;
 3890 000004CC 2F96                   M           MOV.L   R9,@-R15                ;PUSH=SP-4
 3891                                 M                                           ;REG=>[SP]
 3892                                 M                                           ;"-4" FF,FF,FF,FC
 3893                                 M           PUSH_REG1       R10     ;
 3894 000004CE 2FA6                   M           MOV.L   R10,@-R15               ;PUSH=SP-4
 3895                                 M                                           ;REG=>[SP]
 3896                                 M                                           ;"-4" FF,FF,FF,FC
 3897                                 M           PUSH_REG1       R11     ;
 3898 000004D0 2FB6                   M           MOV.L   R11,@-R15               ;PUSH=SP-4
 3899                                 M                                           ;REG=>[SP]
 3900                                 M                                           ;"-4" FF,FF,FF,FC
 3901                                 M           PUSH_REG1       R12     ;
 3902 000004D2 2FC6                   M           MOV.L   R12,@-R15               ;PUSH=SP-4
 3903                                 M                                           ;REG=>[SP]
 3904                                 M                                           ;"-4" FF,FF,FF,FC
 3905                                 M           PUSH_REG1       R13     ;
 3906 000004D4 2FD6                   M           MOV.L   R13,@-R15               ;PUSH=SP-4
 3907                                 M                                           ;REG=>[SP]
 3908                                 M                                           ;"-4" FF,FF,FF,FC
 3909                                 M           PUSH_REG1       R14     ;
 3910 000004D6 2FE6                   M           MOV.L   R14,@-R15               ;PUSH=SP-4
 3911                                 M                                           ;REG=>[SP]
 3912                                 M                                           ;"-4" FF,FF,FF,FC
 3913                                 M           PUSH_MACHL              ;
 3914 000004D8 4F02                   M           STS.L   MACH,@-R15
 3915 000004DA 4F12                   M           STS.L   MACL,@-R15
 3916                                 M           PUSH_SYS_REG    GBR     ;
 3917 000004DC 4F13                   M           STC.L   GBR,@-R15
 3918                                 M           .AIF    3 EQ 3
 3919                                             .AELSE
 3920                                             PUSH_FPU_ALL            ;2001-07-08
 3921                                             .AENDI
*** SuperH RISC engine ASSEMBLER V.7.01.02.000 ***    07/04/21 19:29:14                                                  PAGE    29
PROGRAM NAME =

 3922                             443     
 3923                             444             FAR_JSR #_ssc_UpdateSArea,R0            ; S領域情報更新
 3924 000004DE D022                   M           MOV.L   #_ssc_UpdateSArea,R0            ;ﾃｰﾌﾞﾙｱﾄﾞﾚｽの内容をREGへ
 3925 000004E0 400B                   M           JSR     @R0                     ;
 3926 000004E2 0009                   M           NOP                                     ;
 3927                             445             FAR_JSR #_SEQ_DI_RIF,R0                 ; 実X領域情報更新
 3928 000004E4 D021                   M           MOV.L   #_SEQ_DI_RIF,R0         ;ﾃｰﾌﾞﾙｱﾄﾞﾚｽの内容をREGへ
 3929 000004E6 400B                   M           JSR     @R0                     ;
 3930 000004E8 0009                   M           NOP                                     ;
 3931                             446             FAR_JSR #_SEQ_DI_KP_SET,R0              ; 強制設定情報SET
 3932 000004EA D021                   M           MOV.L   #_SEQ_DI_KP_SET,R0              ;ﾃｰﾌﾞﾙｱﾄﾞﾚｽの内容をREGへ
 3933 000004EC 400B                   M           JSR     @R0                     ;
 3934 000004EE 0009                   M           NOP                                     ;
 3935                             447     
 3936 000004F0 D120               448             MOV.L   #_SEQ_CMP_ERR3,R1               ; CMP OK = BX:0000 , CMP NG = BX:FFFF
 3937 000004F2 6011               449             MOV.W   @R1,R0                          ;
 3938 000004F4 2008               450             TST     R0,R0                           ;
 3939 000004F6 8B18               451             BF      _SEQ_RUN_MAIN3_1000             ;
 3940                             452     
 3941 000004F8 D51F               453             MOV.L   #_X_PUSH_TOP2,R5                ; 退避先ﾚｼﾞｽﾀSET
 3942                             454             FAR_JSR #_SEQ_X_PUSH,R0                 ; X領域の退避
 3943 000004FA D020                   M           MOV.L   #_SEQ_X_PUSH,R0         ;ﾃｰﾌﾞﾙｱﾄﾞﾚｽの内容をREGへ
 3944 000004FC 400B                   M           JSR     @R0                     ;
 3945 000004FE 0009                   M           NOP                                     ;
 3946                             455     
 3947 00000500 D51F               456             MOV.L   #_DI_X_TOP2,R5                  ;
 3948                             457             FAR_JSR #_SEQ_X_POP,R0                  ; 実入力ﾚｼﾞｽﾀのSET
 3949 00000502 D020                   M           MOV.L   #_SEQ_X_POP,R0          ;ﾃｰﾌﾞﾙｱﾄﾞﾚｽの内容をREGへ
 3950 00000504 400B                   M           JSR     @R0                     ;
 3951 00000506 0009                   M           NOP                                     ;
 3952                             458     
 3953                             459             FAR_JSR #_SEQ_REG_START_SET3,R0         ; ﾚｼﾞｽﾀ設定
 3954 00000508 D01F                   M           MOV.L   #_SEQ_REG_START_SET3,R0         ;ﾃｰﾌﾞﾙｱﾄﾞﾚｽの内容をREGへ
 3955 0000050A 400B                   M           JSR     @R0                     ;
 3956 0000050C 0009                   M           NOP                                     ;
 3957                             460     
 3958 0000050E D11F               461             MOV.L   #_SeqPOURun3Flg,R1              ; POU3 運転ﾌﾗｸﾞ確認(0:運転可,1:運転不可)
 3959 00000510 6011               462             MOV.W   @R1,R0                          ;
 3960 00000512 2008               463             TST     R0,R0                           ;
 3961 00000514 8B05               464             BF      _SEQ_RUN_MAIN3_100              ;
 3962                             465     
 3963                             466     ;; --------- ステップ実行時間計測用 START ----------
 3964                             467     ;;      "DE2"信号にて波形観測
 3965                             468     ;;      MOV.L   #H'F8050020,R0
 3966                             469     ;;      MOV.W   @R0,R1
 3967                             470     ;;      MOV.W   #H'10,R2
 3968                             471     ;;      OR      R2,R1
 3969                             472     ;;      MOV.W   R1,@R0
 3970                             473     ;; --------- ステップ実行時間計測用 END ----------
 3971                             474     
 3972                             475             FAR_JSR #_SEQ_RUN3_TOP,R0               ; (実ｼｰｹﾝｽ)
 3973 00000516 D01E                   M           MOV.L   #_SEQ_RUN3_TOP,R0               ;ﾃｰﾌﾞﾙｱﾄﾞﾚｽの内容をREGへ
 3974 00000518 400B                   M           JSR     @R0                     ;
 3975 0000051A 0009                   M           NOP                                     ;
 3976                             476     
 3977                             477     ;; --------- ステップ実行時間計測用 START ----------
 3978                             478     ;;      "DE2"信号にて波形観測
*** SuperH RISC engine ASSEMBLER V.7.01.02.000 ***    07/04/21 19:29:14                                                  PAGE    30
PROGRAM NAME =

 3979                             479     ;;      MOV.L   #H'F8050020,R0
 3980                             480     ;;      MOV.W   @R0,R1
 3981                             481     ;;      MOV.W   #H'EF,R2
 3982                             482     ;;      AND     R2,R1
 3983                             483     ;;      MOV.W   R1,@R0
 3984                             484     ;; --------- ステップ実行時間計測用 END ----------
 3985                             485     
 3986                             486             FAR_JSR #_SEQ_L_PUSH,R0                 ; 保持ﾒﾓﾘ領域書込処理実行
 3987 0000051C D01D                   M           MOV.L   #_SEQ_L_PUSH,R0         ;ﾃｰﾌﾞﾙｱﾄﾞﾚｽの内容をREGへ
 3988 0000051E 400B                   M           JSR     @R0                     ;
 3989 00000520 0009                   M           NOP                                     ;
 3990                             487     
 3991 00000522                    488     _SEQ_RUN_MAIN3_100:
 3992 00000522 D515               489             MOV.L   #_X_PUSH_TOP2,R5                ; 退避元ﾚｼﾞｽﾀSET
 3993                             490             FAR_JSR #_SEQ_X_POP,R0                  ; X領域の退避情報を戻す
 3994 00000524 D017                   M           MOV.L   #_SEQ_X_POP,R0          ;ﾃｰﾌﾞﾙｱﾄﾞﾚｽの内容をREGへ
 3995 00000526 400B                   M           JSR     @R0                     ;
 3996 00000528 0009                   M           NOP                                     ;
 3997                             491     
 3998 0000052A                    492     _SEQ_RUN_MAIN3_1000:
 3999                             493             FAR_JSR #_SEQ_Y_MEM_SET,R0              ; 実出力ﾚｼﾞｽﾀのSET
 4000 0000052A D01B                   M           MOV.L   #_SEQ_Y_MEM_SET,R0              ;ﾃｰﾌﾞﾙｱﾄﾞﾚｽの内容をREGへ
 4001 0000052C 400B                   M           JSR     @R0                     ;
 4002 0000052E 0009                   M           NOP                                     ;
 4003                             494             FAR_JSR #_SEQ_DO_KP_SET,R0              ; 強制設定情報SET
 4004 00000530 D01A                   M           MOV.L   #_SEQ_DO_KP_SET,R0              ;ﾃｰﾌﾞﾙｱﾄﾞﾚｽの内容をREGへ
 4005 00000532 400B                   M           JSR     @R0                     ;
 4006 00000534 0009                   M           NOP                                     ;
 4007                             495             FAR_JSR #_SEQ_DO_RIF,R0                 ; 実Y領域情報更新
 4008 00000536 D01A                   M           MOV.L   #_SEQ_DO_RIF,R0         ;ﾃｰﾌﾞﾙｱﾄﾞﾚｽの内容をREGへ
 4009 00000538 400B                   M           JSR     @R0                     ;
 4010 0000053A 0009                   M           NOP                                     ;
 4011                             496     
 4012                             497             POP_ALL
 4013                                 M           .AIF    3 EQ 3
 4014                                             .AELSE
 4015                                             POP_FPU_ALL             ;2001-07-08
 4016                                             .AENDI
 4017                                 M           POP_SYS_REG     GBR     ;
 4018 0000053C 4F17                   M           LDC.L   @R15+,GBR
 4019                                 M           POP_MACHL               ;
 4020 0000053E 4F16                   M           LDS.L   @R15+,MACL
 4021 00000540 4F06                   M           LDS.L   @R15+,MACH
 4022                                 M           POP_REG1        R14     ;
 4023                                 M                                   ; RE"+4" 00,00,00,04
 4024 00000542 6EF6                   M           MOV.L   @R15+,R14        ;
 4025                                 M           POP_REG1        R13     ;
 4026                                 M                                   ; RE"+4" 00,00,00,04
 4027 00000544 6DF6                   M           MOV.L   @R15+,R13        ;
 4028                                 M           POP_REG1        R12     ;
 4029                                 M                                   ; RE"+4" 00,00,00,04
 4030 00000546 6CF6                   M           MOV.L   @R15+,R12        ;
 4031                                 M           POP_REG1        R11     ;
 4032                                 M                                   ; RE"+4" 00,00,00,04
 4033 00000548 6BF6                   M           MOV.L   @R15+,R11        ;
 4034                                 M           POP_REG1        R10     ;
 4035                                 M                                   ; RE"+4" 00,00,00,04
*** SuperH RISC engine ASSEMBLER V.7.01.02.000 ***    07/04/21 19:29:14                                                  PAGE    31
PROGRAM NAME =

 4036 0000054A 6AF6                   M           MOV.L   @R15+,R10        ;
 4037                                 M           POP_REG1        R9      ;
 4038                                 M                                   ; RE"+4" 00,00,00,04
 4039 0000054C 69F6                   M           MOV.L   @R15+,R9        ;
 4040                                 M           POP_REG1        R8      ;
 4041                                 M                                   ; RE"+4" 00,00,00,04
 4042 0000054E 68F6                   M           MOV.L   @R15+,R8        ;
 4043                                 M           POP_REG1        R7      ;
 4044                                 M                                   ; RE"+4" 00,00,00,04
 4045 00000550 67F6                   M           MOV.L   @R15+,R7        ;
 4046                                 M           POP_REG1        R6      ;
 4047                                 M                                   ; RE"+4" 00,00,00,04
 4048 00000552 66F6                   M           MOV.L   @R15+,R6        ;
 4049                                 M           POP_REG1        R5      ;
 4050                                 M                                   ; RE"+4" 00,00,00,04
 4051 00000554 65F6                   M           MOV.L   @R15+,R5        ;
 4052                                 M           POP_REG1        R4      ;
 4053                                 M                                   ; RE"+4" 00,00,00,04
 4054 00000556 64F6                   M           MOV.L   @R15+,R4        ;
 4055                                 M           POP_REG1        R3      ;
 4056                                 M                                   ; RE"+4" 00,00,00,04
 4057 00000558 63F6                   M           MOV.L   @R15+,R3        ;
 4058                                 M           POP_REG1        R2      ;
 4059                                 M                                   ; RE"+4" 00,00,00,04
 4060 0000055A 62F6                   M           MOV.L   @R15+,R2        ;
 4061                                 M           POP_REG1        R1      ;
 4062                                 M                                   ; RE"+4" 00,00,00,04
 4063 0000055C 61F6                   M           MOV.L   @R15+,R1        ;
 4064                                 M           POP_REG1        R0      ;
 4065                                 M                                   ; RE"+4" 00,00,00,04
 4066 0000055E 60F6                   M           MOV.L   @R15+,R0        ;
 4067                             498             SUB_END
 4068                                 M   ;;;;;;; ADD     #4,R15                  ;[不要?]
 4069 00000560 4F26                   M           LDS.L   @R15+,PR                ;[必要]
 4070                             499             M_RTS
 4071 00000562 000B                   M           RTS                             ;RTSの後ろの
 4072 00000564 0009                   M           NOP                             ;@R15+,PRはﾀﾞﾒ
 4073                             500     
 4074                             501     
 4075                             502     ;********************************************************************
 4076                             503     ;* FUNCTION     : X領域(実入力)情報更新処理
 4077                             504     ;* DATE         : 09/11/20 Akiba
 4078                             505     ;* UPDATE       : 10/08/19 Y.Kobayashi
 4079                             506     ;********************************************************************
 4080                             507     ;;[koma]        .IMPORT         _di_sw1                 ; ﾃﾞｨｯﾌﾟsw(領域2byte 下位１byte使
                                          用)
 4081                             508     ;;[koma]        .IMPORT         _di_sw2                 ; ﾃﾞｼﾞﾀﾙ制御入力(領域2byte 下位１b
                                          yte使用)
 4082                             509     ;;[koma]        .IMPORT         _di_sw3                 ; ﾃﾞｼﾞﾀﾙ制御入力(領域2byte 下位１b
                                          yte使用)
 4083                             510     ;;[koma]        .IMPORT         _ana_vold_dat           ; ｱﾅﾛｸﾞ入力 x 4(電圧ﾚﾍﾞﾙ)
 4084                             511     ;;[koma]        実入力→シーケンス実入力領域へ
 4085                             512     
 4086                                     ***** BEGIN-POOL *****
 4087 00000566 0000                       ALIGNMENT CODE
 4088 00000568 00000000                   DATA FOR SOURCE-LINE 444
 4089 0000056C 00000000                   DATA FOR SOURCE-LINE 445
*** SuperH RISC engine ASSEMBLER V.7.01.02.000 ***    07/04/21 19:29:14                                                  PAGE    32
PROGRAM NAME =

 4090 00000570 00000000                   DATA FOR SOURCE-LINE 446
 4091 00000574 00000000                   DATA FOR SOURCE-LINE 448
 4092 00000578 00000000                   DATA FOR SOURCE-LINE 453,489
 4093 0000057C 00000000                   DATA FOR SOURCE-LINE 454
 4094 00000580 00000000                   DATA FOR SOURCE-LINE 456
 4095 00000584 00000000                   DATA FOR SOURCE-LINE 457,490
 4096 00000588 00000000                   DATA FOR SOURCE-LINE 459
 4097 0000058C 00000000                   DATA FOR SOURCE-LINE 461
 4098 00000590 00000000                   DATA FOR SOURCE-LINE 475
 4099 00000594 00000000                   DATA FOR SOURCE-LINE 486
 4100 00000598 00000000                   DATA FOR SOURCE-LINE 493
 4101 0000059C 00000000                   DATA FOR SOURCE-LINE 494
 4102 000005A0 00000000                   DATA FOR SOURCE-LINE 495
 4103                                     ***** END-POOL *****
 4104 000005A4                    513             .ALIGN  4
 4105                             514     
 4106 000005A4                    515     _SEQ_DI_RIF:
 4107                             516             SUB_START
 4108 000005A4 4F22                   M           STS.L   PR,@-R15                ;[必要]
 4109                                 M   ;;;;;;; ADD     #-4,R15                 ;[不要?]
 4110                             517     
 4111                             518     ;;[koma]        MOV.W   #D'2,R5                         ;
 4112                             519     ;;[koma]
 4113                             520     ;;[koma]        MOV.L   #_di_sw1,R1                     ; di_sw1
 4114                             521     ;;[koma]        MOV.W   @R1,R0                          ;
 4115                             522     ;;[koma]        MOV.L   #_DI_X_TOP1,R4                  ;
 4116                             523     ;;[koma]        MOV.W   R0,@R4                          ;
 4117                             524     ;;[koma]
 4118                             525     ;;[koma]        MOV.L   #_di_sw2,R1                     ; di_sw2
 4119                             526     ;;[koma]        MOV.W   @R1,R0                          ;
 4120                             527     ;;[koma]        ADD     R5,R4                           ; addr++
 4121                             528     ;;[koma]        MOV.W   R0,@R4                          ;
 4122                             529     ;;[koma]
 4123                             530     ;;[koma]        MOV.L   #_di_sw3,R1                     ; di_sw3
 4124                             531     ;;[koma]        MOV.W   @R1,R0                          ;
 4125                             532     ;;[koma]        ADD     R5,R4                           ; addr++
 4126                             533     ;;[koma]        MOV.W   R0,@R4                          ;
 4127                             534     ;;[koma]
 4128                             535     ;;[koma]        MOV.L   #_ana_vold_dat,R1               ; _ana_vold_dat[0]
 4129                             536     ;;[koma]        MOV.W   @R1,R0                          ;
 4130                             537     ;;[koma]        ADD     R5,R4                           ; addr++
 4131                             538     ;;[koma]        MOV.W   R0,@R4                          ;
 4132                             539     ;;[koma]
 4133                             540     ;;[koma]        ADD     R5,R1                           ; _ana_vold_dat[1]
 4134                             541     ;;[koma]        MOV.W   @R1,R0                          ;
 4135                             542     ;;[koma]        ADD     R5,R4                           ; addr++
 4136                             543     ;;[koma]        MOV.W   R0,@R4                          ;
 4137                             544     ;;[koma]
 4138                             545     ;;[koma]        ADD     R5,R1                           ; _ana_vold_dat[2]
 4139                             546     ;;[koma]        MOV.W   @R1,R0                          ;
 4140                             547     ;;[koma]        ADD     R5,R4                           ; addr++
 4141                             548     ;;[koma]        MOV.W   R0,@R4                          ;
 4142                             549     ;;[koma]
 4143                             550     ;;[koma]        ADD     R5,R1                           ; _ana_vold_dat[3]
 4144                             551     ;;[koma]        MOV.W   @R1,R0                          ;
 4145                             552     ;;[koma]        ADD     R5,R4                           ; addr++
 4146                             553     ;;[koma]        MOV.W   R0,@R4                          ;
*** SuperH RISC engine ASSEMBLER V.7.01.02.000 ***    07/04/21 19:29:14                                                  PAGE    33
PROGRAM NAME =

 4147                             554     ;;[koma]
 4148                             555     
 4149                             556             SUB_END
 4150                                 M   ;;;;;;; ADD     #4,R15                  ;[不要?]
 4151 000005A6 4F26                   M           LDS.L   @R15+,PR                ;[必要]
 4152                             557             M_RTS
 4153 000005A8 000B                   M           RTS                             ;RTSの後ろの
 4154 000005AA 0009                   M           NOP                             ;@R15+,PRはﾀﾞﾒ
 4155                             558     
 4156                             559     ;********************************************************************
 4157                             560     ;* FUNCTION     : 強制設定情報セット処理(X領域)
 4158                             561     ;* DATE         : 09/11/20 Akiba
 4159                             562     ;* UPDATE       : 10/08/17 Y.Kobayashi
 4160                             563     ;********************************************************************
 4161                             564             .IMPORT _SeqKpOnX;                      ; 強制設定登録領域(X領域と同じ)
 4162                             565             .IMPORT _SeqKpOffX;                     ; 強制設定解除領域(X領域と同じ)
 4163                             566     
 4164 000005AC                    567             .ALIGN  4
 4165                             568     
 4166 000005AC                    569     _SEQ_DI_KP_SET:
 4167                             570             SUB_START
 4168 000005AC 4F22                   M           STS.L   PR,@-R15                ;[必要]
 4169                                 M   ;;;;;;; ADD     #-4,R15                 ;[不要?]
 4170                             571     
 4171 000005AE D210               572             MOV.L   #_DI_X_TOP1,R2                  ;
 4172 000005B0 6121               573             MOV.W   @R2,R1                          ;
 4173 000005B2 D310               574             MOV.L   #_SeqKpOnX,R3                   ;
 4174 000005B4 6431               575             MOV.W   @R3,R4                          ;
 4175 000005B6 214B               576             OR      R4,R1                           ;
 4176 000005B8 D50F               577             MOV.L   #_SeqKpOffX,R5                  ;
 4177 000005BA 6451               578             MOV.W   @R5,R4                          ;
 4178 000005BC 6447               579             NOT     R4,R4                           ;
 4179 000005BE 2149               580             AND     R4,R1                           ;
 4180 000005C0 D60E               581             MOV.L   #_DI_X_TOP2,R6                  ;
 4181 000005C2 2611               582             MOV.W   R1,@R6                          ;
 4182 000005C4 200A               583             XOR     R0,R0                           ;
 4183 000005C6 D70E               584             MOV.L   #_SEQ_X_SET,R7                  ;
 4184                             585     
 4185 000005C8                    586     _SEQ_DI_KP_SET10:
 4186 000005C8 9110               587             MOV.W   #1,R1                           ;
 4187 000005CA 301C               588             ADD     R1,R0                           ;
 4188 000005CC 3070               589             CMP/EQ  R7,R0                           ; 32ward転送完了？
 4189 000005CE 891B               590             BT      _SEQ_DI_KP_SET20                ; 転送完了
 4190                             591     
 4191 000005D0 D10C               592             MOV.L   #D'2,R1                         ;
 4192 000005D2 321C               593             ADD.L   R1,R2                           ;
 4193 000005D4 331C               594             ADD.L   R1,R3                           ;
 4194 000005D6 351C               595             ADD.L   R1,R5                           ;
 4195 000005D8 361C               596             ADD.L   R1,R6                           ;
 4196 000005DA 6121               597             MOV.W   @R2,R1                          ;
 4197 000005DC 6431               598             MOV.W   @R3,R4                          ;
 4198 000005DE 214B               599             OR      R4,R1                           ;
 4199 000005E0 6451               600             MOV.W   @R5,R4                          ;
 4200 000005E2 6447               601             NOT     R4,R4                           ;
 4201 000005E4 2149               602             AND     R4,R1                           ;
 4202 000005E6 2611               603             MOV.W   R1,@R6                          ;
 4203                             604             M_BRA   _SEQ_DI_KP_SET10                ;
*** SuperH RISC engine ASSEMBLER V.7.01.02.000 ***    07/04/21 19:29:14                                                  PAGE    34
PROGRAM NAME =

 4204 000005E8 AFEE                   M           BRA     _SEQ_DI_KP_SET10
 4205 000005EA 0009                   M           NOP
 4206                             605     
 4207                                     ***** BEGIN-POOL *****
 4208 000005EC 0001                       DATA FOR SOURCE-LINE 587
 4209 000005EE 0000                       ALIGNMENT CODE
 4210 000005F0 00000000                   DATA FOR SOURCE-LINE 572
 4211 000005F4 00000000                   DATA FOR SOURCE-LINE 574
 4212 000005F8 00000000                   DATA FOR SOURCE-LINE 577
 4213 000005FC 00000000                   DATA FOR SOURCE-LINE 581
 4214 00000600 00000010                   DATA FOR SOURCE-LINE 584
 4215 00000604 00000002                   DATA FOR SOURCE-LINE 592
 4216                                     ***** END-POOL *****
 4217 00000608                    606     _SEQ_DI_KP_SET20:
 4218                             607             SUB_END
 4219                                 M   ;;;;;;; ADD     #4,R15                  ;[不要?]
 4220 00000608 4F26                   M           LDS.L   @R15+,PR                ;[必要]
 4221                             608             M_RTS
 4222 0000060A 000B                   M           RTS                             ;RTSの後ろの
 4223 0000060C 0009                   M           NOP                             ;@R15+,PRはﾀﾞﾒ
 4224                             609     
 4225                             610     ;********************************************************************
 4226                             611     ;* FUNCTION     : ワークメモリX退避処理
 4227                             612     ;* DATE         : 09/11/20 Akiba
 4228                             613     ;* UPDATE       : 10/08/17 Y.Kobayashi
 4229                             614     ;********************************************************************
 4230 00000610                    615             .ALIGN  4
 4231                             616     
 4232 00000610                    617     _SEQ_X_PUSH:
 4233                             618             SUB_START
 4234 00000610 4F22                   M           STS.L   PR,@-R15                ;[必要]
 4235                                 M   ;;;;;;; ADD     #-4,R15                 ;[不要?]
 4236                             619     
 4237 00000612 D20A               620             MOV.L   #_SeqLd_MKIND_TBL_TOP,R2        ;
 4238 00000614 D10A               621             MOV.L   #D'4,R1                         ;
 4239 00000616 321C               622             ADD.L   R1,R2                           ;
 4240 00000618 6122               623             MOV.L   @R2,R1                          ;
 4241 0000061A 6211               624             MOV.W   @R1,R2                          ;
 4242 0000061C 2521               625             MOV.W   R2,@R5                          ;
 4243 0000061E 200A               626             XOR     R0,R0                           ;
 4244 00000620 D708               627             MOV.L   #_SEQ_X_SET,R7                  ;
 4245                             628     
 4246 00000622                    629     _SEQ_X_PUSH10:
 4247 00000622 9209               630             MOV.W   #1,R2                           ;
 4248 00000624 302C               631             ADD     R2,R0                           ;
 4249 00000626 3070               632             CMP/EQ  R7,R0                           ; 32ward転送完了？
 4250 00000628 8910               633             BT      _SEQ_X_PUSH20                   ; 転送完了
 4251                             634     
 4252 0000062A D207               635             MOV.L   #D'2,R2                         ;
 4253 0000062C 312C               636             ADD.L   R2,R1                           ;
 4254 0000062E 352C               637             ADD.L   R2,R5                           ;
 4255 00000630 6211               638             MOV.W   @R1,R2                          ;
 4256 00000632 2521               639             MOV.W   R2,@R5                          ;
 4257                             640             M_BRA   _SEQ_X_PUSH10                   ;
 4258 00000634 AFF5                   M           BRA     _SEQ_X_PUSH10
 4259 00000636 0009                   M           NOP
 4260                             641     
*** SuperH RISC engine ASSEMBLER V.7.01.02.000 ***    07/04/21 19:29:14                                                  PAGE    35
PROGRAM NAME =

 4261                                     ***** BEGIN-POOL *****
 4262 00000638 0001                       DATA FOR SOURCE-LINE 630
 4263 0000063A 0000                       ALIGNMENT CODE
 4264 0000063C 00000000                   DATA FOR SOURCE-LINE 620
 4265 00000640 00000004                   DATA FOR SOURCE-LINE 621
 4266 00000644 00000010                   DATA FOR SOURCE-LINE 627
 4267 00000648 00000002                   DATA FOR SOURCE-LINE 635
 4268                                     ***** END-POOL *****
 4269 0000064C                    642     _SEQ_X_PUSH20:
 4270                             643             SUB_END
 4271                                 M   ;;;;;;; ADD     #4,R15                  ;[不要?]
 4272 0000064C 4F26                   M           LDS.L   @R15+,PR                ;[必要]
 4273                             644             M_RTS
 4274 0000064E 000B                   M           RTS                             ;RTSの後ろの
 4275 00000650 0009                   M           NOP                             ;@R15+,PRはﾀﾞﾒ
 4276                             645     
 4277                             646     ;********************************************************************
 4278                             647     ;* FUNCTION     : ワークメモリX返却処理
 4279                             648     ;* DATE         : 09/11/20 Akiba
 4280                             649     ;* UPDATE       : 10/08/17 Y.Kobayashi
 4281                             650     ;********************************************************************
 4282 00000654                    651             .ALIGN  4
 4283                             652     
 4284 00000654                    653     _SEQ_X_POP:
 4285                             654             SUB_START
 4286 00000654 4F22                   M           STS.L   PR,@-R15                ;[必要]
 4287                                 M   ;;;;;;; ADD     #-4,R15                 ;[不要?]
 4288                             655     
 4289 00000656 D20A               656             MOV.L   #_SeqLd_MKIND_TBL_TOP,R2        ;
 4290 00000658 D10A               657             MOV.L   #D'4,R1                         ;
 4291 0000065A 321C               658             ADD.L   R1,R2                           ;
 4292 0000065C 6122               659             MOV.L   @R2,R1                          ;
 4293 0000065E 6251               660             MOV.W   @R5,R2                          ;
 4294 00000660 2121               661             MOV.W   R2,@R1                          ;
 4295 00000662 200A               662             XOR     R0,R0                           ;
 4296 00000664 D708               663             MOV.L   #_SEQ_X_SET,R7                  ;
 4297                             664     
 4298 00000666                    665     _SEQ_X_POP10:
 4299 00000666 9209               666             MOV.W   #1,R2                           ;
 4300 00000668 302C               667             ADD     R2,R0                           ;
 4301 0000066A 3070               668             CMP/EQ  R7,R0                           ; 32ward転送完了？
 4302 0000066C 8910               669             BT      _SEQ_X_POP20                    ; 転送完了
 4303                             670     
 4304 0000066E D207               671             MOV.L   #D'2,R2                         ;
 4305 00000670 312C               672             ADD.L   R2,R1                           ;
 4306 00000672 352C               673             ADD.L   R2,R5                           ;
 4307 00000674 6251               674             MOV.W   @R5,R2                          ;
 4308 00000676 2121               675             MOV.W   R2,@R1                          ;
 4309                             676             M_BRA   _SEQ_X_POP10                    ;
 4310 00000678 AFF5                   M           BRA     _SEQ_X_POP10
 4311 0000067A 0009                   M           NOP
 4312                             677     
 4313                                     ***** BEGIN-POOL *****
 4314 0000067C 0001                       DATA FOR SOURCE-LINE 666
 4315 0000067E 0000                       ALIGNMENT CODE
 4316 00000680 00000000                   DATA FOR SOURCE-LINE 656
 4317 00000684 00000004                   DATA FOR SOURCE-LINE 657
*** SuperH RISC engine ASSEMBLER V.7.01.02.000 ***    07/04/21 19:29:14                                                  PAGE    36
PROGRAM NAME =

 4318 00000688 00000010                   DATA FOR SOURCE-LINE 663
 4319 0000068C 00000002                   DATA FOR SOURCE-LINE 671
 4320                                     ***** END-POOL *****
 4321 00000690                    678     _SEQ_X_POP20:
 4322                             679             SUB_END
 4323                                 M   ;;;;;;; ADD     #4,R15                  ;[不要?]
 4324 00000690 4F26                   M           LDS.L   @R15+,PR                ;[必要]
 4325                             680             M_RTS
 4326 00000692 000B                   M           RTS                             ;RTSの後ろの
 4327 00000694 0009                   M           NOP                             ;@R15+,PRはﾀﾞﾒ
 4328                             681     
 4329                             682     ;********************************************************************
 4330                             683     ;* FUNCTION     : 保持メモリ領域書込処理
 4331                             684     ;* DATE         : 09/11/20 Akiba
 4332                             685     ;* UPDATE       :
 4333                             686     ;********************************************************************
 4334 00000698                    687             .ALIGN  4
 4335                             688     
 4336 00000698                    689     _SEQ_L_PUSH:
 4337                             690             SUB_START
 4338 00000698 4F22                   M           STS.L   PR,@-R15                ;[必要]
 4339                                 M   ;;;;;;; ADD     #-4,R15                 ;[不要?]
 4340                             691     
 4341                             692             DI_PUSH_SR_SH3  WK_REG1=R2,WK_REG2=R4   ; 割込ﾏｽｸ
 4342 0000069A 0202                   M           STC     SR,R2                   ;
 4343 0000069C 9415                   M           MOV.W   #H'000000F0,R4          ;
 4344 0000069E 224B                   M           OR      R4,R2           ;INT15
 4345 000006A0 4F03                   M           STC.L   SR,@-R15                        ;PUSH SR
 4346 000006A2 420E                   M           LDC     R2,SR                   ;割込禁止（15）
 4347 000006A4 D30A               693             MOV.L   #_SeqLd_MKIND_TBL_TOP,R3        ;
 4348 000006A6 D10B               694             MOV.L   #D'16,R1                        ;
 4349 000006A8 331C               695             ADD.L   R1,R3                           ;
 4350 000006AA 6132               696             MOV.L   @R3,R1                          ;
 4351 000006AC 6311               697             MOV.W   @R1,R3                          ;
 4352 000006AE D50A               698             MOV.L   #_SeqMemM,R5                    ;
 4353 000006B0 2531               699             MOV.W   R3,@R5                          ;
 4354 000006B2 200A               700             XOR     R0,R0                           ;
 4355                             701     
 4356 000006B4                    702     _SEQ_L_PUSH10:
 4357 000006B4 930A               703             MOV.W   #1,R3                           ;
 4358 000006B6 303C               704             ADD     R3,R0                           ;
 4359 000006B8 8820               705             CMP/EQ  #_SEQ_L_SET,R0                  ; 32ward転送完了？
 4360 000006BA 8911               706             BT      _SEQ_L_PUSH20                   ; 転送完了
 4361                             707     
 4362 000006BC D307               708             MOV.L   #D'2,R3                         ;
 4363 000006BE 313C               709             ADD.L   R3,R1                           ;
 4364 000006C0 353C               710             ADD.L   R3,R5                           ;
 4365 000006C2 6311               711             MOV.W   @R1,R3                          ;
 4366 000006C4 2531               712             MOV.W   R3,@R5                          ;
 4367                             713             M_BRA   _SEQ_L_PUSH10                   ;
 4368 000006C6 AFF5                   M           BRA     _SEQ_L_PUSH10
 4369 000006C8 0009                   M           NOP
 4370                             714     
 4371                                     ***** BEGIN-POOL *****
 4372 000006CA 00F0                       DATA FOR SOURCE-LINE 692
 4373 000006CC 0001                       DATA FOR SOURCE-LINE 703
 4374 000006CE 0000                       ALIGNMENT CODE
*** SuperH RISC engine ASSEMBLER V.7.01.02.000 ***    07/04/21 19:29:14                                                  PAGE    37
PROGRAM NAME =

 4375 000006D0 00000000                   DATA FOR SOURCE-LINE 693
 4376 000006D4 00000010                   DATA FOR SOURCE-LINE 694
 4377 000006D8 00000000                   DATA FOR SOURCE-LINE 698
 4378 000006DC 00000002                   DATA FOR SOURCE-LINE 708
 4379                                     ***** END-POOL *****
 4380 000006E0                    715     _SEQ_L_PUSH20:
 4381                             716             EI_POP_SR_SH3                           ; 割込ﾏｽｸ解除
 4382 000006E0 4F07                   M           LDC.L   @R15+,SR                        ;POP SR
 4383                             717             SUB_END
 4384                                 M   ;;;;;;; ADD     #4,R15                  ;[不要?]
 4385 000006E2 4F26                   M           LDS.L   @R15+,PR                ;[必要]
 4386                             718             M_RTS
 4387 000006E4 000B                   M           RTS                             ;RTSの後ろの
 4388 000006E6 0009                   M           NOP                             ;@R15+,PRはﾀﾞﾒ
 4389                             719     
 4390                             720     ;********************************************************************
 4391                             721     ;* FUNCTION     : Yメモリ セット処理
 4392                             722     ;* DATE         : 09/11/20 Akiba
 4393                             723     ;* UPDATE       :
 4394                             724     ;********************************************************************
 4395 000006E8                    725             .ALIGN  4
 4396 000006E8                    726     _SEQ_Y_MEM_SET:
 4397                             727             SUB_START
 4398 000006E8 4F22                   M           STS.L   PR,@-R15                ;[必要]
 4399                                 M   ;;;;;;; ADD     #-4,R15                 ;[不要?]
 4400                             728     
 4401 000006EA D20A               729             MOV.L   #_SeqLd_MKIND_TBL_TOP,R2        ;
 4402 000006EC D10A               730             MOV.L   #D'8,R1                         ;
 4403 000006EE 321C               731             ADD.L   R1,R2                           ;
 4404 000006F0 6122               732             MOV.L   @R2,R1                          ;
 4405 000006F2 D50A               733             MOV.L   #_DO_Y_TOP1,R5                  ;
 4406 000006F4 6211               734             MOV.W   @R1,R2                          ;
 4407 000006F6 2521               735             MOV.W   R2,@R5                          ;
 4408 000006F8 200A               736             XOR     R0,R0                           ;
 4409                             737     
 4410 000006FA                    738     _SEQ_Y_MEM_SET10:
 4411 000006FA 9209               739             MOV.W   #1,R2                           ;
 4412 000006FC 302C               740             ADD     R2,R0                           ;
 4413 000006FE 8810               741             CMP/EQ  #_SEQ_Y_SET,R0                  ; 32ward転送完了？
 4414 00000700 8910               742             BT      _SEQ_Y_MEM_SET20                ; 転送完了
 4415                             743     
 4416 00000702 D207               744             MOV.L   #D'2,R2                         ;
 4417 00000704 312C               745             ADD.L   R2,R1                           ;
 4418 00000706 352C               746             ADD.L   R2,R5                           ;
 4419 00000708 6211               747             MOV.W   @R1,R2                          ;
 4420 0000070A 2521               748             MOV.W   R2,@R5                          ;
 4421                             749             M_BRA   _SEQ_Y_MEM_SET10                ;
 4422 0000070C AFF5                   M           BRA     _SEQ_Y_MEM_SET10
 4423 0000070E 0009                   M           NOP
 4424                             750     
 4425                                     ***** BEGIN-POOL *****
 4426 00000710 0001                       DATA FOR SOURCE-LINE 739
 4427 00000712 0000                       ALIGNMENT CODE
 4428 00000714 00000000                   DATA FOR SOURCE-LINE 729
 4429 00000718 00000008                   DATA FOR SOURCE-LINE 730
 4430 0000071C 00000000                   DATA FOR SOURCE-LINE 733
 4431 00000720 00000002                   DATA FOR SOURCE-LINE 744
*** SuperH RISC engine ASSEMBLER V.7.01.02.000 ***    07/04/21 19:29:14                                                  PAGE    38
PROGRAM NAME =

 4432                                     ***** END-POOL *****
 4433 00000724                    751     _SEQ_Y_MEM_SET20:
 4434                             752     
 4435                             753             SUB_END
 4436                                 M   ;;;;;;; ADD     #4,R15                  ;[不要?]
 4437 00000724 4F26                   M           LDS.L   @R15+,PR                ;[必要]
 4438                             754             M_RTS
 4439 00000726 000B                   M           RTS                             ;RTSの後ろの
 4440 00000728 0009                   M           NOP                             ;@R15+,PRはﾀﾞﾒ
 4441                             755     
 4442                             756     ;********************************************************************
 4443                             757     ;* FUNCTION     : 強制設定情報セット処理(Y領域)
 4444                             758     ;* DATE         : 09/11/20 Akiba
 4445                             759     ;* UPDATE       :
 4446                             760     ;********************************************************************
 4447                             761             .IMPORT _SeqKpOnY;                      ; 強制設定登録領域(Y領域と同じ)
 4448                             762             .IMPORT _SeqKpOffY;                     ; 強制設定解除領域(Y領域と同じ)
 4449                             763     
 4450 0000072C                    764             .ALIGN  4
 4451                             765     
 4452 0000072C                    766     _SEQ_DO_KP_SET:
 4453                             767             SUB_START
 4454 0000072C 4F22                   M           STS.L   PR,@-R15                ;[必要]
 4455                                 M   ;;;;;;; ADD     #-4,R15                 ;[不要?]
 4456                             768     
 4457 0000072E D213               769             MOV.L   #_DO_Y_TOP1,R2                  ;
 4458 00000730 6121               770             MOV.W   @R2,R1                          ;
 4459 00000732 D313               771             MOV.L   #_SeqKpOnY,R3                   ;
 4460 00000734 6431               772             MOV.W   @R3,R4                          ;
 4461 00000736 214B               773             OR      R4,R1                           ;
 4462 00000738 D512               774             MOV.L   #_SeqKpOffY,R5                  ;
 4463 0000073A 6451               775             MOV.W   @R5,R4                          ;
 4464 0000073C 6447               776             NOT     R4,R4                           ;
 4465 0000073E 2149               777             AND     R4,R1                           ;
 4466 00000740 D611               778             MOV.L   #_DO_Y_TOP2,R6                  ;
 4467 00000742 2611               779             MOV.W   R1,@R6                          ;
 4468 00000744 D711               780             MOV.L   #_SeqLd_MKIND_TBL_TOP,R7        ;
 4469 00000746 D812               781             MOV.L   #D'8,R8                         ;
 4470 00000748 378C               782             ADD.L   R8,R7                           ;
 4471 0000074A 6872               783             MOV.L   @R7,R8                          ;
 4472 0000074C 2811               784             MOV.W   R1,@R8                          ;
 4473 0000074E 200A               785             XOR     R0,R0                           ;
 4474                             786     
 4475 00000750                    787     _SEQ_DO_KP_SET10:
 4476 00000750 9112               788             MOV.W   #1,R1                           ;
 4477 00000752 301C               789             ADD     R1,R0                           ;
 4478 00000754 8810               790             CMP/EQ  #_SEQ_Y_SET,R0                  ; 32ward転送完了？
 4479 00000756 891F               791             BT      _SEQ_DO_KP_SET20                ; 転送完了
 4480                             792     
 4481 00000758 D10E               793             MOV.L   #D'2,R1                         ;
 4482 0000075A 321C               794             ADD.L   R1,R2                           ;
 4483 0000075C 331C               795             ADD.L   R1,R3                           ;
 4484 0000075E 351C               796             ADD.L   R1,R5                           ;
 4485 00000760 361C               797             ADD.L   R1,R6                           ;
 4486 00000762 381C               798             ADD.L   R1,R8                           ;
 4487 00000764 6121               799             MOV.W   @R2,R1                          ;
 4488 00000766 6431               800             MOV.W   @R3,R4                          ;
*** SuperH RISC engine ASSEMBLER V.7.01.02.000 ***    07/04/21 19:29:14                                                  PAGE    39
PROGRAM NAME =

 4489 00000768 214B               801             OR      R4,R1                           ;
 4490 0000076A 6451               802             MOV.W   @R5,R4                          ;
 4491 0000076C 6447               803             NOT     R4,R4                           ;
 4492 0000076E 2149               804             AND     R4,R1                           ;
 4493 00000770 2611               805             MOV.W   R1,@R6                          ;
 4494 00000772 2811               806             MOV.W   R1,@R8                          ;
 4495                             807             M_BRA   _SEQ_DO_KP_SET10                ;
 4496 00000774 AFEC                   M           BRA     _SEQ_DO_KP_SET10
 4497 00000776 0009                   M           NOP
 4498                             808     
 4499                                     ***** BEGIN-POOL *****
 4500 00000778 0001                       DATA FOR SOURCE-LINE 788
 4501 0000077A 0000                       ALIGNMENT CODE
 4502 0000077C 00000000                   DATA FOR SOURCE-LINE 769
 4503 00000780 00000000                   DATA FOR SOURCE-LINE 771
 4504 00000784 00000000                   DATA FOR SOURCE-LINE 774
 4505 00000788 00000000                   DATA FOR SOURCE-LINE 778
 4506 0000078C 00000000                   DATA FOR SOURCE-LINE 780
 4507 00000790 00000008                   DATA FOR SOURCE-LINE 781
 4508 00000794 00000002                   DATA FOR SOURCE-LINE 793
 4509                                     ***** END-POOL *****
 4510 00000798                    809     _SEQ_DO_KP_SET20:
 4511                             810             SUB_END
 4512                                 M   ;;;;;;; ADD     #4,R15                  ;[不要?]
 4513 00000798 4F26                   M           LDS.L   @R15+,PR                ;[必要]
 4514                             811             M_RTS
 4515 0000079A 000B                   M           RTS                             ;RTSの後ろの
 4516 0000079C 0009                   M           NOP                             ;@R15+,PRはﾀﾞﾒ
 4517                             812     
 4518                             813     ;********************************************************************
 4519                             814     ;* FUNCTION     : Y領域(実出力)情報更新処理
 4520                             815     ;* DATE         : 09/11/20 Akiba
 4521                             816     ;* UPDATE       :
 4522                             817     ;********************************************************************
 4523                             818     ;;[koma]        .IMPORT         _do_dat1                ;ﾃﾞｼﾞﾀﾙ出力
 4524                             819     
 4525 000007A0                    820             .ALIGN  4
 4526                             821     
 4527 000007A0                    822     _SEQ_DO_RIF:
 4528                             823             SUB_START
 4529 000007A0 4F22                   M           STS.L   PR,@-R15                ;[必要]
 4530                                 M   ;;;;;;; ADD     #-4,R15                 ;[不要?]
 4531                             824     
 4532                             825     ;;[koma]        MOV.L   #_DO_Y_TOP2,R1                  ; do_dat1へ出力する
 4533                             826     ;;[koma]        MOV.W   @R1,R0                          ;
 4534                             827     ;;[koma]        MOV.L   #_do_dat1,R1                    ;
 4535                             828     ;;[koma]        MOV.W   R0,@R1                          ;
 4536                             829     
 4537                             830             SUB_END
 4538                                 M   ;;;;;;; ADD     #4,R15                  ;[不要?]
 4539 000007A2 4F26                   M           LDS.L   @R15+,PR                ;[必要]
 4540                             831             M_RTS
 4541 000007A4 000B                   M           RTS                             ;RTSの後ろの
 4542 000007A6 0009                   M           NOP                             ;@R15+,PRはﾀﾞﾒ
 4543                             832     
 4544                             833     ;********************************************************************
 4545                             834     ;* FUNCTION     : POU1 実行側の処理
*** SuperH RISC engine ASSEMBLER V.7.01.02.000 ***    07/04/21 19:29:14                                                  PAGE    40
PROGRAM NAME =

 4546                             835     ;* DATE         : 09/11/20 Akiba
 4547                             836     ;* UPDATE       :
 4548                             837     ;********************************************************************
 4549 000007A8                    838             .ALIGN  4
 4550                             839     
 4551 000007A8                    840     _SEQ_REG_START_SET1:
 4552                             841             SUB_START
 4553 000007A8 4F22                   M           STS.L   PR,@-R15                ;[必要]
 4554                                 M   ;;;;;;; ADD     #-4,R15                 ;[不要?]
 4555                             842     
 4556 000007AA E500               843             MOV.B   #0,A_REG                        ; "ｼｰｹﾝｽ開始時 毎ｽｷｬﾝ 0000,0000,0000,0000"
 4557 000007AC E601               844             MOV.B   #BIT0,N_REG                     ; "ｼｰｹﾝｽ開始時 毎ｽｷｬﾝ 0000,0000,0000,0001"
                                          *
 4558 000007AE E700               845             MOV.B   #0,M_REG                        ; "ｼｰｹﾝｽ開始時 毎ｽｷｬﾝ 0000,0000,0000,0000"
 4559 000007B0 D807               846             MOV.L   #0,D_REG                        ;
 4560                             847     
 4561 000007B2 D408               848             MOV.L   #_SEQ_ARG1_DATA,R4              ; ARG=1
 4562 000007B4 2451               849             MOV.W   A_REG,@R4                       ;
 4563                             850     
 4564 000007B6 D408               851             MOV.L   #_SEQ_NRG1_DATA,R4              ; NRG=1
 4565 000007B8 2460               852             MOV.B   N_REG,@R4                       ;
 4566                             853     
 4567 000007BA D408               854             MOV.L   #_SEQ_MRG1_DATA,R4              ; MRG=0
 4568 000007BC 2470               855             MOV.B   M_REG,@R4                       ;
 4569                             856     
 4570 000007BE D408               857             MOV.L   #_SEQ_DRG1_DATA,R4              ; DATA REG=0
 4571 000007C0 2482               858             MOV.L   D_REG,@R4                       ;
 4572                             859     
 4573                             860     
 4574 000007C2 DE08               861             MOV.L   #_SEQ_CARD_RAM,TOP_REG          ; =GBR=_SEQ_CARD_RAM
 4575 000007C4 4E1E               862             LDC     TOP_REG,GBR                     ;
 4576                             863     
 4577 000007C6 DB08               864             MOV.L   #_SEQ_CALL_TBL1,CTBL_REG        ; CALL_TABLE=
 4578 000007C8 DC08               865             MOV.L   #_SEQ_DATA_TBL1,DTBL_REG        ; DATA_TABLE=
 4579                             866     
 4580                             867             SUB_END
 4581                                 M   ;;;;;;; ADD     #4,R15                  ;[不要?]
 4582 000007CA 4F26                   M           LDS.L   @R15+,PR                ;[必要]
 4583                             868             M_RTS
 4584 000007CC 000B                   M           RTS                             ;RTSの後ろの
 4585 000007CE 0009                   M           NOP                             ;@R15+,PRはﾀﾞﾒ
 4586                             869     
 4587                             870     ;********************************************************************
 4588                             871     ;* FUNCTION     : POU2 実行側の処理
 4589                             872     ;* DATE         : 09/11/20 Akiba
 4590                             873     ;* UPDATE       :
 4591                             874     ;********************************************************************
 4592                                     ***** BEGIN-POOL *****
 4593 000007D0 00000000                   DATA FOR SOURCE-LINE 846
 4594 000007D4 00000000                   DATA FOR SOURCE-LINE 848
 4595 000007D8 00000000                   DATA FOR SOURCE-LINE 851
 4596 000007DC 00000000                   DATA FOR SOURCE-LINE 854
 4597 000007E0 00000000                   DATA FOR SOURCE-LINE 857
 4598 000007E4 00000000                   DATA FOR SOURCE-LINE 861
 4599 000007E8 00000000                   DATA FOR SOURCE-LINE 864
 4600 000007EC 00000000                   DATA FOR SOURCE-LINE 865
 4601                                     ***** END-POOL *****
*** SuperH RISC engine ASSEMBLER V.7.01.02.000 ***    07/04/21 19:29:14                                                  PAGE    41
PROGRAM NAME =

 4602 000007F0                    875             .ALIGN  4
 4603                             876     
 4604 000007F0                    877     _SEQ_REG_START_SET2:
 4605                             878             SUB_START
 4606 000007F0 4F22                   M           STS.L   PR,@-R15                ;[必要]
 4607                                 M   ;;;;;;; ADD     #-4,R15                 ;[不要?]
 4608                             879     
 4609 000007F2 E500               880             MOV.B   #0,A_REG                        ; "ｼｰｹﾝｽ開始時 毎ｽｷｬﾝ 0000,0000,0000,0000"
 4610 000007F4 E601               881             MOV.B   #BIT0,N_REG                     ; "ｼｰｹﾝｽ開始時 毎ｽｷｬﾝ 0000,0000,0000,0001"
                                          *
 4611 000007F6 E700               882             MOV.B   #0,M_REG                        ; "ｼｰｹﾝｽ開始時 毎ｽｷｬﾝ 0000,0000,0000,0000"
 4612 000007F8 D807               883             MOV.L   #0,D_REG                        ;
 4613                             884     
 4614 000007FA D408               885             MOV.L   #_SEQ_ARG2_DATA,R4              ; ARG=1
 4615 000007FC 2451               886             MOV.W   A_REG,@R4                       ;
 4616                             887     
 4617 000007FE D408               888             MOV.L   #_SEQ_NRG2_DATA,R4              ; NRG=1
 4618 00000800 2460               889             MOV.B   N_REG,@R4                       ;
 4619                             890     
 4620 00000802 D408               891             MOV.L   #_SEQ_MRG2_DATA,R4              ; MRG=0
 4621 00000804 2470               892             MOV.B   M_REG,@R4                       ;
 4622                             893     
 4623 00000806 D408               894             MOV.L   #_SEQ_DRG2_DATA,R4              ; DATA REG=0
 4624 00000808 2482               895             MOV.L   D_REG,@R4                       ;
 4625                             896     
 4626                             897     
 4627 0000080A DE08               898             MOV.L   #_SEQ_CARD_RAM,TOP_REG          ; =GBR=_SEQ_CARD_RAM
 4628 0000080C 4E1E               899             LDC     TOP_REG,GBR                     ;
 4629                             900     
 4630 0000080E DB08               901             MOV.L   #_SEQ_CALL_TBL1,CTBL_REG        ; CALL_TABLE=
 4631 00000810 DC08               902             MOV.L   #_SEQ_DATA_TBL1,DTBL_REG        ; DATA_TABLE=
 4632                             903     
 4633                             904             SUB_END
 4634                                 M   ;;;;;;; ADD     #4,R15                  ;[不要?]
 4635 00000812 4F26                   M           LDS.L   @R15+,PR                ;[必要]
 4636                             905             M_RTS
 4637 00000814 000B                   M           RTS                             ;RTSの後ろの
 4638 00000816 0009                   M           NOP                             ;@R15+,PRはﾀﾞﾒ
 4639                             906     
 4640                             907     ;********************************************************************
 4641                             908     ;* FUNCTION     : POU3 実行側の処理
 4642                             909     ;* DATE         : 09/11/20 Akiba
 4643                             910     ;* UPDATE       :
 4644                             911     ;********************************************************************
 4645                                     ***** BEGIN-POOL *****
 4646 00000818 00000000                   DATA FOR SOURCE-LINE 883
 4647 0000081C 00000000                   DATA FOR SOURCE-LINE 885
 4648 00000820 00000000                   DATA FOR SOURCE-LINE 888
 4649 00000824 00000000                   DATA FOR SOURCE-LINE 891
 4650 00000828 00000000                   DATA FOR SOURCE-LINE 894
 4651 0000082C 00000000                   DATA FOR SOURCE-LINE 898
 4652 00000830 00000000                   DATA FOR SOURCE-LINE 901
 4653 00000834 00000000                   DATA FOR SOURCE-LINE 902
 4654                                     ***** END-POOL *****
 4655 00000838                    912             .ALIGN  4
 4656                             913     
 4657 00000838                    914     _SEQ_REG_START_SET3:
*** SuperH RISC engine ASSEMBLER V.7.01.02.000 ***    07/04/21 19:29:14                                                  PAGE    42
PROGRAM NAME =

 4658                             915             SUB_START
 4659 00000838 4F22                   M           STS.L   PR,@-R15                ;[必要]
 4660                                 M   ;;;;;;; ADD     #-4,R15                 ;[不要?]
 4661                             916     
 4662 0000083A E500               917             MOV.B   #0,A_REG                        ; "ｼｰｹﾝｽ開始時 毎ｽｷｬﾝ 0000,0000,0000,0000"
 4663 0000083C E601               918             MOV.B   #BIT0,N_REG                     ; "ｼｰｹﾝｽ開始時 毎ｽｷｬﾝ 0000,0000,0000,0001"
                                          *
 4664 0000083E E700               919             MOV.B   #0,M_REG                        ; "ｼｰｹﾝｽ開始時 毎ｽｷｬﾝ 0000,0000,0000,0000"
 4665 00000840 D807               920             MOV.L   #0,D_REG                        ;
 4666                             921     
 4667 00000842 D408               922             MOV.L   #_SEQ_ARG3_DATA,R4              ; ARG=1
 4668 00000844 2451               923             MOV.W   A_REG,@R4                       ;
 4669                             924     
 4670 00000846 D408               925             MOV.L   #_SEQ_NRG3_DATA,R4              ; NRG=1
 4671 00000848 2460               926             MOV.B   N_REG,@R4                       ;
 4672                             927     
 4673 0000084A D408               928             MOV.L   #_SEQ_MRG3_DATA,R4              ; MRG=0
 4674 0000084C 2470               929             MOV.B   M_REG,@R4                       ;
 4675                             930     
 4676 0000084E D408               931             MOV.L   #_SEQ_DRG3_DATA,R4              ; DATA REG=0
 4677 00000850 2482               932             MOV.L   D_REG,@R4                       ;
 4678                             933     
 4679                             934     
 4680 00000852 DE08               935             MOV.L   #_SEQ_CARD_RAM,TOP_REG          ; =GBR=_SEQ_CARD_RAM
 4681 00000854 4E1E               936             LDC     TOP_REG,GBR                     ;
 4682                             937     
 4683 00000856 DB08               938             MOV.L   #_SEQ_CALL_TBL1,CTBL_REG        ; CALL_TABLE=
 4684 00000858 DC08               939             MOV.L   #_SEQ_DATA_TBL1,DTBL_REG        ; DATA_TABLE=
 4685                             940     
 4686                             941             SUB_END
 4687                                 M   ;;;;;;; ADD     #4,R15                  ;[不要?]
 4688 0000085A 4F26                   M           LDS.L   @R15+,PR                ;[必要]
 4689                             942             M_RTS
 4690 0000085C 000B                   M           RTS                             ;RTSの後ろの
 4691 0000085E 0009                   M           NOP                             ;@R15+,PRはﾀﾞﾒ
 4692                             943     
 4693                                     ***** BEGIN-POOL *****
 4694 00000860 00000000                   DATA FOR SOURCE-LINE 920
 4695 00000864 00000000                   DATA FOR SOURCE-LINE 922
 4696 00000868 00000000                   DATA FOR SOURCE-LINE 925
 4697 0000086C 00000000                   DATA FOR SOURCE-LINE 928
 4698 00000870 00000000                   DATA FOR SOURCE-LINE 931
 4699 00000874 00000000                   DATA FOR SOURCE-LINE 935
 4700 00000878 00000000                   DATA FOR SOURCE-LINE 938
 4701 0000087C 00000000                   DATA FOR SOURCE-LINE 939
 4702                                     ***** END-POOL *****
 4703                             944             .END
  *****TOTAL ERRORS       0
  *****TOTAL WARNINGS     0
*** SuperH RISC engine ASSEMBLER V.7.01.02.000 ***    07/04/21 19:29:14                                                  PAGE    43

*** CROSS REFERENCE LIST

NAME                             SECTION  ATTR VALUE             SEQUENCE

ADDL_ADR                                  IMPT 00000000   1996 
ADDL_OFS                                  IMPT 00000000   1997 
ADDWI_DT_LH                               IMPT 00000000   2001 
ADDWI_DT_LL                               IMPT 00000000   2002 
ADDW_ADR                                  IMPT 00000000   1991 
ADDW_OFS                                  IMPT 00000000   1992 
ANDL_ADR                                  IMPT 00000000   2026 
ANDL_OFS                                  IMPT 00000000   2027 
ANDN_ADR                                  IMPT 00000000   1782 
ANDN_BIT                                  IMPT 00000000   1784 
ANDN_OFS                                  IMPT 00000000   1783 
ANDWI_DT_LH                               IMPT 00000000   2031 
ANDWI_DT_LL                               IMPT 00000000   2032 
ANDW_ADR                                  IMPT 00000000   2021 
ANDW_OFS                                  IMPT 00000000   2022 
AND_ADR                                   IMPT 00000000   1776 
AND_BIT                                   IMPT 00000000   1778 
AND_OFS                                   IMPT 00000000   1777 
A_REG                                     REG             2320* 4556  4562  4609  4615  4662  4668 
BIT0                                      EQU  00000001     19* 2592  4557  4610  4663 
BIT1                                      EQU  00000002     20* 2613 
BIT10                                     EQU  00000400     29*
BIT11                                     EQU  00000800     30*
BIT12                                     EQU  00001000     31*
BIT13                                     EQU  00002000     32*
BIT14                                     EQU  00004000     33*
BIT15                                     EQU  00008000     34*
BIT16                                     EQU  00010000     35*
BIT17                                     EQU  00020000     36*
BIT18                                     EQU  00040000     37*
BIT19                                     EQU  00080000     38*
BIT2                                      EQU  00000004     21* 2613 
BIT20                                     EQU  00100000     39*
BIT21                                     EQU  00200000     40*
BIT22                                     EQU  00400000     41*
BIT23                                     EQU  00800000     42*
BIT24                                     EQU  01000000     43*
BIT25                                     EQU  02000000     44*
BIT26                                     EQU  04000000     45*
BIT27                                     EQU  08000000     46*
BIT28                                     EQU  10000000     47*
BIT29                                     EQU  20000000     48*
BIT3                                      EQU  00000008     22*
BIT30                                     EQU  40000000     49*
BIT31                                     EQU  80000000     50*
BIT4                                      EQU  00000010     23*
BIT5                                      EQU  00000020     24*
BIT6                                      EQU  00000040     25*
BIT7                                      EQU  00000080     26*
BIT8                                      EQU  00000100     27*
BIT9                                      EQU  00000200     28*
CLR_ADR                                   IMPT 00000000   1854 
CLR_OFS                                   IMPT 00000000   1855 
CTBL_REG                                  REG             2324* 4577  4630  4683 
*** SuperH RISC engine ASSEMBLER V.7.01.02.000 ***    07/04/21 19:29:14                                                  PAGE    44

*** CROSS REFERENCE LIST

NAME                             SECTION  ATTR VALUE             SEQUENCE

DSETLI_DT_HH                              IMPT 00000000   2075 
DSETLI_DT_HL                              IMPT 00000000   2076 
DSETLI_DT_LH                              IMPT 00000000   2077 
DSETLI_DT_LL                              IMPT 00000000   2078 
DSETWI_DT_LH                              IMPT 00000000   1849 
DSETWI_DT_LL                              IMPT 00000000   1850 
DTBL_REG                                  REG             2325* 4578  4631  4684 
D_REG                                     REG             2323* 4559  4571  4612  4624  4665  4677 
EQL_ADR                                   IMPT 00000000   1906 
EQL_OFS                                   IMPT 00000000   1907 
EQWI_DT_LH                                IMPT 00000000   1911 
EQWI_DT_LL                                IMPT 00000000   1912 
EQW_ADR                                   IMPT 00000000   1901 
EQW_OFS                                   IMPT 00000000   1902 
GEL_ADR                                   IMPT 00000000   1951 
GEL_OFS                                   IMPT 00000000   1952 
GEWI_DT_LH                                IMPT 00000000   1956 
GEWI_DT_LL                                IMPT 00000000   1957 
GEW_ADR                                   IMPT 00000000   1946 
GEW_OFS                                   IMPT 00000000   1947 
GTL_ADR                                   IMPT 00000000   1936 
GTL_OFS                                   IMPT 00000000   1937 
GTWI_DT_LH                                IMPT 00000000   1941 
GTWI_DT_LL                                IMPT 00000000   1942 
GTW_ADR                                   IMPT 00000000   1931 
GTW_OFS                                   IMPT 00000000   1932 
H_BYTE                                    EQU  00000000     86*
LDL_ADR                                   IMPT 00000000   1886 
LDL_OFS                                   IMPT 00000000   1887 
LDN_ADR                                   IMPT 00000000   1770 
LDN_BIT                                   IMPT 00000000   1772 
LDN_OFS                                   IMPT 00000000   1771 
LDW_ADR                                   IMPT 00000000   1881 
LDW_OFS                                   IMPT 00000000   1882 
LD_ADR                                    IMPT 00000000   1764 
LD_BIT                                    IMPT 00000000   1766 
LD_OFS                                    IMPT 00000000   1765 
LEL_ADR                                   IMPT 00000000   1981 
LEL_OFS                                   IMPT 00000000   1982 
LEWI_DT_LH                                IMPT 00000000   1986 
LEWI_DT_LL                                IMPT 00000000   1987 
LEW_ADR                                   IMPT 00000000   1976 
LEW_OFS                                   IMPT 00000000   1977 
LTL_ADR                                   IMPT 00000000   1966 
LTL_OFS                                   IMPT 00000000   1967 
LTWI_DT_LH                                IMPT 00000000   1971 
LTWI_DT_LL                                IMPT 00000000   1972 
LTW_ADR                                   IMPT 00000000   1961 
LTW_OFS                                   IMPT 00000000   1962 
L_BYTE                                    EQU  00000001     85*
M_REG                                     REG             2322* 4558  4568  4611  4621  4664  4674 
NBIT0                                     EQU  000000FE     53*
NBIT1                                     EQU  000000FD     54*
NBIT10                                    EQU  0000FBFF     64*
*** SuperH RISC engine ASSEMBLER V.7.01.02.000 ***    07/04/21 19:29:14                                                  PAGE    45

*** CROSS REFERENCE LIST

NAME                             SECTION  ATTR VALUE             SEQUENCE

NBIT11                                    EQU  0000F7FF     65*
NBIT12                                    EQU  0000EFFF     66*
NBIT13                                    EQU  0000DFFF     67*
NBIT14                                    EQU  0000BFFF     68*
NBIT15                                    EQU  00007FFF     69*
NBIT2                                     EQU  000000FB     55*
NBIT3                                     EQU  000000F7     56*
NBIT4                                     EQU  000000EF     57*
NBIT5                                     EQU  000000DF     58*
NBIT6                                     EQU  000000BF     59*
NBIT7                                     EQU  0000007F     60*
NBIT8                                     EQU  0000FEFF     62*
NBIT9                                     EQU  0000FDFF     63*
NEL_ADR                                   IMPT 00000000   1921 
NEL_OFS                                   IMPT 00000000   1922 
NEWI_DT_LH                                IMPT 00000000   1926 
NEWI_DT_LL                                IMPT 00000000   1927 
NEW_ADR                                   IMPT 00000000   1916 
NEW_OFS                                   IMPT 00000000   1917 
N_REG                                     REG             2321* 4557  4565  4610  4618  4663  4671 
ORL_ADR                                   IMPT 00000000   2041 
ORL_OFS                                   IMPT 00000000   2042 
ORN_ADR                                   IMPT 00000000   1794 
ORN_BIT                                   IMPT 00000000   1796 
ORN_OFS                                   IMPT 00000000   1795 
ORWI_DT_LH                                IMPT 00000000   2046 
ORWI_DT_LL                                IMPT 00000000   2047 
ORW_ADR                                   IMPT 00000000   2036 
ORW_OFS                                   IMPT 00000000   2037 
OR_ADR                                    IMPT 00000000   1788 
OR_BIT                                    IMPT 00000000   1790 
OR_OFS                                    IMPT 00000000   1789 
P                                P        SCT  00000000   2339*
PLF_ADR                                   IMPT 00000000   1825 
PLF_BIT                                   IMPT 00000000   1827 
PLF_OFS                                   IMPT 00000000   1826 
PLS_ADR                                   IMPT 00000000   1819 
PLS_BIT                                   IMPT 00000000   1821 
PLS_OFS                                   IMPT 00000000   1820 
R0_REG                                    REG             2329*
R10_REG                                   REG             2335*
R1_REG                                    REG             2330*
R2_REG                                    REG             2331*
R3_REG                                    REG             2332*
R4_REG                                    REG             2333*
R9_REG                                    REG             2334*
RSTCD_SETBIT                              IMPT 00000000   1815 
RST_ADR                                   IMPT 00000000   1813 
RST_OFS                                   IMPT 00000000   1814 
SEQ_MAIN_100                     P             000001B2   2797*
SETCD_SETBIT                              IMPT 00000000   1809 
SET_ADR                                   IMPT 00000000   1807 
SET_OFS                                   IMPT 00000000   1808 
STCD_CLRBIT                               IMPT 00000000   1803 
*** SuperH RISC engine ASSEMBLER V.7.01.02.000 ***    07/04/21 19:29:14                                                  PAGE    46

*** CROSS REFERENCE LIST

NAME                             SECTION  ATTR VALUE             SEQUENCE

STCD_SETBIT                               IMPT 00000000   1802 
STL_ADR                                   IMPT 00000000   1896 
STL_OFS                                   IMPT 00000000   1897 
STW_ADR                                   IMPT 00000000   1891 
STW_OFS                                   IMPT 00000000   1892 
ST_ADR                                    IMPT 00000000   1800 
ST_OFS                                    IMPT 00000000   1801 
SUBL_ADR                                  IMPT 00000000   2011 
SUBL_OFS                                  IMPT 00000000   2012 
SUBWI_DT_LH                               IMPT 00000000   2016 
SUBWI_DT_LL                               IMPT 00000000   2017 
SUBW_ADR                                  IMPT 00000000   2006 
SUBW_OFS                                  IMPT 00000000   2007 
TOP_REG                                   REG             2326* 4574  4575  4627  4628  4680  4681 
WCTR_UNH                                  IMPT 00000000   1865 
WCTR_UNL                                  IMPT 00000000   1866 
WSC_ADR                                   IMPT 00000000   1870 
WSC_BTD                                   IMPT 00000000   1872 
WSC_OFS                                   IMPT 00000000   1871 
WSR_ADR                                   IMPT 00000000   1876 
WSR_OFS                                   IMPT 00000000   1877 
WTMR_DGT                                  IMPT 00000000   1861 
WTMR_UNH                                  IMPT 00000000   1859 
WTMR_UNL                                  IMPT 00000000   1860 
XBIT0                                     EQU  00000000     72*
XBIT1                                     EQU  00000001     73*
XBIT2                                     EQU  00000002     74*
XBIT3                                     EQU  00000003     75*
XBIT4                                     EQU  00000004     76*
XBIT5                                     EQU  00000005     77*
XBIT6                                     EQU  00000006     78*
XBIT7                                     EQU  00000007     79*
XORL_ADR                                  IMPT 00000000   2056 
XORL_OFS                                  IMPT 00000000   2057 
XORWI_DT_LH                               IMPT 00000000   2061 
XORWI_DT_LL                               IMPT 00000000   2062 
XORW_ADR                                  IMPT 00000000   2051 
XORW_OFS                                  IMPT 00000000   2052 
_ADDL_CHG                                 IMPT 00000000   2138 
_ADDL_CODE                                IMPT 00000000   1995 
_ADDL_CODE_END                            IMPT 00000000   1998 
_ADDWI_CHG                                IMPT 00000000   2139 
_ADDWI_CODE                               IMPT 00000000   2000 
_ADDWI_CODE_END                           IMPT 00000000   2003 
_ADDW_CHG                                 IMPT 00000000   2137 
_ADDW_CODE                                IMPT 00000000   1990 
_ADDW_CODE_END                            IMPT 00000000   1993 
_ADD_CODE                                 IMPT 00000000   2065 
_ADD_CODE_END                             IMPT 00000000   2066 
_ADD_SUB                                  IMPT 00000000   1749 
_AMRG_CHG                                 IMPT 00000000   2105 
_AMRG_CODE                                IMPT 00000000   1830 
_AMRG_CODE_END                            IMPT 00000000   1831 
_ANDL_CHG                                 IMPT 00000000   2146 
*** SuperH RISC engine ASSEMBLER V.7.01.02.000 ***    07/04/21 19:29:14                                                  PAGE    47

*** CROSS REFERENCE LIST

NAME                             SECTION  ATTR VALUE             SEQUENCE

_ANDL_CODE                                IMPT 00000000   2025 
_ANDL_CODE_END                            IMPT 00000000   2028 
_ANDN_CHG                                 IMPT 00000000   2090 
_ANDN_CODE                                IMPT 00000000   1781 
_ANDN_CODE_END                            IMPT 00000000   1785 
_ANDWI_CHG                                IMPT 00000000   2147 
_ANDWI_CODE                               IMPT 00000000   2030 
_ANDWI_CODE_END                           IMPT 00000000   2033 
_ANDW_CHG                                 IMPT 00000000   2145 
_ANDW_CODE                                IMPT 00000000   2020 
_ANDW_CODE_END                            IMPT 00000000   2023 
_ANDW_SUB                                 IMPT 00000000   1746 
_AND_CHG                                  IMPT 00000000   2089 
_AND_CODE                                 IMPT 00000000   1775 
_AND_CODE_END                             IMPT 00000000   1779 
_CB_BAKUP_CMD1                            EQU  00005678    118*
_CB_BAKUP_CMD2                            EQU  00001234    119*
_CB_BAK_SUM_COD1                          EQU  5AA51234    116*
_CB_BAK_SUM_COD2                          EQU  A55A4321    117*
_CB_ERR_INFO_MEM                          EQU  00000080    142*
_CB_ERR_INFO_PSIZE                        EQU  00000008    143*
_CB_STS_BUF_1BLK                          EQU  00000040    121*  123 
_CB_STS_BUF_BLKMAX                        EQU  00000008    122*  123 
_CB_STS_BUF_MAX                           EQU  00000200    123*
_CB_TRD_BEFORE                            EQU  00000060    131*
_CB_TRD_BUF_DP_MAX                        EQU  00000080    135*
_CB_TRD_BUF_MAX                           EQU  00000800    132*
_CB_TRD_DP_1CNT                           EQU  00000008    134*
_CB_TRD_DP_CH                             EQU  00000004    127*
_CB_TRD_SMP_CNT                           EQU  00000080    130*
_CLR_CHG                                  IMPT 00000000   2103 
_CLR_CODE                                 IMPT 00000000   1853 
_CLR_CODE_END                             IMPT 00000000   1856 
_CLR_SUB                                  IMPT 00000000   1735 
_DI_X_TOP1                                IMPT 00000000   1700  4171 
_DI_X_TOP2                                IMPT 00000000   1701  3511  3723  3947  4180 
_DO_Y_TOP1                                IMPT 00000000   1702  4405  4457 
_DO_Y_TOP2                                IMPT 00000000   1703  4466 
_DSETLI_CHG                               IMPT 00000000   2155 
_DSETLI_CODE                              IMPT 00000000   2074 
_DSETLI_CODE_END                          IMPT 00000000   2079 
_DSETWI_CHG                               IMPT 00000000   2104 
_DSETWI_CODE                              IMPT 00000000   1848 
_DSETWI_CODE_END                          IMPT 00000000   1851 
_DUMMY_SUM_CODE                           EQU  5AA53CC3    109*
_ENDNRG_CHG                               IMPT 00000000   2110 
_ENDNRG_CODE                              IMPT 00000000   1845 
_ENDNRG_CODE_END                          IMPT 00000000   1846 
_END_CHG                                  IMPT 00000000   2111 
_END_CODE                                 IMPT 00000000   2071 
_END_CODE_END                             IMPT 00000000   2072 
_END_SUB                                  IMPT 00000000   1751 
_EQL_CHG                                  IMPT 00000000   2119 
_EQL_CODE                                 IMPT 00000000   1905 
*** SuperH RISC engine ASSEMBLER V.7.01.02.000 ***    07/04/21 19:29:14                                                  PAGE    48

*** CROSS REFERENCE LIST

NAME                             SECTION  ATTR VALUE             SEQUENCE

_EQL_CODE_END                             IMPT 00000000   1908 
_EQWI_CHG                                 IMPT 00000000   2120 
_EQWI_CODE                                IMPT 00000000   1910 
_EQWI_CODE_END                            IMPT 00000000   1913 
_EQW_CHG                                  IMPT 00000000   2118 
_EQW_CODE                                 IMPT 00000000   1900 
_EQW_CODE_END                             IMPT 00000000   1903 
_EQ_SUB                                   IMPT 00000000   1742 
_GEL_CHG                                  IMPT 00000000   2128 
_GEL_CODE                                 IMPT 00000000   1950 
_GEL_CODE_END                             IMPT 00000000   1953 
_GEWI_CHG                                 IMPT 00000000   2129 
_GEWI_CODE                                IMPT 00000000   1955 
_GEWI_CODE_END                            IMPT 00000000   1958 
_GEW_CHG                                  IMPT 00000000   2127 
_GEW_CODE                                 IMPT 00000000   1945 
_GEW_CODE_END                             IMPT 00000000   1948 
_GTL_CHG                                  IMPT 00000000   2125 
_GTL_CODE                                 IMPT 00000000   1935 
_GTL_CODE_END                             IMPT 00000000   1938 
_GTWI_CHG                                 IMPT 00000000   2126 
_GTWI_CODE                                IMPT 00000000   1940 
_GTWI_CODE_END                            IMPT 00000000   1943 
_GTW_CHG                                  IMPT 00000000   2124 
_GTW_CODE                                 IMPT 00000000   1930 
_GTW_CODE_END                             IMPT 00000000   1933 
_GT_SUB                                   IMPT 00000000   1744 
_LDL_CHG                                  IMPT 00000000   2114 
_LDL_CODE                                 IMPT 00000000   1885 
_LDL_CODE_END                             IMPT 00000000   1888 
_LDNRG_CHG                                IMPT 00000000   2109 
_LDNRG_CODE                               IMPT 00000000   1842 
_LDNRG_CODE_END                           IMPT 00000000   1843 
_LDN_CHG                                  IMPT 00000000   2088 
_LDN_CODE                                 IMPT 00000000   1769 
_LDN_CODE_END                             IMPT 00000000   1773 
_LDON_CHG                                 IMPT 00000000   2086 
_LDON_CODE                                IMPT 00000000   1760 
_LDON_CODE_END                            IMPT 00000000   1761 
_LDW_CHG                                  IMPT 00000000   2113 
_LDW_CODE                                 IMPT 00000000   1880 
_LDW_CODE_END                             IMPT 00000000   1883 
_LDW_SUB                                  IMPT 00000000   1740 
_LD_CHG                                   IMPT 00000000   2087 
_LD_CODE                                  IMPT 00000000   1763 
_LD_CODE_END                              IMPT 00000000   1767 
_LEL_CHG                                  IMPT 00000000   2135 
_LEL_CODE                                 IMPT 00000000   1980 
_LEL_CODE_END                             IMPT 00000000   1983 
_LEWI_CHG                                 IMPT 00000000   2136 
_LEWI_CODE                                IMPT 00000000   1985 
_LEWI_CODE_END                            IMPT 00000000   1988 
_LEW_CHG                                  IMPT 00000000   2134 
_LEW_CODE                                 IMPT 00000000   1975 
*** SuperH RISC engine ASSEMBLER V.7.01.02.000 ***    07/04/21 19:29:14                                                  PAGE    49

*** CROSS REFERENCE LIST

NAME                             SECTION  ATTR VALUE             SEQUENCE

_LEW_CODE_END                             IMPT 00000000   1978 
_LE_SUB                                   IMPT 00000000   1745 
_LTL_CHG                                  IMPT 00000000   2132 
_LTL_CODE                                 IMPT 00000000   1965 
_LTL_CODE_END                             IMPT 00000000   1968 
_LTWI_CHG                                 IMPT 00000000   2133 
_LTWI_CODE                                IMPT 00000000   1970 
_LTWI_CODE_END                            IMPT 00000000   1973 
_LTW_CHG                                  IMPT 00000000   2131 
_LTW_CODE                                 IMPT 00000000   1960 
_LTW_CODE_END                             IMPT 00000000   1963 
_MKIND_A                                  EQU  00000040   2296*
_MKIND_A_ADR                              EQU  00001610   2295*
_MKIND_C                                  EQU  00000040   2278* 2279 
_MKIND_CD                                 EQU  00000400   2282* 2283 
_MKIND_CD_ADR                             EQU  00000900   2281* 2283 
_MKIND_C_ADR                              EQU  000004C0   2277* 2279 
_MKIND_F                                  EQU  00000110   2292* 2293 
_MKIND_F_ADR                              EQU  00000D00   2291* 2293 
_MKIND_L                                  EQU  00000040   2274* 2275 
_MKIND_L_ADR                              EQU  00000440   2273* 2275 
_MKIND_M                                  EQU  00000400   2272* 2273 
_MKIND_M_ADR                              EQU  00000040   2271* 2273 
_MKIND_S                                  EQU  00000800   2294* 2295 
_MKIND_S_ADR                              EQU  00000E10   2293* 2295 
_MKIND_T                                  EQU  00000040   2276* 2277 
_MKIND_TBL                                IMPT 00000000   2185 
_MKIND_TBL_TOP                            IMPT 00000000   2186 
_MKIND_TD                                 EQU  00000400   2280* 2281 
_MKIND_TD_ADR                             EQU  00000500   2279* 2281 
_MKIND_T_ADR                              EQU  00000480   2275* 2277 
_MKIND_W0                                 EQU  00000000   2266* 2267 
_MKIND_W0_ADR                             EQU  00000000   2265*
_MKIND_W1                                 EQU  00000000   2284* 2285 
_MKIND_W1_ADR                             EQU  00000D00   2283* 2285 
_MKIND_W2                                 EQU  00000000   2286* 2287 
_MKIND_W2_ADR                             EQU  00000D00   2285* 2287 
_MKIND_W3                                 EQU  00000000   2288* 2289 
_MKIND_W3_ADR                             EQU  00000D00   2287* 2289 
_MKIND_W4                                 EQU  00000000   2290* 2291 
_MKIND_W4_ADR                             EQU  00000D00   2289* 2291 
_MKIND_X                                  EQU  00000020   2268* 2269 
_MKIND_X_ADR                              EQU  00000000   2267* 2269 
_MKIND_Y                                  EQU  00000020   2270* 2271 
_MKIND_Y_ADR                              EQU  00000020   2269* 2271 
_NEL_CHG                                  IMPT 00000000   2122 
_NEL_CODE                                 IMPT 00000000   1920 
_NEL_CODE_END                             IMPT 00000000   1923 
_NEWI_CHG                                 IMPT 00000000   2123 
_NEWI_CODE                                IMPT 00000000   1925 
_NEWI_CODE_END                            IMPT 00000000   1928 
_NEW_CHG                                  IMPT 00000000   2121 
_NEW_CODE                                 IMPT 00000000   1915 
_NEW_CODE_END                             IMPT 00000000   1918 
*** SuperH RISC engine ASSEMBLER V.7.01.02.000 ***    07/04/21 19:29:14                                                  PAGE    50

*** CROSS REFERENCE LIST

NAME                             SECTION  ATTR VALUE             SEQUENCE

_NE_SUB                                   IMPT 00000000   1743 
_NOP_CHG                                  IMPT 00000000   2085 
_NOP_CODE                                 IMPT 00000000   1757 
_NOP_CODE_END                             IMPT 00000000   1758 
_OMRG_CHG                                 IMPT 00000000   2106 
_OMRG_CODE                                IMPT 00000000   1833 
_OMRG_CODE_END                            IMPT 00000000   1834 
_ORL_CHG                                  IMPT 00000000   2149 
_ORL_CODE                                 IMPT 00000000   2040 
_ORL_CODE_END                             IMPT 00000000   2043 
_ORN_CHG                                  IMPT 00000000   2092 
_ORN_CODE                                 IMPT 00000000   1793 
_ORN_CODE_END                             IMPT 00000000   1797 
_ORWI_CHG                                 IMPT 00000000   2150 
_ORWI_CODE                                IMPT 00000000   2045 
_ORWI_CODE_END                            IMPT 00000000   2048 
_ORW_CHG                                  IMPT 00000000   2148 
_ORW_CODE                                 IMPT 00000000   2035 
_ORW_CODE_END                             IMPT 00000000   2038 
_ORW_SUB                                  IMPT 00000000   1747 
_OR_CHG                                   IMPT 00000000   2091 
_OR_CODE                                  IMPT 00000000   1787 
_OR_CODE_END                              IMPT 00000000   1791 
_PLF_CHG                                  IMPT 00000000   2094 
_PLF_CODE                                 IMPT 00000000   1824 
_PLF_CODE_END                             IMPT 00000000   1828 
_PLF_SUB                                  IMPT 00000000   1734 
_PLS_CHG                                  IMPT 00000000   2093 
_PLS_CODE                                 IMPT 00000000   1818 
_PLS_CODE_END                             IMPT 00000000   1822 
_PLS_SUB                                  IMPT 00000000   1733 
_POP_CHG                                  IMPT 00000000   2108 
_POP_CODE                                 IMPT 00000000   1839 
_POP_CODE_END                             IMPT 00000000   1840 
_PUSH_CHG                                 IMPT 00000000   2107 
_PUSH_CODE                                IMPT 00000000   1836 
_PUSH_CODE_END                            IMPT 00000000   1837 
_RST_CHG                                  IMPT 00000000   2098 
_RST_CODE                                 IMPT 00000000   1812 
_RST_CODE_END                             IMPT 00000000   1816 
_SEQ_ARG1_DATA                            IMPT 00000000   1681  4561 
_SEQ_ARG2_DATA                            IMPT 00000000   1688  4614 
_SEQ_ARG3_DATA                            IMPT 00000000   1695  4667 
_SEQ_ASM_RAM_TOP                          IMPT 00000000   1659 
_SEQ_A_SET                                EQU  00000020   2235* 2296 
_SEQ_BACK_GROUND_INIT            P        EXPT 00000000   2353  2374*
_SEQ_BACK_GROUND_INIT100         P             00000098   2485  2508*
_SEQ_BACK_GROUND_INIT101         P             000000A6   2490  2519*
_SEQ_BACK_GROUND_INIT200         P             000000D4   2527  2543*
_SEQ_BACK_GROUND_INIT201         P             000000E2   2532  2554*
_SEQ_BACK_GROUND_INIT300         P             00000110   2562  2578*
_SEQ_BACK_GROUND_INIT301         P             0000011E   2567  2589*
_SEQ_BACK_GROUND_INIT400         P             00000148   2517  2552  2587  2611*
_SEQ_BACK_GROUND_INIT500         P             00000154   2599  2619*
*** SuperH RISC engine ASSEMBLER V.7.01.02.000 ***    07/04/21 19:29:14                                                  PAGE    51

*** CROSS REFERENCE LIST

NAME                             SECTION  ATTR VALUE             SEQUENCE

_SEQ_BBIT_CHG_TBL                         IMPT 00000000   2166 
_SEQ_CALL_TBL1                            IMPT 00000000   2344  4577  4630  4683 
_SEQ_CARD_MAX                             EQU  00000C00   2236*
_SEQ_CARD_RAM                             IMPT 00000000   1673  4574  4627  4680 
_SEQ_CD_SET                               EQU  00000200   2228* 2282 
_SEQ_CHG_TBL0                             IMPT 00000000   2162 
_SEQ_CMP_ERR1                             IMPT 00000000   1679  2514  3500 
_SEQ_CMP_ERR2                             IMPT 00000000   1686  2549  3718 
_SEQ_CMP_ERR3                             IMPT 00000000   1693  2584  3936 
_SEQ_CMP_ERR_ADR1                         IMPT 00000000   1680 
_SEQ_CMP_ERR_ADR2                         IMPT 00000000   1687 
_SEQ_CMP_ERR_ADR3                         IMPT 00000000   1694 
_SEQ_CMP_START                            IMPT 00000000   1707  2596 
_SEQ_COM1_TOP                             IMPT 00000000   2358  2459 
_SEQ_COM2_TOP                             IMPT 00000000   2359  2466 
_SEQ_COM3_TOP                             IMPT 00000000   2360  2473 
_SEQ_CTR_DATA                             IMPT 00000000   1676 
_SEQ_C_SET                                EQU  00000020   2226* 2228  2278 
_SEQ_DATA_TBL1                            IMPT 00000000   2345  4578  4631  4684 
_SEQ_DI_KP_SET                   P             000005AC   3932  4166*
_SEQ_DI_KP_SET10                 P             000005C8   4185* 4204 
_SEQ_DI_KP_SET20                 P             00000608   4189  4217*
_SEQ_DI_RIF                      P             000005A4   3928  4106*
_SEQ_DO_KP_SET                   P             0000072C   4004  4452*
_SEQ_DO_KP_SET10                 P             00000750   4475* 4496 
_SEQ_DO_KP_SET20                 P             00000798   4479  4510*
_SEQ_DO_RIF                      P             000007A0   4008  4527*
_SEQ_DRG1_DATA                            IMPT 00000000   1684  4570 
_SEQ_DRG2_DATA                            IMPT 00000000   1691  4623 
_SEQ_DRG3_DATA                            IMPT 00000000   1698  4676 
_SEQ_F_SET                                EQU  00000088   2233* 2292 
_SEQ_INIT1                       P             000001DC   2511  2865*
_SEQ_INIT2                       P             00000238   2546  3016*
_SEQ_INIT3                       P             00000294   2581  3167*
_SEQ_LD_TIMOUT                            IMPT 00000000   1715 
_SEQ_L_POP                       P             000002F0   2454  3320*
_SEQ_L_POP10                     P             0000030C   3340* 3352 
_SEQ_L_POP20                     P             00000338   3344  3364*
_SEQ_L_PUSH                      P             00000698   3551  3763  3987  4336*
_SEQ_L_PUSH10                    P             000006B4   4356* 4368 
_SEQ_L_PUSH20                    P             000006E0   4360  4380*
_SEQ_L_SET                                EQU  00000020   2224* 2274  3343  4359 
_SEQ_MAIN                        P        EXPT 0000018C   2354  2694*
_SEQ_MAX_BYTE                             EQU  0000001E   2259*
_SEQ_MRG1_DATA                            IMPT 00000000   1682  4567 
_SEQ_MRG2_DATA                            IMPT 00000000   1689  4620 
_SEQ_MRG3_DATA                            IMPT 00000000   1696  4673 
_SEQ_M_SET                                EQU  00000200   2223* 2272 
_SEQ_NRG1_DATA                            IMPT 00000000   1683  4564 
_SEQ_NRG2_DATA                            IMPT 00000000   1690  4617 
_SEQ_NRG3_DATA                            IMPT 00000000   1697  4670 
_SEQ_POU_RD                      P             00000340   2461  2468  2475  3380*
_SEQ_POU_RD10                    P             00000348   3389* 3402 
_SEQ_POU_RD20                    P             0000036C   3394  3410*
*** SuperH RISC engine ASSEMBLER V.7.01.02.000 ***    07/04/21 19:29:14                                                  PAGE    52

*** CROSS REFERENCE LIST

NAME                             SECTION  ATTR VALUE             SEQUENCE

_SEQ_POU_SET                              EQU  00004000   2260* 3392 
_SEQ_REG_START_SET1              P             000007A8   3518  4551*
_SEQ_REG_START_SET2              P             000007F0   3730  4604*
_SEQ_REG_START_SET3              P             00000838   3954  4657*
_SEQ_RUN1                                 IMPT 00000000   1662 
_SEQ_RUN1_END                             IMPT 00000000   1663 
_SEQ_RUN1_TOP                             IMPT 00000000   1661  3537 
_SEQ_RUN2                                 IMPT 00000000   1666 
_SEQ_RUN2_END                             IMPT 00000000   1667 
_SEQ_RUN2_TOP                             IMPT 00000000   1665  3749 
_SEQ_RUN3                                 IMPT 00000000   1670 
_SEQ_RUN3_END                             IMPT 00000000   1671 
_SEQ_RUN3_TOP                             IMPT 00000000   1669  3973 
_SEQ_RUN_CHG1_ERR_END                     IMPT 00000000   2143 
_SEQ_RUN_CHG1_MAIN                        IMPT 00000000   2346  2941 
_SEQ_RUN_CHG2_MAIN                        IMPT 00000000   2347  3092 
_SEQ_RUN_CHG3_MAIN                        IMPT 00000000   2348  3243 
_SEQ_RUN_MAIN1                   P        EXPT 00000372   3423  3425*
_SEQ_RUN_MAIN1_100               P             000003CA   3525  3555*
_SEQ_RUN_MAIN1_1000              P             000003D2   3503  3562*
_SEQ_RUN_MAIN2                   P        EXPT 00000420   3630  3643*
_SEQ_RUN_MAIN2_1000              P             00000470   3721  3737  3767*
_SEQ_RUN_MAIN3                   P        EXPT 000004B8   3835  3848*
_SEQ_RUN_MAIN3_100               P             00000522   3961  3991*
_SEQ_RUN_MAIN3_1000              P             0000052A   3939  3998*
_SEQ_SR_FLG                               IMPT 00000000   1677 
_SEQ_S_SET                                EQU  00000400   2234* 2294 
_SEQ_TD_SET                               EQU  00000200   2227* 2280 
_SEQ_TIM_WK1000M                          IMPT 00000000   1718 
_SEQ_TIM_WK100M                           IMPT 00000000   1717 
_SEQ_TMR_DATA                             IMPT 00000000   1675 
_SEQ_T_SET                                EQU  00000020   2225* 2227  2276 
_SEQ_W0_SET                               EQU  00000000   2220* 2266 
_SEQ_W1_SET                               EQU  00000000   2229* 2284 
_SEQ_W2_SET                               EQU  00000000   2230* 2286 
_SEQ_W3_SET                               EQU  00000000   2231* 2288 
_SEQ_W4_SET                               EQU  00000000   2232* 2290 
_SEQ_X_POP                       P             00000654   3513  3558  3725  3949  3994  4284*
_SEQ_X_POP10                     P             00000666   4298* 4310 
_SEQ_X_POP20                     P             00000690   4302  4321*
_SEQ_X_PUSH                      P             00000610   3507  3943  4232*
_SEQ_X_PUSH10                    P             00000622   4246* 4258 
_SEQ_X_PUSH20                    P             0000064C   4250  4269*
_SEQ_X_SET                                EQU  00000010   2221* 2268  4183  4244  4296 
_SEQ_Y_MEM_SET                   P             000006E8   4000  4396*
_SEQ_Y_MEM_SET10                 P             000006FA   4410* 4422 
_SEQ_Y_MEM_SET20                 P             00000724   4414  4433*
_SEQ_Y_SET                                EQU  00000010   2222* 2270  4413  4478 
_SET_CHG                                  IMPT 00000000   2097 
_SET_CODE                                 IMPT 00000000   1806 
_SET_CODE_END                             IMPT 00000000   1810 
_SQ_ERR_END                               EQU  0000FF00   2213*
_SQ_NML_COD                               EQU  00000000   2211*
_SQ_NML_END                               EQU  00000055   2212*
*** SuperH RISC engine ASSEMBLER V.7.01.02.000 ***    07/04/21 19:29:14                                                  PAGE    53

*** CROSS REFERENCE LIST

NAME                             SECTION  ATTR VALUE             SEQUENCE

_START_ACK_COD                            EQU  00004321    217*
_START_REQ_COD                            EQU  00009876    216*
_STL_CHG                                  IMPT 00000000   2116 
_STL_CODE                                 IMPT 00000000   1895 
_STL_CODE_END                             IMPT 00000000   1898 
_STW_CHG                                  IMPT 00000000   2115 
_STW_CODE                                 IMPT 00000000   1890 
_STW_CODE_END                             IMPT 00000000   1893 
_STW_SUB                                  IMPT 00000000   1741 
_ST_CHG                                   IMPT 00000000   2095 
_ST_CODE                                  IMPT 00000000   1799 
_ST_CODE_END                              IMPT 00000000   1804 
_SUBL_CHG                                 IMPT 00000000   2141 
_SUBL_CODE                                IMPT 00000000   2010 
_SUBL_CODE_END                            IMPT 00000000   2013 
_SUBWI_CHG                                IMPT 00000000   2142 
_SUBWI_CODE                               IMPT 00000000   2015 
_SUBWI_CODE_END                           IMPT 00000000   2018 
_SUBW_CHG                                 IMPT 00000000   2140 
_SUBW_CODE                                IMPT 00000000   2005 
_SUBW_CODE_END                            IMPT 00000000   2008 
_SUB_CODE                                 IMPT 00000000   2068 
_SUB_CODE_END                             IMPT 00000000   2069 
_SUB_SUB                                  IMPT 00000000   1750 
_SeqKpOffX                                IMPT 00000000   4162  4176 
_SeqKpOffY                                IMPT 00000000   4448  4462 
_SeqKpOnX                                 IMPT 00000000   4161  4173 
_SeqKpOnY                                 IMPT 00000000   4447  4459 
_SeqLd_MKIND_TBL_TOP                      IMPT 00000000   2187  3331  4237  4289  4347  4401  4468 
_SeqMemM                                  IMPT 00000000   3314  3335  4352 
_SeqPOU1                                  IMPT 00000000   2361  2458  2479 
_SeqPOU2                                  IMPT 00000000   2362  2465  2521 
_SeqPOU3                                  IMPT 00000000   2363  2472  2556 
_SeqPOURun1Flg                            IMPT 00000000   2364  2486  3522 
_SeqPOURun2Flg                            IMPT 00000000   2365  2528  3734 
_SeqPOURun3Flg                            IMPT 00000000   2366  2563  3958 
_SeqRunFlg                                IMPT 00000000   2357  2594  2616 
_SeqSysStat                               IMPT 00000000   1709  2591  2612 
_T_0001HR_CNT                             EQU  00000020   2315*
_T_0001HR_TOP                             EQU  000001E0   2314*
_T_0001MS_CNT                             EQU  00000040   2313* 2314 
_T_0001MS_TOP                             EQU  000001A0   2312* 2314 
_T_0010MS_CNT                             EQU  00000100   2307* 2308 
_T_0010MS_TOP                             EQU  00000000   2306* 2308 
_T_0100MS_CNT                             EQU  00000080   2309* 2310 
_T_0100MS_TOP                             EQU  00000100   2308* 2310 
_T_1000MS_CNT                             EQU  00000020   2311* 2312 
_T_1000MS_TOP                             EQU  00000180   2310* 2312 
_VUPCHECK_EQU                             EQU  11AB3739    102*
_WCTR_CHG                                 IMPT 00000000   2101 
_WCTR_CODE                                IMPT 00000000   1864 
_WCTR_CODE_END                            IMPT 00000000   1867 
_WCTR_SUB                                 IMPT 00000000   1737 
_WSC_CHG                                  IMPT 00000000   2096 
*** SuperH RISC engine ASSEMBLER V.7.01.02.000 ***    07/04/21 19:29:14                                                  PAGE    54

*** CROSS REFERENCE LIST

NAME                             SECTION  ATTR VALUE             SEQUENCE

_WSC_CODE                                 IMPT 00000000   1869 
_WSC_CODE_END                             IMPT 00000000   1873 
_WSC_SUB                                  IMPT 00000000   1738 
_WSR_CHG                                  IMPT 00000000   2102 
_WSR_CODE                                 IMPT 00000000   1875 
_WSR_CODE_END                             IMPT 00000000   1878 
_WSR_SUB                                  IMPT 00000000   1739 
_WTMR_CHG                                 IMPT 00000000   2100 
_WTMR_CODE                                IMPT 00000000   1858 
_WTMR_CODE_END                            IMPT 00000000   1862 
_WTMR_SUB                                 IMPT 00000000   1736 
_XORL_CHG                                 IMPT 00000000   2152 
_XORL_CODE                                IMPT 00000000   2055 
_XORL_CODE_END                            IMPT 00000000   2058 
_XORWI_CHG                                IMPT 00000000   2153 
_XORWI_CODE                               IMPT 00000000   2060 
_XORWI_CODE_END                           IMPT 00000000   2063 
_XORW_CHG                                 IMPT 00000000   2151 
_XORW_CODE                                IMPT 00000000   2050 
_XORW_CODE_END                            IMPT 00000000   2053 
_XORW_SUB                                 IMPT 00000000   1748 
_X_PUSH_TOP1                              IMPT 00000000   1704  3505  3556 
_X_PUSH_TOP2                              IMPT 00000000   1705  3941  3992 
__TMCT_FLG                                EQU  00000008   2304*
__TMCT_PV                                 EQU  00000000   2302*
__TMCT_ST_CNT                             EQU  0000000C   2301*
__TMCT_SV                                 EQU  00000004   2303*
_ssc_InitSArea                            IMPT 00000000   2356  2450 
_ssc_UpdateSArea                          IMPT 00000000   3836  3924 
*** SuperH RISC engine ASSEMBLER V.7.01.02.000 ***    07/04/21 19:29:14                                                  PAGE    55

*** SECTION DATA LIST

SECTION                          ATTRIBUTE    SIZE             START

P                                REL-CODE    000000880        
