*** SuperH RISC engine ASSEMBLER V.7.01.02.000 ***    07/04/21 19:29:24                                                  PAGE     1
PROGRAM NAME =

    1                               1     ;       **********************************************************************************
                                          ***
    2                               2     ;       *****                                                                           **
                                          ***
    3                               3     ;       *****   バージョンＵＰ                                                          **
                                          ***
    4                               4     ;       *****                                                                           **
                                          ***
    5                               5     ;       *****   (1)PCと通信を行いﾊﾞｰｼﾞｮﾝUPﾃﾞｰﾀを受信                                    **
                                          ***
    6                               6     ;       *****   (2)PCからの指示によりﾊﾞｰｼﾞｮﾝUPﾃﾞｰﾀを外部FROM／SH2内蔵FROMへ書込み       **
                                          ***
    7                               7     ;       *****                                                                           **
                                          ***
    8                               8     ;       **********************************************************************************
                                          ***
 5481                              24     
 5482                              25             .import         _from_top;
 5483                              26             .import         _fram_top;
 5484                              27             .import         _dpram_top;
 5485                              28             .import         _dpramB_top;
 5486                              29             .import         _GAM_TABLE;
 5487                              30             .import         _GAM_TABLE2;            ; V06
 5488                              31             .IMPORT         _CB_TABLEX
 5489                              32             .IMPORT         _CBSYS_TOP
 5490                              33             .IMPORT         _SEQ_016_SV
 5491                              34             .IMPORT         _PV_TOTLC1_B3
 5492                              35             .IMPORT         _SUM_CHK
 5493                              36             .IMPORT         _SVSW_CHG_FLG
 5494                              37             .IMPORT         _GAMNE_REDISP_COD
 5495                              38             .IMPORT         _mmon_trans_get
 5496                              39     ;;      .IMPORT         _SEQ_PAR_103
 5497                              40             .IMPORT         _SV_MACINE_SEL1
 5498                              41             .IMPORT         _ResetHandler
 5499                              42             .IMPORT         _CB_SYS_PARAM248                ; シーケンス実行CPUD選択        20
                                          15/01/16
 5500                              43             .IMPORT         _SEQ_COM1_TOP                   ; シーケンス領域                20
                                          15/01/16
 5501                              44     
 5502                              45     
 5503                              46     _YES_CHK                .DEFINE         "0"             ;出荷
 5504                              47     _NO_CHK                 .DEFINE         "1"             ;ﾃﾞﾊﾞｯｸ
 5505                              48     _RXD_NO_SUM_CHK         .DEFINE         "0"     ;出荷
 5506                              49     ;;0             .DEFINE         "1"     ;ﾃﾞﾊﾞｯｸ
 5507                              50     
 5508                              51     _FROM_SEL               .DEFINE         "0"             ;出荷
 5509                              52     _EPROM_SEL              .DEFINE         "1"             ;ﾃﾞﾊﾞｯｸ
 5510                              53     _SYS_ROM_SEL            .DEFINE         "0"     ;出荷
 5511                              54     ;;0             .DEFINE         "1"     ;ﾃﾞﾊﾞｯｸﾞ
 5512                              55     
 5513          00000395            56     _NON_SUM_CODE   .EQU    0917
 5514                              57     
 5515 00000000                     58             .SECTION        PvupsciROM,CODE,ALIGN=4
 5516                              59     
 5517                              60     
 5518                              61             .export         _SCI_VUP_MAIN;
 5519 00000000                     62     _SCI_VUP_MAIN:
*** SuperH RISC engine ASSEMBLER V.7.01.02.000 ***    07/04/21 19:29:24                                                  PAGE     2
PROGRAM NAME =

 5520                              63             SUB_START
 5521 00000000 4F22                   M           STS.L   PR,@-R15                ;[必要]
 5522                                 M   ;;;;;;; ADD     #-4,R15                 ;[不要?]
 5523                              64             PUSH_ALL
 5524                                 M           PUSH_REG1       R0      ;
 5525 00000002 2F06                   M           MOV.L   R0,@-R15                ;PUSH=SP-4
 5526                                 M                                           ;REG=>[SP]
 5527                                 M                                           ;"-4" FF,FF,FF,FC
 5528                                 M           PUSH_REG1       R1      ;
 5529 00000004 2F16                   M           MOV.L   R1,@-R15                ;PUSH=SP-4
 5530                                 M                                           ;REG=>[SP]
 5531                                 M                                           ;"-4" FF,FF,FF,FC
 5532                                 M           PUSH_REG1       R2      ;
 5533 00000006 2F26                   M           MOV.L   R2,@-R15                ;PUSH=SP-4
 5534                                 M                                           ;REG=>[SP]
 5535                                 M                                           ;"-4" FF,FF,FF,FC
 5536                                 M           PUSH_REG1       R3      ;
 5537 00000008 2F36                   M           MOV.L   R3,@-R15                ;PUSH=SP-4
 5538                                 M                                           ;REG=>[SP]
 5539                                 M                                           ;"-4" FF,FF,FF,FC
 5540                                 M           PUSH_REG1       R4      ;
 5541 0000000A 2F46                   M           MOV.L   R4,@-R15                ;PUSH=SP-4
 5542                                 M                                           ;REG=>[SP]
 5543                                 M                                           ;"-4" FF,FF,FF,FC
 5544                                 M           PUSH_REG1       R5      ;
 5545 0000000C 2F56                   M           MOV.L   R5,@-R15                ;PUSH=SP-4
 5546                                 M                                           ;REG=>[SP]
 5547                                 M                                           ;"-4" FF,FF,FF,FC
 5548                                 M           PUSH_REG1       R6      ;
 5549 0000000E 2F66                   M           MOV.L   R6,@-R15                ;PUSH=SP-4
 5550                                 M                                           ;REG=>[SP]
 5551                                 M                                           ;"-4" FF,FF,FF,FC
 5552                                 M           PUSH_REG1       R7      ;
 5553 00000010 2F76                   M           MOV.L   R7,@-R15                ;PUSH=SP-4
 5554                                 M                                           ;REG=>[SP]
 5555                                 M                                           ;"-4" FF,FF,FF,FC
 5556                                 M           PUSH_REG1       R8      ;
 5557 00000012 2F86                   M           MOV.L   R8,@-R15                ;PUSH=SP-4
 5558                                 M                                           ;REG=>[SP]
 5559                                 M                                           ;"-4" FF,FF,FF,FC
 5560                                 M           PUSH_REG1       R9      ;
 5561 00000014 2F96                   M           MOV.L   R9,@-R15                ;PUSH=SP-4
 5562                                 M                                           ;REG=>[SP]
 5563                                 M                                           ;"-4" FF,FF,FF,FC
 5564                                 M           PUSH_REG1       R10     ;
 5565 00000016 2FA6                   M           MOV.L   R10,@-R15               ;PUSH=SP-4
 5566                                 M                                           ;REG=>[SP]
 5567                                 M                                           ;"-4" FF,FF,FF,FC
 5568                                 M           PUSH_REG1       R11     ;
 5569 00000018 2FB6                   M           MOV.L   R11,@-R15               ;PUSH=SP-4
 5570                                 M                                           ;REG=>[SP]
 5571                                 M                                           ;"-4" FF,FF,FF,FC
 5572                                 M           PUSH_REG1       R12     ;
 5573 0000001A 2FC6                   M           MOV.L   R12,@-R15               ;PUSH=SP-4
 5574                                 M                                           ;REG=>[SP]
 5575                                 M                                           ;"-4" FF,FF,FF,FC
 5576                                 M           PUSH_REG1       R13     ;
*** SuperH RISC engine ASSEMBLER V.7.01.02.000 ***    07/04/21 19:29:24                                                  PAGE     3
PROGRAM NAME =

 5577 0000001C 2FD6                   M           MOV.L   R13,@-R15               ;PUSH=SP-4
 5578                                 M                                           ;REG=>[SP]
 5579                                 M                                           ;"-4" FF,FF,FF,FC
 5580                                 M           PUSH_REG1       R14     ;
 5581 0000001E 2FE6                   M           MOV.L   R14,@-R15               ;PUSH=SP-4
 5582                                 M                                           ;REG=>[SP]
 5583                                 M                                           ;"-4" FF,FF,FF,FC
 5584                                 M           PUSH_MACHL              ;
 5585 00000020 4F02                   M           STS.L   MACH,@-R15
 5586 00000022 4F12                   M           STS.L   MACL,@-R15
 5587                                 M           PUSH_SYS_REG    GBR     ;
 5588 00000024 4F13                   M           STC.L   GBR,@-R15
 5589                                 M           .AIF    3 EQ 3
 5590                                             .AELSE
 5591                                             PUSH_FPU_ALL            ;2001-07-08
 5592                                             .AENDI
 5593                              65     
 5594 00000026                     66     _SCI_VUP_M000:
 5595                              67             _WDT_CLR
 5596                                 M           PUSH_REG1 R0
 5597 00000026 2F06                   M           MOV.L   R0,@-R15                ;PUSH=SP-4
 5598                                 M                                           ;REG=>[SP]
 5599                                 M                                           ;"-4" FF,FF,FF,FC
 5600                                 M           PUSH_REG1 R10
 5601 00000028 2FA6                   M           MOV.L   R10,@-R15               ;PUSH=SP-4
 5602                                 M                                           ;REG=>[SP]
 5603                                 M                                           ;"-4" FF,FF,FF,FC
 5604                                 M           PUSH_REG1 R14
 5605 0000002A 2FE6                   M           MOV.L   R14,@-R15               ;PUSH=SP-4
 5606                                 M                                           ;REG=>[SP]
 5607                                 M                                           ;"-4" FF,FF,FF,FC
 5608                                 M   
 5609 0000002C DA0E                   M           MOV.L   #_PJDR,R10                              ;
 5610 0000002E 60A0                   M           MOV.B   @R10,R0
 5611 00000030 CB10                   M           OR      #BIT4,R0
 5612 00000032 2A00                   M           MOV.B   R0,@R10
 5613 00000034 C9EF                   M           AND     #NBIT4,R0
 5614 00000036 2A00                   M           MOV.B   R0,@R10
 5615                                 M   
 5616                                 M           ;====== 2006-10-19 SAITO 追加　WDTﾎﾟｰﾄ変更 ======
 5617 00000038 DA0C                   M           MOV.L   #_IOGA2_CTRL_DAT1+_IOGA_P5,R10          ;
 5618 0000003A 60A1                   M           MOV.W   @R10,R0                                 ;
 5619 0000003C 9E10                   M           MOV.W   #BIT0,R14                               ;
 5620 0000003E 20EB                   M           OR      R14,R0                                  ;
 5621 00000040 2A01                   M           MOV.W   R0,@R10                                 ; WORK
 5622                                 M   
 5623                                 M   ;;      MOV.L   #_IOGA2_CTRL_DAT1+_IOGA_P5,R10  ; WORK ADDRESS
 5624                                 M   ;;      MOV.W   @R10,R0                                 ;
 5625 00000042 9E0E                   M           MOV.W   #_IO2B_P5EX,R14                         ;
 5626 00000044 20EA                   M           XOR     R14,R0                                  ;
 5627 00000046 DA0A                   M           MOV.L   #_dio_top2+_IOGA_PDR5,R10               ; IOGA PF ADDRESS
 5628 00000048 2A01                   M           MOV.W   R0,@R10                                 ; 実出力SET
 5629                                 M   
 5630 0000004A DA08                   M           MOV.L   #_IOGA2_CTRL_DAT1+_IOGA_P5,R10          ;
 5631 0000004C 60A1                   M           MOV.W   @R10,R0                                 ;
 5632 0000004E 9E09                   M           MOV.W   #NBIT0,R14                              ;
 5633 00000050 20E9                   M           AND     R14,R0                                  ;
*** SuperH RISC engine ASSEMBLER V.7.01.02.000 ***    07/04/21 19:29:24                                                  PAGE     4
PROGRAM NAME =

 5634 00000052 2A01                   M           MOV.W   R0,@R10                                 ; WORK
 5635                                 M   
 5636                                 M   ;;      MOV.L   #_IOGA2_CTRL_DAT1+_IOGA_P5,R10  ; WORK ADDRESS
 5637                                 M   ;;      MOV.W   @R10,R0                                 ;
 5638 00000054 9E05                   M           MOV.W   #_IO2B_P5EX,R14                         ;
 5639 00000056 20EA                   M           XOR     R14,R0                                  ;
 5640 00000058 DA05                   M           MOV.L   #_dio_top2+_IOGA_PDR5,R10               ; IOGA PF ADDRESS
 5641 0000005A 2A01                   M           MOV.W   R0,@R10                                 ; 実出力SET
 5642                                 M   
 5643                                 M           M_BRA   AAA00000
 5644 0000005C A00A                   M           BRA     AAA00000
 5645 0000005E 0009                   M           NOP
 5646                                 M   ***** BEGIN-POOL *****
 5647 00000060 0001                   M   DATA FOR SOURCE-LINE 67
 5648 00000062 0000                   M   DATA FOR SOURCE-LINE 67,67
 5649 00000064 00FE                   M   DATA FOR SOURCE-LINE 67
 5650 00000066 0000                   M   ALIGNMENT CODE
 5651 00000068 00000000               M   DATA FOR SOURCE-LINE 67
 5652 0000006C 00000000               M   DATA FOR SOURCE-LINE 67,67
 5653 00000070 00000000               M   DATA FOR SOURCE-LINE 67,67
 5654                                 M   ***** END-POOL *****
 5655 00000074                        M   AAA00000:
 5656                                 M           POP_REG1 R14
 5657                                 M                                   ; RE"+4" 00,00,00,04
 5658 00000074 6EF6                   M           MOV.L   @R15+,R14        ;
 5659                                 M           POP_REG1 R10
 5660                                 M                                   ; RE"+4" 00,00,00,04
 5661 00000076 6AF6                   M           MOV.L   @R15+,R10        ;
 5662                                 M           POP_REG1 R0
 5663                                 M                                   ; RE"+4" 00,00,00,04
 5664 00000078 60F6                   M           MOV.L   @R15+,R0        ;
 5665                              68     
 5666                              69             FAR_JSR #_ET1_LDCMD_IF,R0                       ; V06m 移動してきた。
 5667 0000007A D01A                   M           MOV.L   #_ET1_LDCMD_IF,R0               ;ﾃｰﾌﾞﾙｱﾄﾞﾚｽの内容をREGへ
 5668 0000007C 400B                   M           JSR     @R0                     ;
 5669 0000007E 0009                   M           NOP                                     ;
 5670                              70             FAR_JSR #_RX0_MAIN,R0
 5671 00000080 D019                   M           MOV.L   #_RX0_MAIN,R0           ;ﾃｰﾌﾞﾙｱﾄﾞﾚｽの内容をREGへ
 5672 00000082 400B                   M           JSR     @R0                     ;
 5673 00000084 0009                   M           NOP                                     ;
 5674                              71             FAR_JSR #_SCI0_MAIN,R0
 5675 00000086 D019                   M           MOV.L   #_SCI0_MAIN,R0          ;ﾃｰﾌﾞﾙｱﾄﾞﾚｽの内容をREGへ
 5676 00000088 400B                   M           JSR     @R0                     ;
 5677 0000008A 0009                   M           NOP                                     ;
 5678                              72             FAR_JSR #_TX0_MAIN,R0
 5679 0000008C D018                   M           MOV.L   #_TX0_MAIN,R0           ;ﾃｰﾌﾞﾙｱﾄﾞﾚｽの内容をREGへ
 5680 0000008E 400B                   M           JSR     @R0                     ;
 5681 00000090 0009                   M           NOP                                     ;
 5682                              73             FAR_JSR #_TE0_MAIN,R0
 5683 00000092 D018                   M           MOV.L   #_TE0_MAIN,R0           ;ﾃｰﾌﾞﾙｱﾄﾞﾚｽの内容をREGへ
 5684 00000094 400B                   M           JSR     @R0                     ;
 5685 00000096 0009                   M           NOP                                     ;
 5686                              74             FAR_JSR #_VUP_MAIN,R0
 5687 00000098 D017                   M           MOV.L   #_VUP_MAIN,R0           ;ﾃｰﾌﾞﾙｱﾄﾞﾚｽの内容をREGへ
 5688 0000009A 400B                   M           JSR     @R0                     ;
 5689 0000009C 0009                   M           NOP                                     ;
 5690                              75             FAR_JSR #_FRAM_TO_CB,R0                         ; 2004/05/19 V01i (INS)
*** SuperH RISC engine ASSEMBLER V.7.01.02.000 ***    07/04/21 19:29:24                                                  PAGE     5
PROGRAM NAME =

 5691 0000009E D017                   M           MOV.L   #_FRAM_TO_CB,R0         ;ﾃｰﾌﾞﾙｱﾄﾞﾚｽの内容をREGへ
 5692 000000A0 400B                   M           JSR     @R0                     ;
 5693 000000A2 0009                   M           NOP                                     ;
 5694                              76     ;//2013/06/18   FAR_JSR #_LDCMD_CB2PC,R0                        ; V01v (INS)
 5695                              77             FAR_JSR #_EPROM_TO_FROM_COPY,R0
 5696 000000A4 D016                   M           MOV.L   #_EPROM_TO_FROM_COPY,R0         ;ﾃｰﾌﾞﾙｱﾄﾞﾚｽの内容をREGへ
 5697 000000A6 400B                   M           JSR     @R0                     ;
 5698 000000A8 0009                   M           NOP                                     ;
 5699                              78     
 5700 000000AA D116                79             MOV.L   #_sci0_wkram+VUP_START,R1
 5701 000000AC 6011                80             MOV.W   @R1,R0                                  ;
 5702 000000AE 2008                81             TST     R0,R0                                   ;
 5703 000000B0 8BB9                82             BF      _SCI_VUP_M000                           ;
 5704                              83     
 5705                              84     
 5706                              85             FAR_JSR #_LDCMD_CB2PC,R0                        ; 2013/06/18 V06q
 5707 000000B2 D015                   M           MOV.L   #_LDCMD_CB2PC,R0                ;ﾃｰﾌﾞﾙｱﾄﾞﾚｽの内容をREGへ
 5708 000000B4 400B                   M           JSR     @R0                     ;
 5709 000000B6 0009                   M           NOP                                     ;
 5710                              86     
 5711                              87     
 5712                              88             POP_ALL
 5713                                 M           .AIF    3 EQ 3
 5714                                             .AELSE
 5715                                             POP_FPU_ALL             ;2001-07-08
 5716                                             .AENDI
 5717                                 M           POP_SYS_REG     GBR     ;
 5718 000000B8 4F17                   M           LDC.L   @R15+,GBR
 5719                                 M           POP_MACHL               ;
 5720 000000BA 4F16                   M           LDS.L   @R15+,MACL
 5721 000000BC 4F06                   M           LDS.L   @R15+,MACH
 5722                                 M           POP_REG1        R14     ;
 5723                                 M                                   ; RE"+4" 00,00,00,04
 5724 000000BE 6EF6                   M           MOV.L   @R15+,R14        ;
 5725                                 M           POP_REG1        R13     ;
 5726                                 M                                   ; RE"+4" 00,00,00,04
 5727 000000C0 6DF6                   M           MOV.L   @R15+,R13        ;
 5728                                 M           POP_REG1        R12     ;
 5729                                 M                                   ; RE"+4" 00,00,00,04
 5730 000000C2 6CF6                   M           MOV.L   @R15+,R12        ;
 5731                                 M           POP_REG1        R11     ;
 5732                                 M                                   ; RE"+4" 00,00,00,04
 5733 000000C4 6BF6                   M           MOV.L   @R15+,R11        ;
 5734                                 M           POP_REG1        R10     ;
 5735                                 M                                   ; RE"+4" 00,00,00,04
 5736 000000C6 6AF6                   M           MOV.L   @R15+,R10        ;
 5737                                 M           POP_REG1        R9      ;
 5738                                 M                                   ; RE"+4" 00,00,00,04
 5739 000000C8 69F6                   M           MOV.L   @R15+,R9        ;
 5740                                 M           POP_REG1        R8      ;
 5741                                 M                                   ; RE"+4" 00,00,00,04
 5742 000000CA 68F6                   M           MOV.L   @R15+,R8        ;
 5743                                 M           POP_REG1        R7      ;
 5744                                 M                                   ; RE"+4" 00,00,00,04
 5745 000000CC 67F6                   M           MOV.L   @R15+,R7        ;
 5746                                 M           POP_REG1        R6      ;
 5747                                 M                                   ; RE"+4" 00,00,00,04
*** SuperH RISC engine ASSEMBLER V.7.01.02.000 ***    07/04/21 19:29:24                                                  PAGE     6
PROGRAM NAME =

 5748 000000CE 66F6                   M           MOV.L   @R15+,R6        ;
 5749                                 M           POP_REG1        R5      ;
 5750                                 M                                   ; RE"+4" 00,00,00,04
 5751 000000D0 65F6                   M           MOV.L   @R15+,R5        ;
 5752                                 M           POP_REG1        R4      ;
 5753                                 M                                   ; RE"+4" 00,00,00,04
 5754 000000D2 64F6                   M           MOV.L   @R15+,R4        ;
 5755                                 M           POP_REG1        R3      ;
 5756                                 M                                   ; RE"+4" 00,00,00,04
 5757 000000D4 63F6                   M           MOV.L   @R15+,R3        ;
 5758                                 M           POP_REG1        R2      ;
 5759                                 M                                   ; RE"+4" 00,00,00,04
 5760 000000D6 62F6                   M           MOV.L   @R15+,R2        ;
 5761                                 M           POP_REG1        R1      ;
 5762                                 M                                   ; RE"+4" 00,00,00,04
 5763 000000D8 61F6                   M           MOV.L   @R15+,R1        ;
 5764                                 M           POP_REG1        R0      ;
 5765                                 M                                   ; RE"+4" 00,00,00,04
 5766 000000DA 60F6                   M           MOV.L   @R15+,R0        ;
 5767                              89             SUB_END
 5768                                 M   ;;;;;;; ADD     #4,R15                  ;[不要?]
 5769 000000DC 4F26                   M           LDS.L   @R15+,PR                ;[必要]
 5770                              90             M_RTS
 5771 000000DE 000B                   M           RTS                             ;RTSの後ろの
 5772 000000E0 0009                   M           NOP                             ;@R15+,PRはﾀﾞﾒ
 5773                              91     
 5774                              92     
 5775                                     ***** BEGIN-POOL *****
 5776 000000E2 0000                       ALIGNMENT CODE
 5777 000000E4 00000000                   DATA FOR SOURCE-LINE 69
 5778 000000E8 00000000                   DATA FOR SOURCE-LINE 70
 5779 000000EC 00000000                   DATA FOR SOURCE-LINE 71
 5780 000000F0 00000000                   DATA FOR SOURCE-LINE 72
 5781 000000F4 00000000                   DATA FOR SOURCE-LINE 73
 5782 000000F8 00000000                   DATA FOR SOURCE-LINE 74
 5783 000000FC 00000000                   DATA FOR SOURCE-LINE 75
 5784 00000100 00000000                   DATA FOR SOURCE-LINE 77
 5785 00000104 00000000                   DATA FOR SOURCE-LINE 79
 5786 00000108 00000000                   DATA FOR SOURCE-LINE 85
 5787                                     ***** END-POOL *****
 5788 0000010C                     93             .SECTION        PvupsciROM,CODE,ALIGN=4
 5789                              94     ;       **********************************************************************************
                                          ***
 5790                              95     ;       *****                                                                           **
                                          ***
 5791                              96     ;       *****   通信ＭＡＩＮ                                                            **
                                          ***
 5792                              97     ;       *****                                                                           **
                                          ***
 5793                              98     ;       *****   ﾛｰﾀﾞｺﾏﾝﾄﾞを使用し、ﾊﾝﾄﾞｼｪｲｸｴﾘｱ／ﾊﾞｰｼﾞｮﾝUPﾃﾞｰﾀｴﾘｱへ受信ﾃﾞｰﾀを格納        **
                                          ***
 5794                              99     ;       *****                                                                           **
                                          ***
 5795                             100     ;       **********************************************************************************
                                          ***
 5796                             101     ;       ======= EXTERN宣言=======
 5797                             102     
*** SuperH RISC engine ASSEMBLER V.7.01.02.000 ***    07/04/21 19:29:24                                                  PAGE     7
PROGRAM NAME =

 5798                             103     ;       ======= PUBLIC宣言=======
 5799                             104             .export         _SCI0_MAIN;
 5800                             105             .export         _ER0_INT;
 5801                             106             .export         _RX0_INT;
 5802                             107             .export         _TX0_INT;
 5803                             108             .export         _TE0_INT;
 5804                             109     
 5805 0000010C                    110     _SCI0_MAIN:
 5806                             111             SUB_START
 5807 0000010C 4F22                   M           STS.L   PR,@-R15                ;[必要]
 5808                                 M   ;;;;;;; ADD     #-4,R15                 ;[不要?]
 5809                             112             PUSH_ALL
 5810                                 M           PUSH_REG1       R0      ;
 5811 0000010E 2F06                   M           MOV.L   R0,@-R15                ;PUSH=SP-4
 5812                                 M                                           ;REG=>[SP]
 5813                                 M                                           ;"-4" FF,FF,FF,FC
 5814                                 M           PUSH_REG1       R1      ;
 5815 00000110 2F16                   M           MOV.L   R1,@-R15                ;PUSH=SP-4
 5816                                 M                                           ;REG=>[SP]
 5817                                 M                                           ;"-4" FF,FF,FF,FC
 5818                                 M           PUSH_REG1       R2      ;
 5819 00000112 2F26                   M           MOV.L   R2,@-R15                ;PUSH=SP-4
 5820                                 M                                           ;REG=>[SP]
 5821                                 M                                           ;"-4" FF,FF,FF,FC
 5822                                 M           PUSH_REG1       R3      ;
 5823 00000114 2F36                   M           MOV.L   R3,@-R15                ;PUSH=SP-4
 5824                                 M                                           ;REG=>[SP]
 5825                                 M                                           ;"-4" FF,FF,FF,FC
 5826                                 M           PUSH_REG1       R4      ;
 5827 00000116 2F46                   M           MOV.L   R4,@-R15                ;PUSH=SP-4
 5828                                 M                                           ;REG=>[SP]
 5829                                 M                                           ;"-4" FF,FF,FF,FC
 5830                                 M           PUSH_REG1       R5      ;
 5831 00000118 2F56                   M           MOV.L   R5,@-R15                ;PUSH=SP-4
 5832                                 M                                           ;REG=>[SP]
 5833                                 M                                           ;"-4" FF,FF,FF,FC
 5834                                 M           PUSH_REG1       R6      ;
 5835 0000011A 2F66                   M           MOV.L   R6,@-R15                ;PUSH=SP-4
 5836                                 M                                           ;REG=>[SP]
 5837                                 M                                           ;"-4" FF,FF,FF,FC
 5838                                 M           PUSH_REG1       R7      ;
 5839 0000011C 2F76                   M           MOV.L   R7,@-R15                ;PUSH=SP-4
 5840                                 M                                           ;REG=>[SP]
 5841                                 M                                           ;"-4" FF,FF,FF,FC
 5842                                 M           PUSH_REG1       R8      ;
 5843 0000011E 2F86                   M           MOV.L   R8,@-R15                ;PUSH=SP-4
 5844                                 M                                           ;REG=>[SP]
 5845                                 M                                           ;"-4" FF,FF,FF,FC
 5846                                 M           PUSH_REG1       R9      ;
 5847 00000120 2F96                   M           MOV.L   R9,@-R15                ;PUSH=SP-4
 5848                                 M                                           ;REG=>[SP]
 5849                                 M                                           ;"-4" FF,FF,FF,FC
 5850                                 M           PUSH_REG1       R10     ;
 5851 00000122 2FA6                   M           MOV.L   R10,@-R15               ;PUSH=SP-4
 5852                                 M                                           ;REG=>[SP]
 5853                                 M                                           ;"-4" FF,FF,FF,FC
 5854                                 M           PUSH_REG1       R11     ;
*** SuperH RISC engine ASSEMBLER V.7.01.02.000 ***    07/04/21 19:29:24                                                  PAGE     8
PROGRAM NAME =

 5855 00000124 2FB6                   M           MOV.L   R11,@-R15               ;PUSH=SP-4
 5856                                 M                                           ;REG=>[SP]
 5857                                 M                                           ;"-4" FF,FF,FF,FC
 5858                                 M           PUSH_REG1       R12     ;
 5859 00000126 2FC6                   M           MOV.L   R12,@-R15               ;PUSH=SP-4
 5860                                 M                                           ;REG=>[SP]
 5861                                 M                                           ;"-4" FF,FF,FF,FC
 5862                                 M           PUSH_REG1       R13     ;
 5863 00000128 2FD6                   M           MOV.L   R13,@-R15               ;PUSH=SP-4
 5864                                 M                                           ;REG=>[SP]
 5865                                 M                                           ;"-4" FF,FF,FF,FC
 5866                                 M           PUSH_REG1       R14     ;
 5867 0000012A 2FE6                   M           MOV.L   R14,@-R15               ;PUSH=SP-4
 5868                                 M                                           ;REG=>[SP]
 5869                                 M                                           ;"-4" FF,FF,FF,FC
 5870                                 M           PUSH_MACHL              ;
 5871 0000012C 4F02                   M           STS.L   MACH,@-R15
 5872 0000012E 4F12                   M           STS.L   MACL,@-R15
 5873                                 M           PUSH_SYS_REG    GBR     ;
 5874 00000130 4F13                   M           STC.L   GBR,@-R15
 5875                                 M           .AIF    3 EQ 3
 5876                                             .AELSE
 5877                                             PUSH_FPU_ALL            ;2001-07-08
 5878                                             .AENDI
 5879                             113     
 5880 00000132 D011               114             MOV.L   #_sci0_wkram,R0                         ;
 5881 00000134 401E               115             LDC.L   R0,GBR                                  ;
 5882                             116     
 5883 00000136 C508               117             MOV.W   @(RX_TIMOUT_FLG,GBR),R0                 ; 受信時間監視          ; V01l(INS
                                          )
 5884 00000138 2008               118             TST     R0,R0                                   ; 監視有効？
 5885 0000013A 8906               119             BT      _SCI0_M020                              ; いいえ
 5886 0000013C C509               120             MOV.W   @(RX_TIMER,GBR),R0                      ; 受信監視時間＝1sec
 5887 0000013E 2008               121             TST     R0,R0                                   ; 監視時間経過？
 5888 00000140 8B03               122             BF      _SCI0_M020                              ; いいえ
 5889 00000142 200A               123             XOR     R0,R0
 5890 00000144 C101               124             MOV.W   R0,@(RXD_CNT,GBR)
 5891 00000146 C105               125             MOV.W   R0,@(HEAD_END,GBR)                      ; 伝送ﾍｯﾀﾞ部受信確認
 5892 00000148 C102               126             MOV.W   R0,@(RXD_BUF_POI,GBR)                   ; ﾎﾟｲﾝﾀを次に更新
 5893                             127     
 5894 0000014A                    128     _SCI0_M020:
 5895 0000014A C506               129             MOV.W   @(RX_END,GBR),R0                        ; 全ﾃﾞｰﾀ受信完
 5896 0000014C 2008               130             TST     R0,R0
 5897 0000014E 8B1D               131             BF      _SCI0_M050                              ; はい
 5898                             132     
 5899 00000150 DA0A               133             MOV.L   #_sci0_wkram+SEQ_LDCMND_REQ,R10         ; 2014/03/11
 5900 00000152 60A1               134             MOV.W   @R10,R0
 5901 00000154 8801               135             CMP/EQ  #1,R0                                   ; シーケンス部へリクエスト中？
 5902 00000156 8B0D               136             BF      _SCI0_M040                              ; いいえ
 5903 00000158 DA09               137             MOV.L   #_sci0_wkram+SEQ_LDCMND_RES,R10
 5904 0000015A 60A1               138             MOV.W   @R10,R0
 5905 0000015C 8801               139             CMP/EQ  #1,R0                                   ; シーケンス部からレスポンス有り？
                                          ？
 5906 0000015E 8B09               140             BF      _SCI0_M040                              ; いいえ
 5907                             141     
 5908                             142     ;;      MOV.L   #_sci0_wkram+TXD_CNT,R10
 5909                             143     ;;      MOV.W   R2,@R10                                 ; 全送信ﾊﾞｲﾄ数格納
*** SuperH RISC engine ASSEMBLER V.7.01.02.000 ***    07/04/21 19:29:24                                                  PAGE     9
PROGRAM NAME =

 5910                             144     
 5911 00000160 200A               145             XOR     R0,R0
 5912 00000162 DA08               146             MOV.L   #_sci0_wkram+TXD_BUF_POI,R10
 5913 00000164 2A01               147             MOV.W   R0,@R10                                 ; 送信ﾊﾞｯﾌｧ用ﾎﾟｲﾝﾀをｸﾘｱ
 5914 00000166 DA05               148             MOV.L   #_sci0_wkram+SEQ_LDCMND_REQ,R10
 5915 00000168 2A01               149             MOV.W   R0,@R10
 5916 0000016A DA05               150             MOV.L   #_sci0_wkram+SEQ_LDCMND_RES,R10
 5917 0000016C 2A01               151             MOV.W   R0,@R10
 5918                             152     
 5919                             153             FAR_JSR #_SCI0_TXI_EI,R10                       ; 送信ｴﾝﾌﾟﾃｨ割込み許可
 5920 0000016E DA06                   M           MOV.L   #_SCI0_TXI_EI,R10               ;ﾃｰﾌﾞﾙｱﾄﾞﾚｽの内容をREGへ
 5921 00000170 4A0B                   M           JSR     @R10                    ;
 5922 00000172 0009                   M           NOP                                     ;
 5923                             154     
 5924 00000174                    155     _SCI0_M040:
 5925                             156             M_BRA   _SCI0_MEND
 5926 00000174 A020                   M           BRA     _SCI0_MEND
 5927 00000176 0009                   M           NOP
 5928                             157     
 5929                                     ***** BEGIN-POOL *****
 5930 00000178 00000000                   DATA FOR SOURCE-LINE 114
 5931 0000017C 00000000                   DATA FOR SOURCE-LINE 133,148
 5932 00000180 00000000                   DATA FOR SOURCE-LINE 137,150
 5933 00000184 00000000                   DATA FOR SOURCE-LINE 146
 5934 00000188 00000000                   DATA FOR SOURCE-LINE 153
 5935                                     ***** END-POOL *****
 5936 0000018C                    158     _SCI0_M050:
 5937 0000018C 200A               159             XOR     R0,R0
 5938 0000018E C106               160             MOV.W   R0,@(RX_END,GBR)                        ; 全ﾃﾞｰﾀ受信完
 5939                             161     
 5940 00000190 D106               162             MOV.L   #_sci0_rxd_buf+_CMND,R1
 5941 00000192 6010               163             MOV.B   @R1,R0
 5942 00000194 8801               164             CMP/EQ  #_LOD_CMND_WR,R0                        ; ﾗｲﾄｺﾏﾝﾄﾞ?
 5943 00000196 8B02               165             BF      _SCI0_M100                              ; いいえ
 5944                             166     
 5945                             167             FAR_JSR #_LOD_CMND_WR_PRO,R1                    ; ﾗｲﾄｺﾏﾝﾄﾞ受信時の処理
 5946 00000198 D105                   M           MOV.L   #_LOD_CMND_WR_PRO,R1            ;ﾃｰﾌﾞﾙｱﾄﾞﾚｽの内容をREGへ
 5947 0000019A 410B                   M           JSR     @R1                     ;
 5948 0000019C 0009                   M           NOP                                     ;
 5949                             168     
 5950 0000019E                    169     _SCI0_M100:
 5951 0000019E 8800               170             CMP/EQ  #_LOD_CMND_RD,R0                        ; ﾘｰﾄﾞｺﾏﾝﾄﾞ?
 5952 000001A0 8B02               171             BF      _SCI0_M150                              ; いいえ
 5953                             172     
 5954                             173             FAR_JSR #_LOD_CMND_RD_PRO,R1                    ; ﾘｰﾄﾞｺﾏﾝﾄﾞ受信時の処理
 5955 000001A2 D104                   M           MOV.L   #_LOD_CMND_RD_PRO,R1            ;ﾃｰﾌﾞﾙｱﾄﾞﾚｽの内容をREGへ
 5956 000001A4 410B                   M           JSR     @R1                     ;
 5957 000001A6 0009                   M           NOP                                     ;
 5958                             174     
 5959 000001A8                    175     _SCI0_M150:
 5960                             176             M_BRA   _SCI0_MEND
 5961 000001A8 A006                   M           BRA     _SCI0_MEND
 5962 000001AA 0009                   M           NOP
 5963                             177     
 5964                                     ***** BEGIN-POOL *****
 5965 000001AC 00000000                   DATA FOR SOURCE-LINE 162
 5966 000001B0 00000000                   DATA FOR SOURCE-LINE 167
*** SuperH RISC engine ASSEMBLER V.7.01.02.000 ***    07/04/21 19:29:24                                                  PAGE    10
PROGRAM NAME =

 5967 000001B4 00000000                   DATA FOR SOURCE-LINE 173
 5968                                     ***** END-POOL *****
 5969 000001B8                    178     _SCI0_MEND:
 5970                             179             POP_ALL
 5971                                 M           .AIF    3 EQ 3
 5972                                             .AELSE
 5973                                             POP_FPU_ALL             ;2001-07-08
 5974                                             .AENDI
 5975                                 M           POP_SYS_REG     GBR     ;
 5976 000001B8 4F17                   M           LDC.L   @R15+,GBR
 5977                                 M           POP_MACHL               ;
 5978 000001BA 4F16                   M           LDS.L   @R15+,MACL
 5979 000001BC 4F06                   M           LDS.L   @R15+,MACH
 5980                                 M           POP_REG1        R14     ;
 5981                                 M                                   ; RE"+4" 00,00,00,04
 5982 000001BE 6EF6                   M           MOV.L   @R15+,R14        ;
 5983                                 M           POP_REG1        R13     ;
 5984                                 M                                   ; RE"+4" 00,00,00,04
 5985 000001C0 6DF6                   M           MOV.L   @R15+,R13        ;
 5986                                 M           POP_REG1        R12     ;
 5987                                 M                                   ; RE"+4" 00,00,00,04
 5988 000001C2 6CF6                   M           MOV.L   @R15+,R12        ;
 5989                                 M           POP_REG1        R11     ;
 5990                                 M                                   ; RE"+4" 00,00,00,04
 5991 000001C4 6BF6                   M           MOV.L   @R15+,R11        ;
 5992                                 M           POP_REG1        R10     ;
 5993                                 M                                   ; RE"+4" 00,00,00,04
 5994 000001C6 6AF6                   M           MOV.L   @R15+,R10        ;
 5995                                 M           POP_REG1        R9      ;
 5996                                 M                                   ; RE"+4" 00,00,00,04
 5997 000001C8 69F6                   M           MOV.L   @R15+,R9        ;
 5998                                 M           POP_REG1        R8      ;
 5999                                 M                                   ; RE"+4" 00,00,00,04
 6000 000001CA 68F6                   M           MOV.L   @R15+,R8        ;
 6001                                 M           POP_REG1        R7      ;
 6002                                 M                                   ; RE"+4" 00,00,00,04
 6003 000001CC 67F6                   M           MOV.L   @R15+,R7        ;
 6004                                 M           POP_REG1        R6      ;
 6005                                 M                                   ; RE"+4" 00,00,00,04
 6006 000001CE 66F6                   M           MOV.L   @R15+,R6        ;
 6007                                 M           POP_REG1        R5      ;
 6008                                 M                                   ; RE"+4" 00,00,00,04
 6009 000001D0 65F6                   M           MOV.L   @R15+,R5        ;
 6010                                 M           POP_REG1        R4      ;
 6011                                 M                                   ; RE"+4" 00,00,00,04
 6012 000001D2 64F6                   M           MOV.L   @R15+,R4        ;
 6013                                 M           POP_REG1        R3      ;
 6014                                 M                                   ; RE"+4" 00,00,00,04
 6015 000001D4 63F6                   M           MOV.L   @R15+,R3        ;
 6016                                 M           POP_REG1        R2      ;
 6017                                 M                                   ; RE"+4" 00,00,00,04
 6018 000001D6 62F6                   M           MOV.L   @R15+,R2        ;
 6019                                 M           POP_REG1        R1      ;
 6020                                 M                                   ; RE"+4" 00,00,00,04
 6021 000001D8 61F6                   M           MOV.L   @R15+,R1        ;
 6022                                 M           POP_REG1        R0      ;
 6023                                 M                                   ; RE"+4" 00,00,00,04
*** SuperH RISC engine ASSEMBLER V.7.01.02.000 ***    07/04/21 19:29:24                                                  PAGE    11
PROGRAM NAME =

 6024 000001DA 60F6                   M           MOV.L   @R15+,R0        ;
 6025                             180             SUB_END
 6026                                 M   ;;;;;;; ADD     #4,R15                  ;[不要?]
 6027 000001DC 4F26                   M           LDS.L   @R15+,PR                ;[必要]
 6028                             181             M_RTS
 6029 000001DE 000B                   M           RTS                             ;RTSの後ろの
 6030 000001E0 0009                   M           NOP                             ;@R15+,PRはﾀﾞﾒ
 6031                             182     
 6032                             183     
 6033                             184     ;       **********************************************************************************
                                          ***
 6034                             185     ;       *****                                                                           **
                                          ***
 6035                             186     ;       *****   ライトコマンド受信時の処理                                              **
                                          ***
 6036                             187     ;       *****                                                                           **
                                          ***
 6037                             188     ;       *****                                                                           **
                                          ***
 6038                             189     ;       *****                                                                           **
                                          ***
 6039                             190     ;       **********************************************************************************
                                          ***
 6040 000001E2                    191     _LOD_CMND_WR_PRO:
 6041                             192             SUB_START
 6042 000001E2 4F22                   M           STS.L   PR,@-R15                ;[必要]
 6043                                 M   ;;;;;;; ADD     #-4,R15                 ;[不要?]
 6044                             193     
 6045 000001E4 200A               194             XOR     R0,R0
 6046 000001E6 DA04               195             MOV.L   #_sci0_wkram+RX_ERR,R10
 6047 000001E8 2A01               196             MOV.W   R0,@R10                                 ; 異常初期ｸﾘｱ
 6048                             197     
 6049                             198             FAR_JSR #_SCI0_SEQCMD_CHECK,R10                 ; 2014/03/11
 6050 000001EA DA04                   M           MOV.L   #_SCI0_SEQCMD_CHECK,R10         ;ﾃｰﾌﾞﾙｱﾄﾞﾚｽの内容をREGへ
 6051 000001EC 4A0B                   M           JSR     @R10                    ;
 6052 000001EE 0009                   M           NOP                                     ;
 6053 000001F0 2008               199             TST     R0,R0                                   ; SEQ部へｱｸｾｽ？
 6054 000001F2 8905               200             BT      LOD_CWRP_010                            ; いいえ
 6055                             201             M_BRA   LOD_CWRP_EXT                            ; はい
 6056 000001F4 A155                   M           BRA     LOD_CWRP_EXT
 6057 000001F6 0009                   M           NOP
 6058                                     ***** BEGIN-POOL *****
 6059 000001F8 00000000                   DATA FOR SOURCE-LINE 195
 6060 000001FC 00000000                   DATA FOR SOURCE-LINE 198
 6061                                     ***** END-POOL *****
 6062 00000200                    202     LOD_CWRP_010:
 6063                             203     
 6064                             204             FAR_JSR #_SCI0_BCC_CHECK,R10                    ; BCCﾁｪｯｸ
 6065 00000200 DA0B                   M           MOV.L   #_SCI0_BCC_CHECK,R10            ;ﾃｰﾌﾞﾙｱﾄﾞﾚｽの内容をREGへ
 6066 00000202 4A0B                   M           JSR     @R10                    ;
 6067 00000204 0009                   M           NOP                                     ;
 6068                             205             FAR_JSR #_SCI0_MEMSEL_CHECK,R10                 ; ﾒﾓﾘ種別ﾁｪｯｸ
 6069 00000206 DA0B                   M           MOV.L   #_SCI0_MEMSEL_CHECK,R10         ;ﾃｰﾌﾞﾙｱﾄﾞﾚｽの内容をREGへ
 6070 00000208 4A0B                   M           JSR     @R10                    ;
 6071 0000020A 0009                   M           NOP                                     ;
 6072                             206             FAR_JSR #_SCI0_MEMADR_CHECK,R10                 ; ｱﾄﾞﾚｽﾁｪｯｸ             V05 (ins)
 6073 0000020C DA0A                   M           MOV.L   #_SCI0_MEMADR_CHECK,R10         ;ﾃｰﾌﾞﾙｱﾄﾞﾚｽの内容をREGへ
*** SuperH RISC engine ASSEMBLER V.7.01.02.000 ***    07/04/21 19:29:24                                                  PAGE    12
PROGRAM NAME =

 6074 0000020E 4A0B                   M           JSR     @R10                    ;
 6075 00000210 0009                   M           NOP                                     ;
 6076                             207             FAR_JSR #_SCI0_WREI_CHECK,R10                   ; 型ﾃﾞｰﾀ書き込み許可ﾁｪｯｸ        V0
                                          5 (ins)
 6077 00000212 DA0A                   M           MOV.L   #_SCI0_WREI_CHECK,R10           ;ﾃｰﾌﾞﾙｱﾄﾞﾚｽの内容をREGへ
 6078 00000214 4A0B                   M           JSR     @R10                    ;
 6079 00000216 0009                   M           NOP                                     ;
 6080                             208     
 6081 00000218 DA09               209             MOV.L   #_sci0_wkram+RX_ERR,R10                 ; V01p(INS)
 6082 0000021A 60A1               210             MOV.W   @R10,R0
 6083 0000021C 2008               211             TST     R0,R0                                   ; 通信ﾃﾞｰﾀ異常？
 6084 0000021E 8915               212             BT      LOD_CWRP_020                            ; いいえ
 6085                             213     
 6086                             214             FAR_JSR #_SCI0_TXDBUF_MAKE_NG,R10               ; ﾗｲﾄｺﾏﾝﾄﾞ後の送信ﾃﾞｰﾀ作成
 6087 00000220 DA08                   M           MOV.L   #_SCI0_TXDBUF_MAKE_NG,R10               ;ﾃｰﾌﾞﾙｱﾄﾞﾚｽの内容をREGへ
 6088 00000222 4A0B                   M           JSR     @R10                    ;
 6089 00000224 0009                   M           NOP                                     ;
 6090                             215             FAR_JSR #_SCI0_TXI_EI,R10                       ; 送信ｴﾝﾌﾟﾃｨ割込み許可
 6091 00000226 DA08                   M           MOV.L   #_SCI0_TXI_EI,R10               ;ﾃｰﾌﾞﾙｱﾄﾞﾚｽの内容をREGへ
 6092 00000228 4A0B                   M           JSR     @R10                    ;
 6093 0000022A 0009                   M           NOP                                     ;
 6094                             216     
 6095                             217             M_BRA   LOD_CWRP_EXT
 6096 0000022C A139                   M           BRA     LOD_CWRP_EXT
 6097 0000022E 0009                   M           NOP
 6098                             218     
 6099                                     ***** BEGIN-POOL *****
 6100 00000230 00000000                   DATA FOR SOURCE-LINE 204
 6101 00000234 00000000                   DATA FOR SOURCE-LINE 205
 6102 00000238 00000000                   DATA FOR SOURCE-LINE 206
 6103 0000023C 00000000                   DATA FOR SOURCE-LINE 207
 6104 00000240 00000000                   DATA FOR SOURCE-LINE 209
 6105 00000244 00000000                   DATA FOR SOURCE-LINE 214
 6106 00000248 00000000                   DATA FOR SOURCE-LINE 215
 6107                                     ***** END-POOL *****
 6108 0000024C                    219     LOD_CWRP_020:
 6109 0000024C DA08               220             MOV.L   #_sci0_rxd_buf+_AREA_SEL,R10
 6110 0000024E 60A4               221             MOV.B   @R10+,R0                                ; 領域選択
 6111 00000250 61A4               222             MOV.B   @R10+,R1                                ; 領域ｱﾄﾞﾚｽ(L)
 6112 00000252 62A4               223             MOV.B   @R10+,R2                                ; 領域ｱﾄﾞﾚｽ(M)
 6113 00000254 63A4               224             MOV.B   @R10+,R3                                ; 領域ｱﾄﾞﾚｽ(H)
 6114 00000256 64A4               225             MOV.B   @R10+,R4                                ; 実ﾃﾞｰﾀﾜｰﾄﾞ数(L)
 6115 00000258 65A4               226             MOV.B   @R10+,R5                                ; 実ﾃﾞｰﾀﾜｰﾄﾞ数(H)
 6116 0000025A 600C               227             EXTU.B  R0,R0
 6117 0000025C 611C               228             EXTU.B  R1,R1
 6118 0000025E 622C               229             EXTU.B  R2,R2
 6119 00000260 633C               230             EXTU.B  R3,R3
 6120 00000262 644C               231             EXTU.B  R4,R4
 6121 00000264 655C               232             EXTU.B  R5,R5
 6122                             233     
 6123 00000266 8800               234             CMP/EQ  #_LOD_AREA0,R0                          ; ﾊﾝﾄﾞｼｪｲｸ領域にｱｸｾｽ？
 6124 00000268 8B06               235             BF      LOD_CWRP_050                            ; いいえ
 6125                             236     
 6126 0000026A D802               237             MOV.L   #_vup_hs_area,R8                        ; ﾊﾝﾄﾞｼｪｲｸ領域先頭ｱﾄﾞﾚｽ
 6127                             238             M_BRA   LOD_CWRP_220
 6128 0000026C A0DB                   M           BRA     LOD_CWRP_220
 6129 0000026E 0009                   M           NOP
*** SuperH RISC engine ASSEMBLER V.7.01.02.000 ***    07/04/21 19:29:24                                                  PAGE    13
PROGRAM NAME =

 6130                             239     
 6131                                     ***** BEGIN-POOL *****
 6132 00000270 00000000                   DATA FOR SOURCE-LINE 220
 6133 00000274 00000000                   DATA FOR SOURCE-LINE 237
 6134                                     ***** END-POOL *****
 6135 00000278                    240     LOD_CWRP_050:
 6136 00000278 8801               241             CMP/EQ  #_LOD_AREA1,R0                          ; ﾊﾞｰｼﾞｮﾝUPﾃﾞｰﾀ領域にｱｸｾｽ？
 6137 0000027A 8B05               242             BF      LOD_CWRP_100                            ; いいえ
 6138                             243     
 6139 0000027C D801               244             MOV.L   #_VUP_DATA_AREA_CPUB,R8                 ; ﾊﾞｰｼﾞｮﾝUPﾃﾞｰﾀ領域先頭ｱﾄﾞﾚｽ
 6140                             245             M_BRA   LOD_CWRP_200
 6141 0000027E A03B                   M           BRA     LOD_CWRP_200
 6142 00000280 0009                   M           NOP
 6143                             246     
 6144                                     ***** BEGIN-POOL *****
 6145 00000282 0000                       ALIGNMENT CODE
 6146 00000284 AC400000                   DATA FOR SOURCE-LINE 244
 6147                                     ***** END-POOL *****
 6148 00000288                    247     LOD_CWRP_100:
 6149                             248     ;/ V01  */
 6150 00000288 8802               249             CMP/EQ  #_LOD_AREA_FROM,R0                      ; FROMﾀ領域にｱｸｾｽ？
 6151 0000028A 8B01               250             BF      LOD_CWRP_110                            ; いいえ
 6152                             251     
 6153                             252             M_BRA   LOD_CWRP_EXT
 6154 0000028C A109                   M           BRA     LOD_CWRP_EXT
 6155 0000028E 0009                   M           NOP
 6156                             253     
 6157 00000290                    254     LOD_CWRP_110:
 6158                             255     ;/ V01  */
 6159 00000290 8803               256             CMP/EQ  #_LOD_AREA_FRAM,R0                      ; FRAM領域にｱｸｾｽ？
 6160 00000292 8B05               257             BF      LOD_CWRP_120                            ; いいえ
 6161                             258     
 6162 00000294 D801               259             MOV.L   #_fram_top,R8                           ; 先頭ｱﾄﾞﾚｽ
 6163                             260             M_BRA   LOD_CWRP_220
 6164 00000296 A0C6                   M           BRA     LOD_CWRP_220
 6165 00000298 0009                   M           NOP
 6166                             261     
 6167                                     ***** BEGIN-POOL *****
 6168 0000029A 0000                       ALIGNMENT CODE
 6169 0000029C 00000000                   DATA FOR SOURCE-LINE 259
 6170                                     ***** END-POOL *****
 6171 000002A0                    262     LOD_CWRP_120:
 6172                             263     ;/ V01  */
 6173 000002A0 8804               264             CMP/EQ  #_LOD_AREA_DPRAM,R0                     ; DPRAM領域にｱｸｾｽ？
 6174 000002A2 8B05               265             BF      LOD_CWRP_130                            ; いいえ
 6175                             266     
 6176                             267     ;//2016/02/25   MOV.L   #_dpram_top,R8                          ; 先頭ｱﾄﾞﾚｽ
 6177 000002A4 D801               268             MOV.L   #_dpram_top+H'2000-H'500,R8             ; 先頭ｱﾄﾞﾚｽ     MC前のDPRAM内ｼｰｹﾝｽ
                                          領域は500h〜。
 6178                             269                                                             ;               MC後のDPRAM内ｼｰｹﾝｽ
                                          領域は2000h〜。MC前と同じｱﾄﾞﾚｽ指定に対応するためｱﾄﾞﾚｽをｵﾌｾｯﾄする。
 6179                             270             M_BRA   LOD_CWRP_220
 6180 000002A6 A0BE                   M           BRA     LOD_CWRP_220
 6181 000002A8 0009                   M           NOP
 6182                             271     
 6183                                     ***** BEGIN-POOL *****
 6184 000002AA 0000                       ALIGNMENT CODE
*** SuperH RISC engine ASSEMBLER V.7.01.02.000 ***    07/04/21 19:29:24                                                  PAGE    14
PROGRAM NAME =

 6185 000002AC 00000000                   DATA FOR SOURCE-LINE 268
 6186                                     ***** END-POOL *****
 6187 000002B0                    272     LOD_CWRP_130:
 6188                             273     ;/ V01  */
 6189 000002B0 8805               274             CMP/EQ  #_LOD_AREA_SRAM,R0                      ; SRAM領域にｱｸｾｽ？
 6190 000002B2 8B05               275             BF      LOD_CWRP_140                            ; いいえ
 6191                             276     
 6192 000002B4 D801               277             MOV.L   #_Bwkram1_top,R8                        ; 先頭ｱﾄﾞﾚｽ
 6193                             278             M_BRA   LOD_CWRP_220
 6194 000002B6 A0B6                   M           BRA     LOD_CWRP_220
 6195 000002B8 0009                   M           NOP
 6196                             279     
 6197                                     ***** BEGIN-POOL *****
 6198 000002BA 0000                       ALIGNMENT CODE
 6199 000002BC AC090000                   DATA FOR SOURCE-LINE 277
 6200                                     ***** END-POOL *****
 6201 000002C0                    280     LOD_CWRP_140:
 6202                             281     ;/ V01v */
 6203 000002C0 8815               282             CMP/EQ  #_LOD_AREA_SAMP,R0                      ; ｻﾝﾌﾟﾘﾝｸﾞ領域にｱｸｾｽ？
 6204 000002C2 8B07               283             BF      LOD_CWRP_150                            ; いいえ
 6205                             284     
 6206                             285             FAR_JSR #_LDCMD_PC2CB,R6                        ; C/Bへそのままﾛｰﾀﾞｺﾏﾝﾄﾞを流す。
 6207 000002C4 D602                   M           MOV.L   #_LDCMD_PC2CB,R6                ;ﾃｰﾌﾞﾙｱﾄﾞﾚｽの内容をREGへ
 6208 000002C6 460B                   M           JSR     @R6                     ;
 6209 000002C8 0009                   M           NOP                                     ;
 6210                             286             M_BRA   LOD_CWRP_EXT
 6211 000002CA A0EA                   M           BRA     LOD_CWRP_EXT
 6212 000002CC 0009                   M           NOP
 6213                             287     
 6214                                     ***** BEGIN-POOL *****
 6215 000002CE 0000                       ALIGNMENT CODE
 6216 000002D0 00000000                   DATA FOR SOURCE-LINE 285
 6217                                     ***** END-POOL *****
 6218 000002D4                    288     LOD_CWRP_150:
 6219                             289     ;/ V05  */
 6220 000002D4 8813               290             CMP/EQ  #_LOD_AREA_FRAMX,R0                     ; FRAM領域にｱｸｾｽ？
 6221 000002D6 8B05               291             BF      LOD_CWRP_160                            ; いいえ
 6222                             292     
 6223 000002D8 D801               293             MOV.L   #_fram_top,R8                           ; 先頭ｱﾄﾞﾚｽ
 6224                             294             M_BRA   LOD_CWRP_220
 6225 000002DA A0A4                   M           BRA     LOD_CWRP_220
 6226 000002DC 0009                   M           NOP
 6227                             295     
 6228                                     ***** BEGIN-POOL *****
 6229 000002DE 0000                       ALIGNMENT CODE
 6230 000002E0 00000000                   DATA FOR SOURCE-LINE 293
 6231                                     ***** END-POOL *****
 6232 000002E4                    296     LOD_CWRP_160:
 6233 000002E4 8806               297             CMP/EQ  #_LOD_AREA_KATA,R0                      ; 型ﾃﾞｰﾀR/W領域にｱｸｾｽ？         SI
                                          T4-MC  2014/05/08
 6234 000002E6 8B05               298             BF      LOD_CWRP_170                            ; いいえ
 6235                             299     
 6236 000002E8 D801               300             MOV.L   #_KATA_RW_AREA,R8                               ; 先頭ｱﾄﾞﾚｽ
 6237                             301             M_BRA   LOD_CWRP_220
 6238 000002EA A09C                   M           BRA     LOD_CWRP_220
 6239 000002EC 0009                   M           NOP
 6240                             302     
*** SuperH RISC engine ASSEMBLER V.7.01.02.000 ***    07/04/21 19:29:24                                                  PAGE    15
PROGRAM NAME =

 6241                                     ***** BEGIN-POOL *****
 6242 000002EE 0000                       ALIGNMENT CODE
 6243 000002F0 00000000                   DATA FOR SOURCE-LINE 300
 6244                                     ***** END-POOL *****
 6245 000002F4                    303     LOD_CWRP_170:
 6246                             304             M_BRA   LOD_CWRP_EXT
 6247 000002F4 A0D5                   M           BRA     LOD_CWRP_EXT
 6248 000002F6 0009                   M           NOP
 6249                             305     
 6250 000002F8                    306     LOD_CWRP_200:
 6251 000002F8 D603               307             MOV.L   #_vup_hs_area+VUP_SEL_PC,R6
 6252 000002FA 6061               308             MOV.W   @R6,R0
 6253                             309     
 6254 000002FC 8801               310             CMP/EQ  #1,R0                                   ; 画面ﾃｰﾌﾞﾙ
 6255 000002FE 8B07               311             BF      LOD_CWRP_202
 6256 00000300 D602               312             MOV.L   #H'50,R6                                ; 50****H
 6257                             313             M_BRA   LOD_CWRP_218
 6258 00000302 A08F                   M           BRA     LOD_CWRP_218
 6259 00000304 0009                   M           NOP
 6260                             314     
 6261                                     ***** BEGIN-POOL *****
 6262 00000306 0000                       ALIGNMENT CODE
 6263 00000308 00000000                   DATA FOR SOURCE-LINE 307
 6264 0000030C 00000050                   DATA FOR SOURCE-LINE 312
 6265                                     ***** END-POOL *****
 6266 00000310                    315     LOD_CWRP_202:
 6267 00000310 8802               316             CMP/EQ  #2,R0                                   ; ｼｰｹﾝｽ
 6268 00000312 8B05               317             BF      LOD_CWRP_204
 6269 00000314 D601               318             MOV.L   #H'07,R6                                ; 07****H
 6270                             319             M_BRA   LOD_CWRP_218
 6271 00000316 A085                   M           BRA     LOD_CWRP_218
 6272 00000318 0009                   M           NOP
 6273                             320     
 6274                                     ***** BEGIN-POOL *****
 6275 0000031A 0000                       ALIGNMENT CODE
 6276 0000031C 00000007                   DATA FOR SOURCE-LINE 318
 6277                                     ***** END-POOL *****
 6278 00000320                    321     LOD_CWRP_204:
 6279 00000320 8803               322             CMP/EQ  #3,R0                                   ; CPUAﾌﾟﾛｸﾞﾗﾑ
 6280 00000322 8B05               323             BF      LOD_CWRP_206
 6281 00000324 D601               324             MOV.L   #H'00,R6                                ; 00****H
 6282                             325             M_BRA   LOD_CWRP_218
 6283 00000326 A07D                   M           BRA     LOD_CWRP_218
 6284 00000328 0009                   M           NOP
 6285                             326     
 6286                                     ***** BEGIN-POOL *****
 6287 0000032A 0000                       ALIGNMENT CODE
 6288 0000032C 00000000                   DATA FOR SOURCE-LINE 324
 6289                                     ***** END-POOL *****
 6290 00000330                    327     LOD_CWRP_206:
 6291 00000330 8804               328             CMP/EQ  #4,R0                                   ; CPUBﾌﾟﾛｸﾞﾗﾑ
 6292 00000332 8B05               329             BF      LOD_CWRP_208
 6293 00000334 D601               330             MOV.L   #H'00,R6                                ; 00****H
 6294                             331             M_BRA   LOD_CWRP_218
 6295 00000336 A075                   M           BRA     LOD_CWRP_218
 6296 00000338 0009                   M           NOP
 6297                             332     
*** SuperH RISC engine ASSEMBLER V.7.01.02.000 ***    07/04/21 19:29:24                                                  PAGE    16
PROGRAM NAME =

 6298                                     ***** BEGIN-POOL *****
 6299 0000033A 0000                       ALIGNMENT CODE
 6300 0000033C 00000000                   DATA FOR SOURCE-LINE 330
 6301                                     ***** END-POOL *****
 6302 00000340                    333     LOD_CWRP_208:
 6303 00000340 8805               334             CMP/EQ  #5,R0                                   ; ｾﾝｻA
 6304 00000342 8B05               335             BF      LOD_CWRP_210
 6305 00000344 D601               336             MOV.L   #H'0C,R6                                ; 0C****H
 6306                             337             M_BRA   LOD_CWRP_218
 6307 00000346 A06D                   M           BRA     LOD_CWRP_218
 6308 00000348 0009                   M           NOP
 6309                             338     
 6310                                     ***** BEGIN-POOL *****
 6311 0000034A 0000                       ALIGNMENT CODE
 6312 0000034C 0000000C                   DATA FOR SOURCE-LINE 336
 6313                                     ***** END-POOL *****
 6314 00000350                    339     LOD_CWRP_210:
 6315 00000350 8806               340             CMP/EQ  #6,R0                                   ; ｾﾝｻB
 6316 00000352 8B05               341             BF      LOD_CWRP_212
 6317 00000354 D601               342             MOV.L   #H'5C,R6                                ; 5C****H
 6318                             343             M_BRA   LOD_CWRP_218
 6319 00000356 A065                   M           BRA     LOD_CWRP_218
 6320 00000358 0009                   M           NOP
 6321                             344     
 6322                                     ***** BEGIN-POOL *****
 6323 0000035A 0000                       ALIGNMENT CODE
 6324 0000035C 0000005C                   DATA FOR SOURCE-LINE 342
 6325                                     ***** END-POOL *****
 6326 00000360                    345     LOD_CWRP_212:
 6327 00000360 8807               346             CMP/EQ  #7,R0                                   ; CPUAﾌﾟﾛｸﾞﾗﾑ
 6328 00000362 8B05               347             BF      LOD_CWRP_214
 6329 00000364 D601               348             MOV.L   #H'00,R6                                ; 00****H
 6330                             349             M_BRA   LOD_CWRP_218
 6331 00000366 A05D                   M           BRA     LOD_CWRP_218
 6332 00000368 0009                   M           NOP
 6333                             350     
 6334                                     ***** BEGIN-POOL *****
 6335 0000036A 0000                       ALIGNMENT CODE
 6336 0000036C 00000000                   DATA FOR SOURCE-LINE 348
 6337                                     ***** END-POOL *****
 6338 00000370                    351     LOD_CWRP_214:
 6339 00000370 8808               352             CMP/EQ  #8,R0                                   ; CPUBﾌﾟﾛｸﾞﾗﾑ
 6340 00000372 8B05               353             BF      LOD_CWRP_216
 6341 00000374 D601               354             MOV.L   #H'00,R6                                ; 00****H
 6342                             355             M_BRA   LOD_CWRP_218
 6343 00000376 A055                   M           BRA     LOD_CWRP_218
 6344 00000378 0009                   M           NOP
 6345                             356     
 6346                                     ***** BEGIN-POOL *****
 6347 0000037A 0000                       ALIGNMENT CODE
 6348 0000037C 00000000                   DATA FOR SOURCE-LINE 354
 6349                                     ***** END-POOL *****
 6350 00000380                    357     LOD_CWRP_216:
 6351 00000380 8809               358             CMP/EQ  #9,R0                                   ; SYSA
 6352 00000382 8B05               359             BF      LOD_CWRP_216A
 6353 00000384 D601               360             MOV.L   #H'0B,R6                                ; 0B****H
 6354                             361             M_BRA   LOD_CWRP_218
*** SuperH RISC engine ASSEMBLER V.7.01.02.000 ***    07/04/21 19:29:24                                                  PAGE    17
PROGRAM NAME =

 6355 00000386 A04D                   M           BRA     LOD_CWRP_218
 6356 00000388 0009                   M           NOP
 6357                             362     
 6358                                     ***** BEGIN-POOL *****
 6359 0000038A 0000                       ALIGNMENT CODE
 6360 0000038C 0000000B                   DATA FOR SOURCE-LINE 360
 6361                                     ***** END-POOL *****
 6362 00000390                    363     LOD_CWRP_216A:
 6363 00000390 880A               364             CMP/EQ  #10,R0                                  ; SYSB
 6364 00000392 8B05               365             BF      LOD_CWRP_216AA
 6365 00000394 D601               366             MOV.L   #H'5B,R6                                ; 5B****H
 6366                             367             M_BRA   LOD_CWRP_218
 6367 00000396 A045                   M           BRA     LOD_CWRP_218
 6368 00000398 0009                   M           NOP
 6369                             368     
 6370                             369     ;/* V01l */
 6371                                     ***** BEGIN-POOL *****
 6372 0000039A 0000                       ALIGNMENT CODE
 6373 0000039C 0000005B                   DATA FOR SOURCE-LINE 366
 6374                                     ***** END-POOL *****
 6375 000003A0                    370     LOD_CWRP_216AA:
 6376 000003A0 880B               371             CMP/EQ  #11,R0                                  ; 外字など
 6377 000003A2 8B05               372             BF      LOD_CWRP_216AB
 6378 000003A4 D601               373             MOV.L   #H'58,R6                                ; 58****H
 6379                             374             M_BRA   LOD_CWRP_218
 6380 000003A6 A03D                   M           BRA     LOD_CWRP_218
 6381 000003A8 0009                   M           NOP
 6382                             375     
 6383                             376     ;/* SIT-4 */
 6384                                     ***** BEGIN-POOL *****
 6385 000003AA 0000                       ALIGNMENT CODE
 6386 000003AC 00000058                   DATA FOR SOURCE-LINE 373
 6387                                     ***** END-POOL *****
 6388 000003B0                    377     LOD_CWRP_216AB:
 6389 000003B0 880C               378             CMP/EQ  #12,R0                                  ; 漢字ROMなど
 6390 000003B2 8B05               379             BF      LOD_CWRP_216AC
 6391 000003B4 D601               380             MOV.L   #H'0,R6                                 ;
 6392                             381             M_BRA   LOD_CWRP_218
 6393 000003B6 A035                   M           BRA     LOD_CWRP_218
 6394 000003B8 0009                   M           NOP
 6395                             382     
 6396                             383     ;/* SIT-4 MC */
 6397                                     ***** BEGIN-POOL *****
 6398 000003BA 0000                       ALIGNMENT CODE
 6399 000003BC 00000000                   DATA FOR SOURCE-LINE 380
 6400                                     ***** END-POOL *****
 6401 000003C0                    384     LOD_CWRP_216AC:
 6402 000003C0 8811               385             CMP/EQ  #17,R0                                  ; ｾﾝｻD
 6403 000003C2 8B05               386             BF      LOD_CWRP_216AD
 6404 000003C4 D601               387             MOV.L   #H'5C,R6                                ; 5C****H
 6405                             388             M_BRA   LOD_CWRP_218
 6406 000003C6 A02D                   M           BRA     LOD_CWRP_218
 6407 000003C8 0009                   M           NOP
 6408                             389     
 6409                             390     ;/* SIT-4 MC */
 6410                                     ***** BEGIN-POOL *****
 6411 000003CA 0000                       ALIGNMENT CODE
*** SuperH RISC engine ASSEMBLER V.7.01.02.000 ***    07/04/21 19:29:24                                                  PAGE    18
PROGRAM NAME =

 6412 000003CC 0000005C                   DATA FOR SOURCE-LINE 387
 6413                                     ***** END-POOL *****
 6414 000003D0                    391     LOD_CWRP_216AD:
 6415 000003D0 8812               392             CMP/EQ  #18,R0                                  ; CPUDﾌﾟﾛｸﾞﾗﾑ
 6416 000003D2 8B05               393             BF      LOD_CWRP_216AF
 6417 000003D4 D601               394             MOV.L   #H'00,R6                                ; 00****H
 6418                             395             M_BRA   LOD_CWRP_218
 6419 000003D6 A025                   M           BRA     LOD_CWRP_218
 6420 000003D8 0009                   M           NOP
 6421                             396     
 6422                             397     ;/* SIT-4 MC */
 6423                                     ***** BEGIN-POOL *****
 6424 000003DA 0000                       ALIGNMENT CODE
 6425 000003DC 00000000                   DATA FOR SOURCE-LINE 394
 6426                                     ***** END-POOL *****
 6427 000003E0                    398     LOD_CWRP_216AF:
 6428 000003E0 8813               399             CMP/EQ  #19,R0                                  ; SYSD
 6429 000003E2 8B05               400             BF      LOD_CWRP_216B
 6430 000003E4 D601               401             MOV.L   #H'5B,R6                                ; 5B****H
 6431                             402             M_BRA   LOD_CWRP_218
 6432 000003E6 A01D                   M           BRA     LOD_CWRP_218
 6433 000003E8 0009                   M           NOP
 6434                             403     
 6435                                     ***** BEGIN-POOL *****
 6436 000003EA 0000                       ALIGNMENT CODE
 6437 000003EC 0000005B                   DATA FOR SOURCE-LINE 401
 6438                                     ***** END-POOL *****
 6439 000003F0                    404     LOD_CWRP_216B:
 6440                             405     ;/* V01  */
 6441 000003F0 8814               406             CMP/EQ  #20,R0                                  ; 100型
 6442 000003F2 8B05               407             BF      LOD_CWRP_216C
 6443 000003F4 D601               408             MOV.L   #H'04,R6                                ; 04****H (FRAM_TOP(500000H)からの
                                          ｱﾄﾞﾚｽ)
 6444                             409             M_BRA   LOD_CWRP_218
 6445 000003F6 A015                   M           BRA     LOD_CWRP_218
 6446 000003F8 0009                   M           NOP
 6447                             410     
 6448                                     ***** BEGIN-POOL *****
 6449 000003FA 0000                       ALIGNMENT CODE
 6450 000003FC 00000004                   DATA FOR SOURCE-LINE 408
 6451                                     ***** END-POOL *****
 6452 00000400                    411     LOD_CWRP_216C:
 6453 00000400 8815               412             CMP/EQ  #21,R0                                  ; 101-200型             2014/04/17
                                                  SIT4-MC
 6454 00000402 8B05               413             BF      LOD_CWRP_216D
 6455 00000404 D601               414             MOV.L   #H'1C,R6                                ; 1C****H (FRAM_TOP(500000H)からの
                                          ｱﾄﾞﾚｽ)
 6456                             415             M_BRA   LOD_CWRP_218
 6457 00000406 A00D                   M           BRA     LOD_CWRP_218
 6458 00000408 0009                   M           NOP
 6459                             416     
 6460                                     ***** BEGIN-POOL *****
 6461 0000040A 0000                       ALIGNMENT CODE
 6462 0000040C 0000001C                   DATA FOR SOURCE-LINE 414
 6463                                     ***** END-POOL *****
 6464 00000410                    417     LOD_CWRP_216D:
 6465 00000410 8816               418             CMP/EQ  #22,R0                                  ; サンプル20型          2014/04/17
*** SuperH RISC engine ASSEMBLER V.7.01.02.000 ***    07/04/21 19:29:24                                                  PAGE    19
PROGRAM NAME =

                                                  SIT4-MC
 6466 00000412 8B05               419             BF      LOD_CWRP_216E
 6467 00000414 D601               420             MOV.L   #H'1F,R6                                ; 1F2***H (FRAM_TOP(500000H)からの
                                          ｱﾄﾞﾚｽ)
 6468                             421             M_BRA   LOD_CWRP_218
 6469 00000416 A005                   M           BRA     LOD_CWRP_218
 6470 00000418 0009                   M           NOP
 6471                             422     
 6472                                     ***** BEGIN-POOL *****
 6473 0000041A 0000                       ALIGNMENT CODE
 6474 0000041C 0000001F                   DATA FOR SOURCE-LINE 420
 6475                                     ***** END-POOL *****
 6476 00000420                    423     LOD_CWRP_216E:
 6477                             424             M_BRA   LOD_CWRP_EXT
 6478 00000420 A03F                   M           BRA     LOD_CWRP_EXT
 6479 00000422 0009                   M           NOP
 6480                             425     
 6481 00000424                    426     LOD_CWRP_218:
 6482 00000424 3368               427             SUB     R6,R3                                   ;
 6483                             428     
 6484 00000426                    429     LOD_CWRP_220:
 6485 00000426 4328               430             SHLL16  R3
 6486 00000428 4218               431             SHLL8   R2
 6487 0000042A 212B               432             OR      R2,R1
 6488 0000042C 213B               433             OR      R3,R1                                   ; ｱﾄﾞﾚｽ
 6489 0000042E 381C               434             ADD     R1,R8                                   ; R8 <- 書込み先頭ｱﾄﾞﾚｽ
 6490                             435     
 6491                             436     ;       /* V00m */
 6492 00000430 DA03               437             MOV.L   #_sci0_rxd_buf+_AREA_SEL,R10
 6493 00000432 60A0               438             MOV.B   @R10,R0                                 ; 領域選択
 6494 00000434 600C               439             EXTU.B  R0,R0
 6495 00000436 8800               440             CMP/EQ  #_LOD_AREA0,R0                          ; ﾊﾝﾄﾞｼｪｲｸ領域にｱｸｾｽ？
 6496 00000438 8B04               441             BF      LOD_CWRP_222                            ; いいえ
 6497                             442             M_BRA   LOD_CWRP_230
 6498 0000043A A00D                   M           BRA     LOD_CWRP_230
 6499 0000043C 0009                   M           NOP
 6500                             443     
 6501                                     ***** BEGIN-POOL *****
 6502 0000043E 0000                       ALIGNMENT CODE
 6503 00000440 00000000                   DATA FOR SOURCE-LINE 437
 6504                                     ***** END-POOL *****
 6505 00000444                    444     LOD_CWRP_222:
 6506 00000444 8801               445             CMP/EQ  #_LOD_AREA1,R0                          ; ﾊﾞｰｼﾞｮﾝUP領域にｱｸｾｽ？
 6507 00000446 8B07               446             BF      LOD_CWRP_223                            ; いいえ
 6508 00000448 DA02               447             MOV.L   #_VUP_DATA_AREA_CPUB+_CPUB_PRO_SIZE,R10
 6509 0000044A 38A2               448             CMP/HS  R10,R8                                  ;
 6510 0000044C 8B04               449             BF      LOD_CWRP_230
 6511                             450             M_BRA   LOD_CWRP_300
 6512 0000044E A015                   M           BRA     LOD_CWRP_300
 6513 00000450 0009                   M           NOP
 6514                             451     
 6515                                     ***** BEGIN-POOL *****
 6516 00000452 0000                       ALIGNMENT CODE
 6517 00000454 AC4A0000                   DATA FOR SOURCE-LINE 447
 6518                                     ***** END-POOL *****
 6519 00000458                    452     LOD_CWRP_223:
 6520                             453     
*** SuperH RISC engine ASSEMBLER V.7.01.02.000 ***    07/04/21 19:29:24                                                  PAGE    20
PROGRAM NAME =

 6521 00000458                    454     LOD_CWRP_230:
 6522 00000458 4518               455             SHLL8   R5
 6523 0000045A 245B               456             OR      R5,R4
 6524 0000045C 694D               457             EXTU.W  R4,R9                                   ; R9 <- 書込みﾜｰﾄﾞ数
 6525                             458     
 6526                             459     ;///V01p        MOV.L   #_sci0_wkram+RX_ERR,R10                 ; V01i(INS)
 6527                             460     ;///V01p        MOV.W   @R10,R0
 6528                             461     ;///V01p        TST     R0,R0                                   ; BCC異常？
 6529                             462     ;///V01p        BF      LOD_CWRP_350                            ; はい
 6530                             463     
 6531 0000045E DA06               464             MOV.L   #_sci0_rxd_buf+_DATA,R10
 6532 00000460                    465     LOD_CWRP_250:
 6533 00000460 2998               466             TST     R9,R9                                   ; V01n_b
 6534 00000462 890B               467             BT      LOD_CWRP_300                            ; V01n_b
 6535 00000464 60A4               468             MOV.B   @R10+,R0
 6536 00000466 61A4               469             MOV.B   @R10+,R1
 6537 00000468 4018               470             SHLL8   R0
 6538 0000046A 611C               471             EXTU.B  R1,R1
 6539 0000046C 201B               472             OR      R1,R0
 6540 0000046E 2801               473             MOV.W   R0,@R8                                  ; 指定された領域にﾃﾞｰﾀを格納
 6541 00000470 7802               474             ADD     #2,R8
 6542 00000472 79FF               475             ADD     #-1,R9
 6543                             476     ;//V01n_b       CMP/PL  R9
 6544                             477     ;//V01n_b       BT      LOD_CWRP_250
 6545                             478             M_BRA   LOD_CWRP_250
 6546 00000474 AFF4                   M           BRA     LOD_CWRP_250
 6547 00000476 0009                   M           NOP
 6548                             479     
 6549                                     ***** BEGIN-POOL *****
 6550 00000478 00000000                   DATA FOR SOURCE-LINE 464
 6551                                     ***** END-POOL *****
 6552 0000047C                    480     LOD_CWRP_300:
 6553 0000047C DA03               481             MOV.L   #_sci0_rxd_buf+_AREA_SEL,R10            ; /* V01i */
 6554 0000047E 60A4               482             MOV.B   @R10+,R0                                ; 領域選択
 6555 00000480 8803               483             CMP/EQ  #_LOD_AREA_FRAM,R0                      ; FRAM領域にｱｸｾｽ？
 6556 00000482 8905               484             BT      LOD_CWRP_340                            ; はい
 6557 00000484 8813               485             CMP/EQ  #_LOD_AREA_FRAMX,R0                     ; FRAM領域にｱｸｾｽ？      V05 (INS)
 6558 00000486 8903               486             BT      LOD_CWRP_340                            ; はい
 6559                             487             M_BRA   LOD_CWRP_350                            ; いいえ
 6560 00000488 A005                   M           BRA     LOD_CWRP_350
 6561 0000048A 0009                   M           NOP
 6562                             488     
 6563                                     ***** BEGIN-POOL *****
 6564 0000048C 00000000                   DATA FOR SOURCE-LINE 481
 6565                                     ***** END-POOL *****
 6566 00000490                    489     LOD_CWRP_340:
 6567                             490             FAR_JSR #_FRAM_csum_set_ASM,R0
 6568 00000490 D005                   M           MOV.L   #_FRAM_csum_set_ASM,R0          ;ﾃｰﾌﾞﾙｱﾄﾞﾚｽの内容をREGへ
 6569 00000492 400B                   M           JSR     @R0                     ;
 6570 00000494 0009                   M           NOP                                     ;
 6571                             491     
 6572 00000496                    492     LOD_CWRP_350:
 6573                             493             FAR_JSR #_SCI0_TXDBUF_MAKE1,R10                 ; ﾗｲﾄｺﾏﾝﾄﾞ後の送信ﾃﾞｰﾀ作成
 6574 00000496 DA05                   M           MOV.L   #_SCI0_TXDBUF_MAKE1,R10         ;ﾃｰﾌﾞﾙｱﾄﾞﾚｽの内容をREGへ
 6575 00000498 4A0B                   M           JSR     @R10                    ;
 6576 0000049A 0009                   M           NOP                                     ;
 6577                             494             FAR_JSR #_SCI0_TXI_EI,R10                       ; 送信ｴﾝﾌﾟﾃｨ割込み許可
*** SuperH RISC engine ASSEMBLER V.7.01.02.000 ***    07/04/21 19:29:24                                                  PAGE    21
PROGRAM NAME =

 6578 0000049C DA04                   M           MOV.L   #_SCI0_TXI_EI,R10               ;ﾃｰﾌﾞﾙｱﾄﾞﾚｽの内容をREGへ
 6579 0000049E 4A0B                   M           JSR     @R10                    ;
 6580 000004A0 0009                   M           NOP                                     ;
 6581                             495     
 6582 000004A2                    496     LOD_CWRP_EXT:
 6583                             497             SUB_END
 6584                                 M   ;;;;;;; ADD     #4,R15                  ;[不要?]
 6585 000004A2 4F26                   M           LDS.L   @R15+,PR                ;[必要]
 6586                             498             M_RTS
 6587 000004A4 000B                   M           RTS                             ;RTSの後ろの
 6588 000004A6 0009                   M           NOP                             ;@R15+,PRはﾀﾞﾒ
 6589                             499     
 6590                             500     
 6591                             501     ;       *********************************************************************
 6592                             502     ;       *****                                                           *****
 6593                             503     ;       *****   FeRAM SUM SET                           V01i            *****
 6594                             504     ;       *****                                                           *****
 6595                             505     ;       *****                                                           *****
 6596                             506     ;       *****                                                           *****
 6597                             507     ;       *********************************************************************
 6598                                     ***** BEGIN-POOL *****
 6599 000004A8 00000000                   DATA FOR SOURCE-LINE 490
 6600 000004AC 00000000                   DATA FOR SOURCE-LINE 493
 6601 000004B0 00000000                   DATA FOR SOURCE-LINE 494
 6602                                     ***** END-POOL *****
 6603 000004B4                    508     _FRAM_csum_set_ASM:
 6604                             509             SUB_START
 6605 000004B4 4F22                   M           STS.L   PR,@-R15                ;[必要]
 6606                                 M   ;;;;;;; ADD     #-4,R15                 ;[不要?]
 6607 000004B6 200A               510             XOR     R0,R0
 6608 000004B8 D106               511             MOV.L   #_SEQ_016_SV,R1
 6609 000004BA D407               512             MOV.L   #_PV_TOTLC1_B3,R4
 6610 000004BC 3418               513             SUB     R1,R4
 6611 000004BE 4409               514             SHLR2   R4
 6612 000004C0                    515     _FRAM_csum_set_ASM_LOOP:
 6613 000004C0 6216               516             MOV.L   @R1+,R2
 6614 000004C2 302C               517             ADD     R2,R0
 6615 000004C4 74FF               518             ADD     #-1,R4
 6616 000004C6 2448               519             TST     R4,R4
 6617 000004C8 8BFA               520             BF      _FRAM_csum_set_ASM_LOOP
 6618 000004CA D104               521             MOV.L   #_SUM_CHK,R1
 6619 000004CC 2102               522             MOV.L   R0,@R1
 6620                             523             SUB_END
 6621                                 M   ;;;;;;; ADD     #4,R15                  ;[不要?]
 6622 000004CE 4F26                   M           LDS.L   @R15+,PR                ;[必要]
 6623                             524             M_RTS
 6624 000004D0 000B                   M           RTS                             ;RTSの後ろの
 6625 000004D2 0009                   M           NOP                             ;@R15+,PRはﾀﾞﾒ
 6626                             525     
 6627                             526     
 6628                             527     ;       **********************************************************************************
                                          ***
 6629                             528     ;       *****                                                                           **
                                          ***
 6630                             529     ;       *****   ライトコマンド受信後の送信データ作成                                    **
                                          ***
 6631                             530     ;       *****                                                                           **
*** SuperH RISC engine ASSEMBLER V.7.01.02.000 ***    07/04/21 19:29:24                                                  PAGE    22
PROGRAM NAME =

                                          ***
 6632                             531     ;       *****                                                                           **
                                          ***
 6633                             532     ;       *****                                                                           **
                                          ***
 6634                             533     ;       **********************************************************************************
                                          ***
 6635                                     ***** BEGIN-POOL *****
 6636 000004D4 00000000                   DATA FOR SOURCE-LINE 511
 6637 000004D8 00000000                   DATA FOR SOURCE-LINE 512
 6638 000004DC 00000000                   DATA FOR SOURCE-LINE 521
 6639                                     ***** END-POOL *****
 6640 000004E0                    534     _SCI0_TXDBUF_MAKE1:
 6641                             535             SUB_START
 6642 000004E0 4F22                   M           STS.L   PR,@-R15                ;[必要]
 6643                                 M   ;;;;;;; ADD     #-4,R15                 ;[不要?]
 6644                             536     
 6645 000004E2 D14A               537             MOV.L   #_sci0_txd_buf,R1                       ;
 6646 000004E4 222A               538             XOR     R2,R2                                   ; ﾃﾞｰﾀ数ｶｳﾝﾄ用
 6647 000004E6 233A               539             XOR     R3,R3                                   ; BCC作成用
 6648                             540     
 6649 000004E8 9089               541             MOV.W   #H'5A,R0                                ; ｽﾀｰﾄｺｰﾄﾞ              0
 6650 000004EA 2100               542             MOV.B   R0,@R1
 6651 000004EC 7101               543             ADD     #1,R1                                   ; ﾊﾞｯﾌｧｱﾄﾞﾚｽ+1
 6652                             544     
 6653 000004EE 7101               545             ADD     #1,R1                                   ; ﾊﾞｯﾌｧｱﾄﾞﾚｽ+1
 6654 000004F0 7101               546             ADD     #1,R1                                   ; ﾊﾞｯﾌｧｱﾄﾞﾚｽ+1
 6655                             547     
 6656 000004F2 DA47               548             MOV.L   #_sci0_wkram+RX_ERR,R10
 6657 000004F4 60A1               549             MOV.W   @R10,R0                                 ; 処理ｽﾃｰﾀｽ             3
 6658 000004F6 2100               550             MOV.B   R0,@R1
 6659 000004F8 7201               551             ADD     #1,R2                                   ; ﾃﾞｰﾀ数ｶｳﾝﾀ+1
 6660 000004FA 330C               552             ADD     R0,R3                                   ; BCC加算
 6661 000004FC 7101               553             ADD     #1,R1                                   ; ﾊﾞｯﾌｧｱﾄﾞﾚｽ+1
 6662                             554     
 6663 000004FE 907F               555             MOV.W   #H'7A,R0                                ; 接続方式              4
 6664 00000500 2100               556             MOV.B   R0,@R1
 6665 00000502 7201               557             ADD     #1,R2                                   ; ﾃﾞｰﾀ数ｶｳﾝﾀ+1
 6666 00000504 330C               558             ADD     R0,R3                                   ; BCC加算
 6667 00000506 7101               559             ADD     #1,R1                                   ; ﾊﾞｯﾌｧｱﾄﾞﾚｽ+1
 6668                             560     
 6669 00000508 907B               561             MOV.W   #H'0,R0                                 ; 接続ID(L)             5
 6670 0000050A 2100               562             MOV.B   R0,@R1
 6671 0000050C 7201               563             ADD     #1,R2                                   ; ﾃﾞｰﾀ数ｶｳﾝﾀ+1
 6672 0000050E 330C               564             ADD     R0,R3                                   ; BCC加算
 6673 00000510 7101               565             ADD     #1,R1                                   ; ﾊﾞｯﾌｧｱﾄﾞﾚｽ+1
 6674                             566     
 6675 00000512 9076               567             MOV.W   #H'0,R0                                 ; 接続ID(H)             6
 6676 00000514 2100               568             MOV.B   R0,@R1
 6677 00000516 7201               569             ADD     #1,R2                                   ; ﾃﾞｰﾀ数ｶｳﾝﾀ+1
 6678 00000518 330C               570             ADD     R0,R3                                   ; BCC加算
 6679 0000051A 7101               571             ADD     #1,R1                                   ; ﾊﾞｯﾌｧｱﾄﾞﾚｽ+1
 6680                             572     
 6681 0000051C 9072               573             MOV.W   #H'11,R0                                ; 機種互換ｺｰﾄﾞ          7
 6682 0000051E 2100               574             MOV.B   R0,@R1
 6683 00000520 7201               575             ADD     #1,R2                                   ; ﾃﾞｰﾀ数ｶｳﾝﾀ+1
 6684 00000522 330C               576             ADD     R0,R3                                   ; BCC加算
*** SuperH RISC engine ASSEMBLER V.7.01.02.000 ***    07/04/21 19:29:24                                                  PAGE    23
PROGRAM NAME =

 6685 00000524 7101               577             ADD     #1,R1                                   ; ﾊﾞｯﾌｧｱﾄﾞﾚｽ+1
 6686                             578     
 6687 00000526 906C               579             MOV.W   #H'0,R0                                 ; 伝送ｲﾝﾀｰﾛｯｸｺｰﾄﾞ       8
 6688 00000528 2100               580             MOV.B   R0,@R1
 6689 0000052A 7201               581             ADD     #1,R2                                   ; ﾃﾞｰﾀ数ｶｳﾝﾀ+1
 6690 0000052C 330C               582             ADD     R0,R3                                   ; BCC加算
 6691 0000052E 7101               583             ADD     #1,R1                                   ; ﾊﾞｯﾌｧｱﾄﾞﾚｽ+1
 6692                             584     
 6693 00000530 9067               585             MOV.W   #H'0,R0                                 ; ﾊﾟｽﾜｰﾄﾞ(LL)           9
 6694 00000532 2100               586             MOV.B   R0,@R1
 6695 00000534 7201               587             ADD     #1,R2                                   ; ﾃﾞｰﾀ数ｶｳﾝﾀ+1
 6696 00000536 330C               588             ADD     R0,R3                                   ; BCC加算
 6697 00000538 7101               589             ADD     #1,R1                                   ; ﾊﾞｯﾌｧｱﾄﾞﾚｽ+1
 6698                             590     
 6699 0000053A 9062               591             MOV.W   #H'0,R0                                 ; ﾊﾟｽﾜｰﾄﾞ(LH)           10
 6700 0000053C 2100               592             MOV.B   R0,@R1
 6701 0000053E 7201               593             ADD     #1,R2                                   ; ﾃﾞｰﾀ数ｶｳﾝﾀ+1
 6702 00000540 330C               594             ADD     R0,R3                                   ; BCC加算
 6703 00000542 7101               595             ADD     #1,R1                                   ; ﾊﾞｯﾌｧｱﾄﾞﾚｽ+1
 6704                             596     
 6705 00000544 905D               597             MOV.W   #H'0,R0                                 ; ﾊﾟｽﾜｰﾄﾞ(HL)           11
 6706 00000546 2100               598             MOV.B   R0,@R1
 6707 00000548 7201               599             ADD     #1,R2                                   ; ﾃﾞｰﾀ数ｶｳﾝﾀ+1
 6708 0000054A 330C               600             ADD     R0,R3                                   ; BCC加算
 6709 0000054C 7101               601             ADD     #1,R1                                   ; ﾊﾞｯﾌｧｱﾄﾞﾚｽ+1
 6710                             602     
 6711 0000054E 9058               603             MOV.W   #H'0,R0                                 ; ﾊﾟｽﾜｰﾄﾞ(HH)           12
 6712 00000550 2100               604             MOV.B   R0,@R1
 6713 00000552 7201               605             ADD     #1,R2                                   ; ﾃﾞｰﾀ数ｶｳﾝﾀ+1
 6714 00000554 330C               606             ADD     R0,R3                                   ; BCC加算
 6715 00000556 7101               607             ADD     #1,R1                                   ; ﾊﾞｯﾌｧｱﾄﾞﾚｽ+1
 6716                             608     
 6717 00000558 9055               609             MOV.W   #H'1,R0                                 ; CMND                  13
 6718 0000055A 2100               610             MOV.B   R0,@R1
 6719 0000055C 7201               611             ADD     #1,R2                                   ; ﾃﾞｰﾀ数ｶｳﾝﾀ+1
 6720 0000055E 330C               612             ADD     R0,R3                                   ; BCC加算
 6721 00000560 7101               613             ADD     #1,R1                                   ; ﾊﾞｯﾌｧｱﾄﾞﾚｽ+1
 6722                             614     
 6723 00000562 904E               615             MOV.W   #H'0,R0                                 ; MODE                  14
 6724 00000564 2100               616             MOV.B   R0,@R1
 6725 00000566 7201               617             ADD     #1,R2                                   ; ﾃﾞｰﾀ数ｶｳﾝﾀ+1
 6726 00000568 330C               618             ADD     R0,R3                                   ; BCC加算
 6727 0000056A 7101               619             ADD     #1,R1                                   ; ﾊﾞｯﾌｧｱﾄﾞﾚｽ+1
 6728                             620     
 6729 0000056C 9049               621             MOV.W   #H'0,R0                                 ; 終了情報              15
 6730 0000056E 2100               622             MOV.B   R0,@R1
 6731 00000570 7201               623             ADD     #1,R2                                   ; ﾃﾞｰﾀ数ｶｳﾝﾀ+1
 6732 00000572 330C               624             ADD     R0,R3                                   ; BCC加算
 6733 00000574 7101               625             ADD     #1,R1                                   ; ﾊﾞｯﾌｧｱﾄﾞﾚｽ+1
 6734                             626     
 6735 00000576 9046               627             MOV.W   #H'01,R0                                ; ｼｰｹﾝｽ番号             16
 6736 00000578 2100               628             MOV.B   R0,@R1
 6737 0000057A 7201               629             ADD     #1,R2                                   ; ﾃﾞｰﾀ数ｶｳﾝﾀ+1
 6738 0000057C 330C               630             ADD     R0,R3                                   ; BCC加算
 6739 0000057E 7101               631             ADD     #1,R1                                   ; ﾊﾞｯﾌｧｱﾄﾞﾚｽ+1
 6740                             632     
 6741 00000580 9042               633             MOV.W   #H'6,R0                                 ; ﾃﾞｰﾀﾊﾞｲﾄ数(L)         17
*** SuperH RISC engine ASSEMBLER V.7.01.02.000 ***    07/04/21 19:29:24                                                  PAGE    24
PROGRAM NAME =

 6742 00000582 2100               634             MOV.B   R0,@R1
 6743 00000584 7201               635             ADD     #1,R2                                   ; ﾃﾞｰﾀ数ｶｳﾝﾀ+1
 6744 00000586 330C               636             ADD     R0,R3                                   ; BCC加算
 6745 00000588 7101               637             ADD     #1,R1                                   ; ﾊﾞｯﾌｧｱﾄﾞﾚｽ+1
 6746                             638     
 6747 0000058A 903A               639             MOV.W   #H'0,R0                                 ; ﾃﾞｰﾀﾊﾞｲﾄ数(H)         18
 6748 0000058C 2100               640             MOV.B   R0,@R1
 6749 0000058E 7201               641             ADD     #1,R2                                   ; ﾃﾞｰﾀ数ｶｳﾝﾀ+1
 6750 00000590 330C               642             ADD     R0,R3                                   ; BCC加算
 6751 00000592 7101               643             ADD     #1,R1                                   ; ﾊﾞｯﾌｧｱﾄﾞﾚｽ+1
 6752                             644     
 6753 00000594 DA1F               645             MOV.L   #_sci0_rxd_buf+_AREA_SEL,R10
 6754 00000596 60A4               646             MOV.B   @R10+,R0                                ; 領域選択              19
 6755 00000598 2100               647             MOV.B   R0,@R1
 6756 0000059A 7201               648             ADD     #1,R2                                   ; ﾃﾞｰﾀ数ｶｳﾝﾀ+1
 6757 0000059C 330C               649             ADD     R0,R3                                   ; BCC加算
 6758 0000059E 7101               650             ADD     #1,R1                                   ; ﾊﾞｯﾌｧｱﾄﾞﾚｽ+1
 6759                             651     
 6760 000005A0 60A4               652             MOV.B   @R10+,R0                                ; 領域ｱﾄﾞﾚｽ(L)          20
 6761 000005A2 2100               653             MOV.B   R0,@R1
 6762 000005A4 7201               654             ADD     #1,R2                                   ; ﾃﾞｰﾀ数ｶｳﾝﾀ+1
 6763 000005A6 330C               655             ADD     R0,R3                                   ; BCC加算
 6764 000005A8 7101               656             ADD     #1,R1                                   ; ﾊﾞｯﾌｧｱﾄﾞﾚｽ+1
 6765                             657     
 6766 000005AA 60A4               658             MOV.B   @R10+,R0                                ; 領域ｱﾄﾞﾚｽ(M)          21
 6767 000005AC 2100               659             MOV.B   R0,@R1
 6768 000005AE 7201               660             ADD     #1,R2                                   ; ﾃﾞｰﾀ数ｶｳﾝﾀ+1
 6769 000005B0 330C               661             ADD     R0,R3                                   ; BCC加算
 6770 000005B2 7101               662             ADD     #1,R1                                   ; ﾊﾞｯﾌｧｱﾄﾞﾚｽ+1
 6771                             663     
 6772 000005B4 60A4               664             MOV.B   @R10+,R0                                ; 領域ｱﾄﾞﾚｽ(H)          22
 6773 000005B6 2100               665             MOV.B   R0,@R1
 6774 000005B8 7201               666             ADD     #1,R2                                   ; ﾃﾞｰﾀ数ｶｳﾝﾀ+1
 6775 000005BA 330C               667             ADD     R0,R3                                   ; BCC加算
 6776 000005BC 7101               668             ADD     #1,R1                                   ; ﾊﾞｯﾌｧｱﾄﾞﾚｽ+1
 6777                             669     
 6778 000005BE 60A4               670             MOV.B   @R10+,R0                                ; 実ﾃﾞｰﾀﾜｰﾄﾞ数(L)       23
 6779 000005C0 2100               671             MOV.B   R0,@R1
 6780 000005C2 7201               672             ADD     #1,R2                                   ; ﾃﾞｰﾀ数ｶｳﾝﾀ+1
 6781 000005C4 330C               673             ADD     R0,R3                                   ; BCC加算
 6782 000005C6 7101               674             ADD     #1,R1                                   ; ﾊﾞｯﾌｧｱﾄﾞﾚｽ+1
 6783                             675     
 6784 000005C8 60A4               676             MOV.B   @R10+,R0                                ; 実ﾃﾞｰﾀﾜｰﾄﾞ数(H)       24
 6785 000005CA 2100               677             MOV.B   R0,@R1
 6786 000005CC 7201               678             ADD     #1,R2                                   ; ﾃﾞｰﾀ数ｶｳﾝﾀ+1
 6787 000005CE 330C               679             ADD     R0,R3                                   ; BCC加算
 6788 000005D0 7101               680             ADD     #1,R1                                   ; ﾊﾞｯﾌｧｱﾄﾞﾚｽ+1
 6789                             681     
 6790 000005D2 7201               682             ADD     #1,R2                                   ; ﾃﾞｰﾀ数ｶｳﾝﾀ+1（BCC分）
 6791                             683     
 6792 000005D4 D410               684             MOV.L   #_sci0_txd_buf+_DATA_CNTL,R4            ;
 6793 000005D6 602C               685             EXTU.B  R2,R0                                   ; ﾃﾞｰﾀ数ｶｳﾝﾀ(L)
 6794 000005D8 2400               686             MOV.B   R0,@R4
 6795 000005DA 330C               687             ADD     R0,R3                                   ; BCC加算
 6796 000005DC 7401               688             ADD     #1,R4                                   ; ﾊﾞｯﾌｧｱﾄﾞﾚｽ+1
 6797                             689     
 6798 000005DE 6023               690             MOV     R2,R0
*** SuperH RISC engine ASSEMBLER V.7.01.02.000 ***    07/04/21 19:29:24                                                  PAGE    25
PROGRAM NAME =

 6799 000005E0 4019               691             SHLR8   R0                                      ; ﾃﾞｰﾀ数ｶｳﾝﾀ(H)
 6800 000005E2 2400               692             MOV.B   R0,@R4
 6801 000005E4 330C               693             ADD     R0,R3                                   ; BCC加算
 6802 000005E6 7401               694             ADD     #1,R4                                   ; ﾊﾞｯﾌｧｱﾄﾞﾚｽ+1
 6803                             695     
 6804 000005E8 633B               696             NEG     R3,R3
 6805 000005EA 2130               697             MOV.B   R3,@R1                                  ; BCC格納
 6806                             698     
 6807 000005EC 7203               699             ADD     #3,R2                                   ; ﾃﾞｰﾀ数ｶｳﾝﾀ＋3(伝送ﾍｯﾀﾞ部)＝全送
                                          信ﾊﾞｲﾄ数
 6808 000005EE DA0B               700             MOV.L   #_sci0_wkram+TXD_CNT,R10
 6809 000005F0 2A21               701             MOV.W   R2,@R10                                 ; 全送信ﾊﾞｲﾄ数格納
 6810                             702     
 6811 000005F2 200A               703             XOR     R0,R0
 6812 000005F4 DA0A               704             MOV.L   #_sci0_wkram+TXD_BUF_POI,R10
 6813 000005F6 2A01               705             MOV.W   R0,@R10                                 ; 送信ﾊﾞｯﾌｧ用ﾎﾟｲﾝﾀをｸﾘｱ
 6814                             706     
 6815                             707             SUB_END
 6816                                 M   ;;;;;;; ADD     #4,R15                  ;[不要?]
 6817 000005F8 4F26                   M           LDS.L   @R15+,PR                ;[必要]
 6818                             708             M_RTS
 6819 000005FA 000B                   M           RTS                             ;RTSの後ろの
 6820 000005FC 0009                   M           NOP                             ;@R15+,PRはﾀﾞﾒ
 6821                             709     
 6822                             710     
 6823                             711     ;       **********************************************************************************
                                          ***
 6824                             712     ;       *****                                                                           **
                                          ***
 6825                             713     ;       *****   受信データに異常があったときの送信データ作成                            **
                                          ***
 6826                             714     ;       *****                                                                           **
                                          ***
 6827                             715     ;       *****                                                                           **
                                          ***
 6828                             716     ;       *****                                                                           **
                                          ***
 6829                             717     ;       **********************************************************************************
                                          ***
 6830                                     ***** BEGIN-POOL *****
 6831 000005FE 005A                       DATA FOR SOURCE-LINE 541
 6832 00000600 007A                       DATA FOR SOURCE-LINE 555
 6833 00000602 0000                       DATA FOR SOURCE-LINE 561,567,579,585,591,597,603,615,621,639
 6834 00000604 0011                       DATA FOR SOURCE-LINE 573
 6835 00000606 0001                       DATA FOR SOURCE-LINE 609,627
 6836 00000608 0006                       DATA FOR SOURCE-LINE 633
 6837 0000060A 0000                       ALIGNMENT CODE
 6838 0000060C 00000000                   DATA FOR SOURCE-LINE 537
 6839 00000610 00000000                   DATA FOR SOURCE-LINE 548
 6840 00000614 00000000                   DATA FOR SOURCE-LINE 645
 6841 00000618 00000000                   DATA FOR SOURCE-LINE 684
 6842 0000061C 00000000                   DATA FOR SOURCE-LINE 700
 6843 00000620 00000000                   DATA FOR SOURCE-LINE 704
 6844                                     ***** END-POOL *****
 6845 00000624                    718     _SCI0_TXDBUF_MAKE_NG:
 6846                             719             SUB_START
 6847 00000624 4F22                   M           STS.L   PR,@-R15                ;[必要]
*** SuperH RISC engine ASSEMBLER V.7.01.02.000 ***    07/04/21 19:29:24                                                  PAGE    26
PROGRAM NAME =

 6848                                 M   ;;;;;;; ADD     #-4,R15                 ;[不要?]
 6849                             720     
 6850 00000626 D149               721             MOV.L   #_sci0_txd_buf,R1                       ;
 6851 00000628 222A               722             XOR     R2,R2                                   ; ﾃﾞｰﾀ数ｶｳﾝﾄ用
 6852 0000062A 233A               723             XOR     R3,R3                                   ; BCC作成用
 6853                             724     
 6854 0000062C 9088               725             MOV.W   #H'5A,R0                                ; ｽﾀｰﾄｺｰﾄﾞ              0
 6855 0000062E 2100               726             MOV.B   R0,@R1
 6856 00000630 7101               727             ADD     #1,R1                                   ; ﾊﾞｯﾌｧｱﾄﾞﾚｽ+1
 6857                             728     
 6858 00000632 7101               729             ADD     #1,R1                                   ; ﾊﾞｯﾌｧｱﾄﾞﾚｽ+1
 6859 00000634 7101               730             ADD     #1,R1                                   ; ﾊﾞｯﾌｧｱﾄﾞﾚｽ+1
 6860                             731     
 6861 00000636 DA46               732             MOV.L   #_sci0_wkram+RX_ERR,R10
 6862 00000638 60A1               733             MOV.W   @R10,R0                                 ; 処理ｽﾃｰﾀｽ             3
 6863 0000063A 2100               734             MOV.B   R0,@R1
 6864 0000063C 7201               735             ADD     #1,R2                                   ; ﾃﾞｰﾀ数ｶｳﾝﾀ+1
 6865 0000063E 330C               736             ADD     R0,R3                                   ; BCC加算
 6866 00000640 7101               737             ADD     #1,R1                                   ; ﾊﾞｯﾌｧｱﾄﾞﾚｽ+1
 6867                             738     
 6868 00000642 907E               739             MOV.W   #H'7A,R0                                ; 接続方式              4
 6869 00000644 2100               740             MOV.B   R0,@R1
 6870 00000646 7201               741             ADD     #1,R2                                   ; ﾃﾞｰﾀ数ｶｳﾝﾀ+1
 6871 00000648 330C               742             ADD     R0,R3                                   ; BCC加算
 6872 0000064A 7101               743             ADD     #1,R1                                   ; ﾊﾞｯﾌｧｱﾄﾞﾚｽ+1
 6873                             744     
 6874 0000064C 907A               745             MOV.W   #H'0,R0                                 ; 接続ID(L)             5
 6875 0000064E 2100               746             MOV.B   R0,@R1
 6876 00000650 7201               747             ADD     #1,R2                                   ; ﾃﾞｰﾀ数ｶｳﾝﾀ+1
 6877 00000652 330C               748             ADD     R0,R3                                   ; BCC加算
 6878 00000654 7101               749             ADD     #1,R1                                   ; ﾊﾞｯﾌｧｱﾄﾞﾚｽ+1
 6879                             750     
 6880 00000656 9075               751             MOV.W   #H'0,R0                                 ; 接続ID(H)             6
 6881 00000658 2100               752             MOV.B   R0,@R1
 6882 0000065A 7201               753             ADD     #1,R2                                   ; ﾃﾞｰﾀ数ｶｳﾝﾀ+1
 6883 0000065C 330C               754             ADD     R0,R3                                   ; BCC加算
 6884 0000065E 7101               755             ADD     #1,R1                                   ; ﾊﾞｯﾌｧｱﾄﾞﾚｽ+1
 6885                             756     
 6886 00000660 9071               757             MOV.W   #H'11,R0                                ; 機種互換ｺｰﾄﾞ          7
 6887 00000662 2100               758             MOV.B   R0,@R1
 6888 00000664 7201               759             ADD     #1,R2                                   ; ﾃﾞｰﾀ数ｶｳﾝﾀ+1
 6889 00000666 330C               760             ADD     R0,R3                                   ; BCC加算
 6890 00000668 7101               761             ADD     #1,R1                                   ; ﾊﾞｯﾌｧｱﾄﾞﾚｽ+1
 6891                             762     
 6892 0000066A 906B               763             MOV.W   #H'0,R0                                 ; 伝送ｲﾝﾀｰﾛｯｸｺｰﾄﾞ       8
 6893 0000066C 2100               764             MOV.B   R0,@R1
 6894 0000066E 7201               765             ADD     #1,R2                                   ; ﾃﾞｰﾀ数ｶｳﾝﾀ+1
 6895 00000670 330C               766             ADD     R0,R3                                   ; BCC加算
 6896 00000672 7101               767             ADD     #1,R1                                   ; ﾊﾞｯﾌｧｱﾄﾞﾚｽ+1
 6897                             768     
 6898 00000674 9066               769             MOV.W   #H'0,R0                                 ; ﾊﾟｽﾜｰﾄﾞ(LL)           9
 6899 00000676 2100               770             MOV.B   R0,@R1
 6900 00000678 7201               771             ADD     #1,R2                                   ; ﾃﾞｰﾀ数ｶｳﾝﾀ+1
 6901 0000067A 330C               772             ADD     R0,R3                                   ; BCC加算
 6902 0000067C 7101               773             ADD     #1,R1                                   ; ﾊﾞｯﾌｧｱﾄﾞﾚｽ+1
 6903                             774     
 6904 0000067E 9061               775             MOV.W   #H'0,R0                                 ; ﾊﾟｽﾜｰﾄﾞ(LH)           10
*** SuperH RISC engine ASSEMBLER V.7.01.02.000 ***    07/04/21 19:29:24                                                  PAGE    27
PROGRAM NAME =

 6905 00000680 2100               776             MOV.B   R0,@R1
 6906 00000682 7201               777             ADD     #1,R2                                   ; ﾃﾞｰﾀ数ｶｳﾝﾀ+1
 6907 00000684 330C               778             ADD     R0,R3                                   ; BCC加算
 6908 00000686 7101               779             ADD     #1,R1                                   ; ﾊﾞｯﾌｧｱﾄﾞﾚｽ+1
 6909                             780     
 6910 00000688 905C               781             MOV.W   #H'0,R0                                 ; ﾊﾟｽﾜｰﾄﾞ(HL)           11
 6911 0000068A 2100               782             MOV.B   R0,@R1
 6912 0000068C 7201               783             ADD     #1,R2                                   ; ﾃﾞｰﾀ数ｶｳﾝﾀ+1
 6913 0000068E 330C               784             ADD     R0,R3                                   ; BCC加算
 6914 00000690 7101               785             ADD     #1,R1                                   ; ﾊﾞｯﾌｧｱﾄﾞﾚｽ+1
 6915                             786     
 6916 00000692 9057               787             MOV.W   #H'0,R0                                 ; ﾊﾟｽﾜｰﾄﾞ(HH)           12
 6917 00000694 2100               788             MOV.B   R0,@R1
 6918 00000696 7201               789             ADD     #1,R2                                   ; ﾃﾞｰﾀ数ｶｳﾝﾀ+1
 6919 00000698 330C               790             ADD     R0,R3                                   ; BCC加算
 6920 0000069A 7101               791             ADD     #1,R1                                   ; ﾊﾞｯﾌｧｱﾄﾞﾚｽ+1
 6921                             792     
 6922 0000069C 9054               793             MOV.W   #H'1,R0                                 ; CMND                  13
 6923 0000069E 2100               794             MOV.B   R0,@R1
 6924 000006A0 7201               795             ADD     #1,R2                                   ; ﾃﾞｰﾀ数ｶｳﾝﾀ+1
 6925 000006A2 330C               796             ADD     R0,R3                                   ; BCC加算
 6926 000006A4 7101               797             ADD     #1,R1                                   ; ﾊﾞｯﾌｧｱﾄﾞﾚｽ+1
 6927                             798     
 6928 000006A6 904D               799             MOV.W   #H'0,R0                                 ; MODE                  14
 6929 000006A8 2100               800             MOV.B   R0,@R1
 6930 000006AA 7201               801             ADD     #1,R2                                   ; ﾃﾞｰﾀ数ｶｳﾝﾀ+1
 6931 000006AC 330C               802             ADD     R0,R3                                   ; BCC加算
 6932 000006AE 7101               803             ADD     #1,R1                                   ; ﾊﾞｯﾌｧｱﾄﾞﾚｽ+1
 6933                             804     
 6934 000006B0 9048               805             MOV.W   #H'0,R0                                 ; 終了情報              15
 6935 000006B2 2100               806             MOV.B   R0,@R1
 6936 000006B4 7201               807             ADD     #1,R2                                   ; ﾃﾞｰﾀ数ｶｳﾝﾀ+1
 6937 000006B6 330C               808             ADD     R0,R3                                   ; BCC加算
 6938 000006B8 7101               809             ADD     #1,R1                                   ; ﾊﾞｯﾌｧｱﾄﾞﾚｽ+1
 6939                             810     
 6940 000006BA 9045               811             MOV.W   #H'01,R0                                ; ｼｰｹﾝｽ番号             16
 6941 000006BC 2100               812             MOV.B   R0,@R1
 6942 000006BE 7201               813             ADD     #1,R2                                   ; ﾃﾞｰﾀ数ｶｳﾝﾀ+1
 6943 000006C0 330C               814             ADD     R0,R3                                   ; BCC加算
 6944 000006C2 7101               815             ADD     #1,R1                                   ; ﾊﾞｯﾌｧｱﾄﾞﾚｽ+1
 6945                             816     
 6946 000006C4 9041               817             MOV.W   #H'6,R0                                 ; ﾃﾞｰﾀﾊﾞｲﾄ数(L)         17
 6947 000006C6 2100               818             MOV.B   R0,@R1
 6948 000006C8 7201               819             ADD     #1,R2                                   ; ﾃﾞｰﾀ数ｶｳﾝﾀ+1
 6949 000006CA 330C               820             ADD     R0,R3                                   ; BCC加算
 6950 000006CC 7101               821             ADD     #1,R1                                   ; ﾊﾞｯﾌｧｱﾄﾞﾚｽ+1
 6951                             822     
 6952 000006CE 9039               823             MOV.W   #H'0,R0                                 ; ﾃﾞｰﾀﾊﾞｲﾄ数(H)         18
 6953 000006D0 2100               824             MOV.B   R0,@R1
 6954 000006D2 7201               825             ADD     #1,R2                                   ; ﾃﾞｰﾀ数ｶｳﾝﾀ+1
 6955 000006D4 330C               826             ADD     R0,R3                                   ; BCC加算
 6956 000006D6 7101               827             ADD     #1,R1                                   ; ﾊﾞｯﾌｧｱﾄﾞﾚｽ+1
 6957                             828     
 6958 000006D8 E000               829             MOV.B   #0,R0                                   ; 領域選択              19
 6959 000006DA 2100               830             MOV.B   R0,@R1
 6960 000006DC 7201               831             ADD     #1,R2                                   ; ﾃﾞｰﾀ数ｶｳﾝﾀ+1
 6961 000006DE 330C               832             ADD     R0,R3                                   ; BCC加算
*** SuperH RISC engine ASSEMBLER V.7.01.02.000 ***    07/04/21 19:29:24                                                  PAGE    28
PROGRAM NAME =

 6962 000006E0 7101               833             ADD     #1,R1                                   ; ﾊﾞｯﾌｧｱﾄﾞﾚｽ+1
 6963                             834     
 6964 000006E2 E000               835             MOV.B   #0,R0                                   ; 領域ｱﾄﾞﾚｽ(L)          20
 6965 000006E4 2100               836             MOV.B   R0,@R1
 6966 000006E6 7201               837             ADD     #1,R2                                   ; ﾃﾞｰﾀ数ｶｳﾝﾀ+1
 6967 000006E8 330C               838             ADD     R0,R3                                   ; BCC加算
 6968 000006EA 7101               839             ADD     #1,R1                                   ; ﾊﾞｯﾌｧｱﾄﾞﾚｽ+1
 6969                             840     
 6970 000006EC E000               841             MOV.B   #0,R0                                   ; 領域ｱﾄﾞﾚｽ(M)          21
 6971 000006EE 2100               842             MOV.B   R0,@R1
 6972 000006F0 7201               843             ADD     #1,R2                                   ; ﾃﾞｰﾀ数ｶｳﾝﾀ+1
 6973 000006F2 330C               844             ADD     R0,R3                                   ; BCC加算
 6974 000006F4 7101               845             ADD     #1,R1                                   ; ﾊﾞｯﾌｧｱﾄﾞﾚｽ+1
 6975                             846     
 6976 000006F6 E000               847             MOV.B   #0,R0                                   ; 領域ｱﾄﾞﾚｽ(H)          22
 6977 000006F8 2100               848             MOV.B   R0,@R1
 6978 000006FA 7201               849             ADD     #1,R2                                   ; ﾃﾞｰﾀ数ｶｳﾝﾀ+1
 6979 000006FC 330C               850             ADD     R0,R3                                   ; BCC加算
 6980 000006FE 7101               851             ADD     #1,R1                                   ; ﾊﾞｯﾌｧｱﾄﾞﾚｽ+1
 6981                             852     
 6982 00000700 E000               853             MOV.B   #0,R0                                   ; 実ﾃﾞｰﾀﾜｰﾄﾞ数(L)       23
 6983 00000702 2100               854             MOV.B   R0,@R1
 6984 00000704 7201               855             ADD     #1,R2                                   ; ﾃﾞｰﾀ数ｶｳﾝﾀ+1
 6985 00000706 330C               856             ADD     R0,R3                                   ; BCC加算
 6986 00000708 7101               857             ADD     #1,R1                                   ; ﾊﾞｯﾌｧｱﾄﾞﾚｽ+1
 6987                             858     
 6988 0000070A E000               859             MOV.B   #0,R0                                   ; 実ﾃﾞｰﾀﾜｰﾄﾞ数(H)       24
 6989 0000070C 2100               860             MOV.B   R0,@R1
 6990 0000070E 7201               861             ADD     #1,R2                                   ; ﾃﾞｰﾀ数ｶｳﾝﾀ+1
 6991 00000710 330C               862             ADD     R0,R3                                   ; BCC加算
 6992 00000712 7101               863             ADD     #1,R1                                   ; ﾊﾞｯﾌｧｱﾄﾞﾚｽ+1
 6993                             864     
 6994 00000714 7201               865             ADD     #1,R2                                   ; ﾃﾞｰﾀ数ｶｳﾝﾀ+1（BCC分）
 6995                             866     
 6996 00000716 D40F               867             MOV.L   #_sci0_txd_buf+_DATA_CNTL,R4            ;
 6997 00000718 602C               868             EXTU.B  R2,R0                                   ; ﾃﾞｰﾀ数ｶｳﾝﾀ(L)
 6998 0000071A 2400               869             MOV.B   R0,@R4
 6999 0000071C 330C               870             ADD     R0,R3                                   ; BCC加算
 7000 0000071E 7401               871             ADD     #1,R4                                   ; ﾊﾞｯﾌｧｱﾄﾞﾚｽ+1
 7001                             872     
 7002 00000720 6023               873             MOV     R2,R0
 7003 00000722 4019               874             SHLR8   R0                                      ; ﾃﾞｰﾀ数ｶｳﾝﾀ(H)
 7004 00000724 2400               875             MOV.B   R0,@R4
 7005 00000726 330C               876             ADD     R0,R3                                   ; BCC加算
 7006 00000728 7401               877             ADD     #1,R4                                   ; ﾊﾞｯﾌｧｱﾄﾞﾚｽ+1
 7007                             878     
 7008 0000072A 633B               879             NEG     R3,R3
 7009 0000072C 2130               880             MOV.B   R3,@R1                                  ; BCC格納
 7010                             881     
 7011 0000072E 7203               882             ADD     #3,R2                                   ; ﾃﾞｰﾀ数ｶｳﾝﾀ＋3(伝送ﾍｯﾀﾞ部)＝全送
                                          信ﾊﾞｲﾄ数
 7012 00000730 DA09               883             MOV.L   #_sci0_wkram+TXD_CNT,R10
 7013 00000732 2A21               884             MOV.W   R2,@R10                                 ; 全送信ﾊﾞｲﾄ数格納
 7014                             885     
 7015 00000734 200A               886             XOR     R0,R0
 7016 00000736 DA09               887             MOV.L   #_sci0_wkram+TXD_BUF_POI,R10
 7017 00000738 2A01               888             MOV.W   R0,@R10                                 ; 送信ﾊﾞｯﾌｧ用ﾎﾟｲﾝﾀをｸﾘｱ
*** SuperH RISC engine ASSEMBLER V.7.01.02.000 ***    07/04/21 19:29:24                                                  PAGE    29
PROGRAM NAME =

 7018                             889     
 7019                             890             SUB_END
 7020                                 M   ;;;;;;; ADD     #4,R15                  ;[不要?]
 7021 0000073A 4F26                   M           LDS.L   @R15+,PR                ;[必要]
 7022                             891             M_RTS
 7023 0000073C 000B                   M           RTS                             ;RTSの後ろの
 7024 0000073E 0009                   M           NOP                             ;@R15+,PRはﾀﾞﾒ
 7025                             892     
 7026                             893     
 7027                             894     ;       **********************************************************************************
                                          ***
 7028                             895     ;       *****                                                                           **
                                          ***
 7029                             896     ;       *****   リードコマンド受信時の処理                                              **
                                          ***
 7030                             897     ;       *****                                                                           **
                                          ***
 7031                             898     ;       *****                                                                           **
                                          ***
 7032                             899     ;       *****                                                                           **
                                          ***
 7033                             900     ;       **********************************************************************************
                                          ***
 7034                                     ***** BEGIN-POOL *****
 7035 00000740 005A                       DATA FOR SOURCE-LINE 725
 7036 00000742 007A                       DATA FOR SOURCE-LINE 739
 7037 00000744 0000                       DATA FOR SOURCE-LINE 745,751,763,769,775,781,787,799,805,823
 7038 00000746 0011                       DATA FOR SOURCE-LINE 757
 7039 00000748 0001                       DATA FOR SOURCE-LINE 793,811
 7040 0000074A 0006                       DATA FOR SOURCE-LINE 817
 7041 0000074C 00000000                   DATA FOR SOURCE-LINE 721
 7042 00000750 00000000                   DATA FOR SOURCE-LINE 732
 7043 00000754 00000000                   DATA FOR SOURCE-LINE 867
 7044 00000758 00000000                   DATA FOR SOURCE-LINE 883
 7045 0000075C 00000000                   DATA FOR SOURCE-LINE 887
 7046                                     ***** END-POOL *****
 7047 00000760                    901     _LOD_CMND_RD_PRO:
 7048                             902             SUB_START
 7049 00000760 4F22                   M           STS.L   PR,@-R15                ;[必要]
 7050                                 M   ;;;;;;; ADD     #-4,R15                 ;[不要?]
 7051                             903     
 7052 00000762 200A               904             XOR     R0,R0
 7053 00000764 DA04               905             MOV.L   #_sci0_wkram+RX_ERR,R10
 7054 00000766 2A01               906             MOV.W   R0,@R10                                 ; 異常初期ｸﾘｱ
 7055                             907     
 7056                             908             FAR_JSR #_SCI0_SEQCMD_CHECK,R10                 ; 2014/03/11
 7057 00000768 DA04                   M           MOV.L   #_SCI0_SEQCMD_CHECK,R10         ;ﾃｰﾌﾞﾙｱﾄﾞﾚｽの内容をREGへ
 7058 0000076A 4A0B                   M           JSR     @R10                    ;
 7059 0000076C 0009                   M           NOP                                     ;
 7060 0000076E 2008               909             TST     R0,R0                                   ; SEQ部へｱｸｾｽ？
 7061 00000770 8906               910             BT      LOD_CRDP_010                            ; いいえ
 7062                             911             M_BRA   LOD_CRDP_EXT                            ; はい
 7063 00000772 A093                   M           BRA     LOD_CRDP_EXT
 7064 00000774 0009                   M           NOP
 7065                                     ***** BEGIN-POOL *****
 7066 00000776 0000                       ALIGNMENT CODE
 7067 00000778 00000000                   DATA FOR SOURCE-LINE 905
*** SuperH RISC engine ASSEMBLER V.7.01.02.000 ***    07/04/21 19:29:24                                                  PAGE    30
PROGRAM NAME =

 7068 0000077C 00000000                   DATA FOR SOURCE-LINE 908
 7069                                     ***** END-POOL *****
 7070 00000780                    912     LOD_CRDP_010:
 7071                             913     
 7072                             914             FAR_JSR #_SCI0_BCC_CHECK,R10                    ; BCCﾁｪｯｸ
 7073 00000780 DA0A                   M           MOV.L   #_SCI0_BCC_CHECK,R10            ;ﾃｰﾌﾞﾙｱﾄﾞﾚｽの内容をREGへ
 7074 00000782 4A0B                   M           JSR     @R10                    ;
 7075 00000784 0009                   M           NOP                                     ;
 7076                             915             FAR_JSR #_SCI0_MEMSEL_CHECK,R10                 ; ﾒﾓﾘ種別ﾁｪｯｸ
 7077 00000786 DA0A                   M           MOV.L   #_SCI0_MEMSEL_CHECK,R10         ;ﾃｰﾌﾞﾙｱﾄﾞﾚｽの内容をREGへ
 7078 00000788 4A0B                   M           JSR     @R10                    ;
 7079 0000078A 0009                   M           NOP                                     ;
 7080                             916             FAR_JSR #_SCI0_RDEI_CHECK,R10                   ; 型ﾃﾞｰﾀ読み出し許可ﾁｪｯｸ        V0
                                          5 (ins)
 7081 0000078C DA09                   M           MOV.L   #_SCI0_RDEI_CHECK,R10           ;ﾃｰﾌﾞﾙｱﾄﾞﾚｽの内容をREGへ
 7082 0000078E 4A0B                   M           JSR     @R10                    ;
 7083 00000790 0009                   M           NOP                                     ;
 7084                             917     
 7085 00000792 DA09               918             MOV.L   #_sci0_wkram+RX_ERR,R10                 ; V01p(INS)
 7086 00000794 60A1               919             MOV.W   @R10,R0
 7087 00000796 2008               920             TST     R0,R0                                   ; 通信ﾃﾞｰﾀ異常？
 7088 00000798 8914               921             BT      LOD_CRDP_020                            ; いいえ
 7089                             922     
 7090                             923             FAR_JSR #_SCI0_TXDBUF_MAKE_NG,R10               ; ﾗｲﾄｺﾏﾝﾄﾞ後の送信ﾃﾞｰﾀ作成
 7091 0000079A DA08                   M           MOV.L   #_SCI0_TXDBUF_MAKE_NG,R10               ;ﾃｰﾌﾞﾙｱﾄﾞﾚｽの内容をREGへ
 7092 0000079C 4A0B                   M           JSR     @R10                    ;
 7093 0000079E 0009                   M           NOP                                     ;
 7094                             924             FAR_JSR #_SCI0_TXI_EI,R10                       ; 送信ｴﾝﾌﾟﾃｨ割込み許可
 7095 000007A0 DA07                   M           MOV.L   #_SCI0_TXI_EI,R10               ;ﾃｰﾌﾞﾙｱﾄﾞﾚｽの内容をREGへ
 7096 000007A2 4A0B                   M           JSR     @R10                    ;
 7097 000007A4 0009                   M           NOP                                     ;
 7098                             925     
 7099                             926             M_BRA   LOD_CRDP_EXT
 7100 000007A6 A079                   M           BRA     LOD_CRDP_EXT
 7101 000007A8 0009                   M           NOP
 7102                             927     
 7103                                     ***** BEGIN-POOL *****
 7104 000007AA 0000                       ALIGNMENT CODE
 7105 000007AC 00000000                   DATA FOR SOURCE-LINE 914
 7106 000007B0 00000000                   DATA FOR SOURCE-LINE 915
 7107 000007B4 00000000                   DATA FOR SOURCE-LINE 916
 7108 000007B8 00000000                   DATA FOR SOURCE-LINE 918
 7109 000007BC 00000000                   DATA FOR SOURCE-LINE 923
 7110 000007C0 00000000                   DATA FOR SOURCE-LINE 924
 7111                                     ***** END-POOL *****
 7112 000007C4                    928     LOD_CRDP_020
 7113 000007C4 DA08               929             MOV.L   #_sci0_rxd_buf+_AREA_SEL,R10
 7114 000007C6 60A4               930             MOV.B   @R10+,R0                                ; 領域選択
 7115 000007C8 61A4               931             MOV.B   @R10+,R1                                ; 領域ｱﾄﾞﾚｽ(L)
 7116 000007CA 62A4               932             MOV.B   @R10+,R2                                ; 領域ｱﾄﾞﾚｽ(M)
 7117 000007CC 63A4               933             MOV.B   @R10+,R3                                ; 領域ｱﾄﾞﾚｽ(H)
 7118 000007CE 64A4               934             MOV.B   @R10+,R4                                ; 実ﾃﾞｰﾀﾜｰﾄﾞ数(L)
 7119 000007D0 65A4               935             MOV.B   @R10+,R5                                ; 実ﾃﾞｰﾀﾜｰﾄﾞ数(H)
 7120 000007D2 600C               936             EXTU.B  R0,R0
 7121 000007D4 611C               937             EXTU.B  R1,R1
 7122 000007D6 622C               938             EXTU.B  R2,R2
 7123 000007D8 633C               939             EXTU.B  R3,R3
*** SuperH RISC engine ASSEMBLER V.7.01.02.000 ***    07/04/21 19:29:24                                                  PAGE    31
PROGRAM NAME =

 7124 000007DA 644C               940             EXTU.B  R4,R4
 7125 000007DC 655C               941             EXTU.B  R5,R5
 7126                             942     
 7127 000007DE 8800               943             CMP/EQ  #_LOD_AREA0,R0                          ; ﾊﾝﾄﾞｼｪｲｸ領域にｱｸｾｽ？
 7128 000007E0 8B06               944             BF      LOD_CRDP_050                            ; いいえ
 7129                             945     
 7130 000007E2 D802               946             MOV.L   #_vup_hs_area,R8                        ; ﾊﾝﾄﾞｼｪｲｸ領域先頭ｱﾄﾞﾚｽ
 7131                             947             M_BRA   LOD_CRDP_200
 7132 000007E4 A048                   M           BRA     LOD_CRDP_200
 7133 000007E6 0009                   M           NOP
 7134                             948     
 7135                                     ***** BEGIN-POOL *****
 7136 000007E8 00000000                   DATA FOR SOURCE-LINE 929
 7137 000007EC 00000000                   DATA FOR SOURCE-LINE 946
 7138                                     ***** END-POOL *****
 7139 000007F0                    949     LOD_CRDP_050:
 7140 000007F0 8801               950             CMP/EQ  #_LOD_AREA1,R0                          ; ﾊﾞｰｼﾞｮﾝUPﾃﾞｰﾀ領域にｱｸｾｽ？
 7141 000007F2 8B05               951             BF      LOD_CRDP_100                            ; いいえ
 7142                             952     
 7143 000007F4 D801               953             MOV.L   #_VUP_DATA_AREA_CPUB,R8                 ; ﾊﾞｰｼﾞｮﾝUPﾃﾞｰﾀ領域先頭ｱﾄﾞﾚｽ
 7144                             954             M_BRA   LOD_CRDP_200
 7145 000007F6 A03F                   M           BRA     LOD_CRDP_200
 7146 000007F8 0009                   M           NOP
 7147                             955     
 7148                                     ***** BEGIN-POOL *****
 7149 000007FA 0000                       ALIGNMENT CODE
 7150 000007FC AC400000                   DATA FOR SOURCE-LINE 953
 7151                                     ***** END-POOL *****
 7152 00000800                    956     LOD_CRDP_100:
 7153                             957     ;/ V01  */
 7154 00000800 8802               958             CMP/EQ  #_LOD_AREA_FROM,R0                      ; FROMﾀ領域にｱｸｾｽ？
 7155 00000802 8B05               959             BF      LOD_CRDP_110                            ; いいえ
 7156                             960     
 7157 00000804 D801               961             MOV.L   #_from_top,R8                           ; 先頭ｱﾄﾞﾚｽ
 7158                             962             M_BRA   LOD_CRDP_200
 7159 00000806 A037                   M           BRA     LOD_CRDP_200
 7160 00000808 0009                   M           NOP
 7161                             963     
 7162                                     ***** BEGIN-POOL *****
 7163 0000080A 0000                       ALIGNMENT CODE
 7164 0000080C 00000000                   DATA FOR SOURCE-LINE 961
 7165                                     ***** END-POOL *****
 7166 00000810                    964     LOD_CRDP_110:
 7167                             965     ;/ V01  */
 7168 00000810 8803               966             CMP/EQ  #_LOD_AREA_FRAM,R0                      ; FRAM領域にｱｸｾｽ？
 7169 00000812 8B05               967             BF      LOD_CRDP_120                            ; いいえ
 7170                             968     
 7171 00000814 D801               969             MOV.L   #_fram_top,R8                           ; 先頭ｱﾄﾞﾚｽ
 7172                             970             M_BRA   LOD_CRDP_200
 7173 00000816 A02F                   M           BRA     LOD_CRDP_200
 7174 00000818 0009                   M           NOP
 7175                             971     
 7176                                     ***** BEGIN-POOL *****
 7177 0000081A 0000                       ALIGNMENT CODE
 7178 0000081C 00000000                   DATA FOR SOURCE-LINE 969
 7179                                     ***** END-POOL *****
 7180 00000820                    972     LOD_CRDP_120:
*** SuperH RISC engine ASSEMBLER V.7.01.02.000 ***    07/04/21 19:29:24                                                  PAGE    32
PROGRAM NAME =

 7181                             973     ;/ V01  */
 7182 00000820 8804               974             CMP/EQ  #_LOD_AREA_DPRAM,R0                     ; DPRAM領域にｱｸｾｽ？
 7183 00000822 8B05               975             BF      LOD_CRDP_130                            ; いいえ
 7184                             976     
 7185                             977     ;//SIT4-MC      MOV.L   #_dpram_top,R8                          ; 先頭ｱﾄﾞﾚｽ
 7186                             978     ;//2016/02/25   MOV.L   #_dpram_top+H'1B00,R8                           ; 先頭ｱﾄﾞﾚｽ
 7187 00000824 D801               979             MOV.L   #_dpram_top+H'2000-H'500,R8             ; 先頭ｱﾄﾞﾚｽ     MC前のDPRAM内ｼｰｹﾝｽ
                                          領域は500h〜。
 7188                             980                                                             ;               MC後のDPRAM内ｼｰｹﾝｽ
                                          領域は2000h〜。MC前と同じｱﾄﾞﾚｽ指定に対応するためｱﾄﾞﾚｽをｵﾌｾｯﾄする。
 7189                             981             M_BRA   LOD_CRDP_200
 7190 00000826 A027                   M           BRA     LOD_CRDP_200
 7191 00000828 0009                   M           NOP
 7192                             982     
 7193                                     ***** BEGIN-POOL *****
 7194 0000082A 0000                       ALIGNMENT CODE
 7195 0000082C 00000000                   DATA FOR SOURCE-LINE 979
 7196                                     ***** END-POOL *****
 7197 00000830                    983     LOD_CRDP_130:
 7198                             984     ;/ V01  */
 7199 00000830 8805               985             CMP/EQ  #_LOD_AREA_SRAM,R0                      ; SRAM領域にｱｸｾｽ？
 7200 00000832 8B05               986             BF      LOD_CRDP_140                            ; いいえ
 7201                             987     
 7202 00000834 D801               988             MOV.L   #_Bwkram1_top,R8                        ; 先頭ｱﾄﾞﾚｽ
 7203                             989             M_BRA   LOD_CRDP_200
 7204 00000836 A01F                   M           BRA     LOD_CRDP_200
 7205 00000838 0009                   M           NOP
 7206                             990     
 7207                                     ***** BEGIN-POOL *****
 7208 0000083A 0000                       ALIGNMENT CODE
 7209 0000083C AC090000                   DATA FOR SOURCE-LINE 988
 7210                                     ***** END-POOL *****
 7211 00000840                    991     LOD_CRDP_140:
 7212                             992     ;/ V01v */
 7213 00000840 8815               993             CMP/EQ  #_LOD_AREA_SAMP,R0                      ; ｻﾝﾌﾟﾘﾝｸﾞ領域にｱｸｾｽ？
 7214 00000842 8B07               994             BF      LOD_CRDP_150                            ; いいえ
 7215                             995     
 7216                             996             FAR_JSR #_LDCMD_PC2CB,R6                        ; C/Bへそのままﾛｰﾀﾞｺﾏﾝﾄﾞを流す。
 7217 00000844 D602                   M           MOV.L   #_LDCMD_PC2CB,R6                ;ﾃｰﾌﾞﾙｱﾄﾞﾚｽの内容をREGへ
 7218 00000846 460B                   M           JSR     @R6                     ;
 7219 00000848 0009                   M           NOP                                     ;
 7220                             997             M_BRA   LOD_CRDP_EXT
 7221 0000084A A027                   M           BRA     LOD_CRDP_EXT
 7222 0000084C 0009                   M           NOP
 7223                             998     
 7224                                     ***** BEGIN-POOL *****
 7225 0000084E 0000                       ALIGNMENT CODE
 7226 00000850 00000000                   DATA FOR SOURCE-LINE 996
 7227                                     ***** END-POOL *****
 7228 00000854                    999     LOD_CRDP_150:
 7229                            1000     ;/ V05  */
 7230 00000854 8813              1001             CMP/EQ  #_LOD_AREA_FRAMX,R0                     ; FRAM領域にｱｸｾｽ？      V05 (INS)
 7231 00000856 8B05              1002             BF      LOD_CRDP_160                            ; いいえ
 7232                            1003     
 7233 00000858 D801              1004             MOV.L   #_fram_top,R8                           ; 先頭ｱﾄﾞﾚｽ
 7234                            1005             M_BRA   LOD_CRDP_200
 7235 0000085A A00D                   M           BRA     LOD_CRDP_200
*** SuperH RISC engine ASSEMBLER V.7.01.02.000 ***    07/04/21 19:29:24                                                  PAGE    33
PROGRAM NAME =

 7236 0000085C 0009                   M           NOP
 7237                            1006     
 7238                                     ***** BEGIN-POOL *****
 7239 0000085E 0000                       ALIGNMENT CODE
 7240 00000860 00000000                   DATA FOR SOURCE-LINE 1004
 7241                                     ***** END-POOL *****
 7242 00000864                   1007     LOD_CRDP_160:
 7243 00000864 8806              1008             CMP/EQ  #_LOD_AREA_KATA,R0                      ; 型ﾃﾞｰﾀR/W領域にｱｸｾｽ？         SI
                                          T4-MC  2014/05/08
 7244 00000866 8B05              1009             BF      LOD_CRDP_170                            ; いいえ
 7245                            1010     
 7246 00000868 D801              1011             MOV.L   #_KATA_RW_AREA,R8                       ; 先頭ｱﾄﾞﾚｽ
 7247                            1012             M_BRA   LOD_CRDP_200
 7248 0000086A A005                   M           BRA     LOD_CRDP_200
 7249 0000086C 0009                   M           NOP
 7250                            1013     
 7251                                     ***** BEGIN-POOL *****
 7252 0000086E 0000                       ALIGNMENT CODE
 7253 00000870 00000000                   DATA FOR SOURCE-LINE 1011
 7254                                     ***** END-POOL *****
 7255 00000874                   1014     LOD_CRDP_170:
 7256                            1015             M_BRA   LOD_CRDP_EXT
 7257 00000874 A012                   M           BRA     LOD_CRDP_EXT
 7258 00000876 0009                   M           NOP
 7259                            1016     
 7260                            1017     
 7261 00000878                   1018     LOD_CRDP_200:
 7262 00000878 4328              1019             SHLL16  R3
 7263 0000087A 4218              1020             SHLL8   R2
 7264 0000087C 212B              1021             OR      R2,R1
 7265 0000087E 213B              1022             OR      R3,R1                                   ; ｱﾄﾞﾚｽ
 7266 00000880 381C              1023             ADD     R1,R8                                   ; R8 <- 読出し先頭ｱﾄﾞﾚｽ
 7267                            1024     
 7268 00000882 4518              1025             SHLL8   R5
 7269 00000884 245B              1026             OR      R5,R4
 7270 00000886 694D              1027             EXTU.W  R4,R9                                   ; R9 <- 読出しﾜｰﾄﾞ数
 7271                            1028     
 7272 00000888 9A0B              1029             mov.w   #246,r10
 7273 0000088A 39A6              1030             cmp/hi  r10,r9
 7274 0000088C 8B00              1031             bf      LOD_CRDP_250
 7275 0000088E 69A3              1032             mov     r10,r9
 7276 00000890                   1033     LOD_CRDP_250:
 7277                            1034     
 7278                            1035             FAR_JSR #_SCI0_TXDBUF_MAKE2,R10                 ; ﾘｰﾄﾞｺﾏﾝﾄﾞ後の送信ﾃﾞｰﾀ作成     In
                                          :R8,R9
 7279 00000890 DA04                   M           MOV.L   #_SCI0_TXDBUF_MAKE2,R10         ;ﾃｰﾌﾞﾙｱﾄﾞﾚｽの内容をREGへ
 7280 00000892 4A0B                   M           JSR     @R10                    ;
 7281 00000894 0009                   M           NOP                                     ;
 7282                            1036             FAR_JSR #_SCI0_TXI_EI,R10                       ; 送信ｴﾝﾌﾟﾃｨ割込み許可
 7283 00000896 DA04                   M           MOV.L   #_SCI0_TXI_EI,R10               ;ﾃｰﾌﾞﾙｱﾄﾞﾚｽの内容をREGへ
 7284 00000898 4A0B                   M           JSR     @R10                    ;
 7285 0000089A 0009                   M           NOP                                     ;
 7286                            1037     
 7287 0000089C                   1038     LOD_CRDP_EXT:
 7288                            1039             SUB_END
 7289                                 M   ;;;;;;; ADD     #4,R15                  ;[不要?]
 7290 0000089C 4F26                   M           LDS.L   @R15+,PR                ;[必要]
*** SuperH RISC engine ASSEMBLER V.7.01.02.000 ***    07/04/21 19:29:24                                                  PAGE    34
PROGRAM NAME =

 7291                            1040             M_RTS
 7292 0000089E 000B                   M           RTS                             ;RTSの後ろの
 7293 000008A0 0009                   M           NOP                             ;@R15+,PRはﾀﾞﾒ
 7294                            1041     
 7295                            1042     
 7296                            1043     ;       **********************************************************************************
                                          ***
 7297                            1044     ;       *****                                                                           **
                                          ***
 7298                            1045     ;       *****   リードコマンド受信後の送信データ作成                                    **
                                          ***
 7299                            1046     ;       *****                                                                           **
                                          ***
 7300                            1047     ;       *****   Input : R8 <- 読出し先頭ｱﾄﾞﾚｽ                                           **
                                          ***
 7301                            1048     ;       *****   Input : R9 <- 読出しﾜｰﾄﾞ数                                              **
                                          ***
 7302                            1049     ;       *****                                                                           **
                                          ***
 7303                            1050     ;       **********************************************************************************
                                          ***
 7304                                     ***** BEGIN-POOL *****
 7305 000008A2 00F6                       DATA FOR SOURCE-LINE 1029
 7306 000008A4 00000000                   DATA FOR SOURCE-LINE 1035
 7307 000008A8 00000000                   DATA FOR SOURCE-LINE 1036
 7308                                     ***** END-POOL *****
 7309 000008AC                   1051     _SCI0_TXDBUF_MAKE2:
 7310                            1052             SUB_START
 7311 000008AC 4F22                   M           STS.L   PR,@-R15                ;[必要]
 7312                                 M   ;;;;;;; ADD     #-4,R15                 ;[不要?]
 7313                            1053     
 7314 000008AE D14B              1054             MOV.L   #_sci0_txd_buf,R1                       ;
 7315 000008B0 222A              1055             XOR     R2,R2                                   ; ﾃﾞｰﾀ数ｶｳﾝﾄ用
 7316 000008B2 233A              1056             XOR     R3,R3                                   ; BCC作成用
 7317                            1057     
 7318 000008B4 908C              1058             MOV.W   #H'5A,R0                                ; ｽﾀｰﾄｺｰﾄﾞ              0
 7319 000008B6 2100              1059             MOV.B   R0,@R1
 7320 000008B8 7101              1060             ADD     #1,R1                                   ; ﾊﾞｯﾌｧｱﾄﾞﾚｽ+1
 7321                            1061     
 7322 000008BA 7101              1062             ADD     #1,R1                                   ; ﾊﾞｯﾌｧｱﾄﾞﾚｽ+1
 7323 000008BC 7101              1063             ADD     #1,R1                                   ; ﾊﾞｯﾌｧｱﾄﾞﾚｽ+1
 7324                            1064     
 7325 000008BE DA48              1065             MOV.L   #_sci0_wkram+RX_ERR,R10
 7326 000008C0 60A1              1066             MOV.W   @R10,R0                                 ; 処理ｽﾃｰﾀｽ             3
 7327 000008C2 2100              1067             MOV.B   R0,@R1
 7328 000008C4 7201              1068             ADD     #1,R2                                   ; ﾃﾞｰﾀ数ｶｳﾝﾀ+1
 7329 000008C6 330C              1069             ADD     R0,R3                                   ; BCC加算
 7330 000008C8 7101              1070             ADD     #1,R1                                   ; ﾊﾞｯﾌｧｱﾄﾞﾚｽ+1
 7331                            1071     
 7332 000008CA 9082              1072             MOV.W   #H'7A,R0                                ; 接続方式              4
 7333 000008CC 2100              1073             MOV.B   R0,@R1
 7334 000008CE 7201              1074             ADD     #1,R2                                   ; ﾃﾞｰﾀ数ｶｳﾝﾀ+1
 7335 000008D0 330C              1075             ADD     R0,R3                                   ; BCC加算
 7336 000008D2 7101              1076             ADD     #1,R1                                   ; ﾊﾞｯﾌｧｱﾄﾞﾚｽ+1
 7337                            1077     
 7338 000008D4 907E              1078             MOV.W   #H'0,R0                                 ; 接続ID(L)             5
 7339 000008D6 2100              1079             MOV.B   R0,@R1
*** SuperH RISC engine ASSEMBLER V.7.01.02.000 ***    07/04/21 19:29:24                                                  PAGE    35
PROGRAM NAME =

 7340 000008D8 7201              1080             ADD     #1,R2                                   ; ﾃﾞｰﾀ数ｶｳﾝﾀ+1
 7341 000008DA 330C              1081             ADD     R0,R3                                   ; BCC加算
 7342 000008DC 7101              1082             ADD     #1,R1                                   ; ﾊﾞｯﾌｧｱﾄﾞﾚｽ+1
 7343                            1083     
 7344 000008DE 9079              1084             MOV.W   #H'0,R0                                 ; 接続ID(H)             6
 7345 000008E0 2100              1085             MOV.B   R0,@R1
 7346 000008E2 7201              1086             ADD     #1,R2                                   ; ﾃﾞｰﾀ数ｶｳﾝﾀ+1
 7347 000008E4 330C              1087             ADD     R0,R3                                   ; BCC加算
 7348 000008E6 7101              1088             ADD     #1,R1                                   ; ﾊﾞｯﾌｧｱﾄﾞﾚｽ+1
 7349                            1089     
 7350 000008E8 9075              1090             MOV.W   #H'11,R0                                ; 機種互換ｺｰﾄﾞ          7
 7351 000008EA 2100              1091             MOV.B   R0,@R1
 7352 000008EC 7201              1092             ADD     #1,R2                                   ; ﾃﾞｰﾀ数ｶｳﾝﾀ+1
 7353 000008EE 330C              1093             ADD     R0,R3                                   ; BCC加算
 7354 000008F0 7101              1094             ADD     #1,R1                                   ; ﾊﾞｯﾌｧｱﾄﾞﾚｽ+1
 7355                            1095     
 7356 000008F2 906F              1096             MOV.W   #H'0,R0                                 ; 伝送ｲﾝﾀｰﾛｯｸｺｰﾄﾞ       8
 7357 000008F4 2100              1097             MOV.B   R0,@R1
 7358 000008F6 7201              1098             ADD     #1,R2                                   ; ﾃﾞｰﾀ数ｶｳﾝﾀ+1
 7359 000008F8 330C              1099             ADD     R0,R3                                   ; BCC加算
 7360 000008FA 7101              1100             ADD     #1,R1                                   ; ﾊﾞｯﾌｧｱﾄﾞﾚｽ+1
 7361                            1101     
 7362 000008FC 906A              1102             MOV.W   #H'0,R0                                 ; ﾊﾟｽﾜｰﾄﾞ(LL)           9
 7363 000008FE 2100              1103             MOV.B   R0,@R1
 7364 00000900 7201              1104             ADD     #1,R2                                   ; ﾃﾞｰﾀ数ｶｳﾝﾀ+1
 7365 00000902 330C              1105             ADD     R0,R3                                   ; BCC加算
 7366 00000904 7101              1106             ADD     #1,R1                                   ; ﾊﾞｯﾌｧｱﾄﾞﾚｽ+1
 7367                            1107     
 7368 00000906 9065              1108             MOV.W   #H'0,R0                                 ; ﾊﾟｽﾜｰﾄﾞ(LH)           10
 7369 00000908 2100              1109             MOV.B   R0,@R1
 7370 0000090A 7201              1110             ADD     #1,R2                                   ; ﾃﾞｰﾀ数ｶｳﾝﾀ+1
 7371 0000090C 330C              1111             ADD     R0,R3                                   ; BCC加算
 7372 0000090E 7101              1112             ADD     #1,R1                                   ; ﾊﾞｯﾌｧｱﾄﾞﾚｽ+1
 7373                            1113     
 7374 00000910 9060              1114             MOV.W   #H'0,R0                                 ; ﾊﾟｽﾜｰﾄﾞ(HL)           11
 7375 00000912 2100              1115             MOV.B   R0,@R1
 7376 00000914 7201              1116             ADD     #1,R2                                   ; ﾃﾞｰﾀ数ｶｳﾝﾀ+1
 7377 00000916 330C              1117             ADD     R0,R3                                   ; BCC加算
 7378 00000918 7101              1118             ADD     #1,R1                                   ; ﾊﾞｯﾌｧｱﾄﾞﾚｽ+1
 7379                            1119     
 7380 0000091A 905B              1120             MOV.W   #H'0,R0                                 ; ﾊﾟｽﾜｰﾄﾞ(HH)           12
 7381 0000091C 2100              1121             MOV.B   R0,@R1
 7382 0000091E 7201              1122             ADD     #1,R2                                   ; ﾃﾞｰﾀ数ｶｳﾝﾀ+1
 7383 00000920 330C              1123             ADD     R0,R3                                   ; BCC加算
 7384 00000922 7101              1124             ADD     #1,R1                                   ; ﾊﾞｯﾌｧｱﾄﾞﾚｽ+1
 7385                            1125     
 7386 00000924 9056              1126             MOV.W   #H'0,R0                                 ; CMND                  13
 7387 00000926 2100              1127             MOV.B   R0,@R1
 7388 00000928 7201              1128             ADD     #1,R2                                   ; ﾃﾞｰﾀ数ｶｳﾝﾀ+1
 7389 0000092A 330C              1129             ADD     R0,R3                                   ; BCC加算
 7390 0000092C 7101              1130             ADD     #1,R1                                   ; ﾊﾞｯﾌｧｱﾄﾞﾚｽ+1
 7391                            1131     
 7392 0000092E 9051              1132             MOV.W   #H'0,R0                                 ; MODE                  14
 7393 00000930 2100              1133             MOV.B   R0,@R1
 7394 00000932 7201              1134             ADD     #1,R2                                   ; ﾃﾞｰﾀ数ｶｳﾝﾀ+1
 7395 00000934 330C              1135             ADD     R0,R3                                   ; BCC加算
 7396 00000936 7101              1136             ADD     #1,R1                                   ; ﾊﾞｯﾌｧｱﾄﾞﾚｽ+1
*** SuperH RISC engine ASSEMBLER V.7.01.02.000 ***    07/04/21 19:29:24                                                  PAGE    36
PROGRAM NAME =

 7397                            1137     
 7398 00000938 904C              1138             MOV.W   #H'0,R0                                 ; 終了情報              15
 7399 0000093A 2100              1139             MOV.B   R0,@R1
 7400 0000093C 7201              1140             ADD     #1,R2                                   ; ﾃﾞｰﾀ数ｶｳﾝﾀ+1
 7401 0000093E 330C              1141             ADD     R0,R3                                   ; BCC加算
 7402 00000940 7101              1142             ADD     #1,R1                                   ; ﾊﾞｯﾌｧｱﾄﾞﾚｽ+1
 7403                            1143     
 7404 00000942 9049              1144             MOV.W   #H'01,R0                                ; ｼｰｹﾝｽ番号             16
 7405 00000944 2100              1145             MOV.B   R0,@R1
 7406 00000946 7201              1146             ADD     #1,R2                                   ; ﾃﾞｰﾀ数ｶｳﾝﾀ+1
 7407 00000948 330C              1147             ADD     R0,R3                                   ; BCC加算
 7408 0000094A 7101              1148             ADD     #1,R1                                   ; ﾊﾞｯﾌｧｱﾄﾞﾚｽ+1
 7409                            1149     
 7410 0000094C 6493              1150             MOV     R9,R4
 7411 0000094E 4400              1151             SHLL    R4                                      ; 読出しﾜｰﾄﾞ数 -> ﾊﾞｲﾄ数
 7412 00000950 7406              1152             ADD     #6,R4                                   ;
 7413 00000952 6043              1153             MOV     R4,R0                                   ; ﾃﾞｰﾀﾊﾞｲﾄ数(L)         17
 7414 00000954 600C              1154             EXTU.B  R0,R0
 7415 00000956 2100              1155             MOV.B   R0,@R1
 7416 00000958 7201              1156             ADD     #1,R2                                   ; ﾃﾞｰﾀ数ｶｳﾝﾀ+1
 7417 0000095A 330C              1157             ADD     R0,R3                                   ; BCC加算
 7418 0000095C 7101              1158             ADD     #1,R1                                   ; ﾊﾞｯﾌｧｱﾄﾞﾚｽ+1
 7419                            1159     
 7420 0000095E 6043              1160             MOV     R4,R0
 7421 00000960 4019              1161             SHLR8   R0                                      ; ﾃﾞｰﾀﾊﾞｲﾄ数(H)         18
 7422 00000962 600C              1162             EXTU.B  R0,R0
 7423 00000964 2100              1163             MOV.B   R0,@R1
 7424 00000966 7201              1164             ADD     #1,R2                                   ; ﾃﾞｰﾀ数ｶｳﾝﾀ+1
 7425 00000968 330C              1165             ADD     R0,R3                                   ; BCC加算
 7426 0000096A 7101              1166             ADD     #1,R1                                   ; ﾊﾞｯﾌｧｱﾄﾞﾚｽ+1
 7427                            1167     
 7428 0000096C DA1D              1168             MOV.L   #_sci0_rxd_buf+_AREA_SEL,R10
 7429 0000096E 60A4              1169             MOV.B   @R10+,R0                                ; 領域選択
 7430 00000970 2100              1170             MOV.B   R0,@R1
 7431 00000972 7201              1171             ADD     #1,R2                                   ; ﾃﾞｰﾀ数ｶｳﾝﾀ+1
 7432 00000974 330C              1172             ADD     R0,R3                                   ; BCC加算
 7433 00000976 7101              1173             ADD     #1,R1                                   ; ﾊﾞｯﾌｧｱﾄﾞﾚｽ+1
 7434                            1174     
 7435 00000978 60A4              1175             MOV.B   @R10+,R0                                ; 領域ｱﾄﾞﾚｽ(L)
 7436 0000097A 2100              1176             MOV.B   R0,@R1
 7437 0000097C 7201              1177             ADD     #1,R2                                   ; ﾃﾞｰﾀ数ｶｳﾝﾀ+1
 7438 0000097E 330C              1178             ADD     R0,R3                                   ; BCC加算
 7439 00000980 7101              1179             ADD     #1,R1                                   ; ﾊﾞｯﾌｧｱﾄﾞﾚｽ+1
 7440                            1180     
 7441 00000982 60A4              1181             MOV.B   @R10+,R0                                ; 領域ｱﾄﾞﾚｽ(M)
 7442 00000984 2100              1182             MOV.B   R0,@R1
 7443 00000986 7201              1183             ADD     #1,R2                                   ; ﾃﾞｰﾀ数ｶｳﾝﾀ+1
 7444 00000988 330C              1184             ADD     R0,R3                                   ; BCC加算
 7445 0000098A 7101              1185             ADD     #1,R1                                   ; ﾊﾞｯﾌｧｱﾄﾞﾚｽ+1
 7446                            1186     
 7447 0000098C 60A4              1187             MOV.B   @R10+,R0                                ; 領域ｱﾄﾞﾚｽ(H)
 7448 0000098E 2100              1188             MOV.B   R0,@R1
 7449 00000990 7201              1189             ADD     #1,R2                                   ; ﾃﾞｰﾀ数ｶｳﾝﾀ+1
 7450 00000992 330C              1190             ADD     R0,R3                                   ; BCC加算
 7451 00000994 7101              1191             ADD     #1,R1                                   ; ﾊﾞｯﾌｧｱﾄﾞﾚｽ+1
 7452                            1192     
 7453 00000996 60A4              1193             MOV.B   @R10+,R0                                ; 実ﾃﾞｰﾀﾜｰﾄﾞ数(L)
*** SuperH RISC engine ASSEMBLER V.7.01.02.000 ***    07/04/21 19:29:24                                                  PAGE    37
PROGRAM NAME =

 7454 00000998 2100              1194             MOV.B   R0,@R1
 7455 0000099A 7201              1195             ADD     #1,R2                                   ; ﾃﾞｰﾀ数ｶｳﾝﾀ+1
 7456 0000099C 330C              1196             ADD     R0,R3                                   ; BCC加算
 7457 0000099E 7101              1197             ADD     #1,R1                                   ; ﾊﾞｯﾌｧｱﾄﾞﾚｽ+1
 7458                            1198     
 7459 000009A0 60A4              1199             MOV.B   @R10+,R0                                ; 実ﾃﾞｰﾀﾜｰﾄﾞ数(H)
 7460 000009A2 2100              1200             MOV.B   R0,@R1
 7461 000009A4 7201              1201             ADD     #1,R2                                   ; ﾃﾞｰﾀ数ｶｳﾝﾀ+1
 7462 000009A6 330C              1202             ADD     R0,R3                                   ; BCC加算
 7463 000009A8 7101              1203             ADD     #1,R1                                   ; ﾊﾞｯﾌｧｱﾄﾞﾚｽ+1
 7464                            1204     
 7465 000009AA                   1205     _SCI0_TB_MK2_100:
 7466 000009AA 2998              1206             TST     R9,R9                                   ; V01n_b
 7467 000009AC 891C              1207             BT      _SCI0_TB_MK2_200                        ; V01n_b
 7468 000009AE 6485              1208             MOV.W   @R8+,R4
 7469 000009B0 6043              1209             MOV     R4,R0
 7470 000009B2 4019              1210             SHLR8   R0
 7471 000009B4 600C              1211             EXTU.B  R0,R0
 7472 000009B6 2100              1212             MOV.B   R0,@R1
 7473 000009B8 7201              1213             ADD     #1,R2                                   ; ﾃﾞｰﾀ数ｶｳﾝﾀ+1
 7474 000009BA 330C              1214             ADD     R0,R3                                   ; BCC加算
 7475 000009BC 7101              1215             ADD     #1,R1                                   ; ﾊﾞｯﾌｧｱﾄﾞﾚｽ+2
 7476 000009BE 6043              1216             MOV     R4,R0
 7477 000009C0 600C              1217             EXTU.B  R0,R0
 7478 000009C2 2100              1218             MOV.B   R0,@R1
 7479 000009C4 7201              1219             ADD     #1,R2                                   ; ﾃﾞｰﾀ数ｶｳﾝﾀ+1
 7480 000009C6 330C              1220             ADD     R0,R3                                   ; BCC加算
 7481 000009C8 7101              1221             ADD     #1,R1                                   ; ﾊﾞｯﾌｧｱﾄﾞﾚｽ+1
 7482 000009CA 79FF              1222             ADD     #-1,R9
 7483                            1223     ;//V01n_b       TST     R9,R9
 7484                            1224     ;//V01n_b       BF      _SCI0_TB_MK2_100
 7485                            1225             M_BRA   _SCI0_TB_MK2_100
 7486 000009CC AFED                   M           BRA     _SCI0_TB_MK2_100
 7487 000009CE 0009                   M           NOP
 7488                            1226     
 7489                                     ***** BEGIN-POOL *****
 7490 000009D0 005A                       DATA FOR SOURCE-LINE 1058
 7491 000009D2 007A                       DATA FOR SOURCE-LINE 1072
 7492 000009D4 0000                       DATA FOR SOURCE-LINE 1078,1084,1096,1102,1108,1114,1120,1126,1132,1138
 7493 000009D6 0011                       DATA FOR SOURCE-LINE 1090
 7494 000009D8 0001                       DATA FOR SOURCE-LINE 1144
 7495 000009DA 0000                       ALIGNMENT CODE
 7496 000009DC 00000000                   DATA FOR SOURCE-LINE 1054
 7497 000009E0 00000000                   DATA FOR SOURCE-LINE 1065
 7498 000009E4 00000000                   DATA FOR SOURCE-LINE 1168
 7499                                     ***** END-POOL *****
 7500 000009E8                   1227     _SCI0_TB_MK2_200:
 7501 000009E8 7201              1228             ADD     #1,R2                                   ; ﾃﾞｰﾀ数ｶｳﾝﾀ+1（BCC分）
 7502                            1229     
 7503 000009EA D40A              1230             MOV.L   #_sci0_txd_buf+_DATA_CNTL,R4            ;
 7504 000009EC 602C              1231             EXTU.B  R2,R0                                   ; ﾃﾞｰﾀ数ｶｳﾝﾀ(L)
 7505 000009EE 2400              1232             MOV.B   R0,@R4
 7506 000009F0 330C              1233             ADD     R0,R3                                   ; BCC加算
 7507 000009F2 7401              1234             ADD     #1,R4                                   ; ﾊﾞｯﾌｧｱﾄﾞﾚｽ+1
 7508                            1235     
 7509 000009F4 6023              1236             MOV     R2,R0
 7510 000009F6 4019              1237             SHLR8   R0                                      ; ﾃﾞｰﾀ数ｶｳﾝﾀ(H)
*** SuperH RISC engine ASSEMBLER V.7.01.02.000 ***    07/04/21 19:29:24                                                  PAGE    38
PROGRAM NAME =

 7511 000009F8 2400              1238             MOV.B   R0,@R4
 7512 000009FA 330C              1239             ADD     R0,R3                                   ; BCC加算
 7513 000009FC 7401              1240             ADD     #1,R4                                   ; ﾊﾞｯﾌｧｱﾄﾞﾚｽ+1
 7514                            1241     
 7515 000009FE 633B              1242             NEG     R3,R3
 7516 00000A00 2130              1243             MOV.B   R3,@R1                                  ; BCC格納
 7517                            1244     
 7518 00000A02 7203              1245             ADD     #3,R2                                   ; ﾃﾞｰﾀ数ｶｳﾝﾀ＋3(伝送ﾍｯﾀﾞ部)＝全送
                                          信ﾊﾞｲﾄ数
 7519 00000A04 DA04              1246             MOV.L   #_sci0_wkram+TXD_CNT,R10
 7520 00000A06 2A21              1247             MOV.W   R2,@R10                                 ; 全送信ﾊﾞｲﾄ数格納
 7521                            1248     
 7522 00000A08 200A              1249             XOR     R0,R0
 7523 00000A0A DA04              1250             MOV.L   #_sci0_wkram+TXD_BUF_POI,R10
 7524 00000A0C 2A01              1251             MOV.W   R0,@R10                                 ; 送信ﾊﾞｯﾌｧ用ﾎﾟｲﾝﾀをｸﾘｱ
 7525                            1252     
 7526                            1253             SUB_END
 7527                                 M   ;;;;;;; ADD     #4,R15                  ;[不要?]
 7528 00000A0E 4F26                   M           LDS.L   @R15+,PR                ;[必要]
 7529                            1254             M_RTS
 7530 00000A10 000B                   M           RTS                             ;RTSの後ろの
 7531 00000A12 0009                   M           NOP                             ;@R15+,PRはﾀﾞﾒ
 7532                            1255     
 7533                            1256     
 7534                            1257     ;       **********************************************************************************
                                          ***
 7535                            1258     ;       *****                                                                           **
                                          ***
 7536                            1259     ;       *****   受信データのＢＣＣチェック                                              **
                                          ***
 7537                            1260     ;       *****                                                                           **
                                          ***
 7538                            1261     ;       *****                                                                           **
                                          ***
 7539                            1262     ;       *****                                                                           **
                                          ***
 7540                            1263     ;       **********************************************************************************
                                          ***
 7541                                     ***** BEGIN-POOL *****
 7542 00000A14 00000000                   DATA FOR SOURCE-LINE 1230
 7543 00000A18 00000000                   DATA FOR SOURCE-LINE 1246
 7544 00000A1C 00000000                   DATA FOR SOURCE-LINE 1250
 7545                                     ***** END-POOL *****
 7546 00000A20                   1264     _SCI0_BCC_CHECK:
 7547                            1265             SUB_START
 7548 00000A20 4F22                   M           STS.L   PR,@-R15                ;[必要]
 7549                                 M   ;;;;;;; ADD     #-4,R15                 ;[不要?]
 7550                            1266     
 7551 00000A22 DA0E              1267             MOV.L   #_sci0_rxd_buf+_DATA_CNTL,R10
 7552 00000A24 61A4              1268             MOV.B   @R10+,R1
 7553 00000A26 611C              1269             EXTU.B  R1,R1
 7554 00000A28 301C              1270             ADD     R1,R0
 7555                            1271     
 7556 00000A2A 62A4              1272             MOV.B   @R10+,R2
 7557 00000A2C 622C              1273             EXTU.B  R2,R2
 7558 00000A2E 302C              1274             ADD     R2,R0
 7559                            1275     
*** SuperH RISC engine ASSEMBLER V.7.01.02.000 ***    07/04/21 19:29:24                                                  PAGE    39
PROGRAM NAME =

 7560 00000A30 4218              1276             SHLL8   R2
 7561 00000A32 212B              1277             OR      R2,R1                                   ; ﾍｯﾀﾞ部を除いた受信ﾃﾞｰﾀﾊﾞｲﾄ数
 7562 00000A34 71FF              1278             ADD     #-1,R1                                  ; BCC分をﾏｲﾅｽ
 7563                            1279     
 7564 00000A36                   1280     SCI0_BCC_CK100:
 7565 00000A36 62A4              1281             MOV.B   @R10+,R2
 7566 00000A38 622C              1282             EXTU.B  R2,R2
 7567 00000A3A 302C              1283             ADD     R2,R0                                   ; BCC加算
 7568 00000A3C 71FF              1284             ADD     #-1,R1
 7569 00000A3E 4115              1285             CMP/PL  R1
 7570 00000A40 89F9              1286             BT      SCI0_BCC_CK100
 7571                            1287     
 7572 00000A42 600B              1288             NEG     R0,R0
 7573 00000A44 600C              1289             EXTU.B  R0,R0
 7574 00000A46 62A4              1290             MOV.B   @R10+,R2                                ; 受信したBCC
 7575 00000A48 622C              1291             EXTU.B  R2,R2
 7576 00000A4A 3020              1292             CMP/EQ  R2,R0                                   ; BCCはOK？
 7577 00000A4C 8902              1293             BT      SCI0_BCC_CKEND                          ; はい
 7578                            1294     
 7579                            1295             .AIF    0 EQ 1
 7580                            1296             M_BRA   SCI0_BCC_CKEND
 7581                            1297             .AENDI
 7582                            1298     
 7583 00000A4E 9004              1299             MOV.W   #H'60,R0
 7584 00000A50 DA03              1300             MOV.L   #_sci0_wkram+RX_ERR,R10
 7585 00000A52 2A01              1301             MOV.W   R0,@R10                                 ; BCC異常0x60
 7586                            1302     
 7587 00000A54                   1303     SCI0_BCC_CKEND:
 7588                            1304             SUB_END
 7589                                 M   ;;;;;;; ADD     #4,R15                  ;[不要?]
 7590 00000A54 4F26                   M           LDS.L   @R15+,PR                ;[必要]
 7591                            1305             M_RTS
 7592 00000A56 000B                   M           RTS                             ;RTSの後ろの
 7593 00000A58 0009                   M           NOP                             ;@R15+,PRはﾀﾞﾒ
 7594                            1306     
 7595                            1307     
 7596                            1308     ;       **********************************************************************************
                                          ***
 7597                            1309     ;       *****                                                                           **
                                          ***
 7598                            1310     ;       *****   受信データのメモリ種別チェック                                          **
                                          ***
 7599                            1311     ;       *****                                                                           **
                                          ***
 7600                            1312     ;       *****                                                                           **
                                          ***
 7601                            1313     ;       *****                                                                           **
                                          ***
 7602                            1314     ;       **********************************************************************************
                                          ***
 7603                                     ***** BEGIN-POOL *****
 7604 00000A5A 0060                       DATA FOR SOURCE-LINE 1299
 7605 00000A5C 00000000                   DATA FOR SOURCE-LINE 1267
 7606 00000A60 00000000                   DATA FOR SOURCE-LINE 1300
 7607                                     ***** END-POOL *****
 7608 00000A64                   1315     _SCI0_MEMSEL_CHECK:
 7609                            1316             SUB_START
*** SuperH RISC engine ASSEMBLER V.7.01.02.000 ***    07/04/21 19:29:24                                                  PAGE    40
PROGRAM NAME =

 7610 00000A64 4F22                   M           STS.L   PR,@-R15                ;[必要]
 7611                                 M   ;;;;;;; ADD     #-4,R15                 ;[不要?]
 7612                            1317     
 7613 00000A66 DA0E              1318             MOV.L   #_sci0_rxd_buf+_AREA_SEL,R10
 7614 00000A68 60A0              1319             MOV.B   @R10,R0
 7615 00000A6A 600C              1320             EXTU.B  R0,R0
 7616 00000A6C 8800              1321             CMP/EQ  #_LOD_AREA0,R0
 7617 00000A6E 8912              1322             BT      SCI0_MSEL_EXT
 7618 00000A70 8801              1323             CMP/EQ  #_LOD_AREA1,R0
 7619 00000A72 8910              1324             BT      SCI0_MSEL_EXT
 7620 00000A74 8802              1325             CMP/EQ  #_LOD_AREA_FROM,R0
 7621 00000A76 890E              1326             BT      SCI0_MSEL_EXT
 7622 00000A78 8803              1327             CMP/EQ  #_LOD_AREA_FRAM,R0
 7623 00000A7A 890C              1328             BT      SCI0_MSEL_EXT
 7624 00000A7C 8804              1329             CMP/EQ  #_LOD_AREA_DPRAM,R0
 7625 00000A7E 890A              1330             BT      SCI0_MSEL_EXT
 7626 00000A80 8805              1331             CMP/EQ  #_LOD_AREA_SRAM,R0
 7627 00000A82 8908              1332             BT      SCI0_MSEL_EXT
 7628 00000A84 8815              1333             CMP/EQ  #_LOD_AREA_SAMP,R0                      ; V01v
 7629 00000A86 8906              1334             BT      SCI0_MSEL_EXT
 7630 00000A88 8813              1335             CMP/EQ  #_LOD_AREA_FRAMX,R0                     ; V05
 7631 00000A8A 8904              1336             BT      SCI0_MSEL_EXT
 7632 00000A8C 8806              1337             CMP/EQ  #_LOD_AREA_KATA,R0                      ; SIT4-MC  2014/05/08
 7633 00000A8E 8902              1338             BT      SCI0_MSEL_EXT
 7634                            1339     
 7635 00000A90 9004              1340             MOV.W   #H'40,R0
 7636 00000A92 DA04              1341             MOV.L   #_sci0_wkram+RX_ERR,R10
 7637 00000A94 2A01              1342             MOV.W   R0,@R10                                 ; BCC異常0x60
 7638                            1343     
 7639 00000A96                   1344     SCI0_MSEL_EXT:
 7640                            1345             SUB_END
 7641                                 M   ;;;;;;; ADD     #4,R15                  ;[不要?]
 7642 00000A96 4F26                   M           LDS.L   @R15+,PR                ;[必要]
 7643                            1346             M_RTS
 7644 00000A98 000B                   M           RTS                             ;RTSの後ろの
 7645 00000A9A 0009                   M           NOP                             ;@R15+,PRはﾀﾞﾒ
 7646                            1347     
 7647                            1348     
 7648                            1349     ;       **********************************************************************************
                                          ***
 7649                            1350     ;       *****                                                                           **
                                          ***
 7650                            1351     ;       *****   受信データのアドレスチェック                                            **
                                          ***
 7651                            1352     ;       *****                                                                           **
                                          ***
 7652                            1353     ;       *****   V05 (MAKE)                                                              **
                                          ***
 7653                            1354     ;       *****                                                                           **
                                          ***
 7654                            1355     ;       **********************************************************************************
                                          ***
 7655                            1356             .IMPORT         _FRAM_KAT_TOP
 7656                            1357             .IMPORT         _FRAM_KAT_END
 7657                                     ***** BEGIN-POOL *****
 7658 00000A9C 0040                       DATA FOR SOURCE-LINE 1340
 7659 00000A9E 0000                       ALIGNMENT CODE
*** SuperH RISC engine ASSEMBLER V.7.01.02.000 ***    07/04/21 19:29:24                                                  PAGE    41
PROGRAM NAME =

 7660 00000AA0 00000000                   DATA FOR SOURCE-LINE 1318
 7661 00000AA4 00000000                   DATA FOR SOURCE-LINE 1341
 7662                                     ***** END-POOL *****
 7663 00000AA8                   1358     _SCI0_MEMADR_CHECK:
 7664                            1359             SUB_START
 7665 00000AA8 4F22                   M           STS.L   PR,@-R15                ;[必要]
 7666                                 M   ;;;;;;; ADD     #-4,R15                 ;[不要?]
 7667                            1360     
 7668 00000AAA DA0C              1361             MOV.L   #_sci0_rxd_buf+_AREA_SEL,R10
 7669 00000AAC 60A4              1362             MOV.B   @R10+,R0
 7670 00000AAE 600C              1363             EXTU.B  R0,R0
 7671 00000AB0 8813              1364             CMP/EQ  #_LOD_AREA_FRAMX,R0                     ; FRAMへのｱｸｾｽ？
 7672 00000AB2 8B1E              1365             BF      SCI0_MADR_EXT                           ; いいえ
 7673                            1366     
 7674 00000AB4 61A4              1367             MOV.B   @R10+,R1
 7675 00000AB6 62A4              1368             MOV.B   @R10+,R2
 7676 00000AB8 63A4              1369             MOV.B   @R10+,R3
 7677 00000ABA 611C              1370             EXTU.B  R1,R1
 7678 00000ABC 622C              1371             EXTU.B  R2,R2
 7679 00000ABE 633C              1372             EXTU.B  R3,R3
 7680 00000AC0 4328              1373             SHLL16  R3
 7681 00000AC2 4218              1374             SHLL8   R2
 7682 00000AC4 212B              1375             OR      R2,R1
 7683 00000AC6 213B              1376             OR      R3,R1                                   ; 相対ｱﾄﾞﾚｽ
 7684 00000AC8 D205              1377             MOV.L   #_fram_top,R2                           ; FeRAM先頭ｱﾄﾞﾚｽ
 7685 00000ACA 312C              1378             ADD     R2,R1                                   ; FeRAMｱｸｾｽ絶対ｱﾄﾞﾚｽ
 7686 00000ACC D205              1379             MOV.L   #_FRAM_KAT_TOP,R2                       ; 型ﾃﾞｰﾀの先頭ｱﾄﾞﾚｽ
 7687 00000ACE D306              1380             MOV.L   #_FRAM_KAT_END,R3                       ; 型ﾃﾞｰﾀの最終ｱﾄﾞﾚｽ
 7688 00000AD0 3122              1381             CMP/HS  R2,R1                                   ; 先頭ｱﾄﾞﾚｽ以上？
 7689 00000AD2 8B0B              1382             BF      SCI0_MADR_ERR                           ; いいえ
 7690 00000AD4 3132              1383             CMP/HS  R3,R1                                   ; 最終ｱﾄﾞﾚｽ以上？
 7691 00000AD6 8909              1384             BT      SCI0_MADR_ERR                           ; はい
 7692                            1385             M_BRA   SCI0_MADR_EXT                           ; 型ﾃﾞｰﾀのｱﾄﾞﾚｽでＯＫ
 7693 00000AD8 A00B                   M           BRA     SCI0_MADR_EXT
 7694 00000ADA 0009                   M           NOP
 7695                            1386     
 7696                                     ***** BEGIN-POOL *****
 7697 00000ADC 00000000                   DATA FOR SOURCE-LINE 1361
 7698 00000AE0 00000000                   DATA FOR SOURCE-LINE 1377
 7699 00000AE4 00000000                   DATA FOR SOURCE-LINE 1379
 7700 00000AE8 00000000                   DATA FOR SOURCE-LINE 1380
 7701                                     ***** END-POOL *****
 7702 00000AEC                   1387     SCI0_MADR_ERR:
 7703 00000AEC 9004              1388             MOV.W   #H'40,R0
 7704 00000AEE DA03              1389             MOV.L   #_sci0_wkram+RX_ERR,R10
 7705 00000AF0 2A01              1390             MOV.W   R0,@R10                                 ; BCC異常0x60
 7706                            1391     
 7707 00000AF2                   1392     SCI0_MADR_EXT:
 7708                            1393             SUB_END
 7709                                 M   ;;;;;;; ADD     #4,R15                  ;[不要?]
 7710 00000AF2 4F26                   M           LDS.L   @R15+,PR                ;[必要]
 7711                            1394             M_RTS
 7712 00000AF4 000B                   M           RTS                             ;RTSの後ろの
 7713 00000AF6 0009                   M           NOP                             ;@R15+,PRはﾀﾞﾒ
 7714                            1395     
 7715                            1396     
 7716                            1397     ;       **********************************************************************************
*** SuperH RISC engine ASSEMBLER V.7.01.02.000 ***    07/04/21 19:29:24                                                  PAGE    42
PROGRAM NAME =

                                          ***
 7717                            1398     ;       *****                                                                           **
                                          ***
 7718                            1399     ;       *****   受信データのアドレスチェック                                            **
                                          ***
 7719                            1400     ;       *****                                                                           **
                                          ***
 7720                            1401     ;       *****   V05 (MAKE)                                                              **
                                          ***
 7721                            1402     ;       *****                                                                           **
                                          ***
 7722                            1403     ;       **********************************************************************************
                                          ***
 7723                                     ***** BEGIN-POOL *****
 7724 00000AF8 0040                       DATA FOR SOURCE-LINE 1388
 7725 00000AFA 0000                       ALIGNMENT CODE
 7726 00000AFC 00000000                   DATA FOR SOURCE-LINE 1389
 7727                                     ***** END-POOL *****
 7728 00000B00                   1404     _SCI0_WREI_CHECK:
 7729                            1405             SUB_START
 7730 00000B00 4F22                   M           STS.L   PR,@-R15                ;[必要]
 7731                                 M   ;;;;;;; ADD     #-4,R15                 ;[不要?]
 7732                            1406     
 7733 00000B02 DA08              1407             MOV.L   #_sci0_rxd_buf+_AREA_SEL,R10
 7734 00000B04 60A4              1408             MOV.B   @R10+,R0
 7735 00000B06 600C              1409             EXTU.B  R0,R0
 7736 00000B08 8813              1410             CMP/EQ  #_LOD_AREA_FRAMX,R0                     ; FRAMへのｱｸｾｽ？
 7737 00000B0A 8B07              1411             BF      SCI0_WREI_EXT                           ; いいえ
 7738                            1412     
 7739 00000B0C DA06              1413             MOV.L   #_SEQ_PAR_103,R10
 7740 00000B0E 60A1              1414             MOV.W   @R10,R0
 7741 00000B10 D106              1415             MOV.L   #H'4000,R1                              ; 103.14
 7742 00000B12 2018              1416             TST     R1,R0                                   ; ライト許可？
 7743 00000B14 8902              1417             BT      SCI0_WREI_EXT                           ; はい
 7744                            1418     
 7745 00000B16 9004              1419             MOV.W   #H'40,R0
 7746 00000B18 DA05              1420             MOV.L   #_sci0_wkram+RX_ERR,R10
 7747 00000B1A 2A01              1421             MOV.W   R0,@R10                                 ;
 7748                            1422     
 7749 00000B1C                   1423     SCI0_WREI_EXT:
 7750                            1424             SUB_END
 7751                                 M   ;;;;;;; ADD     #4,R15                  ;[不要?]
 7752 00000B1C 4F26                   M           LDS.L   @R15+,PR                ;[必要]
 7753                            1425             M_RTS
 7754 00000B1E 000B                   M           RTS                             ;RTSの後ろの
 7755 00000B20 0009                   M           NOP                             ;@R15+,PRはﾀﾞﾒ
 7756                            1426     
 7757                            1427     
 7758                            1428     ;       **********************************************************************************
                                          ***
 7759                            1429     ;       *****                                                                           **
                                          ***
 7760                            1430     ;       *****   受信データのアドレスチェック                                            **
                                          ***
 7761                            1431     ;       *****                                                                           **
                                          ***
 7762                            1432     ;       *****   V05 (MAKE)                                                              **
*** SuperH RISC engine ASSEMBLER V.7.01.02.000 ***    07/04/21 19:29:24                                                  PAGE    43
PROGRAM NAME =

                                          ***
 7763                            1433     ;       *****                                                                           **
                                          ***
 7764                            1434     ;       **********************************************************************************
                                          ***
 7765                                     ***** BEGIN-POOL *****
 7766 00000B22 0040                       DATA FOR SOURCE-LINE 1419
 7767 00000B24 00000000                   DATA FOR SOURCE-LINE 1407
 7768 00000B28 00000000                   DATA FOR SOURCE-LINE 1413
 7769 00000B2C 00004000                   DATA FOR SOURCE-LINE 1415
 7770 00000B30 00000000                   DATA FOR SOURCE-LINE 1420
 7771                                     ***** END-POOL *****
 7772 00000B34                   1435     _SCI0_RDEI_CHECK:
 7773                            1436             SUB_START
 7774 00000B34 4F22                   M           STS.L   PR,@-R15                ;[必要]
 7775                                 M   ;;;;;;; ADD     #-4,R15                 ;[不要?]
 7776                            1437     
 7777 00000B36 DA08              1438             MOV.L   #_sci0_rxd_buf+_AREA_SEL,R10
 7778 00000B38 60A4              1439             MOV.B   @R10+,R0
 7779 00000B3A 600C              1440             EXTU.B  R0,R0
 7780 00000B3C 8813              1441             CMP/EQ  #_LOD_AREA_FRAMX,R0                     ; FRAMへのｱｸｾｽ？
 7781 00000B3E 8B07              1442             BF      SCI0_RDEI_EXT                           ; いいえ
 7782                            1443     
 7783 00000B40 DA06              1444             MOV.L   #_SEQ_PAR_103,R10
 7784 00000B42 60A1              1445             MOV.W   @R10,R0
 7785 00000B44 D106              1446             MOV.L   #H'8000,R1                              ; 103.15
 7786 00000B46 2018              1447             TST     R1,R0                                   ; リード許可？
 7787 00000B48 8902              1448             BT      SCI0_RDEI_EXT                           ; はい
 7788                            1449     
 7789 00000B4A 9004              1450             MOV.W   #H'40,R0
 7790 00000B4C DA05              1451             MOV.L   #_sci0_wkram+RX_ERR,R10
 7791 00000B4E 2A01              1452             MOV.W   R0,@R10                                 ;
 7792                            1453     
 7793 00000B50                   1454     SCI0_RDEI_EXT:
 7794                            1455             SUB_END
 7795                                 M   ;;;;;;; ADD     #4,R15                  ;[不要?]
 7796 00000B50 4F26                   M           LDS.L   @R15+,PR                ;[必要]
 7797                            1456             M_RTS
 7798 00000B52 000B                   M           RTS                             ;RTSの後ろの
 7799 00000B54 0009                   M           NOP                             ;@R15+,PRはﾀﾞﾒ
 7800                            1457     
 7801                            1458     
 7802                            1459     ;       **********************************************************************************
                                          ***
 7803                            1460     ;       *****                                                                           **
                                          ***
 7804                            1461     ;       *****   シーケンス部へのアクセスチェック                                        **
                                          ***
 7805                            1462     ;       *****                                                                           **
                                          ***
 7806                            1463     ;       **********************************************************************************
                                          ***
 7807                                     ***** BEGIN-POOL *****
 7808 00000B56 0040                       DATA FOR SOURCE-LINE 1450
 7809 00000B58 00000000                   DATA FOR SOURCE-LINE 1438
 7810 00000B5C 00000000                   DATA FOR SOURCE-LINE 1444
 7811 00000B60 00008000                   DATA FOR SOURCE-LINE 1446
*** SuperH RISC engine ASSEMBLER V.7.01.02.000 ***    07/04/21 19:29:24                                                  PAGE    44
PROGRAM NAME =

 7812 00000B64 00000000                   DATA FOR SOURCE-LINE 1451
 7813                                     ***** END-POOL *****
 7814 00000B68                   1464     _SCI0_SEQCMD_CHECK:
 7815                            1465             SUB_START
 7816 00000B68 4F22                   M           STS.L   PR,@-R15                ;[必要]
 7817                                 M   ;;;;;;; ADD     #-4,R15                 ;[不要?]
 7818                            1466     
 7819 00000B6A 200A              1467             XOR     R0,R0
 7820                            1468     
 7821 00000B6C DA0A              1469             MOV.L   #_sci0_rxd_buf+_SETUZOKU_IDL,R10
 7822 00000B6E 62A0              1470             MOV.B   @R10,R2
 7823 00000B70 622C              1471             EXTU.B  R2,R2
 7824 00000B72 D10A              1472             MOV.L   #H'0A5,R1                               ; IDL
 7825 00000B74 3210              1473             CMP/EQ  R1,R2                                   ; = 0xA5?
 7826 00000B76 8B0C              1474             BF      _SCI0_SQCM_CHK_EXT                      ; いいえ
 7827                            1475     
 7828 00000B78 DA09              1476             MOV.L   #_sci0_rxd_buf+_SETUZOKU_IDH,R10
 7829 00000B7A 62A0              1477             MOV.B   @R10,R2
 7830 00000B7C 622C              1478             EXTU.B  R2,R2
 7831 00000B7E D109              1479             MOV.L   #H'055,R1                               ; IDL
 7832 00000B80 3210              1480             CMP/EQ  R1,R2                                   ; = 0xA5?
 7833 00000B82 8B06              1481             BF      _SCI0_SQCM_CHK_EXT                      ; いいえ
 7834                            1482     
 7835                            1483     ;//     FAR_JSR #_KOMA_SEQCMD_REQ,R10                   ;
 7836                            1484     
 7837 00000B84 DA08              1485             MOV.L   #_sci0_wkram+SEQ_LDCMND_RES,R10
 7838 00000B86 D109              1486             MOV.L   #0,R1
 7839 00000B88 2A11              1487             MOV.W   R1,@R10
 7840                            1488     
 7841 00000B8A DA09              1489             MOV.L   #_sci0_wkram+SEQ_LDCMND_REQ,R10
 7842 00000B8C D109              1490             MOV.L   #1,R1
 7843 00000B8E 2A11              1491             MOV.W   R1,@R10
 7844                            1492     
 7845 00000B90 D009              1493             MOV.L   #H'0FF,R0
 7846                            1494     
 7847 00000B92                   1495     _SCI0_SQCM_CHK_EXT:
 7848                            1496             SUB_END
 7849                                 M   ;;;;;;; ADD     #4,R15                  ;[不要?]
 7850 00000B92 4F26                   M           LDS.L   @R15+,PR                ;[必要]
 7851                            1497             M_RTS
 7852 00000B94 000B                   M           RTS                             ;RTSの後ろの
 7853 00000B96 0009                   M           NOP                             ;@R15+,PRはﾀﾞﾒ
 7854                            1498     
 7855                            1499     ;       ----------------------------------------------------------------------------------
                                          ---
 7856                            1500     ;       -----                                                                           --
                                          ---
 7857                            1501     ;       -----                                                                           --
                                          ---
 7858                            1502     ;       -----   送信エンプティ割込み許可                                                --
                                          ---
 7859                            1503     ;       -----                                                                           --
                                          ---
 7860                            1504     ;       -----                                                                           --
                                          ---
 7861                            1505     ;       ----------------------------------------------------------------------------------
                                          ---
*** SuperH RISC engine ASSEMBLER V.7.01.02.000 ***    07/04/21 19:29:24                                                  PAGE    45
PROGRAM NAME =

 7862                                     ***** BEGIN-POOL *****
 7863 00000B98 00000000                   DATA FOR SOURCE-LINE 1469
 7864 00000B9C 000000A5                   DATA FOR SOURCE-LINE 1472
 7865 00000BA0 00000000                   DATA FOR SOURCE-LINE 1476
 7866 00000BA4 00000055                   DATA FOR SOURCE-LINE 1479
 7867 00000BA8 00000000                   DATA FOR SOURCE-LINE 1485
 7868 00000BAC 00000000                   DATA FOR SOURCE-LINE 1486
 7869 00000BB0 00000000                   DATA FOR SOURCE-LINE 1489
 7870 00000BB4 00000001                   DATA FOR SOURCE-LINE 1490
 7871 00000BB8 000000FF                   DATA FOR SOURCE-LINE 1493
 7872                                     ***** END-POOL *****
 7873 00000BBC                   1506     _SCI0_TXI_EI:
 7874                            1507             SUB_START
 7875 00000BBC 4F22                   M           STS.L   PR,@-R15                ;[必要]
 7876                                 M   ;;;;;;; ADD     #-4,R15                 ;[不要?]
 7877                            1508     
 7878 00000BBE D105              1509             MOV.L   #_sci0_wkram+ET1_LDCMND_REQ,R1          ; V05
 7879 00000BC0 6011              1510             MOV.W   @R1,R0
 7880 00000BC2 8801              1511             CMP/EQ  #1,R0                                   ; 内部LdCmnd Request Flag有り？
 7881 00000BC4 8B0A              1512             BF      _SCI0_TXIEI_000
 7882 00000BC6 9003              1513             MOV.W   #1,R0
 7883 00000BC8 D103              1514             MOV.L   #_sci0_wkram+ET1_LDCMND_RES,R1
 7884 00000BCA 2101              1515             MOV.W   R0,@R1                                  ; 内部LdCmnd Response Flagセット
 7885                            1516             M_BRA   _SCI0_TXIEI_EXT
 7886 00000BCC A00F                   M           BRA     _SCI0_TXIEI_EXT
 7887 00000BCE 0009                   M           NOP
 7888                            1517     
 7889                                     ***** BEGIN-POOL *****
 7890 00000BD0 0001                       DATA FOR SOURCE-LINE 1513
 7891 00000BD2 0000                       ALIGNMENT CODE
 7892 00000BD4 00000000                   DATA FOR SOURCE-LINE 1509
 7893 00000BD8 00000000                   DATA FOR SOURCE-LINE 1514
 7894                                     ***** END-POOL *****
 7895 00000BDC                   1518     _SCI0_TXIEI_000:
 7896                            1519     
 7897                            1520     ;///V01p        MOV.L   #_PADR,R1
 7898 00000BDC D106              1521             MOV.L   #_sci0_wkram+RTS_FLG,R1
 7899 00000BDE 6011              1522             MOV.W   @R1,R0
 7900 00000BE0 9208              1523             MOV.W   #BIT13,R2                               ;
 7901 00000BE2 202B              1524             OR      R2,R0                                   ; RTS ON !
 7902 00000BE4 2101              1525             MOV.W   R0,@R1                                  ;
 7903                            1526     
 7904 00000BE6 D105              1527             MOV.L   #_SCR0,R1                               ; BIT7    : 0=送信ｴﾝﾌﾟﾃｨ割込み禁止
 7905                            1528                                                             ; BIT6    : 1=受信ﾃﾞｰﾀ割込み許可
 7906                            1529                                                             ; BIT5    : 0=送信動作を禁止
 7907                            1530                                                             ; BIT4    : 1=受信動作を許可
 7908                            1531                                                             ; BIT3    : 0=ﾏﾙﾁﾌﾟﾛｾｯｻ割込み禁止
 7909                            1532                                                             ; BIT2    : 0=送信終了割込み禁止
 7910                            1533                                                             ; BIT1〜0 : 0=内部ｸﾛｯｸ／SCK入出力
 7911 00000BE8 6010              1534             MOV.B   @R1,R0
 7912 00000BEA CBA0              1535             OR      #(BIT7+BIT5),R0                         ; BIT5:送信動作許可  BIT7:送信ｴﾝﾌﾟ
                                          ﾃｨ割込み許可
 7913 00000BEC 2100              1536             MOV.B   R0,@R1
 7914                            1537     
 7915 00000BEE                   1538     _SCI0_TXIEI_EXT:
 7916                            1539             SUB_END
 7917                                 M   ;;;;;;; ADD     #4,R15                  ;[不要?]
*** SuperH RISC engine ASSEMBLER V.7.01.02.000 ***    07/04/21 19:29:24                                                  PAGE    46
PROGRAM NAME =

 7918 00000BEE 4F26                   M           LDS.L   @R15+,PR                ;[必要]
 7919                            1540             M_RTS
 7920 00000BF0 000B                   M           RTS                             ;RTSの後ろの
 7921 00000BF2 0009                   M           NOP                             ;@R15+,PRはﾀﾞﾒ
 7922                            1541     
 7923                            1542     
 7924                            1543     ;       ----------------------------------------------------------------------------------
                                          ---
 7925                            1544     ;       -----                                                                           --
                                          ---
 7926                            1545     ;       -----                                                                           --
                                          ---
 7927                            1546     ;       -----   送信エンプティ割込み禁止                                                --
                                          ---
 7928                            1547     ;       -----                                                                           --
                                          ---
 7929                            1548     ;       -----                                                                           --
                                          ---
 7930                            1549     ;       ----------------------------------------------------------------------------------
                                          ---
 7931                                     ***** BEGIN-POOL *****
 7932 00000BF4 2000                       DATA FOR SOURCE-LINE 1523
 7933 00000BF6 0000                       ALIGNMENT CODE
 7934 00000BF8 00000000                   DATA FOR SOURCE-LINE 1521
 7935 00000BFC 00000000                   DATA FOR SOURCE-LINE 1527
 7936                                     ***** END-POOL *****
 7937 00000C00                   1550     _SCI0_TXI_DI:
 7938                            1551             SUB_START
 7939 00000C00 4F22                   M           STS.L   PR,@-R15                ;[必要]
 7940                                 M   ;;;;;;; ADD     #-4,R15                 ;[不要?]
 7941                            1552     
 7942 00000C02 D103              1553             MOV.L   #_SCR0,R1                               ; BIT7    : 0=送信ｴﾝﾌﾟﾃｨ割込み禁止
 7943                            1554                                                             ; BIT6    : 1=受信ﾃﾞｰﾀ割込み許可
 7944                            1555                                                             ; BIT5    : 0=送信動作を禁止
 7945                            1556                                                             ; BIT4    : 1=受信動作を許可
 7946                            1557                                                             ; BIT3    : 0=ﾏﾙﾁﾌﾟﾛｾｯｻ割込み禁止
 7947                            1558                                                             ; BIT2    : 0=送信終了割込み禁止
 7948                            1559                                                             ; BIT1〜0 : 0=内部ｸﾛｯｸ／SCK入出力
 7949 00000C04 6010              1560             MOV.B   @R1,R0
 7950 00000C06 C97F              1561             AND     #NBIT7,R0
 7951 00000C08 2100              1562             MOV.B   R0,@R1
 7952                            1563     
 7953                            1564             SUB_END
 7954                                 M   ;;;;;;; ADD     #4,R15                  ;[不要?]
 7955 00000C0A 4F26                   M           LDS.L   @R15+,PR                ;[必要]
 7956                            1565             M_RTS
 7957 00000C0C 000B                   M           RTS                             ;RTSの後ろの
 7958 00000C0E 0009                   M           NOP                             ;@R15+,PRはﾀﾞﾒ
 7959                            1566     
 7960                            1567     
 7961                            1568     ;       **********************************************************************************
                                          ***
 7962                            1569     ;       *****                                                                           **
                                          ***
 7963                            1570     ;       *****   汎用通信受信ｴﾗｰ割込み                                                   **
                                          ***
 7964                            1571     ;       *****                                                                           **
*** SuperH RISC engine ASSEMBLER V.7.01.02.000 ***    07/04/21 19:29:24                                                  PAGE    47
PROGRAM NAME =

                                          ***
 7965                            1572     ;       *****                                                                           **
                                          ***
 7966                            1573     ;       *****                                                                           **
                                          ***
 7967                            1574     ;       **********************************************************************************
                                          ***
 7968                                     ***** BEGIN-POOL *****
 7969 00000C10 00000000                   DATA FOR SOURCE-LINE 1553
 7970                                     ***** END-POOL *****
 7971 00000C14                   1575     _ER0_INT:
 7972                            1576             SUB_START
 7973 00000C14 4F22                   M           STS.L   PR,@-R15                ;[必要]
 7974                                 M   ;;;;;;; ADD     #-4,R15                 ;[不要?]
 7975                            1577     
 7976 00000C16 D008              1578             MOV.L   #_sci0_wkram,R0                         ;
 7977 00000C18 401E              1579             LDC.L   R0,GBR                                  ;
 7978                            1580     
 7979 00000C1A 200A              1581             XOR     R0,R0
 7980 00000C1C C106              1582             MOV.W   R0,@(RX_END,GBR)                        ; 全ﾃﾞｰﾀ受信完ｸﾘｱ
 7981 00000C1E C101              1583             MOV.W   R0,@(RXD_CNT,GBR)                       ; 受信回数ｸﾘｱ
 7982 00000C20 C105              1584             MOV.W   R0,@(HEAD_END,GBR)                      ; 伝送ﾍｯﾀﾞ部受信確認ｸﾘｱ
 7983 00000C22 C102              1585             MOV.W   R0,@(RXD_BUF_POI,GBR)                   ; ﾎﾟｲﾝﾀｸﾘｱ
 7984                            1586     
 7985 00000C24 9207              1587             MOV.W   #(BIT3+BIT4+BIT5),R2
 7986 00000C26 6227              1588             NOT     R2,R2
 7987 00000C28 D104              1589             MOV.L   #_SSR0,R1
 7988 00000C2A 6010              1590             MOV.B   @R1,R0
 7989 00000C2C 2029              1591             AND     R2,R0                                   ; ORER,FER,PERｸﾘｱ
 7990 00000C2E 2100              1592             MOV.B   R0,@R1
 7991                            1593     
 7992                            1594             SUB_END
 7993                                 M   ;;;;;;; ADD     #4,R15                  ;[不要?]
 7994 00000C30 4F26                   M           LDS.L   @R15+,PR                ;[必要]
 7995                            1595             M_RTS
 7996 00000C32 000B                   M           RTS                             ;RTSの後ろの
 7997 00000C34 0009                   M           NOP                             ;@R15+,PRはﾀﾞﾒ
 7998                            1596     
 7999                            1597     
 8000                            1598     ;       **********************************************************************************
                                          ***
 8001                            1599     ;       *****                                                                           **
                                          ***
 8002                            1600     ;       *****   汎用通信受信ＭＡＩＮ                                                    **
                                          ***
 8003                            1601     ;       *****                                                                           **
                                          ***
 8004                            1602     ;       *****                                                                           **
                                          ***
 8005                            1603     ;       *****                                                                           **
                                          ***
 8006                            1604     ;       **********************************************************************************
                                          ***
 8007                                     ***** BEGIN-POOL *****
 8008 00000C36 0038                       DATA FOR SOURCE-LINE 1587
 8009 00000C38 00000000                   DATA FOR SOURCE-LINE 1578
 8010 00000C3C 00000000                   DATA FOR SOURCE-LINE 1589
*** SuperH RISC engine ASSEMBLER V.7.01.02.000 ***    07/04/21 19:29:24                                                  PAGE    48
PROGRAM NAME =

 8011                                     ***** END-POOL *****
 8012 00000C40                   1605     _RX0_MAIN:
 8013                            1606             SUB_START
 8014 00000C40 4F22                   M           STS.L   PR,@-R15                ;[必要]
 8015                                 M   ;;;;;;; ADD     #-4,R15                 ;[不要?]
 8016 00000C42 0009              1607             NOP
 8017 00000C44 0002              1608             STC     SR,R0
 8018 00000C46 0009              1609             NOP
 8019 00000C48 D104              1610             MOV.L   #H'000000F0,R1
 8020 00000C4A 2019              1611             AND     R1,R0
 8021 00000C4C D204              1612             mov.l   #SR_Init_DI,r2
 8022 00000C4E 2219              1613             AND     R1,R2
 8023 00000C50 3020              1614             CMP/EQ  R2,R0                                   ; 全割込み禁止中？
 8024 00000C52 8907              1615             BT      _RX0_M100                               ; はい
 8025                            1616             SUB_END
 8026                                 M   ;;;;;;; ADD     #4,R15                  ;[不要?]
 8027 00000C54 4F26                   M           LDS.L   @R15+,PR                ;[必要]
 8028                            1617             M_RTS
 8029 00000C56 000B                   M           RTS                             ;RTSの後ろの
 8030 00000C58 0009                   M           NOP                             ;@R15+,PRはﾀﾞﾒ
 8031                            1618     
 8032                                     ***** BEGIN-POOL *****
 8033 00000C5A 0000                       ALIGNMENT CODE
 8034 00000C5C 000000F0                   DATA FOR SOURCE-LINE 1610
 8035 00000C60 400000F0                   DATA FOR SOURCE-LINE 1612
 8036                                     ***** END-POOL *****
 8037 00000C64                   1619     _RX0_M100:
 8038 00000C64 D103              1620             MOV.L   #_SCR0,R1                               ; BIT7    : 0=送信ｴﾝﾌﾟﾃｨ割込み禁止
 8039                            1621                                                             ; BIT6    : 1=受信ﾃﾞｰﾀ割込み許可
 8040                            1622                                                             ; BIT5    : 0=送信動作を禁止
 8041                            1623                                                             ; BIT4    : 1=受信動作を許可
 8042                            1624                                                             ; BIT3    : 0=ﾏﾙﾁﾌﾟﾛｾｯｻ割込み禁止
 8043                            1625                                                             ; BIT2    : 0=送信終了割込み禁止
 8044                            1626                                                             ; BIT1〜0 : 0=内部ｸﾛｯｸ／SCK入出力
 8045 00000C66 6010              1627             MOV.B   @R1,R0
 8046 00000C68 C820              1628             TST     #BIT5,R0                                ; BIT5:送信動作許可中？
 8047 00000C6A 8905              1629             BT      _RX0_M150                               ; いいえ
 8048                            1630             SUB_END
 8049                                 M   ;;;;;;; ADD     #4,R15                  ;[不要?]
 8050 00000C6C 4F26                   M           LDS.L   @R15+,PR                ;[必要]
 8051                            1631             M_RTS
 8052 00000C6E 000B                   M           RTS                             ;RTSの後ろの
 8053 00000C70 0009                   M           NOP                             ;@R15+,PRはﾀﾞﾒ
 8054                            1632     
 8055                                     ***** BEGIN-POOL *****
 8056 00000C72 0000                       ALIGNMENT CODE
 8057 00000C74 00000000                   DATA FOR SOURCE-LINE 1620
 8058                                     ***** END-POOL *****
 8059 00000C78                   1633     _RX0_M150:
 8060 00000C78 C810              1634             TST     #BIT4,R0                                ; BIT4:受信動作許可中？
 8061 00000C7A 8B02              1635             BF      _RX0_M200                               ; はい
 8062                            1636             SUB_END
 8063                                 M   ;;;;;;; ADD     #4,R15                  ;[不要?]
 8064 00000C7C 4F26                   M           LDS.L   @R15+,PR                ;[必要]
 8065                            1637             M_RTS
 8066 00000C7E 000B                   M           RTS                             ;RTSの後ろの
 8067 00000C80 0009                   M           NOP                             ;@R15+,PRはﾀﾞﾒ
*** SuperH RISC engine ASSEMBLER V.7.01.02.000 ***    07/04/21 19:29:24                                                  PAGE    49
PROGRAM NAME =

 8068                            1638     
 8069 00000C82                   1639     _RX0_M200:
 8070 00000C82 C840              1640             TST     #BIT6,R0                                ; BIT6:受信完了割込み許可中？
 8071 00000C84 8B02              1641             BF      _RX0_M250                               ; はい
 8072                            1642             SUB_END
 8073                                 M   ;;;;;;; ADD     #4,R15                  ;[不要?]
 8074 00000C86 4F26                   M           LDS.L   @R15+,PR                ;[必要]
 8075                            1643             M_RTS
 8076 00000C88 000B                   M           RTS                             ;RTSの後ろの
 8077 00000C8A 0009                   M           NOP                             ;@R15+,PRはﾀﾞﾒ
 8078                            1644     
 8079 00000C8C                   1645     _RX0_M250:
 8080                            1646             _WDT_CLR
 8081                                 M           PUSH_REG1 R0
 8082 00000C8C 2F06                   M           MOV.L   R0,@-R15                ;PUSH=SP-4
 8083                                 M                                           ;REG=>[SP]
 8084                                 M                                           ;"-4" FF,FF,FF,FC
 8085                                 M           PUSH_REG1 R10
 8086 00000C8E 2FA6                   M           MOV.L   R10,@-R15               ;PUSH=SP-4
 8087                                 M                                           ;REG=>[SP]
 8088                                 M                                           ;"-4" FF,FF,FF,FC
 8089                                 M           PUSH_REG1 R14
 8090 00000C90 2FE6                   M           MOV.L   R14,@-R15               ;PUSH=SP-4
 8091                                 M                                           ;REG=>[SP]
 8092                                 M                                           ;"-4" FF,FF,FF,FC
 8093                                 M   
 8094 00000C92 DA0E                   M           MOV.L   #_PJDR,R10                              ;
 8095 00000C94 60A0                   M           MOV.B   @R10,R0
 8096 00000C96 CB10                   M           OR      #BIT4,R0
 8097 00000C98 2A00                   M           MOV.B   R0,@R10
 8098 00000C9A C9EF                   M           AND     #NBIT4,R0
 8099 00000C9C 2A00                   M           MOV.B   R0,@R10
 8100                                 M   
 8101                                 M           ;====== 2006-10-19 SAITO 追加　WDTﾎﾟｰﾄ変更 ======
 8102 00000C9E DA0C                   M           MOV.L   #_IOGA2_CTRL_DAT1+_IOGA_P5,R10          ;
 8103 00000CA0 60A1                   M           MOV.W   @R10,R0                                 ;
 8104 00000CA2 9E10                   M           MOV.W   #BIT0,R14                               ;
 8105 00000CA4 20EB                   M           OR      R14,R0                                  ;
 8106 00000CA6 2A01                   M           MOV.W   R0,@R10                                 ; WORK
 8107                                 M   
 8108                                 M   ;;      MOV.L   #_IOGA2_CTRL_DAT1+_IOGA_P5,R10  ; WORK ADDRESS
 8109                                 M   ;;      MOV.W   @R10,R0                                 ;
 8110 00000CA8 9E0E                   M           MOV.W   #_IO2B_P5EX,R14                         ;
 8111 00000CAA 20EA                   M           XOR     R14,R0                                  ;
 8112 00000CAC DA09                   M           MOV.L   #_dio_top2+_IOGA_PDR5,R10               ; IOGA PF ADDRESS
 8113 00000CAE 2A01                   M           MOV.W   R0,@R10                                 ; 実出力SET
 8114                                 M   
 8115 00000CB0 DA07                   M           MOV.L   #_IOGA2_CTRL_DAT1+_IOGA_P5,R10          ;
 8116 00000CB2 60A1                   M           MOV.W   @R10,R0                                 ;
 8117 00000CB4 9E09                   M           MOV.W   #NBIT0,R14                              ;
 8118 00000CB6 20E9                   M           AND     R14,R0                                  ;
 8119 00000CB8 2A01                   M           MOV.W   R0,@R10                                 ; WORK
 8120                                 M   
 8121                                 M   ;;      MOV.L   #_IOGA2_CTRL_DAT1+_IOGA_P5,R10  ; WORK ADDRESS
 8122                                 M   ;;      MOV.W   @R10,R0                                 ;
 8123 00000CBA 9E05                   M           MOV.W   #_IO2B_P5EX,R14                         ;
 8124 00000CBC 20EA                   M           XOR     R14,R0                                  ;
*** SuperH RISC engine ASSEMBLER V.7.01.02.000 ***    07/04/21 19:29:24                                                  PAGE    50
PROGRAM NAME =

 8125 00000CBE DA05                   M           MOV.L   #_dio_top2+_IOGA_PDR5,R10               ; IOGA PF ADDRESS
 8126 00000CC0 2A01                   M           MOV.W   R0,@R10                                 ; 実出力SET
 8127                                 M   
 8128                                 M           M_BRA   AAA00001
 8129 00000CC2 A009                   M           BRA     AAA00001
 8130 00000CC4 0009                   M           NOP
 8131                                 M   ***** BEGIN-POOL *****
 8132 00000CC6 0001                   M   DATA FOR SOURCE-LINE 1646
 8133 00000CC8 0000                   M   DATA FOR SOURCE-LINE 1646,1646
 8134 00000CCA 00FE                   M   DATA FOR SOURCE-LINE 1646
 8135 00000CCC 00000000               M   DATA FOR SOURCE-LINE 1646
 8136 00000CD0 00000000               M   DATA FOR SOURCE-LINE 1646,1646
 8137 00000CD4 00000000               M   DATA FOR SOURCE-LINE 1646,1646
 8138                                 M   ***** END-POOL *****
 8139 00000CD8                        M   AAA00001:
 8140                                 M           POP_REG1 R14
 8141                                 M                                   ; RE"+4" 00,00,00,04
 8142 00000CD8 6EF6                   M           MOV.L   @R15+,R14        ;
 8143                                 M           POP_REG1 R10
 8144                                 M                                   ; RE"+4" 00,00,00,04
 8145 00000CDA 6AF6                   M           MOV.L   @R15+,R10        ;
 8146                                 M           POP_REG1 R0
 8147                                 M                                   ; RE"+4" 00,00,00,04
 8148 00000CDC 60F6                   M           MOV.L   @R15+,R0        ;
 8149 00000CDE D103              1647             MOV.L   #_SSR0,R1
 8150 00000CE0 6010              1648             MOV.B   @R1,R0
 8151 00000CE2 C840              1649             TST     #BIT6,R0                                ; RDRF ON?
 8152 00000CE4 8B04              1650             BF      _RX0_M300                               ; YES
 8153                            1651             M_BRA   _RX0_M250
 8154 00000CE6 AFD1                   M           BRA     _RX0_M250
 8155 00000CE8 0009                   M           NOP
 8156                            1652     
 8157                                     ***** BEGIN-POOL *****
 8158 00000CEA 0000                       ALIGNMENT CODE
 8159 00000CEC 00000000                   DATA FOR SOURCE-LINE 1647
 8160                                     ***** END-POOL *****
 8161 00000CF0                   1653     _RX0_M300:
 8162 00000CF0 D008              1654             MOV.L   #_sci0_wkram,R0                         ;
 8163 00000CF2 401E              1655             LDC.L   R0,GBR                                  ;
 8164                            1656     
 8165 00000CF4 D108              1657             MOV.L   #_RDR0,R1
 8166 00000CF6 6210              1658             MOV.B   @R1,R2
 8167 00000CF8 622C              1659             EXTU.B  R2,R2                                   ; R2 <- 受信ﾃﾞｰﾀ
 8168                            1660     
 8169 00000CFA D108              1661             MOV.L   #_sci0_rxd_buf,R1
 8170 00000CFC C502              1662             MOV.W   @(RXD_BUF_POI,GBR),R0                   ; ﾎﾟｲﾝﾀ
 8171 00000CFE 6403              1663             MOV     R0,R4                                   ; ﾎﾟｲﾝﾀKEEP
 8172 00000D00 310C              1664             ADD     R0,R1                                   ; 受信ﾃﾞｰﾀ格納ｱﾄﾞﾚｽ
 8173                            1665     
 8174 00000D02 2120              1666             MOV.B   R2,@R1                                  ; 受信ﾃﾞｰﾀ格納
 8175                            1667     
 8176 00000D04 2448              1668             TST     R4,R4                                   ; ﾎﾟｲﾝﾀ=0？
 8177 00000D06 8B0B              1669             BF      RX0_M020                                ; いいえ
 8178                            1670     
 8179 00000D08 9003              1671             MOV.W   #H'5A,R0
 8180 00000D0A 3200              1672             CMP/EQ  R0,R2                                   ; 最初に受信したﾃﾞｰﾀは0x5A？
 8181 00000D0C 8908              1673             BT      RX0_M020                                ; はい
*** SuperH RISC engine ASSEMBLER V.7.01.02.000 ***    07/04/21 19:29:24                                                  PAGE    51
PROGRAM NAME =

 8182                            1674     
 8183                            1675             M_BRA   RX0_M030
 8184 00000D0E A011                   M           BRA     RX0_M030
 8185 00000D10 0009                   M           NOP
 8186                            1676     
 8187                                     ***** BEGIN-POOL *****
 8188 00000D12 005A                       DATA FOR SOURCE-LINE 1671
 8189 00000D14 00000000                   DATA FOR SOURCE-LINE 1654
 8190 00000D18 00000000                   DATA FOR SOURCE-LINE 1657
 8191 00000D1C 00000000                   DATA FOR SOURCE-LINE 1661
 8192                                     ***** END-POOL *****
 8193 00000D20                   1677     RX0_M020:
 8194 00000D20 C505              1678             MOV.W   @(HEAD_END,GBR),R0                      ;
 8195 00000D22 2008              1679             TST     R0,R0                                   ; 伝送ﾍｯﾀﾞ部受信済み?
 8196 00000D24 8914              1680             BT      RX0_M050                                ; いいえ
 8197                            1681     
 8198 00000D26 C501              1682             MOV.W   @(RXD_CNT,GBR),R0                       ; 受信すべきﾃﾞｰﾀﾊﾞｲﾄ数
 8199 00000D28 70FF              1683             ADD     #-1,R0
 8200 00000D2A C101              1684             MOV.W   R0,@(RXD_CNT,GBR)
 8201 00000D2C 2008              1685             TST     R0,R0                                   ; 全受信完了？
 8202 00000D2E 8B1D              1686             BF      RX0_M400                                ; いいえ
 8203                            1687     
 8204 00000D30 900B              1688             MOV.W   #1,R0
 8205 00000D32 C106              1689             MOV.W   R0,@(RX_END,GBR)                        ; 全ﾃﾞｰﾀ受信完
 8206                            1690     
 8207 00000D34                   1691     RX0_M030:
 8208 00000D34 200A              1692             XOR     R0,R0
 8209 00000D36 C101              1693             MOV.W   R0,@(RXD_CNT,GBR)
 8210 00000D38 C105              1694             MOV.W   R0,@(HEAD_END,GBR)                      ; 伝送ﾍｯﾀﾞ部受信確認
 8211 00000D3A C102              1695             MOV.W   R0,@(RXD_BUF_POI,GBR)                   ; ﾎﾟｲﾝﾀを次に更新
 8212                            1696     
 8213 00000D3C D103              1697             MOV.L   #_SSR0,R1
 8214 00000D3E 6010              1698             MOV.B   @R1,R0
 8215 00000D40 C9BF              1699             AND     #NBIT6,R0                               ; RDRFｸﾘｱ
 8216 00000D42 2101              1700             MOV.W   R0,@R1
 8217                            1701     
 8218                            1702             SUB_END
 8219                                 M   ;;;;;;; ADD     #4,R15                  ;[不要?]
 8220 00000D44 4F26                   M           LDS.L   @R15+,PR                ;[必要]
 8221                            1703             M_RTS
 8222 00000D46 000B                   M           RTS                             ;RTSの後ろの
 8223 00000D48 0009                   M           NOP                             ;@R15+,PRはﾀﾞﾒ
 8224                            1704     
 8225                                     ***** BEGIN-POOL *****
 8226 00000D4A 0001                       DATA FOR SOURCE-LINE 1688
 8227 00000D4C 00000000                   DATA FOR SOURCE-LINE 1697
 8228                                     ***** END-POOL *****
 8229 00000D50                   1705     RX0_M050:
 8230 00000D50 6043              1706             MOV     R4,R0
 8231 00000D52 8802              1707             CMP/EQ  #H'2,R0                                 ; ﾎﾟｲﾝﾀ2？
 8232 00000D54 8B0A              1708             BF      RX0_M400                                ; いいえ
 8233                            1709     
 8234 00000D56 9016              1710             MOV.W   #1,R0
 8235 00000D58 C105              1711             MOV.W   R0,@(HEAD_END,GBR)                      ; 伝送ﾍｯﾀﾞ部受信確認
 8236                            1712     
 8237 00000D5A D10C              1713             MOV.L   #_sci0_rxd_buf,R1
 8238 00000D5C 9013              1714             MOV.W   #1,R0                                   ; 受信ﾊﾞｯﾌｧﾎﾟﾝﾀ＝１
*** SuperH RISC engine ASSEMBLER V.7.01.02.000 ***    07/04/21 19:29:24                                                  PAGE    52
PROGRAM NAME =

 8239 00000D5E 310C              1715             ADD     R0,R1
 8240 00000D60 6014              1716             MOV.B   @R1+,R0
 8241 00000D62 600C              1717             EXTU.B  R0,R0
 8242 00000D64 6310              1718             MOV.B   @R1,R3
 8243 00000D66 4318              1719             SHLL8   R3
 8244 00000D68 203B              1720             OR      R3,R0                                   ; 伝送ﾃﾞｰﾀﾊﾞｲﾄ数
 8245 00000D6A C101              1721             MOV.W   R0,@(RXD_CNT,GBR)                       ; 伝送ﾍｯﾀﾞ部以降の受信すべきﾃﾞｰﾀﾊﾞ
                                          ｲﾄ数格納
 8246                            1722     
 8247 00000D6C                   1723     RX0_M400:
 8248 00000D6C 7401              1724             ADD     #1,R4
 8249 00000D6E 6043              1725             MOV     R4,R0
 8250 00000D70 910A              1726             MOV.W   #H'200,R1
 8251 00000D72 3012              1727             CMP/HS  R1,R0                                   ; ﾎﾟｲﾝﾀ200H以上になった？
 8252 00000D74 8B00              1728             BF      RX0_M500                                ; いいえ
 8253 00000D76 200A              1729             XOR     R0,R0
 8254 00000D78                   1730     RX0_M500:
 8255 00000D78 C102              1731             MOV.W   R0,@(RXD_BUF_POI,GBR)                   ; ﾎﾟｲﾝﾀを次に更新
 8256                            1732     
 8257 00000D7A D105              1733             MOV.L   #_SSR0,R1
 8258 00000D7C 6010              1734             MOV.B   @R1,R0
 8259 00000D7E C9BF              1735             AND     #NBIT6,R0                               ; RDRFｸﾘｱ
 8260 00000D80 2101              1736             MOV.W   R0,@R1
 8261                            1737             M_BRA   _RX0_M250
 8262 00000D82 AF83                   M           BRA     _RX0_M250
 8263 00000D84 0009                   M           NOP
 8264                            1738     
 8265                                     ***** BEGIN-POOL *****
 8266 00000D86 0001                       DATA FOR SOURCE-LINE 1710,1714
 8267 00000D88 0200                       DATA FOR SOURCE-LINE 1726
 8268 00000D8A 0000                       ALIGNMENT CODE
 8269 00000D8C 00000000                   DATA FOR SOURCE-LINE 1713
 8270 00000D90 00000000                   DATA FOR SOURCE-LINE 1733
 8271                                     ***** END-POOL *****
 8272 00000D94                   1739     RX0_MEND:
 8273                            1740             SUB_END
 8274                                 M   ;;;;;;; ADD     #4,R15                  ;[不要?]
 8275 00000D94 4F26                   M           LDS.L   @R15+,PR                ;[必要]
 8276                            1741             M_RTS
 8277 00000D96 000B                   M           RTS                             ;RTSの後ろの
 8278 00000D98 0009                   M           NOP                             ;@R15+,PRはﾀﾞﾒ
 8279                            1742     
 8280                            1743     
 8281                            1744     ;       **********************************************************************************
                                          ***
 8282                            1745     ;       *****                                                                           **
                                          ***
 8283                            1746     ;       *****   汎用通信送信ＭＡＩＮ                                                    **
                                          ***
 8284                            1747     ;       *****                                                                           **
                                          ***
 8285                            1748     ;       *****                                                                           **
                                          ***
 8286                            1749     ;       *****                                                                           **
                                          ***
 8287                            1750     ;       **********************************************************************************
                                          ***
*** SuperH RISC engine ASSEMBLER V.7.01.02.000 ***    07/04/21 19:29:24                                                  PAGE    53
PROGRAM NAME =

 8288 00000D9A                   1751     _TX0_MAIN:
 8289                            1752             SUB_START
 8290 00000D9A 4F22                   M           STS.L   PR,@-R15                ;[必要]
 8291                                 M   ;;;;;;; ADD     #-4,R15                 ;[不要?]
 8292 00000D9C 0009              1753             NOP
 8293 00000D9E 0002              1754             STC     SR,R0
 8294 00000DA0 0009              1755             NOP
 8295 00000DA2 D104              1756             MOV.L   #H'000000F0,R1
 8296 00000DA4 2019              1757             AND     R1,R0
 8297 00000DA6 D204              1758             mov.l   #SR_Init_DI,r2
 8298 00000DA8 2219              1759             AND     R1,R2
 8299 00000DAA 3020              1760             CMP/EQ  R2,R0                                   ; 全割込み禁止中？
 8300 00000DAC 8906              1761             BT      _TX0_M100                               ; はい
 8301                            1762             SUB_END
 8302                                 M   ;;;;;;; ADD     #4,R15                  ;[不要?]
 8303 00000DAE 4F26                   M           LDS.L   @R15+,PR                ;[必要]
 8304                            1763             M_RTS
 8305 00000DB0 000B                   M           RTS                             ;RTSの後ろの
 8306 00000DB2 0009                   M           NOP                             ;@R15+,PRはﾀﾞﾒ
 8307                            1764     
 8308                                     ***** BEGIN-POOL *****
 8309 00000DB4 000000F0                   DATA FOR SOURCE-LINE 1756
 8310 00000DB8 400000F0                   DATA FOR SOURCE-LINE 1758
 8311                                     ***** END-POOL *****
 8312 00000DBC                   1765     _TX0_M100:
 8313 00000DBC D103              1766             MOV.L   #_SCR0,R1                               ; BIT7    : 0=送信ｴﾝﾌﾟﾃｨ割込み禁止
 8314                            1767                                                             ; BIT6    : 1=受信ﾃﾞｰﾀ割込み許可
 8315                            1768                                                             ; BIT5    : 0=送信動作を禁止
 8316                            1769                                                             ; BIT4    : 1=受信動作を許可
 8317                            1770                                                             ; BIT3    : 0=ﾏﾙﾁﾌﾟﾛｾｯｻ割込み禁止
 8318                            1771                                                             ; BIT2    : 0=送信終了割込み禁止
 8319                            1772                                                             ; BIT1〜0 : 0=内部ｸﾛｯｸ／SCK入出力
 8320 00000DBE 6010              1773             MOV.B   @R1,R0
 8321 00000DC0 C820              1774             TST     #BIT5,R0                                ; BIT5:送信動作許可中？
 8322 00000DC2 8B05              1775             BF      _TX0_M150                               ; はい
 8323                            1776             SUB_END
 8324                                 M   ;;;;;;; ADD     #4,R15                  ;[不要?]
 8325 00000DC4 4F26                   M           LDS.L   @R15+,PR                ;[必要]
 8326                            1777             M_RTS
 8327 00000DC6 000B                   M           RTS                             ;RTSの後ろの
 8328 00000DC8 0009                   M           NOP                             ;@R15+,PRはﾀﾞﾒ
 8329                            1778     
 8330                                     ***** BEGIN-POOL *****
 8331 00000DCA 0000                       ALIGNMENT CODE
 8332 00000DCC 00000000                   DATA FOR SOURCE-LINE 1766
 8333                                     ***** END-POOL *****
 8334 00000DD0                   1779     _TX0_M150:
 8335 00000DD0 9205              1780             MOV.W   #BIT7,R2
 8336 00000DD2 2029              1781             AND     R2,R0
 8337 00000DD4 2008              1782             TST     R0,R0                                   ; BIT7:送信ｴﾝﾌﾟﾃｨ割込み許可中？
 8338 00000DD6 8B03              1783             BF      _TX0_M200                               ; はい
 8339                            1784             SUB_END
 8340                                 M   ;;;;;;; ADD     #4,R15                  ;[不要?]
 8341 00000DD8 4F26                   M           LDS.L   @R15+,PR                ;[必要]
 8342                            1785             M_RTS
 8343 00000DDA 000B                   M           RTS                             ;RTSの後ろの
 8344 00000DDC 0009                   M           NOP                             ;@R15+,PRはﾀﾞﾒ
*** SuperH RISC engine ASSEMBLER V.7.01.02.000 ***    07/04/21 19:29:24                                                  PAGE    54
PROGRAM NAME =

 8345                            1786     
 8346                                     ***** BEGIN-POOL *****
 8347 00000DDE 0080                       DATA FOR SOURCE-LINE 1780
 8348                                     ***** END-POOL *****
 8349 00000DE0                   1787     _TX0_M200:
 8350                            1788             _WDT_CLR
 8351                                 M           PUSH_REG1 R0
 8352 00000DE0 2F06                   M           MOV.L   R0,@-R15                ;PUSH=SP-4
 8353                                 M                                           ;REG=>[SP]
 8354                                 M                                           ;"-4" FF,FF,FF,FC
 8355                                 M           PUSH_REG1 R10
 8356 00000DE2 2FA6                   M           MOV.L   R10,@-R15               ;PUSH=SP-4
 8357                                 M                                           ;REG=>[SP]
 8358                                 M                                           ;"-4" FF,FF,FF,FC
 8359                                 M           PUSH_REG1 R14
 8360 00000DE4 2FE6                   M           MOV.L   R14,@-R15               ;PUSH=SP-4
 8361                                 M                                           ;REG=>[SP]
 8362                                 M                                           ;"-4" FF,FF,FF,FC
 8363                                 M   
 8364 00000DE6 DA0E                   M           MOV.L   #_PJDR,R10                              ;
 8365 00000DE8 60A0                   M           MOV.B   @R10,R0
 8366 00000DEA CB10                   M           OR      #BIT4,R0
 8367 00000DEC 2A00                   M           MOV.B   R0,@R10
 8368 00000DEE C9EF                   M           AND     #NBIT4,R0
 8369 00000DF0 2A00                   M           MOV.B   R0,@R10
 8370                                 M   
 8371                                 M           ;====== 2006-10-19 SAITO 追加　WDTﾎﾟｰﾄ変更 ======
 8372 00000DF2 DA0C                   M           MOV.L   #_IOGA2_CTRL_DAT1+_IOGA_P5,R10          ;
 8373 00000DF4 60A1                   M           MOV.W   @R10,R0                                 ;
 8374 00000DF6 9E10                   M           MOV.W   #BIT0,R14                               ;
 8375 00000DF8 20EB                   M           OR      R14,R0                                  ;
 8376 00000DFA 2A01                   M           MOV.W   R0,@R10                                 ; WORK
 8377                                 M   
 8378                                 M   ;;      MOV.L   #_IOGA2_CTRL_DAT1+_IOGA_P5,R10  ; WORK ADDRESS
 8379                                 M   ;;      MOV.W   @R10,R0                                 ;
 8380 00000DFC 9E0E                   M           MOV.W   #_IO2B_P5EX,R14                         ;
 8381 00000DFE 20EA                   M           XOR     R14,R0                                  ;
 8382 00000E00 DA09                   M           MOV.L   #_dio_top2+_IOGA_PDR5,R10               ; IOGA PF ADDRESS
 8383 00000E02 2A01                   M           MOV.W   R0,@R10                                 ; 実出力SET
 8384                                 M   
 8385 00000E04 DA07                   M           MOV.L   #_IOGA2_CTRL_DAT1+_IOGA_P5,R10          ;
 8386 00000E06 60A1                   M           MOV.W   @R10,R0                                 ;
 8387 00000E08 9E09                   M           MOV.W   #NBIT0,R14                              ;
 8388 00000E0A 20E9                   M           AND     R14,R0                                  ;
 8389 00000E0C 2A01                   M           MOV.W   R0,@R10                                 ; WORK
 8390                                 M   
 8391                                 M   ;;      MOV.L   #_IOGA2_CTRL_DAT1+_IOGA_P5,R10  ; WORK ADDRESS
 8392                                 M   ;;      MOV.W   @R10,R0                                 ;
 8393 00000E0E 9E05                   M           MOV.W   #_IO2B_P5EX,R14                         ;
 8394 00000E10 20EA                   M           XOR     R14,R0                                  ;
 8395 00000E12 DA05                   M           MOV.L   #_dio_top2+_IOGA_PDR5,R10               ; IOGA PF ADDRESS
 8396 00000E14 2A01                   M           MOV.W   R0,@R10                                 ; 実出力SET
 8397                                 M   
 8398                                 M           M_BRA   AAA00002
 8399 00000E16 A009                   M           BRA     AAA00002
 8400 00000E18 0009                   M           NOP
 8401                                 M   ***** BEGIN-POOL *****
*** SuperH RISC engine ASSEMBLER V.7.01.02.000 ***    07/04/21 19:29:24                                                  PAGE    55
PROGRAM NAME =

 8402 00000E1A 0001                   M   DATA FOR SOURCE-LINE 1788
 8403 00000E1C 0000                   M   DATA FOR SOURCE-LINE 1788,1788
 8404 00000E1E 00FE                   M   DATA FOR SOURCE-LINE 1788
 8405 00000E20 00000000               M   DATA FOR SOURCE-LINE 1788
 8406 00000E24 00000000               M   DATA FOR SOURCE-LINE 1788,1788
 8407 00000E28 00000000               M   DATA FOR SOURCE-LINE 1788,1788
 8408                                 M   ***** END-POOL *****
 8409 00000E2C                        M   AAA00002:
 8410                                 M           POP_REG1 R14
 8411                                 M                                   ; RE"+4" 00,00,00,04
 8412 00000E2C 6EF6                   M           MOV.L   @R15+,R14        ;
 8413                                 M           POP_REG1 R10
 8414                                 M                                   ; RE"+4" 00,00,00,04
 8415 00000E2E 6AF6                   M           MOV.L   @R15+,R10        ;
 8416                                 M           POP_REG1 R0
 8417                                 M                                   ; RE"+4" 00,00,00,04
 8418 00000E30 60F6                   M           MOV.L   @R15+,R0        ;
 8419 00000E32 D103              1789             MOV.L   #_SSR0,R1
 8420 00000E34 6010              1790             MOV.B   @R1,R0
 8421 00000E36 C880              1791             TST     #BIT7,R0                                ; TDRF ON?
 8422 00000E38 8B04              1792             BF      _TX0_M300                               ; YES
 8423                            1793             M_BRA   _TX0_M200
 8424 00000E3A AFD1                   M           BRA     _TX0_M200
 8425 00000E3C 0009                   M           NOP
 8426                            1794     
 8427                                     ***** BEGIN-POOL *****
 8428 00000E3E 0000                       ALIGNMENT CODE
 8429 00000E40 00000000                   DATA FOR SOURCE-LINE 1789
 8430                                     ***** END-POOL *****
 8431 00000E44                   1795     _TX0_M300:
 8432 00000E44 D10A              1796             MOV.L   #_sci0_wkram+TXD_BUF_POI,R1
 8433 00000E46 6011              1797             MOV.W   @R1,R0                                  ; 送信ﾊﾞｯﾌｧﾎﾟｲﾝﾀ
 8434 00000E48 6203              1798             MOV     R0,R2
 8435 00000E4A D30A              1799             MOV.L   #_sci0_txd_buf,R3
 8436 00000E4C 330C              1800             ADD     R0,R3                                   ; R3=送信ﾃﾞｰﾀ格納ｱﾄﾞﾚｽ
 8437                            1801     
 8438 00000E4E 6030              1802             MOV.B   @R3,R0
 8439 00000E50 D309              1803             MOV.L   #_TDR0,R3
 8440 00000E52 2300              1804             MOV.B   R0,@R3                                  ; 送信ﾃﾞｰﾀ格納
 8441                            1805     
 8442 00000E54 7201              1806             ADD     #1,R2                                   ; 送信ﾊﾞｯﾌｧﾎﾟｲﾝﾀ+1
 8443 00000E56 2121              1807             MOV.W   R2,@R1
 8444                            1808     
 8445 00000E58 D108              1809             MOV.L   #_sci0_wkram+TXD_CNT,R1
 8446 00000E5A 6011              1810             MOV.W   @R1,R0
 8447 00000E5C 70FF              1811             ADD     #H'FF,R0                                ; 送信ﾃﾞｰﾀ数-1
 8448 00000E5E 2101              1812             MOV.W   R0,@R1
 8449                            1813     
 8450 00000E60 2008              1814             TST     R0,R0                                   ; 全ﾃﾞｰﾀ送信完？
 8451 00000E62 890F              1815             BT      _TX0_M400                               ; はい
 8452                            1816     
 8453 00000E64 D106              1817             MOV.L   #_SSR0,R1
 8454 00000E66 6010              1818             MOV.B   @R1,R0
 8455 00000E68 C97F              1819             AND     #NBIT7,R0                               ; TDRFｸﾘｱ
 8456 00000E6A 2100              1820             MOV.B   R0,@R1
 8457                            1821     
 8458                            1822             M_BRA   _TX0_M200
*** SuperH RISC engine ASSEMBLER V.7.01.02.000 ***    07/04/21 19:29:24                                                  PAGE    56
PROGRAM NAME =

 8459 00000E6C AFB8                   M           BRA     _TX0_M200
 8460 00000E6E 0009                   M           NOP
 8461                            1823     
 8462                                     ***** BEGIN-POOL *****
 8463 00000E70 00000000                   DATA FOR SOURCE-LINE 1796
 8464 00000E74 00000000                   DATA FOR SOURCE-LINE 1799
 8465 00000E78 00000000                   DATA FOR SOURCE-LINE 1803
 8466 00000E7C 00000000                   DATA FOR SOURCE-LINE 1809
 8467 00000E80 00000000                   DATA FOR SOURCE-LINE 1817
 8468                                     ***** END-POOL *****
 8469 00000E84                   1824     _TX0_M400:
 8470                            1825             FAR_JSR #_SCI0_TXI_DI,R1                        ; 送信ｴﾝﾌﾟﾃｨ割込み禁止
 8471 00000E84 D106                   M           MOV.L   #_SCI0_TXI_DI,R1                ;ﾃｰﾌﾞﾙｱﾄﾞﾚｽの内容をREGへ
 8472 00000E86 410B                   M           JSR     @R1                     ;
 8473 00000E88 0009                   M           NOP                                     ;
 8474                            1826     
 8475 00000E8A D106              1827             MOV.L   #_SCR0,R1                               ; BIT7    : 0=送信ｴﾝﾌﾟﾃｨ割込み禁止
 8476                            1828                                                             ; BIT6    : 1=受信ﾃﾞｰﾀ割込み許可
 8477                            1829                                                             ; BIT5    : 0=送信動作を禁止
 8478                            1830                                                             ; BIT4    : 1=受信動作を許可
 8479                            1831                                                             ; BIT3    : 0=ﾏﾙﾁﾌﾟﾛｾｯｻ割込み禁止
 8480                            1832                                                             ; BIT2    : 0=送信終了割込み禁止
 8481                            1833                                                             ; BIT1〜0 : 0=内部ｸﾛｯｸ／SCK入出力
 8482 00000E8C 6010              1834             MOV.B   @R1,R0
 8483 00000E8E CB04              1835             OR      #BIT2,R0
 8484 00000E90 2100              1836             MOV.B   R0,@R1                                  ; BIT2:送信終了割込み許可
 8485                            1837     
 8486 00000E92 D105              1838             MOV.L   #_SSR0,R1
 8487 00000E94 6010              1839             MOV.B   @R1,R0
 8488 00000E96 C97F              1840             AND     #NBIT7,R0                               ; TDRFｸﾘｱ
 8489 00000E98 2100              1841             MOV.B   R0,@R1
 8490                            1842     
 8491                            1843             SUB_END
 8492                                 M   ;;;;;;; ADD     #4,R15                  ;[不要?]
 8493 00000E9A 4F26                   M           LDS.L   @R15+,PR                ;[必要]
 8494                            1844             M_RTS
 8495 00000E9C 000B                   M           RTS                             ;RTSの後ろの
 8496 00000E9E 0009                   M           NOP                             ;@R15+,PRはﾀﾞﾒ
 8497                            1845     
 8498                            1846     
 8499                            1847     ;       **********************************************************************************
                                          ***
 8500                            1848     ;       *****                                                                           **
                                          ***
 8501                            1849     ;       *****   汎用通信送信ＭＡＩＮ                                                    **
                                          ***
 8502                            1850     ;       *****                                                                           **
                                          ***
 8503                            1851     ;       *****                                                                           **
                                          ***
 8504                            1852     ;       *****                                                                           **
                                          ***
 8505                            1853     ;       **********************************************************************************
                                          ***
 8506                                     ***** BEGIN-POOL *****
 8507 00000EA0 00000000                   DATA FOR SOURCE-LINE 1825
 8508 00000EA4 00000000                   DATA FOR SOURCE-LINE 1827
*** SuperH RISC engine ASSEMBLER V.7.01.02.000 ***    07/04/21 19:29:24                                                  PAGE    57
PROGRAM NAME =

 8509 00000EA8 00000000                   DATA FOR SOURCE-LINE 1838
 8510                                     ***** END-POOL *****
 8511 00000EAC                   1854     _TE0_MAIN:
 8512                            1855             SUB_START
 8513 00000EAC 4F22                   M           STS.L   PR,@-R15                ;[必要]
 8514                                 M   ;;;;;;; ADD     #-4,R15                 ;[不要?]
 8515 00000EAE 0009              1856             NOP
 8516 00000EB0 0002              1857             STC     SR,R0
 8517 00000EB2 0009              1858             NOP
 8518 00000EB4 D104              1859             MOV.L   #H'000000F0,R1
 8519 00000EB6 2019              1860             AND     R1,R0
 8520 00000EB8 D204              1861             mov.l   #SR_Init_DI,r2
 8521 00000EBA 2219              1862             AND     R1,R2
 8522 00000EBC 3020              1863             CMP/EQ  R2,R0                                   ; 全割込み禁止中？
 8523 00000EBE 8907              1864             BT      _TE0_M100                               ; はい
 8524                            1865             SUB_END
 8525                                 M   ;;;;;;; ADD     #4,R15                  ;[不要?]
 8526 00000EC0 4F26                   M           LDS.L   @R15+,PR                ;[必要]
 8527                            1866             M_RTS
 8528 00000EC2 000B                   M           RTS                             ;RTSの後ろの
 8529 00000EC4 0009                   M           NOP                             ;@R15+,PRはﾀﾞﾒ
 8530                            1867     
 8531                                     ***** BEGIN-POOL *****
 8532 00000EC6 0000                       ALIGNMENT CODE
 8533 00000EC8 000000F0                   DATA FOR SOURCE-LINE 1859
 8534 00000ECC 400000F0                   DATA FOR SOURCE-LINE 1861
 8535                                     ***** END-POOL *****
 8536 00000ED0                   1868     _TE0_M100:
 8537 00000ED0 D103              1869             MOV.L   #_SCR0,R1                               ; BIT7    : 0=送信ｴﾝﾌﾟﾃｨ割込み禁止
 8538                            1870                                                             ; BIT6    : 1=受信ﾃﾞｰﾀ割込み許可
 8539                            1871                                                             ; BIT5    : 0=送信動作を禁止
 8540                            1872                                                             ; BIT4    : 1=受信動作を許可
 8541                            1873                                                             ; BIT3    : 0=ﾏﾙﾁﾌﾟﾛｾｯｻ割込み禁止
 8542                            1874                                                             ; BIT2    : 0=送信終了割込み禁止
 8543                            1875                                                             ; BIT1〜0 : 0=内部ｸﾛｯｸ／SCK入出力
 8544 00000ED2 6010              1876             MOV.B   @R1,R0
 8545 00000ED4 C820              1877             TST     #BIT5,R0                                ; BIT5:送信動作許可中？
 8546 00000ED6 8B05              1878             BF      _TE0_M150                               ; はい
 8547                            1879             SUB_END
 8548                                 M   ;;;;;;; ADD     #4,R15                  ;[不要?]
 8549 00000ED8 4F26                   M           LDS.L   @R15+,PR                ;[必要]
 8550                            1880             M_RTS
 8551 00000EDA 000B                   M           RTS                             ;RTSの後ろの
 8552 00000EDC 0009                   M           NOP                             ;@R15+,PRはﾀﾞﾒ
 8553                            1881     
 8554                                     ***** BEGIN-POOL *****
 8555 00000EDE 0000                       ALIGNMENT CODE
 8556 00000EE0 00000000                   DATA FOR SOURCE-LINE 1869
 8557                                     ***** END-POOL *****
 8558 00000EE4                   1882     _TE0_M150:
 8559 00000EE4 C804              1883             TST     #BIT2,R0                                ; BIT2:送信終了割込み許可中？
 8560 00000EE6 8B02              1884             BF      _TE0_M200                               ; はい
 8561                            1885             SUB_END
 8562                                 M   ;;;;;;; ADD     #4,R15                  ;[不要?]
 8563 00000EE8 4F26                   M           LDS.L   @R15+,PR                ;[必要]
 8564                            1886             M_RTS
 8565 00000EEA 000B                   M           RTS                             ;RTSの後ろの
*** SuperH RISC engine ASSEMBLER V.7.01.02.000 ***    07/04/21 19:29:24                                                  PAGE    58
PROGRAM NAME =

 8566 00000EEC 0009                   M           NOP                             ;@R15+,PRはﾀﾞﾒ
 8567                            1887     
 8568 00000EEE                   1888     _TE0_M200:
 8569                            1889             _WDT_CLR
 8570                                 M           PUSH_REG1 R0
 8571 00000EEE 2F06                   M           MOV.L   R0,@-R15                ;PUSH=SP-4
 8572                                 M                                           ;REG=>[SP]
 8573                                 M                                           ;"-4" FF,FF,FF,FC
 8574                                 M           PUSH_REG1 R10
 8575 00000EF0 2FA6                   M           MOV.L   R10,@-R15               ;PUSH=SP-4
 8576                                 M                                           ;REG=>[SP]
 8577                                 M                                           ;"-4" FF,FF,FF,FC
 8578                                 M           PUSH_REG1 R14
 8579 00000EF2 2FE6                   M           MOV.L   R14,@-R15               ;PUSH=SP-4
 8580                                 M                                           ;REG=>[SP]
 8581                                 M                                           ;"-4" FF,FF,FF,FC
 8582                                 M   
 8583 00000EF4 DA0E                   M           MOV.L   #_PJDR,R10                              ;
 8584 00000EF6 60A0                   M           MOV.B   @R10,R0
 8585 00000EF8 CB10                   M           OR      #BIT4,R0
 8586 00000EFA 2A00                   M           MOV.B   R0,@R10
 8587 00000EFC C9EF                   M           AND     #NBIT4,R0
 8588 00000EFE 2A00                   M           MOV.B   R0,@R10
 8589                                 M   
 8590                                 M           ;====== 2006-10-19 SAITO 追加　WDTﾎﾟｰﾄ変更 ======
 8591 00000F00 DA0C                   M           MOV.L   #_IOGA2_CTRL_DAT1+_IOGA_P5,R10          ;
 8592 00000F02 60A1                   M           MOV.W   @R10,R0                                 ;
 8593 00000F04 9E10                   M           MOV.W   #BIT0,R14                               ;
 8594 00000F06 20EB                   M           OR      R14,R0                                  ;
 8595 00000F08 2A01                   M           MOV.W   R0,@R10                                 ; WORK
 8596                                 M   
 8597                                 M   ;;      MOV.L   #_IOGA2_CTRL_DAT1+_IOGA_P5,R10  ; WORK ADDRESS
 8598                                 M   ;;      MOV.W   @R10,R0                                 ;
 8599 00000F0A 9E0E                   M           MOV.W   #_IO2B_P5EX,R14                         ;
 8600 00000F0C 20EA                   M           XOR     R14,R0                                  ;
 8601 00000F0E DA0A                   M           MOV.L   #_dio_top2+_IOGA_PDR5,R10               ; IOGA PF ADDRESS
 8602 00000F10 2A01                   M           MOV.W   R0,@R10                                 ; 実出力SET
 8603                                 M   
 8604 00000F12 DA08                   M           MOV.L   #_IOGA2_CTRL_DAT1+_IOGA_P5,R10          ;
 8605 00000F14 60A1                   M           MOV.W   @R10,R0                                 ;
 8606 00000F16 9E09                   M           MOV.W   #NBIT0,R14                              ;
 8607 00000F18 20E9                   M           AND     R14,R0                                  ;
 8608 00000F1A 2A01                   M           MOV.W   R0,@R10                                 ; WORK
 8609                                 M   
 8610                                 M   ;;      MOV.L   #_IOGA2_CTRL_DAT1+_IOGA_P5,R10  ; WORK ADDRESS
 8611                                 M   ;;      MOV.W   @R10,R0                                 ;
 8612 00000F1C 9E05                   M           MOV.W   #_IO2B_P5EX,R14                         ;
 8613 00000F1E 20EA                   M           XOR     R14,R0                                  ;
 8614 00000F20 DA05                   M           MOV.L   #_dio_top2+_IOGA_PDR5,R10               ; IOGA PF ADDRESS
 8615 00000F22 2A01                   M           MOV.W   R0,@R10                                 ; 実出力SET
 8616                                 M   
 8617                                 M           M_BRA   AAA00003
 8618 00000F24 A00A                   M           BRA     AAA00003
 8619 00000F26 0009                   M           NOP
 8620                                 M   ***** BEGIN-POOL *****
 8621 00000F28 0001                   M   DATA FOR SOURCE-LINE 1889
 8622 00000F2A 0000                   M   DATA FOR SOURCE-LINE 1889,1889
*** SuperH RISC engine ASSEMBLER V.7.01.02.000 ***    07/04/21 19:29:24                                                  PAGE    59
PROGRAM NAME =

 8623 00000F2C 00FE                   M   DATA FOR SOURCE-LINE 1889
 8624 00000F2E 0000                   M   ALIGNMENT CODE
 8625 00000F30 00000000               M   DATA FOR SOURCE-LINE 1889
 8626 00000F34 00000000               M   DATA FOR SOURCE-LINE 1889,1889
 8627 00000F38 00000000               M   DATA FOR SOURCE-LINE 1889,1889
 8628                                 M   ***** END-POOL *****
 8629 00000F3C                        M   AAA00003:
 8630                                 M           POP_REG1 R14
 8631                                 M                                   ; RE"+4" 00,00,00,04
 8632 00000F3C 6EF6                   M           MOV.L   @R15+,R14        ;
 8633                                 M           POP_REG1 R10
 8634                                 M                                   ; RE"+4" 00,00,00,04
 8635 00000F3E 6AF6                   M           MOV.L   @R15+,R10        ;
 8636                                 M           POP_REG1 R0
 8637                                 M                                   ; RE"+4" 00,00,00,04
 8638 00000F40 60F6                   M           MOV.L   @R15+,R0        ;
 8639 00000F42 D103              1890             MOV.L   #_SSR0,R1
 8640 00000F44 6010              1891             MOV.B   @R1,R0
 8641 00000F46 C804              1892             TST     #BIT2,R0                                ; TEND ON?
 8642 00000F48 8B04              1893             BF      _TE0_M250                               ; YES
 8643                            1894             M_BRA   _TE0_M200
 8644 00000F4A AFD0                   M           BRA     _TE0_M200
 8645 00000F4C 0009                   M           NOP
 8646                            1895     
 8647                                     ***** BEGIN-POOL *****
 8648 00000F4E 0000                       ALIGNMENT CODE
 8649 00000F50 00000000                   DATA FOR SOURCE-LINE 1890
 8650                                     ***** END-POOL *****
 8651 00000F54                   1896     _TE0_M250:
 8652                            1897     ;///V01p        MOV.L   #_PADR,R1
 8653 00000F54 D108              1898             MOV.L   #_sci0_wkram+RTS_FLG,R1
 8654 00000F56 6011              1899             MOV.W   @R1,R0
 8655 00000F58 920B              1900             MOV.W   #BIT13,R2                               ;
 8656 00000F5A 6227              1901             NOT     R2,R2
 8657 00000F5C 2029              1902             AND     R2,R0                                   ; RTS OFF !
 8658 00000F5E 2101              1903             MOV.W   R0,@R1                                  ;
 8659                            1904     
 8660 00000F60 D106              1905             MOV.L   #_SCR0,R1                               ; BIT7    : 0=送信ｴﾝﾌﾟﾃｨ割込み禁止
 8661                            1906                                                             ; BIT6    : 1=受信ﾃﾞｰﾀ割込み許可
 8662                            1907                                                             ; BIT5    : 0=送信動作を禁止
 8663                            1908                                                             ; BIT4    : 1=受信動作を許可
 8664                            1909                                                             ; BIT3    : 0=ﾏﾙﾁﾌﾟﾛｾｯｻ割込み禁止
 8665                            1910                                                             ; BIT2    : 0=送信終了割込み禁止
 8666                            1911                                                             ; BIT1〜0 : 0=内部ｸﾛｯｸ／SCK入出力
 8667 00000F62 6010              1912             MOV.B   @R1,R0
 8668 00000F64 9206              1913             MOV.W   #(BIT2+BIT5),R2
 8669 00000F66 6227              1914             NOT     R2,R2
 8670 00000F68 2029              1915             AND     R2,R0
 8671 00000F6A 2100              1916             MOV.B   R0,@R1                                  ; BIT2:送信終了割込み禁止  BIT5:送
                                          信動作禁止
 8672                            1917     
 8673                            1918             SUB_END
 8674                                 M   ;;;;;;; ADD     #4,R15                  ;[不要?]
 8675 00000F6C 4F26                   M           LDS.L   @R15+,PR                ;[必要]
 8676                            1919             M_RTS
 8677 00000F6E 000B                   M           RTS                             ;RTSの後ろの
 8678 00000F70 0009                   M           NOP                             ;@R15+,PRはﾀﾞﾒ
*** SuperH RISC engine ASSEMBLER V.7.01.02.000 ***    07/04/21 19:29:24                                                  PAGE    60
PROGRAM NAME =

 8679                            1920     
 8680                            1921     
 8681                            1922     ;       **********************************************************************************
                                          ***
 8682                            1923     ;       *****                                                                           **
                                          ***
 8683                            1924     ;       *****   汎用通信受信割込み                                                      **
                                          ***
 8684                            1925     ;       *****                                                                           **
                                          ***
 8685                            1926     ;       *****                                                                           **
                                          ***
 8686                            1927     ;       *****                                                                           **
                                          ***
 8687                            1928     ;       **********************************************************************************
                                          ***
 8688                                     ***** BEGIN-POOL *****
 8689 00000F72 2000                       DATA FOR SOURCE-LINE 1900
 8690 00000F74 0024                       DATA FOR SOURCE-LINE 1913
 8691 00000F76 0000                       ALIGNMENT CODE
 8692 00000F78 00000000                   DATA FOR SOURCE-LINE 1898
 8693 00000F7C 00000000                   DATA FOR SOURCE-LINE 1905
 8694                                     ***** END-POOL *****
 8695 00000F80                   1929     _RX0_INT:
 8696                            1930             SUB_START
 8697 00000F80 4F22                   M           STS.L   PR,@-R15                ;[必要]
 8698                                 M   ;;;;;;; ADD     #-4,R15                 ;[不要?]
 8699                            1931     
 8700 00000F82 D009              1932             MOV.L   #_sci0_wkram,R0                         ;
 8701 00000F84 401E              1933             LDC.L   R0,GBR                                  ;
 8702                            1934     
 8703 00000F86 D109              1935             MOV.L   #_RDR0,R1
 8704 00000F88 6210              1936             MOV.B   @R1,R2
 8705 00000F8A 622C              1937             EXTU.B  R2,R2                                   ; R2 <- 受信ﾃﾞｰﾀ
 8706                            1938     
 8707 00000F8C D108              1939             MOV.L   #_sci0_rxd_buf,R1
 8708 00000F8E C502              1940             MOV.W   @(RXD_BUF_POI,GBR),R0                   ; ﾎﾟｲﾝﾀ
 8709 00000F90 6403              1941             MOV     R0,R4                                   ; ﾎﾟｲﾝﾀKEEP
 8710 00000F92 310C              1942             ADD     R0,R1                                   ; 受信ﾃﾞｰﾀ格納ｱﾄﾞﾚｽ
 8711                            1943     
 8712 00000F94 2120              1944             MOV.B   R2,@R1                                  ; 受信ﾃﾞｰﾀ格納
 8713                            1945     
 8714 00000F96 2448              1946             TST     R4,R4                                   ; ﾎﾟｲﾝﾀ=0？
 8715 00000F98 8B10              1947             BF      RX0I_020                                ; いいえ
 8716                            1948     
 8717 00000F9A 9003              1949             MOV.W   #H'5A,R0
 8718 00000F9C 3200              1950             CMP/EQ  R0,R2                                   ; 最初に受信したﾃﾞｰﾀは0x5A？
 8719                            1951     ;//V01l BT      RX0I_020                                ; はい
 8720 00000F9E 8909              1952             BT      RX0I_010                                ; はい
 8721                            1953             M_BRA   RX0I_030                                ; いいえ
 8722 00000FA0 A018                   M           BRA     RX0I_030
 8723 00000FA2 0009                   M           NOP
 8724                            1954     
 8725                                     ***** BEGIN-POOL *****
 8726 00000FA4 005A                       DATA FOR SOURCE-LINE 1949
 8727 00000FA6 0000                       ALIGNMENT CODE
 8728 00000FA8 00000000                   DATA FOR SOURCE-LINE 1932
*** SuperH RISC engine ASSEMBLER V.7.01.02.000 ***    07/04/21 19:29:24                                                  PAGE    61
PROGRAM NAME =

 8729 00000FAC 00000000                   DATA FOR SOURCE-LINE 1935
 8730 00000FB0 00000000                   DATA FOR SOURCE-LINE 1939
 8731                                     ***** END-POOL *****
 8732 00000FB4                   1955     RX0I_010:
 8733 00000FB4 9014              1956             MOV.W   #1000/5,R0                              ; V01l(INS)
 8734 00000FB6 C109              1957             MOV.W   R0,@(RX_TIMER,GBR)                      ; 受信監視時間＝1sec
 8735 00000FB8 9013              1958             MOV.W   #1,R0                                   ; V01l(INS)
 8736 00000FBA C108              1959             MOV.W   R0,@(RX_TIMOUT_FLG,GBR)                 ; 受信時間監視
 8737                            1960     
 8738 00000FBC                   1961     RX0I_020:
 8739 00000FBC C505              1962             MOV.W   @(HEAD_END,GBR),R0                      ;
 8740 00000FBE 2008              1963             TST     R0,R0                                   ; 伝送ﾍｯﾀﾞ部受信済み?
 8741 00000FC0 8910              1964             BT      RX0I_050                                ; いいえ
 8742                            1965     
 8743 00000FC2 C501              1966             MOV.W   @(RXD_CNT,GBR),R0                       ; 受信すべきﾃﾞｰﾀﾊﾞｲﾄ数
 8744 00000FC4 70FF              1967             ADD     #-1,R0
 8745 00000FC6 C101              1968             MOV.W   R0,@(RXD_CNT,GBR)
 8746 00000FC8 2008              1969             TST     R0,R0                                   ; 全受信完了？
 8747 00000FCA 8B19              1970             BF      RX0I_100                                ; いいえ
 8748                            1971     
 8749 00000FCC 9009              1972             MOV.W   #1,R0
 8750 00000FCE C106              1973             MOV.W   R0,@(RX_END,GBR)                        ; 全ﾃﾞｰﾀ受信完
 8751 00000FD0 200A              1974             XOR     R0,R0
 8752 00000FD2 C108              1975             MOV.W   R0,@(RX_TIMOUT_FLG,GBR)                 ; 受信時間監視          V01l
 8753                            1976     
 8754 00000FD4                   1977     RX0I_030:
 8755 00000FD4 200A              1978             XOR     R0,R0
 8756 00000FD6 C101              1979             MOV.W   R0,@(RXD_CNT,GBR)
 8757 00000FD8 C105              1980             MOV.W   R0,@(HEAD_END,GBR)                      ; 伝送ﾍｯﾀﾞ部受信確認
 8758 00000FDA C102              1981             MOV.W   R0,@(RXD_BUF_POI,GBR)                   ; ﾎﾟｲﾝﾀを次に更新
 8759                            1982             M_BRA   RX0I_300
 8760 00000FDC A017                   M           BRA     RX0I_300
 8761 00000FDE 0009                   M           NOP
 8762                            1983     
 8763                                     ***** BEGIN-POOL *****
 8764 00000FE0 00C8                       DATA FOR SOURCE-LINE 1956
 8765 00000FE2 0001                       DATA FOR SOURCE-LINE 1958,1972
 8766                                     ***** END-POOL *****
 8767 00000FE4                   1984     RX0I_050:
 8768 00000FE4 6043              1985             MOV     R4,R0
 8769 00000FE6 8802              1986             CMP/EQ  #H'2,R0                                 ; ﾎﾟｲﾝﾀ2？
 8770 00000FE8 8B0A              1987             BF      RX0I_100                                ; いいえ
 8771                            1988     
 8772 00000FEA 9017              1989             MOV.W   #1,R0
 8773 00000FEC C105              1990             MOV.W   R0,@(HEAD_END,GBR)                      ; 伝送ﾍｯﾀﾞ部受信確認
 8774                            1991     
 8775 00000FEE D10C              1992             MOV.L   #_sci0_rxd_buf,R1
 8776 00000FF0 9014              1993             MOV.W   #1,R0                                   ; 受信ﾊﾞｯﾌｧﾎﾟﾝﾀ＝１
 8777 00000FF2 310C              1994             ADD     R0,R1
 8778 00000FF4 6014              1995             MOV.B   @R1+,R0
 8779 00000FF6 600C              1996             EXTU.B  R0,R0
 8780 00000FF8 6310              1997             MOV.B   @R1,R3
 8781 00000FFA 4318              1998             SHLL8   R3
 8782 00000FFC 203B              1999             OR      R3,R0                                   ; 伝送ﾃﾞｰﾀﾊﾞｲﾄ数
 8783 00000FFE C101              2000             MOV.W   R0,@(RXD_CNT,GBR)                       ; 伝送ﾍｯﾀﾞ部以降の受信すべきﾃﾞｰﾀﾊﾞ
                                          ｲﾄ数格納
 8784                            2001     
*** SuperH RISC engine ASSEMBLER V.7.01.02.000 ***    07/04/21 19:29:24                                                  PAGE    62
PROGRAM NAME =

 8785 00001000                   2002     RX0I_100:
 8786 00001000 7401              2003             ADD     #1,R4
 8787 00001002 6043              2004             MOV     R4,R0
 8788 00001004 910B              2005             MOV.W   #H'200,R1
 8789 00001006 3012              2006             CMP/HS  R1,R0                                   ; ﾎﾟｲﾝﾀ200H以上になった？
 8790 00001008 8B00              2007             BF      RX0I_200                                ; いいえ
 8791 0000100A 200A              2008             XOR     R0,R0
 8792 0000100C                   2009     RX0I_200:
 8793 0000100C C102              2010             MOV.W   R0,@(RXD_BUF_POI,GBR)                   ; ﾎﾟｲﾝﾀを次に更新
 8794                            2011     
 8795 0000100E                   2012     RX0I_300:
 8796 0000100E D105              2013             MOV.L   #_SSR0,R1
 8797 00001010 6010              2014             MOV.B   @R1,R0
 8798 00001012 C9BF              2015             AND     #NBIT6,R0                               ; RDRFｸﾘｱ
 8799 00001014 2101              2016             MOV.W   R0,@R1
 8800                            2017     
 8801 00001016                   2018     RX0I_END:
 8802                            2019             SUB_END
 8803                                 M   ;;;;;;; ADD     #4,R15                  ;[不要?]
 8804 00001016 4F26                   M           LDS.L   @R15+,PR                ;[必要]
 8805                            2020             M_RTS
 8806 00001018 000B                   M           RTS                             ;RTSの後ろの
 8807 0000101A 0009                   M           NOP                             ;@R15+,PRはﾀﾞﾒ
 8808                            2021     
 8809                            2022     
 8810                            2023     ;       **********************************************************************************
                                          ***
 8811                            2024     ;       *****                                                                           **
                                          ***
 8812                            2025     ;       *****   汎用通信送信割込み                                                      **
                                          ***
 8813                            2026     ;       *****                                                                           **
                                          ***
 8814                            2027     ;       *****                                                                           **
                                          ***
 8815                            2028     ;       *****                                                                           **
                                          ***
 8816                            2029     ;       **********************************************************************************
                                          ***
 8817                                     ***** BEGIN-POOL *****
 8818 0000101C 0001                       DATA FOR SOURCE-LINE 1989,1993
 8819 0000101E 0200                       DATA FOR SOURCE-LINE 2005
 8820 00001020 00000000                   DATA FOR SOURCE-LINE 1992
 8821 00001024 00000000                   DATA FOR SOURCE-LINE 2013
 8822                                     ***** END-POOL *****
 8823 00001028                   2030     _TX0_INT:
 8824                            2031             SUB_START
 8825 00001028 4F22                   M           STS.L   PR,@-R15                ;[必要]
 8826                                 M   ;;;;;;; ADD     #-4,R15                 ;[不要?]
 8827                            2032     
 8828 0000102A D10F              2033             MOV.L   #_sci0_wkram+TXD_BUF_POI,R1
 8829 0000102C 6011              2034             MOV.W   @R1,R0                                  ; 送信ﾊﾞｯﾌｧﾎﾟｲﾝﾀ
 8830 0000102E 6203              2035             MOV     R0,R2
 8831 00001030 D30E              2036             MOV.L   #_sci0_txd_buf,R3
 8832 00001032 330C              2037             ADD     R0,R3                                   ; R3=送信ﾃﾞｰﾀ格納ｱﾄﾞﾚｽ
 8833                            2038     
 8834 00001034 6030              2039             MOV.B   @R3,R0
*** SuperH RISC engine ASSEMBLER V.7.01.02.000 ***    07/04/21 19:29:24                                                  PAGE    63
PROGRAM NAME =

 8835 00001036 D30E              2040             MOV.L   #_TDR0,R3
 8836 00001038 2300              2041             MOV.B   R0,@R3                                  ; 送信ﾃﾞｰﾀ格納
 8837                            2042     
 8838 0000103A 7201              2043             ADD     #1,R2                                   ; 送信ﾊﾞｯﾌｧﾎﾟｲﾝﾀ+1
 8839 0000103C 2121              2044             MOV.W   R2,@R1
 8840                            2045     
 8841 0000103E D10D              2046             MOV.L   #_sci0_wkram+TXD_CNT,R1
 8842 00001040 6011              2047             MOV.W   @R1,R0
 8843 00001042 70FF              2048             ADD     #H'FF,R0                                ; 送信ﾃﾞｰﾀ数-1
 8844 00001044 2101              2049             MOV.W   R0,@R1
 8845                            2050     
 8846 00001046 2008              2051             TST     R0,R0                                   ; 全ﾃﾞｰﾀ送信完？
 8847 00001048 8B06              2052             BF      _TX0I_050                               ; いいえ
 8848                            2053     
 8849                            2054             FAR_JSR #_SCI0_TXI_DI,R1                        ; 送信ｴﾝﾌﾟﾃｨ割込み禁止
 8850 0000104A D10B                   M           MOV.L   #_SCI0_TXI_DI,R1                ;ﾃｰﾌﾞﾙｱﾄﾞﾚｽの内容をREGへ
 8851 0000104C 410B                   M           JSR     @R1                     ;
 8852 0000104E 0009                   M           NOP                                     ;
 8853                            2055     
 8854 00001050 D10A              2056             MOV.L   #_SCR0,R1                               ; BIT7    : 0=送信ｴﾝﾌﾟﾃｨ割込み禁止
 8855                            2057                                                             ; BIT6    : 1=受信ﾃﾞｰﾀ割込み許可
 8856                            2058                                                             ; BIT5    : 0=送信動作を禁止
 8857                            2059                                                             ; BIT4    : 1=受信動作を許可
 8858                            2060                                                             ; BIT3    : 0=ﾏﾙﾁﾌﾟﾛｾｯｻ割込み禁止
 8859                            2061                                                             ; BIT2    : 0=送信終了割込み禁止
 8860                            2062                                                             ; BIT1〜0 : 0=内部ｸﾛｯｸ／SCK入出力
 8861 00001052 6010              2063             MOV.B   @R1,R0
 8862 00001054 CB04              2064             OR      #BIT2,R0
 8863 00001056 2100              2065             MOV.B   R0,@R1                                  ; BIT2:送信終了割込み許可
 8864                            2066     
 8865 00001058                   2067     _TX0I_050:
 8866 00001058 D109              2068             MOV.L   #_SSR0,R1
 8867 0000105A 6010              2069             MOV.B   @R1,R0
 8868 0000105C C97F              2070             AND     #NBIT7,R0                               ; TDRFｸﾘｱ
 8869 0000105E 2100              2071             MOV.B   R0,@R1
 8870                            2072     
 8871                            2073             SUB_END
 8872                                 M   ;;;;;;; ADD     #4,R15                  ;[不要?]
 8873 00001060 4F26                   M           LDS.L   @R15+,PR                ;[必要]
 8874                            2074             M_RTS
 8875 00001062 000B                   M           RTS                             ;RTSの後ろの
 8876 00001064 0009                   M           NOP                             ;@R15+,PRはﾀﾞﾒ
 8877                            2075     
 8878                            2076     
 8879                            2077     ;       **********************************************************************************
                                          ***
 8880                            2078     ;       *****                                                                           **
                                          ***
 8881                            2079     ;       *****   汎用通信送信割込み                                                      **
                                          ***
 8882                            2080     ;       *****                                                                           **
                                          ***
 8883                            2081     ;       *****                                                                           **
                                          ***
 8884                            2082     ;       *****                                                                           **
                                          ***
 8885                            2083     ;       **********************************************************************************
*** SuperH RISC engine ASSEMBLER V.7.01.02.000 ***    07/04/21 19:29:24                                                  PAGE    64
PROGRAM NAME =

                                          ***
 8886                                     ***** BEGIN-POOL *****
 8887 00001066 0000                       ALIGNMENT CODE
 8888 00001068 00000000                   DATA FOR SOURCE-LINE 2033
 8889 0000106C 00000000                   DATA FOR SOURCE-LINE 2036
 8890 00001070 00000000                   DATA FOR SOURCE-LINE 2040
 8891 00001074 00000000                   DATA FOR SOURCE-LINE 2046
 8892 00001078 00000000                   DATA FOR SOURCE-LINE 2054
 8893 0000107C 00000000                   DATA FOR SOURCE-LINE 2056
 8894 00001080 00000000                   DATA FOR SOURCE-LINE 2068
 8895                                     ***** END-POOL *****
 8896 00001084                   2084     _TE0_INT:
 8897                            2085             SUB_START
 8898 00001084 4F22                   M           STS.L   PR,@-R15                ;[必要]
 8899                                 M   ;;;;;;; ADD     #-4,R15                 ;[不要?]
 8900                            2086     
 8901                            2087     ;///V01p        MOV.L   #_PADR,R1
 8902 00001086 D108              2088             MOV.L   #_sci0_wkram+RTS_FLG,R1
 8903 00001088 6011              2089             MOV.W   @R1,R0
 8904 0000108A 920B              2090             MOV.W   #BIT13,R2                               ;
 8905 0000108C 6227              2091             NOT     R2,R2
 8906 0000108E 2029              2092             AND     R2,R0                                   ; RTS OFF !
 8907 00001090 2101              2093             MOV.W   R0,@R1                                  ;
 8908                            2094     
 8909 00001092 D106              2095             MOV.L   #_SCR0,R1                               ; BIT7    : 0=送信ｴﾝﾌﾟﾃｨ割込み禁止
 8910                            2096                                                             ; BIT6    : 1=受信ﾃﾞｰﾀ割込み許可
 8911                            2097                                                             ; BIT5    : 0=送信動作を禁止
 8912                            2098                                                             ; BIT4    : 1=受信動作を許可
 8913                            2099                                                             ; BIT3    : 0=ﾏﾙﾁﾌﾟﾛｾｯｻ割込み禁止
 8914                            2100                                                             ; BIT2    : 0=送信終了割込み禁止
 8915                            2101                                                             ; BIT1〜0 : 0=内部ｸﾛｯｸ／SCK入出力
 8916 00001094 6010              2102             MOV.B   @R1,R0
 8917 00001096 9206              2103             MOV.W   #(BIT2+BIT5),R2
 8918 00001098 6227              2104             NOT     R2,R2
 8919 0000109A 2029              2105             AND     R2,R0
 8920 0000109C 2100              2106             MOV.B   R0,@R1                                  ; BIT2:送信終了割込み禁止  BIT5:送
                                          信動作禁止
 8921                            2107     
 8922                            2108             SUB_END
 8923                                 M   ;;;;;;; ADD     #4,R15                  ;[不要?]
 8924 0000109E 4F26                   M           LDS.L   @R15+,PR                ;[必要]
 8925                            2109             M_RTS
 8926 000010A0 000B                   M           RTS                             ;RTSの後ろの
 8927 000010A2 0009                   M           NOP                             ;@R15+,PRはﾀﾞﾒ
 8928                            2110     
 8929                            2111     
 8930                            2112     ;       **********************************************************************************
                                          ***
 8931                            2113     ;       *****                                                                           **
                                          ***
 8932                            2114     ;       *****   バージョンＵＰ用定周期割込み（5ms）                                     **
                                          ***
 8933                            2115     ;       *****                                                                           **
                                          ***
 8934                            2116     ;       *****                                                                           **
                                          ***
 8935                            2117     ;       *****                                                                           **
*** SuperH RISC engine ASSEMBLER V.7.01.02.000 ***    07/04/21 19:29:24                                                  PAGE    65
PROGRAM NAME =

                                          ***
 8936                            2118     ;       **********************************************************************************
                                          ***
 8937                            2119             .EXPORT         _VUP_5MS_INT
 8938                                     ***** BEGIN-POOL *****
 8939 000010A4 2000                       DATA FOR SOURCE-LINE 2090
 8940 000010A6 0024                       DATA FOR SOURCE-LINE 2103
 8941 000010A8 00000000                   DATA FOR SOURCE-LINE 2088
 8942 000010AC 00000000                   DATA FOR SOURCE-LINE 2095
 8943                                     ***** END-POOL *****
 8944 000010B0                   2120     _VUP_5MS_INT:
 8945                            2121             SUB_START
 8946 000010B0 4F22                   M           STS.L   PR,@-R15                ;[必要]
 8947                                 M   ;;;;;;; ADD     #-4,R15                 ;[不要?]
 8948                            2122     
 8949 000010B2 D104              2123             MOV.L   #_sci0_wkram+RX_TIMER,R1        ; V01l
 8950 000010B4 6011              2124             MOV.W   @R1,R0                          ;
 8951 000010B6 2008              2125             TST     R0,R0                           ;
 8952 000010B8 8901              2126             BT      _RX_TIME_000                    ;
 8953 000010BA 70FF              2127             ADD     #-1,R0                          ;
 8954 000010BC 2101              2128             MOV.W   R0,@R1                          ;
 8955 000010BE                   2129     _RX_TIME_000:
 8956                            2130     
 8957                            2131             SUB_END
 8958                                 M   ;;;;;;; ADD     #4,R15                  ;[不要?]
 8959 000010BE 4F26                   M           LDS.L   @R15+,PR                ;[必要]
 8960                            2132             M_RTS
 8961 000010C0 000B                   M           RTS                             ;RTSの後ろの
 8962 000010C2 0009                   M           NOP                             ;@R15+,PRはﾀﾞﾒ
 8963                            2133     
 8964                            2134     
 8965                            2135     
 8966                                     ***** BEGIN-POOL *****
 8967 000010C4 00000000                   DATA FOR SOURCE-LINE 2123
 8968                                     ***** END-POOL *****
 8969 00000000                   2136             .SECTION        BvupsciwkRAM, DATA,ALIGN=4                      ;
 8970                            2137     ;//2004/04/20(CHG)_vup_hs_area          .SRES           2*8*2           ; ﾊﾝﾄﾞｼｪｲｸ領域
 8971 00000000 00000010          2138     _vup_hs_area            .SRES           2*8             ; ﾊﾝﾄﾞｼｪｲｸ領域(PC->CPUB)
 8972 00000010 00000040          2139                             .SRES           2*32            ; ﾊﾝﾄﾞｼｪｲｸ領域(PC<-CPUB)
 8973 00000050 00000200          2140     _sci0_rxd_buf           .SRES           1*512           ; 受信ﾊﾞｯﾌｧ
 8974 00000250 00000200          2141     _sci0_txd_buf           .SRES           1*512           ; 送信ﾊﾞｯﾌｧ
 8975 00000450 00000020          2142     _sci0_wkram             .SRES           2*16            ; SCI0にﾌﾟﾛｸﾞﾗﾑで使用するﾜｰｸRAM
 8976 00000470 00000200          2143     _ET_LDCMND_WORK         .SRES           512             ; SIT4-MC
 8977                            2144     
 8978                            2145     ;★★★★★★★★★★★★★★★★★★★★★★★★★★★★★★★★★★★★★★★★★★★★
                                          ★★★★★★★★★★★★
 8979                            2146     
 8980                            2147     
 8981 000010C8                   2148             .SECTION        PvupsciROM,CODE,ALIGN=4
 8982                            2149     ;       **********************************************************************************
                                          ***
 8983                            2150     ;       *****                                                                           **
                                          ***
 8984                            2151     ;       *****                                                                           **
                                          ***
 8985                            2152     ;       *****   バージョンＵＰ監視ＭＡＩＮ                                              **
                                          ***
*** SuperH RISC engine ASSEMBLER V.7.01.02.000 ***    07/04/21 19:29:24                                                  PAGE    66
PROGRAM NAME =

 8986                            2153     ;       *****                                                                           **
                                          ***
 8987                            2154     ;       *****   フラッシュ書込み指令が来たら、各バージョンＵＰへ                        **
                                          ***
 8988                            2155     ;       *****                                                                           **
                                          ***
 8989                            2156     ;       *****                                                                           **
                                          ***
 8990                            2157     ;       **********************************************************************************
                                          ***
 8991                            2158             .IMPORT _FROM_ERASE_CMND
 8992                            2159             .IMPORT _FROM_ERASE_POLLINKG
 8993                            2160             .IMPORT _FROM_WRITE_CMND
 8994                            2161             .IMPORT _FROM_WRITE_POLLINKG
 8995                            2162             .IMPORT _FROM_SECT_TBL_SIZE
 8996                            2163             .IMPORT _FROM_SECT_TBL
 8997                            2164     
 8998                            2165             .MACRO  SH2_WAIT        CNT,REG
 8999                            2166             MOV.L   #\CNT,\REG
 9000                            2167     JMP01\@:
 9001                            2168             DT      \REG
 9002                            2169             BF      JMP01\@
 9003                            2170             .ENDM
 9004                            2171     
 9005                            2172             .MACRO  SH2_WAIT_REG    REG
 9006                            2173     JMP01\@:
 9007                            2174             DT      \REG
 9008                            2175             BF      JMP01\@
 9009                            2176             .ENDM
 9010                            2177     
 9011                            2178     ;       ======= EXTERN宣言=======
 9012                            2179     
 9013                            2180     ;       ======= PUBLIC宣言=======
 9014                            2181             .export         _VUP_MAIN;
 9015                            2182     
 9016                            2183     
 9017 000010C8                   2184     _VUP_MAIN:
 9018                            2185             SUB_START
 9019 000010C8 4F22                   M           STS.L   PR,@-R15                ;[必要]
 9020                                 M   ;;;;;;; ADD     #-4,R15                 ;[不要?]
 9021                            2186             PUSH_ALL
 9022                                 M           PUSH_REG1       R0      ;
 9023 000010CA 2F06                   M           MOV.L   R0,@-R15                ;PUSH=SP-4
 9024                                 M                                           ;REG=>[SP]
 9025                                 M                                           ;"-4" FF,FF,FF,FC
 9026                                 M           PUSH_REG1       R1      ;
 9027 000010CC 2F16                   M           MOV.L   R1,@-R15                ;PUSH=SP-4
 9028                                 M                                           ;REG=>[SP]
 9029                                 M                                           ;"-4" FF,FF,FF,FC
 9030                                 M           PUSH_REG1       R2      ;
 9031 000010CE 2F26                   M           MOV.L   R2,@-R15                ;PUSH=SP-4
 9032                                 M                                           ;REG=>[SP]
 9033                                 M                                           ;"-4" FF,FF,FF,FC
 9034                                 M           PUSH_REG1       R3      ;
 9035 000010D0 2F36                   M           MOV.L   R3,@-R15                ;PUSH=SP-4
 9036                                 M                                           ;REG=>[SP]
 9037                                 M                                           ;"-4" FF,FF,FF,FC
*** SuperH RISC engine ASSEMBLER V.7.01.02.000 ***    07/04/21 19:29:24                                                  PAGE    67
PROGRAM NAME =

 9038                                 M           PUSH_REG1       R4      ;
 9039 000010D2 2F46                   M           MOV.L   R4,@-R15                ;PUSH=SP-4
 9040                                 M                                           ;REG=>[SP]
 9041                                 M                                           ;"-4" FF,FF,FF,FC
 9042                                 M           PUSH_REG1       R5      ;
 9043 000010D4 2F56                   M           MOV.L   R5,@-R15                ;PUSH=SP-4
 9044                                 M                                           ;REG=>[SP]
 9045                                 M                                           ;"-4" FF,FF,FF,FC
 9046                                 M           PUSH_REG1       R6      ;
 9047 000010D6 2F66                   M           MOV.L   R6,@-R15                ;PUSH=SP-4
 9048                                 M                                           ;REG=>[SP]
 9049                                 M                                           ;"-4" FF,FF,FF,FC
 9050                                 M           PUSH_REG1       R7      ;
 9051 000010D8 2F76                   M           MOV.L   R7,@-R15                ;PUSH=SP-4
 9052                                 M                                           ;REG=>[SP]
 9053                                 M                                           ;"-4" FF,FF,FF,FC
 9054                                 M           PUSH_REG1       R8      ;
 9055 000010DA 2F86                   M           MOV.L   R8,@-R15                ;PUSH=SP-4
 9056                                 M                                           ;REG=>[SP]
 9057                                 M                                           ;"-4" FF,FF,FF,FC
 9058                                 M           PUSH_REG1       R9      ;
 9059 000010DC 2F96                   M           MOV.L   R9,@-R15                ;PUSH=SP-4
 9060                                 M                                           ;REG=>[SP]
 9061                                 M                                           ;"-4" FF,FF,FF,FC
 9062                                 M           PUSH_REG1       R10     ;
 9063 000010DE 2FA6                   M           MOV.L   R10,@-R15               ;PUSH=SP-4
 9064                                 M                                           ;REG=>[SP]
 9065                                 M                                           ;"-4" FF,FF,FF,FC
 9066                                 M           PUSH_REG1       R11     ;
 9067 000010E0 2FB6                   M           MOV.L   R11,@-R15               ;PUSH=SP-4
 9068                                 M                                           ;REG=>[SP]
 9069                                 M                                           ;"-4" FF,FF,FF,FC
 9070                                 M           PUSH_REG1       R12     ;
 9071 000010E2 2FC6                   M           MOV.L   R12,@-R15               ;PUSH=SP-4
 9072                                 M                                           ;REG=>[SP]
 9073                                 M                                           ;"-4" FF,FF,FF,FC
 9074                                 M           PUSH_REG1       R13     ;
 9075 000010E4 2FD6                   M           MOV.L   R13,@-R15               ;PUSH=SP-4
 9076                                 M                                           ;REG=>[SP]
 9077                                 M                                           ;"-4" FF,FF,FF,FC
 9078                                 M           PUSH_REG1       R14     ;
 9079 000010E6 2FE6                   M           MOV.L   R14,@-R15               ;PUSH=SP-4
 9080                                 M                                           ;REG=>[SP]
 9081                                 M                                           ;"-4" FF,FF,FF,FC
 9082                                 M           PUSH_MACHL              ;
 9083 000010E8 4F02                   M           STS.L   MACH,@-R15
 9084 000010EA 4F12                   M           STS.L   MACL,@-R15
 9085                                 M           PUSH_SYS_REG    GBR     ;
 9086 000010EC 4F13                   M           STC.L   GBR,@-R15
 9087                                 M           .AIF    3 EQ 3
 9088                                             .AELSE
 9089                                             PUSH_FPU_ALL            ;2001-07-08
 9090                                             .AENDI
 9091                            2187     
 9092 000010EE D00C              2188             MOV.L   #_vup_hs_area,R0                        ;
 9093 000010F0 401E              2189             LDC.L   R0,GBR                                  ;
 9094                            2190     
*** SuperH RISC engine ASSEMBLER V.7.01.02.000 ***    07/04/21 19:29:24                                                  PAGE    68
PROGRAM NAME =

 9095 000010F2                   2191     _VUP_M000:
 9096 000010F2 C502              2192             MOV.W   @(VUP_END_PC,GBR),R0
 9097 000010F4 C10A              2193             MOV.W   R0,@(VUP_END_SH,GBR)                    ; ﾊﾞｰｼﾞｮﾝUP完了
 9098                            2194     
 9099 000010F6 C500              2195             MOV.W   @(VUP_SEL_PC,GBR),R0                    ; ﾊﾞｰｼﾞｮﾝUP種別
 9100 000010F8 C108              2196             MOV.W   R0,@(VUP_SEL_SH,GBR)                    ; ﾊﾞｰｼﾞｮﾝUP種別  PCへ
 9101                            2197     
 9102 000010FA C501              2198             MOV.W   @(VUP_STR_PC,GBR),R0
 9103 000010FC 8801              2199             CMP/EQ  #H'01,R0                                ; ﾊﾞｰｼﾞｮﾝｱｯﾌﾟ開始
 9104 000010FE 8904              2200             BT      _VUP_M002
 9105 00001100 8802              2201             CMP/EQ  #H'02,R0                                ; 型データ読出し
                                          SIT4-MC  2014/05/08
 9106 00001102 8902              2202             BT      _VUP_M002
 9107 00001104 8803              2203             CMP/EQ  #H'03,R0                                ; 型データ書込み
                                          SIT4-MC  2014/05/08
 9108 00001106 8900              2204             BT      _VUP_M002
 9109 00001108 C109              2205             MOV.W   R0,@(VUP_STR_SH,GBR)
 9110 0000110A                   2206     _VUP_M002:
 9111                            2207     
 9112 0000110A C503              2208             MOV.W   @(VUP_DATA_WR_PC,GBR),R0
 9113 0000110C 8801              2209             CMP/EQ  #H'01,R0
 9114 0000110E 8900              2210             BT      _VUP_M004
 9115 00001110 C10B              2211             MOV.W   R0,@(VUP_DATA_WR_SH,GBR)
 9116 00001112                   2212     _VUP_M004:
 9117                            2213     
 9118                            2214     ;       -------------------------------- 2006/12/26(INS) V05 {
 9119 00001112 D104              2215             MOV.L   #_VUP_PRG_NG_DAT,R1                     ;
 9120 00001114 6011              2216             MOV.W   @R1,R0
 9121 00001116 2008              2217             TST     R0,R0                                   ; ﾊﾞｰｼﾞｮﾝUP時異常あった？
 9122 00001118 8906              2218             BT      _VUP_M010                               ; いいえ
 9123 0000111A C10C              2219             MOV.W   R0,@(VUP_REV1_SH,GBR)                   ;
 9124                            2220             M_BRA   _VUP_MEND
 9125 0000111C A084                   M           BRA     _VUP_MEND
 9126 0000111E 0009                   M           NOP
 9127                                     ***** BEGIN-POOL *****
 9128 00001120 00000000                   DATA FOR SOURCE-LINE 2188
 9129 00001124 00000000                   DATA FOR SOURCE-LINE 2215
 9130                                     ***** END-POOL *****
 9131 00001128                   2221     _VUP_M010:
 9132                            2222     ;       -------------------------------- }
 9133                            2223     
 9134 00001128 C509              2224             MOV.W   @(VUP_STR_SH,GBR),R0                    ;
 9135 0000112A 8801              2225             CMP/EQ  #H'01,R0                                ; ﾊﾞｰｼﾞｮﾝUP開始準備完了済み？
 9136 0000112C 892C              2226             BT      _VUP_M550                               ; はい
 9137 0000112E 8802              2227             CMP/EQ  #H'02,R0                                ; 型ﾃﾞｰﾀ読出し済み？
                                          SIT4-MC  2014/05/08
 9138 00001130 897A              2228             BT      _VUP_MEND                               ; はい
 9139 00001132 8803              2229             CMP/EQ  #H'03,R0                                ; 型ﾃﾞｰﾀ書込み済み？
                                          SIT4-MC  2014/05/08
 9140 00001134 8978              2230             BT      _VUP_MEND                               ; はい
 9141                            2231     
 9142 00001136 C501              2232             MOV.W   @(VUP_STR_PC,GBR),R0
 9143 00001138 8801              2233             CMP/EQ  #H'01,R0                                ; ﾊﾞｰｼﾞｮﾝUP開始?
 9144 0000113A 8915              2234             BT      _VUP_M020                               ; はい
 9145 0000113C 8802              2235             CMP/EQ  #H'02,R0                                ; 型ﾃﾞｰﾀ読出し?
                                          SIT4-MC  2014/05/08
 9146 0000113E 8903              2236             BT      _VUP_M015                               ; はい
*** SuperH RISC engine ASSEMBLER V.7.01.02.000 ***    07/04/21 19:29:24                                                  PAGE    69
PROGRAM NAME =

 9147 00001140 8803              2237             CMP/EQ  #H'03,R0                                ; 型ﾃﾞｰﾀ書込み?
                                          SIT4-MC  2014/05/08
 9148 00001142 8909              2238             BT      _VUP_M016                               ; はい
 9149                            2239             M_BRA   _VUP_MEND                               ; いいえ
 9150 00001144 A070                   M           BRA     _VUP_MEND
 9151 00001146 0009                   M           NOP
 9152                            2240     
 9153 00001148                   2241     _VUP_M015:
 9154                            2242             FAR_JSR #_SCI_KATA_READ,R1                      ; 型ﾃﾞｰﾀ読出し処理
                                          SIT4-MC  2014/05/08
 9155 00001148 D102                   M           MOV.L   #_SCI_KATA_READ,R1              ;ﾃｰﾌﾞﾙｱﾄﾞﾚｽの内容をREGへ
 9156 0000114A 410B                   M           JSR     @R1                     ;
 9157 0000114C 0009                   M           NOP                                     ;
 9158                            2243             M_BRA   _VUP_MEND                               ;
 9159 0000114E A06B                   M           BRA     _VUP_MEND
 9160 00001150 0009                   M           NOP
 9161                            2244     
 9162                                     ***** BEGIN-POOL *****
 9163 00001152 0000                       ALIGNMENT CODE
 9164 00001154 00000000                   DATA FOR SOURCE-LINE 2242
 9165                                     ***** END-POOL *****
 9166 00001158                   2245     _VUP_M016:
 9167                            2246             FAR_JSR #_SCI_KATA_WRITE,R1                     ; 型ﾃﾞｰﾀ書込み処理
                                          SIT4-MC  2014/05/08
 9168 00001158 D102                   M           MOV.L   #_SCI_KATA_WRITE,R1             ;ﾃｰﾌﾞﾙｱﾄﾞﾚｽの内容をREGへ
 9169 0000115A 410B                   M           JSR     @R1                     ;
 9170 0000115C 0009                   M           NOP                                     ;
 9171                            2247             M_BRA   _VUP_MEND                               ;
 9172 0000115E A063                   M           BRA     _VUP_MEND
 9173 00001160 0009                   M           NOP
 9174                            2248     
 9175                                     ***** BEGIN-POOL *****
 9176 00001162 0000                       ALIGNMENT CODE
 9177 00001164 00000000                   DATA FOR SOURCE-LINE 2246
 9178                                     ***** END-POOL *****
 9179 00001168                   2249     _VUP_M020:
 9180 00001168 D110              2250             MOV.L   #_sci0_wkram+VUP_START,R1
 9181 0000116A 901B              2251             MOV.W   #H'FF,R0
 9182 0000116C 2101              2252             MOV.W   R0,@R1                                  ; ﾊﾞｰｼﾞｮﾝUP開始を記憶！！
 9183                            2253     
 9184                            2254     ;       --------------------------------------
 9185                            2255     ;       -----   FLASH ROM DATA -> SRAM   -----
 9186                            2256     ;       --------------------------------------
 9187 0000116E D010              2257             mov.l   #SR_Init_SCIEI,r0
 9188 00001170 400E              2258             ldc     r0,sr                                   ; SR set (SCI割込み(E)だけ許可)
 9189 00001172 0009              2259             NOP
 9190                            2260     
 9191 00001174 C500              2261             MOV.W   @(VUP_SEL_PC,GBR),R0                    ; ﾊﾞｰｼﾞｮﾝUP種別
 9192 00001176 4008              2262             SHLL2   R0
 9193 00001178 4000              2263             SHLL    R0
 9194 0000117A D10E              2264             MOV.L   #_FROM_TO_SRAM_TABLE,R1
 9195 0000117C 310C              2265             ADD     R0,R1
 9196 0000117E 6012              2266             MOV.L   @R1,R0
 9197 00001180 400B              2267             JSR     @R0
 9198 00001182 0009              2268             NOP
 9199                            2269     
 9200 00001184 900F              2270             MOV.W   #H'01,R0                                ; ﾊﾞｰｼﾞｮﾝUP開始
*** SuperH RISC engine ASSEMBLER V.7.01.02.000 ***    07/04/21 19:29:24                                                  PAGE    70
PROGRAM NAME =

 9201 00001186 C109              2271             MOV.W   R0,@(VUP_STR_SH,GBR)                    ; ﾊﾞｰｼﾞｮﾝUP開始準備完了  PCへ
 9202                            2272     ;       ---------------------------------------
 9203                            2273     
 9204 00001188                   2274     _VUP_M550:
 9205 00001188 C50B              2275             MOV.W   @(VUP_DATA_WR_SH,GBR),R0                ;
 9206 0000118A 8801              2276             CMP/EQ  #H'01,R0                                ; ﾊﾞｰｼﾞｮﾝUPﾃﾞｰﾀﾌﾗｯｼｭWRITE完了済み
                                          ？
 9207 0000118C 894C              2277             BT      _VUP_M999                               ; はい
 9208                            2278     
 9209 0000118E C503              2279             MOV.W   @(VUP_DATA_WR_PC,GBR),R0
 9210 00001190 8801              2280             CMP/EQ  #H'01,R0                                ; ﾊﾞｰｼﾞｮﾝUPﾃﾞｰﾀWRITE指令有り?
 9211 00001192 8B49              2281             BF      _VUP_M999                               ; いいえ
 9212                            2282     
 9213                            2283     ;///V01p        MOV.L   #_PADR,R1
 9214 00001194 D108              2284             MOV.L   #_sci0_wkram+RTS_FLG,R1
 9215 00001196 6011              2285             MOV.W   @R1,R0
 9216 00001198 9206              2286             MOV.W   #BIT13,R2                               ;
 9217 0000119A 2029              2287             AND     R2,R0                                   ;
 9218 0000119C 2008              2288             TST     R0,R0                                   ; RTS OFF ?
 9219 0000119E 890D              2289             BT      _VUP_M570                               ; はい
 9220                            2290             M_BRA   _VUP_M999
 9221 000011A0 A042                   M           BRA     _VUP_M999
 9222 000011A2 0009                   M           NOP
 9223                            2291     
 9224                            2292     ;       --------------------------------------
 9225                            2293     ;       -----   FLASH ROM DATA <- SRAM   -----
 9226                            2294     ;       --------------------------------------
 9227                                     ***** BEGIN-POOL *****
 9228 000011A4 00FF                       DATA FOR SOURCE-LINE 2251
 9229 000011A6 0001                       DATA FOR SOURCE-LINE 2270
 9230 000011A8 2000                       DATA FOR SOURCE-LINE 2286
 9231 000011AA 0000                       ALIGNMENT CODE
 9232 000011AC 00000000                   DATA FOR SOURCE-LINE 2250
 9233 000011B0 400000D0                   DATA FOR SOURCE-LINE 2257
 9234 000011B4 00000000                   DATA FOR SOURCE-LINE 2264
 9235 000011B8 00000000                   DATA FOR SOURCE-LINE 2284
 9236                                     ***** END-POOL *****
 9237 000011BC                   2295     _VUP_M570:
 9238                            2296             _WDT_CLR
 9239                                 M           PUSH_REG1 R0
 9240 000011BC 2F06                   M           MOV.L   R0,@-R15                ;PUSH=SP-4
 9241                                 M                                           ;REG=>[SP]
 9242                                 M                                           ;"-4" FF,FF,FF,FC
 9243                                 M           PUSH_REG1 R10
 9244 000011BE 2FA6                   M           MOV.L   R10,@-R15               ;PUSH=SP-4
 9245                                 M                                           ;REG=>[SP]
 9246                                 M                                           ;"-4" FF,FF,FF,FC
 9247                                 M           PUSH_REG1 R14
 9248 000011C0 2FE6                   M           MOV.L   R14,@-R15               ;PUSH=SP-4
 9249                                 M                                           ;REG=>[SP]
 9250                                 M                                           ;"-4" FF,FF,FF,FC
 9251                                 M   
 9252 000011C2 DA0E                   M           MOV.L   #_PJDR,R10                              ;
 9253 000011C4 60A0                   M           MOV.B   @R10,R0
 9254 000011C6 CB10                   M           OR      #BIT4,R0
 9255 000011C8 2A00                   M           MOV.B   R0,@R10
 9256 000011CA C9EF                   M           AND     #NBIT4,R0
*** SuperH RISC engine ASSEMBLER V.7.01.02.000 ***    07/04/21 19:29:24                                                  PAGE    71
PROGRAM NAME =

 9257 000011CC 2A00                   M           MOV.B   R0,@R10
 9258                                 M   
 9259                                 M           ;====== 2006-10-19 SAITO 追加　WDTﾎﾟｰﾄ変更 ======
 9260 000011CE DA0C                   M           MOV.L   #_IOGA2_CTRL_DAT1+_IOGA_P5,R10          ;
 9261 000011D0 60A1                   M           MOV.W   @R10,R0                                 ;
 9262 000011D2 9E10                   M           MOV.W   #BIT0,R14                               ;
 9263 000011D4 20EB                   M           OR      R14,R0                                  ;
 9264 000011D6 2A01                   M           MOV.W   R0,@R10                                 ; WORK
 9265                                 M   
 9266                                 M   ;;      MOV.L   #_IOGA2_CTRL_DAT1+_IOGA_P5,R10  ; WORK ADDRESS
 9267                                 M   ;;      MOV.W   @R10,R0                                 ;
 9268 000011D8 9E0E                   M           MOV.W   #_IO2B_P5EX,R14                         ;
 9269 000011DA 20EA                   M           XOR     R14,R0                                  ;
 9270 000011DC DA09                   M           MOV.L   #_dio_top2+_IOGA_PDR5,R10               ; IOGA PF ADDRESS
 9271 000011DE 2A01                   M           MOV.W   R0,@R10                                 ; 実出力SET
 9272                                 M   
 9273 000011E0 DA07                   M           MOV.L   #_IOGA2_CTRL_DAT1+_IOGA_P5,R10          ;
 9274 000011E2 60A1                   M           MOV.W   @R10,R0                                 ;
 9275 000011E4 9E09                   M           MOV.W   #NBIT0,R14                              ;
 9276 000011E6 20E9                   M           AND     R14,R0                                  ;
 9277 000011E8 2A01                   M           MOV.W   R0,@R10                                 ; WORK
 9278                                 M   
 9279                                 M   ;;      MOV.L   #_IOGA2_CTRL_DAT1+_IOGA_P5,R10  ; WORK ADDRESS
 9280                                 M   ;;      MOV.W   @R10,R0                                 ;
 9281 000011EA 9E05                   M           MOV.W   #_IO2B_P5EX,R14                         ;
 9282 000011EC 20EA                   M           XOR     R14,R0                                  ;
 9283 000011EE DA05                   M           MOV.L   #_dio_top2+_IOGA_PDR5,R10               ; IOGA PF ADDRESS
 9284 000011F0 2A01                   M           MOV.W   R0,@R10                                 ; 実出力SET
 9285                                 M   
 9286                                 M           M_BRA   AAA00004
 9287 000011F2 A009                   M           BRA     AAA00004
 9288 000011F4 0009                   M           NOP
 9289                                 M   ***** BEGIN-POOL *****
 9290 000011F6 0001                   M   DATA FOR SOURCE-LINE 2296
 9291 000011F8 0000                   M   DATA FOR SOURCE-LINE 2296,2296
 9292 000011FA 00FE                   M   DATA FOR SOURCE-LINE 2296
 9293 000011FC 00000000               M   DATA FOR SOURCE-LINE 2296
 9294 00001200 00000000               M   DATA FOR SOURCE-LINE 2296,2296
 9295 00001204 00000000               M   DATA FOR SOURCE-LINE 2296,2296
 9296                                 M   ***** END-POOL *****
 9297 00001208                        M   AAA00004:
 9298                                 M           POP_REG1 R14
 9299                                 M                                   ; RE"+4" 00,00,00,04
 9300 00001208 6EF6                   M           MOV.L   @R15+,R14        ;
 9301                                 M           POP_REG1 R10
 9302                                 M                                   ; RE"+4" 00,00,00,04
 9303 0000120A 6AF6                   M           MOV.L   @R15+,R10        ;
 9304                                 M           POP_REG1 R0
 9305                                 M                                   ; RE"+4" 00,00,00,04
 9306 0000120C 60F6                   M           MOV.L   @R15+,R0        ;
 9307 0000120E C500              2297             MOV.W   @(VUP_SEL_PC,GBR),R0                    ; ﾊﾞｰｼﾞｮﾝUP種別
 9308 00001210 4008              2298             SHLL2   R0
 9309 00001212 4000              2299             SHLL    R0
 9310 00001214 7004              2300             ADD     #4,R0
 9311 00001216 D10F              2301             MOV.L   #_FROM_TO_SRAM_TABLE,R1
 9312 00001218 310C              2302             ADD     R0,R1
 9313 0000121A 6012              2303             MOV.L   @R1,R0
*** SuperH RISC engine ASSEMBLER V.7.01.02.000 ***    07/04/21 19:29:24                                                  PAGE    72
PROGRAM NAME =

 9314 0000121C 400B              2304             JSR     @R0                                     ; OUT:R1=0(準備完)
 9315 0000121E 0009              2305             NOP
 9316                            2306     
 9317 00001220 2118              2307             TST     R1,R1                                   ; 準備完？
 9318 00001222 8B01              2308             BF      _VUP_M999                               ; いいえ
 9319                            2309     
 9320 00001224 9015              2310             MOV.W   #H'01,R0
 9321 00001226 C10B              2311             MOV.W   R0,@(VUP_DATA_WR_SH,GBR)                ; ﾊﾞｰｼﾞｮﾝUPﾃﾞｰﾀﾌﾗｯｼｭWRITE完了  PC
                                          へ
 9322                            2312     ;       ---------------------------------------
 9323                            2313     
 9324 00001228                   2314     _VUP_M999:
 9325 00001228                   2315     _VUP_MEND:
 9326                            2316             POP_ALL
 9327                                 M           .AIF    3 EQ 3
 9328                                             .AELSE
 9329                                             POP_FPU_ALL             ;2001-07-08
 9330                                             .AENDI
 9331                                 M           POP_SYS_REG     GBR     ;
 9332 00001228 4F17                   M           LDC.L   @R15+,GBR
 9333                                 M           POP_MACHL               ;
 9334 0000122A 4F16                   M           LDS.L   @R15+,MACL
 9335 0000122C 4F06                   M           LDS.L   @R15+,MACH
 9336                                 M           POP_REG1        R14     ;
 9337                                 M                                   ; RE"+4" 00,00,00,04
 9338 0000122E 6EF6                   M           MOV.L   @R15+,R14        ;
 9339                                 M           POP_REG1        R13     ;
 9340                                 M                                   ; RE"+4" 00,00,00,04
 9341 00001230 6DF6                   M           MOV.L   @R15+,R13        ;
 9342                                 M           POP_REG1        R12     ;
 9343                                 M                                   ; RE"+4" 00,00,00,04
 9344 00001232 6CF6                   M           MOV.L   @R15+,R12        ;
 9345                                 M           POP_REG1        R11     ;
 9346                                 M                                   ; RE"+4" 00,00,00,04
 9347 00001234 6BF6                   M           MOV.L   @R15+,R11        ;
 9348                                 M           POP_REG1        R10     ;
 9349                                 M                                   ; RE"+4" 00,00,00,04
 9350 00001236 6AF6                   M           MOV.L   @R15+,R10        ;
 9351                                 M           POP_REG1        R9      ;
 9352                                 M                                   ; RE"+4" 00,00,00,04
 9353 00001238 69F6                   M           MOV.L   @R15+,R9        ;
 9354                                 M           POP_REG1        R8      ;
 9355                                 M                                   ; RE"+4" 00,00,00,04
 9356 0000123A 68F6                   M           MOV.L   @R15+,R8        ;
 9357                                 M           POP_REG1        R7      ;
 9358                                 M                                   ; RE"+4" 00,00,00,04
 9359 0000123C 67F6                   M           MOV.L   @R15+,R7        ;
 9360                                 M           POP_REG1        R6      ;
 9361                                 M                                   ; RE"+4" 00,00,00,04
 9362 0000123E 66F6                   M           MOV.L   @R15+,R6        ;
 9363                                 M           POP_REG1        R5      ;
 9364                                 M                                   ; RE"+4" 00,00,00,04
 9365 00001240 65F6                   M           MOV.L   @R15+,R5        ;
 9366                                 M           POP_REG1        R4      ;
 9367                                 M                                   ; RE"+4" 00,00,00,04
 9368 00001242 64F6                   M           MOV.L   @R15+,R4        ;
 9369                                 M           POP_REG1        R3      ;
*** SuperH RISC engine ASSEMBLER V.7.01.02.000 ***    07/04/21 19:29:24                                                  PAGE    73
PROGRAM NAME =

 9370                                 M                                   ; RE"+4" 00,00,00,04
 9371 00001244 63F6                   M           MOV.L   @R15+,R3        ;
 9372                                 M           POP_REG1        R2      ;
 9373                                 M                                   ; RE"+4" 00,00,00,04
 9374 00001246 62F6                   M           MOV.L   @R15+,R2        ;
 9375                                 M           POP_REG1        R1      ;
 9376                                 M                                   ; RE"+4" 00,00,00,04
 9377 00001248 61F6                   M           MOV.L   @R15+,R1        ;
 9378                                 M           POP_REG1        R0      ;
 9379                                 M                                   ; RE"+4" 00,00,00,04
 9380 0000124A 60F6                   M           MOV.L   @R15+,R0        ;
 9381                            2317             SUB_END
 9382                                 M   ;;;;;;; ADD     #4,R15                  ;[不要?]
 9383 0000124C 4F26                   M           LDS.L   @R15+,PR                ;[必要]
 9384                            2318             M_RTS
 9385 0000124E 000B                   M           RTS                             ;RTSの後ろの
 9386 00001250 0009                   M           NOP                             ;@R15+,PRはﾀﾞﾒ
 9387                            2319     
 9388                            2320     
 9389                                     ***** BEGIN-POOL *****
 9390 00001252 0001                       DATA FOR SOURCE-LINE 2310
 9391 00001254 00000000                   DATA FOR SOURCE-LINE 2301
 9392                                     ***** END-POOL *****
 9393 00001258                   2321             .ALIGN  4
 9394 00001258                   2322     _FROM_TO_SRAM_TABLE:
 9395                            2323     ;               FROMから読出し時  FROMへ書込み時
 9396 00001258 0000000000000000  2324             .DATA.L _FROM_DUMY_COPY,        _FROM_DUMY_REWRITE              ; 00:ﾀﾞﾐｰ
 9397 00001260 0000000000000000  2325             .DATA.L _FROM_GAME_COPY,        _FROM_GAME_REWRITE              ; 01:画面ﾃｰﾌﾞﾙ
 9398 00001268 0000000000000000  2326             .DATA.L _FROM_SEQA_COPY,        _FROM_SEQA_REWRITE              ; 02:ﾕｰｻﾞｼｰｹﾝｽ
 9399 00001270 0000000000000000  2327             .DATA.L _FROM_CPUA_COPY,        _FROM_CPUA_REWRITE              ; 03:CPUAﾌﾟﾛｸﾞﾗﾑ
 9400                            2328     
 9401                            2329             .AIF    1 EQ 0
 9402                            2330             .DATA.L _FROM_CPUB_COPY,        _FROM_CPUB_REWRITE              ; 04:CPUBﾌﾟﾛｸﾞﾗﾑ
 9403                            2331             .AELSE
 9404 00001278 0000000000000000  2332 C           .DATA.L _FROM_CPUB_COPY,        _FROM_CPUB4_REWRITE             ; 04:CPUBﾌﾟﾛｸﾞﾗﾑ
 9405                            2333             .AENDI
 9406                            2334     
 9407 00001280 0000000000000000  2335             .DATA.L _FROM_SENA_COPY,        _FROM_SENA_REWRITE              ; 05:ｾﾝｻAﾃｰﾌﾞﾙ
 9408 00001288 0000000000000000  2336             .DATA.L _FROM_SENB_COPY,        _FROM_SENB_REWRITE              ; 06:ｾﾝｻBﾃｰﾌﾞﾙ
 9409 00001290 0000000000000000  2337             .DATA.L _FROM_CPUA_COPY,        _FROM_CPUA_REWRITE              ; 07:CPUAﾌﾟﾛｸﾞﾗﾑ
 9410                            2338     
 9411                            2339             .AIF    1 EQ 0
 9412                            2340             .DATA.L _FROM_CPUB_COPY,        _FROM_CPUB_REWRITE              ; 08:CPUBﾌﾟﾛｸﾞﾗﾑ
 9413                            2341             .AELSE
 9414 00001298 0000000000000000  2342 C           .DATA.L _FROM_CPUB_COPY,        _FROM_CPUB4_REWRITE             ; 08:CPUBﾌﾟﾛｸﾞﾗﾑ
 9415                            2343             .AENDI
 9416                            2344     
 9417 000012A0 0000000000000000  2345             .DATA.L _FROM_SYSA_COPY,        _FROM_SYSA_REWRITE              ; 09:CPUA C/Bｼｽﾊﾟﾗ
 9418 000012A8 0000000000000000  2346             .DATA.L _FROM_SYSB_COPY,        _FROM_SYSB_REWRITE              ; 10:CPUB C/Bｼｽﾊﾟﾗ
 9419 000012B0 0000000000000000  2347             .DATA.L _FROM_GAIZ_COPY,        _FROM_GAIZ_REWRITE              ; 11:外字など
                                          V01l
 9420 000012B8 0000000000000000  2348             .DATA.L _FROM_CHAR_COPY,        _FROM_CHAR_REWRITE              ; 12:漢字ROM
 9421 000012C0 0000000000000000  2349             .DATA.L _FROM_DUMY_COPY,        _FROM_DUMY_REWRITE              ; 13:ﾀﾞﾐｰ
 9422 000012C8 0000000000000000  2350             .DATA.L _FROM_DUMY_COPY,        _FROM_DUMY_REWRITE              ; 14:ﾀﾞﾐｰ
 9423 000012D0 0000000000000000  2351             .DATA.L _FROM_DUMY_COPY,        _FROM_DUMY_REWRITE              ; 15:ﾀﾞﾐｰ
 9424 000012D8 0000000000000000  2352             .DATA.L _FROM_DUMY_COPY,        _FROM_DUMY_REWRITE              ; 16:ﾀﾞﾐｰ
 9425 000012E0 0000000000000000  2353             .DATA.L _FROM_SEND_COPY,        _FROM_SEND_REWRITE              ; 17:ｾﾝｻDﾃｰﾌﾞﾙ
*** SuperH RISC engine ASSEMBLER V.7.01.02.000 ***    07/04/21 19:29:24                                                  PAGE    74
PROGRAM NAME =

 9426 000012E8 0000000000000000  2354             .DATA.L _FROM_CPUD_COPY,        _FROM_CPUD_REWRITE              ; 18:CPUDﾌﾟﾛｸﾞﾗﾑ
 9427 000012F0 0000000000000000  2355             .DATA.L _FROM_SYSD_COPY,        _FROM_SYSD_REWRITE              ; 19:CPUD C/Bｼｽﾊﾟﾗ
 9428 000012F8 0000000000000000  2356             .DATA.L _FROM_KATA_COPY,        _FROM_KATA_REWRITE              ; 20:100型ﾀﾞｰﾀ
 9429 00001300 0000000000000000  2357             .DATA.L _FROM_KAT2_COPY,        _FROM_KAT2_REWRITE              ; 21:101-200型ﾀﾞｰﾀ
                                                                  2014/04/17      SIT4-MC
 9430 00001308 0000000000000000  2358             .DATA.L _FROM_KATS_COPY,        _FROM_KATS_REWRITE              ; 22:ｻﾝﾌﾟﾙ型ﾀﾞｰﾀ（
                                          201-220）               2014/04/17      SIT4-MC
 9431 00001310 0000000000000000  2359             .DATA.L _FROM_DUMY_COPY,        _FROM_DUMY_REWRITE              ; 23:ﾀﾞﾐｰ
 9432 00001318 0000000000000000  2360             .DATA.L _FROM_DUMY_COPY,        _FROM_DUMY_REWRITE              ; 24:ﾀﾞﾐｰ
 9433 00001320 0000000000000000  2361             .DATA.L _FROM_DUMY_COPY,        _FROM_DUMY_REWRITE              ; 25:ﾀﾞﾐｰ
 9434 00001328 0000000000000000  2362             .DATA.L _FROM_DUMY_COPY,        _FROM_DUMY_REWRITE              ; 26:ﾀﾞﾐｰ
 9435 00001330 0000000000000000  2363             .DATA.L _FROM_DUMY_COPY,        _FROM_DUMY_REWRITE              ; 27:ﾀﾞﾐｰ
 9436 00001338 0000000000000000  2364             .DATA.L _FROM_DUMY_COPY,        _FROM_DUMY_REWRITE              ; 28:ﾀﾞﾐｰ
 9437 00001340 0000000000000000  2365             .DATA.L _FROM_DUMY_COPY,        _FROM_DUMY_REWRITE              ; 29:ﾀﾞﾐｰ
 9438 00001348 0000000000000000  2366             .DATA.L _FROM_DUMY_COPY,        _FROM_DUMY_REWRITE              ; 30:ﾀﾞﾐｰ
 9439                            2367     
 9440                            2368     
 9441 00001350                   2369             .ALIGN  4
 9442 00001350                   2370     _FROM_DUMY_COPY:
 9443 00001350                   2371     _FROM_DUMY_REWRITE:
 9444                            2372             SUB_START
 9445 00001350 4F22                   M           STS.L   PR,@-R15                ;[必要]
 9446                                 M   ;;;;;;; ADD     #-4,R15                 ;[不要?]
 9447                            2373             SUB_END
 9448                                 M   ;;;;;;; ADD     #4,R15                  ;[不要?]
 9449 00001352 4F26                   M           LDS.L   @R15+,PR                ;[必要]
 9450                            2374             M_RTS
 9451 00001354 000B                   M           RTS                             ;RTSの後ろの
 9452 00001356 0009                   M           NOP                             ;@R15+,PRはﾀﾞﾒ
 9453                            2375     
 9454                            2376     
 9455                            2377     ;       **********************************************************************************
                                          ***
 9456                            2378     ;       *****                                                                           **
                                          ***
 9457                            2379     ;       *****                                                                           **
                                          ***
 9458                            2380     ;       *****   フラッシュＲＯＭのデータをＳＲＡＭへコピー                              **
                                          ***
 9459                            2381     ;       *****                                                                           **
                                          ***
 9460                            2382     ;       *****                                                                           **
                                          ***
 9461                            2383     ;       *****                                                                           **
                                          ***
 9462                            2384     ;       **********************************************************************************
                                          ***
 9463 00001358                   2385     _FROM_GAME_COPY:
 9464                            2386             SUB_START
 9465 00001358 4F22                   M           STS.L   PR,@-R15                ;[必要]
 9466                                 M   ;;;;;;; ADD     #-4,R15                 ;[不要?]
 9467                            2387     ;//V06  MOV.L   #_GAM_TABLE,R8                          ; R8 <- ﾌﾗｯｼｭROM読出し先頭ｱﾄﾞﾚｽ  5
                                          00000H
 9468 0000135A D802              2388             MOV.L   #_GAM_TABLE2,R8                         ; R8 <- ﾌﾗｯｼｭROM読出し先頭ｱﾄﾞﾚｽ  5
                                          00000H
 9469 0000135C D902              2389             MOV.L   #_VUP_DATA_AREA_CPUB,R9                 ; 400000H R9 <- ﾌﾗｯｼｭROMﾃﾞｰﾀ書込み
                                          先頭ｱﾄﾞﾚｽ
*** SuperH RISC engine ASSEMBLER V.7.01.02.000 ***    07/04/21 19:29:24                                                  PAGE    75
PROGRAM NAME =

 9470                            2390     ;//V06  MOV.L   #_GAM_TBL_SIZE/4,R4                     ; 画面ﾃｰﾌﾞﾙﾜｰﾄﾞ数(40000H/4)
 9471                            2391     ;//V06m MOV.L   #_GAM_TBL_SIZE2/4,R4                    ; 画面ﾃｰﾌﾞﾙﾜｰﾄﾞ数(60000H/4)
 9472 0000135E D403              2392             MOV.L   #_GAM_TBL_SIZE3/4,R4                    ; 画面ﾃｰﾌﾞﾙﾜｰﾄﾞ数(80000H/4)
 9473                            2393             M_BRA   _FROM_GAMCOPY_LOOP
 9474 00001360 A036                   M           BRA     _FROM_GAMCOPY_LOOP
 9475 00001362 0009                   M           NOP
 9476                            2394     
 9477                            2395     
 9478                                     ***** BEGIN-POOL *****
 9479 00001364 00000000                   DATA FOR SOURCE-LINE 2388
 9480 00001368 AC400000                   DATA FOR SOURCE-LINE 2389
 9481 0000136C 00020000                   DATA FOR SOURCE-LINE 2392
 9482                                     ***** END-POOL *****
 9483 00001370                   2396     _FROM_GAIZ_COPY:        ;/* V01l */
 9484                            2397             SUB_START
 9485 00001370 4F22                   M           STS.L   PR,@-R15                ;[必要]
 9486                                 M   ;;;;;;; ADD     #-4,R15                 ;[不要?]
 9487 00001372 D802              2398             MOV.L   #_GAIZI_FROM_TOP,R8                     ; R8 <- ﾌﾗｯｼｭROM読出し先頭ｱﾄﾞﾚｽ  5
                                          80000H
 9488 00001374 D902              2399             MOV.L   #_VUP_DATA_AREA_CPUB,R9                 ; 400000H R9 <- ﾌﾗｯｼｭROMﾃﾞｰﾀ書込み
                                          先頭ｱﾄﾞﾚｽ
 9489 00001376 D403              2400             MOV.L   #_GAIZI_FROM_SIZE/4,R4                  ; 画面ﾃｰﾌﾞﾙﾜｰﾄﾞ数(40000H/4)
 9490                            2401             M_BRA   _FROM_GAMCOPY_LOOP
 9491 00001378 A02A                   M           BRA     _FROM_GAMCOPY_LOOP
 9492 0000137A 0009                   M           NOP
 9493                            2402     
 9494                                     ***** BEGIN-POOL *****
 9495 0000137C A0280000                   DATA FOR SOURCE-LINE 2398
 9496 00001380 AC400000                   DATA FOR SOURCE-LINE 2399
 9497 00001384 0000C000                   DATA FOR SOURCE-LINE 2400
 9498                                     ***** END-POOL *****
 9499 00001388                   2403     _FROM_CHAR_COPY:        ;/* SIT-4 */
 9500                            2404             SUB_START
 9501 00001388 4F22                   M           STS.L   PR,@-R15                ;[必要]
 9502                                 M   ;;;;;;; ADD     #-4,R15                 ;[不要?]
 9503 0000138A D802              2405             MOV.L   #_CHAR_ROM_TOP,R8                       ; R8 <- ﾌﾗｯｼｭROM読出し先頭ｱﾄﾞﾚｽ  5
                                          80000H
 9504 0000138C D902              2406             MOV.L   #_VUP_DATA_AREA_CPUB,R9                 ; 400000H R9 <- ﾌﾗｯｼｭROMﾃﾞｰﾀ書込み
                                          先頭ｱﾄﾞﾚｽ
 9505 0000138E D403              2407             MOV.L   #_CHAR_ROM_SIZE/4,R4                    ; 画面ﾃｰﾌﾞﾙﾜｰﾄﾞ数(40000H/4)
 9506                            2408             M_BRA   _FROM_GAMCOPY_LOOP
 9507 00001390 A01E                   M           BRA     _FROM_GAMCOPY_LOOP
 9508 00001392 0009                   M           NOP
 9509                            2409     
 9510                            2410     ;/* SIT4-MC  2014/04/17 */
 9511                                     ***** BEGIN-POOL *****
 9512 00001394 A0300000                   DATA FOR SOURCE-LINE 2405
 9513 00001398 AC400000                   DATA FOR SOURCE-LINE 2406
 9514 0000139C 00010000                   DATA FOR SOURCE-LINE 2407
 9515                                     ***** END-POOL *****
 9516 000013A0                   2411     _FROM_KAT2_COPY:
 9517                            2412             SUB_START
 9518 000013A0 4F22                   M           STS.L   PR,@-R15                ;[必要]
 9519                                 M   ;;;;;;; ADD     #-4,R15                 ;[不要?]
 9520 000013A2 D802              2413             MOV.L   #_200_KATA_TOP,R8                       ; R8 <- ﾌﾗｯｼｭROM読出し先頭ｱﾄﾞﾚｽ  5
                                          80000H
 9521 000013A4 D902              2414             MOV.L   #_VUP_DATA_AREA_CPUB,R9                 ; 400000H R9 <- ﾌﾗｯｼｭROMﾃﾞｰﾀ書込み
*** SuperH RISC engine ASSEMBLER V.7.01.02.000 ***    07/04/21 19:29:24                                                  PAGE    76
PROGRAM NAME =

                                          先頭ｱﾄﾞﾚｽ
 9522 000013A6 D403              2415             MOV.L   #_100_KATA_SIZE/4,R4                    ; ﾌﾟﾛｸﾞﾗﾑ数(40000H/4)
 9523                            2416             M_BRA   _FROM_GAMCOPY_LOOP
 9524 000013A8 A012                   M           BRA     _FROM_GAMCOPY_LOOP
 9525 000013AA 0009                   M           NOP
 9526                            2417     
 9527                            2418     ;/* SIT4-MC  2014/04/17 */
 9528                                     ***** BEGIN-POOL *****
 9529 000013AC A03C0000                   DATA FOR SOURCE-LINE 2413
 9530 000013B0 AC400000                   DATA FOR SOURCE-LINE 2414
 9531 000013B4 00010000                   DATA FOR SOURCE-LINE 2415
 9532                                     ***** END-POOL *****
 9533 000013B8                   2419     _FROM_KATS_COPY:
 9534                            2420             SUB_START
 9535 000013B8 4F22                   M           STS.L   PR,@-R15                ;[必要]
 9536                                 M   ;;;;;;; ADD     #-4,R15                 ;[不要?]
 9537 000013BA D802              2421             MOV.L   #_SMP_KATA_TOP,R8                       ; R8 <- ﾌﾗｯｼｭROM読出し先頭ｱﾄﾞﾚｽ  5
                                          80000H
 9538 000013BC D902              2422             MOV.L   #_VUP_DATA_AREA_CPUB,R9                 ; 400000H R9 <- ﾌﾗｯｼｭROMﾃﾞｰﾀ書込み
                                          先頭ｱﾄﾞﾚｽ
 9539 000013BE D403              2423             MOV.L   #_SMP_KATA_SIZE/4,R4                    ; ﾌﾟﾛｸﾞﾗﾑ数(10000H/4)
 9540                            2424             M_BRA   _FROM_GAMCOPY_LOOP
 9541 000013C0 A006                   M           BRA     _FROM_GAMCOPY_LOOP
 9542 000013C2 0009                   M           NOP
 9543                            2425     
 9544                                     ***** BEGIN-POOL *****
 9545 000013C4 A03F0000                   DATA FOR SOURCE-LINE 2421
 9546 000013C8 AC400000                   DATA FOR SOURCE-LINE 2422
 9547 000013CC 00004000                   DATA FOR SOURCE-LINE 2423
 9548                                     ***** END-POOL *****
 9549 000013D0                   2426     _FROM_GAMCOPY_LOOP:
 9550 000013D0 6086              2427             MOV.L   @R8+,R0
 9551 000013D2 0009              2428             NOP
 9552 000013D4 0009              2429             NOP
 9553 000013D6 2902              2430             MOV.L   R0,@R9
 9554 000013D8 0009              2431             NOP
 9555 000013DA 0009              2432             NOP
 9556 000013DC 7904              2433             ADD     #4,R9
 9557 000013DE 4410              2434             DT      R4
 9558 000013E0 8BF6              2435             BF      _FROM_GAMCOPY_LOOP
 9559                            2436     
 9560 000013E2 9102              2437             MOV.W   #0,R1                                   ; 全ｺﾋﾟｰ完了
 9561                            2438     
 9562                            2439             SUB_END
 9563                                 M   ;;;;;;; ADD     #4,R15                  ;[不要?]
 9564 000013E4 4F26                   M           LDS.L   @R15+,PR                ;[必要]
 9565                            2440             M_RTS
 9566 000013E6 000B                   M           RTS                             ;RTSの後ろの
 9567 000013E8 0009                   M           NOP                             ;@R15+,PRはﾀﾞﾒ
 9568                            2441     
 9569                            2442     
 9570                            2443     
 9571                                     ***** BEGIN-POOL *****
 9572 000013EA 0000                       DATA FOR SOURCE-LINE 2437
 9573                                     ***** END-POOL *****
 9574 000013EC                   2444     _FROM_SEQA_COPY:
 9575                            2445             SUB_START
*** SuperH RISC engine ASSEMBLER V.7.01.02.000 ***    07/04/21 19:29:24                                                  PAGE    77
PROGRAM NAME =

 9576 000013EC 4F22                   M           STS.L   PR,@-R15                ;[必要]
 9577                                 M   ;;;;;;; ADD     #-4,R15                 ;[不要?]
 9578                            2446     
 9579 000013EE D005              2447             MOV.L   #H'FFFFFFFF,R0
 9580 000013F0 D905              2448             MOV.L   #_VUP_DATA_AREA_CPUB,R9                 ; ﾌﾗｯｼｭROMﾃﾞｰﾀ書込み先頭ｱﾄﾞﾚｽ
 9581 000013F2 D406              2449             MOV.L   #_SEQ_PRO_SIZE/4,R4                     ; SEQﾌﾟﾛｸﾞﾗﾑ数(10000H/4)
 9582                            2450     
 9583 000013F4 D106              2451             MOV.L   #_CB_SYS_PARAM248,R1                    ; シーケンス実行CPUD選択        20
                                          15/01/16
 9584 000013F6 6211              2452             MOV.W   @R1,R2
 9585 000013F8 D106              2453             MOV.L   #1234,R1
 9586 000013FA 3210              2454             CMP/EQ  R1,R2                                   ; 1234ならCPUD
 9587 000013FC 8B00              2455             BF      _FROM_SQCP_100
 9588 000013FE D406              2456             MOV.L   #_SEQ_PRO_SIZE2/4,R4                    ; SEQﾌﾟﾛｸﾞﾗﾑ数(30000H/4)
 9589 00001400                   2457     _FROM_SQCP_100:
 9590                            2458     
 9591                            2459             M_BRA   _FROM_COPY_FF_LOOP
 9592 00001400 A048                   M           BRA     _FROM_COPY_FF_LOOP
 9593 00001402 0009                   M           NOP
 9594                            2460     
 9595                                     ***** BEGIN-POOL *****
 9596 00001404 FFFFFFFF                   DATA FOR SOURCE-LINE 2447
 9597 00001408 AC400000                   DATA FOR SOURCE-LINE 2448
 9598 0000140C 00004000                   DATA FOR SOURCE-LINE 2449
 9599 00001410 00000000                   DATA FOR SOURCE-LINE 2451
 9600 00001414 000004D2                   DATA FOR SOURCE-LINE 2453
 9601 00001418 0000C000                   DATA FOR SOURCE-LINE 2456
 9602                                     ***** END-POOL *****
 9603 0000141C                   2461     _FROM_SENA_COPY:
 9604 0000141C                   2462     _FROM_SENB_COPY:
 9605 0000141C                   2463     _FROM_SEND_COPY:
 9606                            2464             SUB_START
 9607 0000141C 4F22                   M           STS.L   PR,@-R15                ;[必要]
 9608                                 M   ;;;;;;; ADD     #-4,R15                 ;[不要?]
 9609 0000141E D002              2465             MOV.L   #H'FFFFFFFF,R0
 9610 00001420 D902              2466             MOV.L   #_VUP_DATA_AREA_CPUB,R9                 ; ﾌﾗｯｼｭROMﾃﾞｰﾀ書込み先頭ｱﾄﾞﾚｽ
 9611 00001422 D403              2467             MOV.L   #_CB_TBL_SIZE/4,R4                      ; ｾﾝｻﾃｰﾌﾞﾙ数(40000H/4)
 9612                            2468             M_BRA   _FROM_COPY_FF_LOOP
 9613 00001424 A036                   M           BRA     _FROM_COPY_FF_LOOP
 9614 00001426 0009                   M           NOP
 9615                            2469     
 9616                                     ***** BEGIN-POOL *****
 9617 00001428 FFFFFFFF                   DATA FOR SOURCE-LINE 2465
 9618 0000142C AC400000                   DATA FOR SOURCE-LINE 2466
 9619 00001430 00010000                   DATA FOR SOURCE-LINE 2467
 9620                                     ***** END-POOL *****
 9621 00001434                   2470     _FROM_CPUA_COPY:
 9622                            2471             SUB_START
 9623 00001434 4F22                   M           STS.L   PR,@-R15                ;[必要]
 9624                                 M   ;;;;;;; ADD     #-4,R15                 ;[不要?]
 9625 00001436 9003              2472             MOV.W   #H'FFFFFFFF,R0
 9626 00001438 D902              2473             MOV.L   #_VUP_DATA_AREA_CPUB,R9                 ; ﾌﾗｯｼｭROMﾃﾞｰﾀ書込み先頭ｱﾄﾞﾚｽ
 9627 0000143A D403              2474             MOV.L   #_CPUA_PRO_SIZE/4,R4                    ; ﾌﾟﾛｸﾞﾗﾑ数(60000H/4)
 9628                            2475             M_BRA   _FROM_COPY_FF_LOOP
 9629 0000143C A02A                   M           BRA     _FROM_COPY_FF_LOOP
 9630 0000143E 0009                   M           NOP
 9631                            2476     
*** SuperH RISC engine ASSEMBLER V.7.01.02.000 ***    07/04/21 19:29:24                                                  PAGE    78
PROGRAM NAME =

 9632                                     ***** BEGIN-POOL *****
 9633 00001440 FFFF                       DATA FOR SOURCE-LINE 2472
 9634 00001442 0000                       ALIGNMENT CODE
 9635 00001444 AC400000                   DATA FOR SOURCE-LINE 2473
 9636 00001448 00018000                   DATA FOR SOURCE-LINE 2474
 9637                                     ***** END-POOL *****
 9638 0000144C                   2477     _FROM_CPUB_COPY:
 9639 0000144C                   2478     _FROM_CPUD_COPY:
 9640                            2479             SUB_START
 9641 0000144C 4F22                   M           STS.L   PR,@-R15                ;[必要]
 9642                                 M   ;;;;;;; ADD     #-4,R15                 ;[不要?]
 9643 0000144E 9003              2480             MOV.W   #H'FFFFFFFF,R0
 9644 00001450 D902              2481             MOV.L   #_VUP_DATA_AREA_CPUB,R9                 ; ﾌﾗｯｼｭROMﾃﾞｰﾀ書込み先頭ｱﾄﾞﾚｽ
 9645 00001452 D403              2482             MOV.L   #_CPUB_PRO_SIZE/4,R4                    ; ﾌﾟﾛｸﾞﾗﾑ数(60000H/4)
 9646                            2483             M_BRA   _FROM_COPY_FF_LOOP
 9647 00001454 A01E                   M           BRA     _FROM_COPY_FF_LOOP
 9648 00001456 0009                   M           NOP
 9649                            2484     
 9650                                     ***** BEGIN-POOL *****
 9651 00001458 FFFF                       DATA FOR SOURCE-LINE 2480
 9652 0000145A 0000                       ALIGNMENT CODE
 9653 0000145C AC400000                   DATA FOR SOURCE-LINE 2481
 9654 00001460 00028000                   DATA FOR SOURCE-LINE 2482
 9655                                     ***** END-POOL *****
 9656 00001464                   2485     _FROM_SYSA_COPY:
 9657 00001464                   2486     _FROM_SYSB_COPY:
 9658 00001464                   2487     _FROM_SYSD_COPY:
 9659                            2488             SUB_START
 9660 00001464 4F22                   M           STS.L   PR,@-R15                ;[必要]
 9661                                 M   ;;;;;;; ADD     #-4,R15                 ;[不要?]
 9662 00001466 9003              2489             MOV.W   #H'FFFFFFFF,R0
 9663 00001468 D902              2490             MOV.L   #_VUP_DATA_AREA_CPUB,R9                 ; ﾌﾗｯｼｭROMﾃﾞｰﾀ書込み先頭ｱﾄﾞﾚｽ
 9664 0000146A D403              2491             MOV.L   #_CB_SYS_SIZE/4,R4                      ; ﾌﾟﾛｸﾞﾗﾑ数(10000H/4)
 9665                            2492             M_BRA   _FROM_COPY_FF_LOOP
 9666 0000146C A012                   M           BRA     _FROM_COPY_FF_LOOP
 9667 0000146E 0009                   M           NOP
 9668                            2493     
 9669                            2494     ;/* V01  */
 9670                                     ***** BEGIN-POOL *****
 9671 00001470 FFFF                       DATA FOR SOURCE-LINE 2489
 9672 00001472 0000                       ALIGNMENT CODE
 9673 00001474 AC400000                   DATA FOR SOURCE-LINE 2490
 9674 00001478 00004000                   DATA FOR SOURCE-LINE 2491
 9675                                     ***** END-POOL *****
 9676 0000147C                   2495     _FROM_KATA_COPY:
 9677                            2496             SUB_START
 9678 0000147C 4F22                   M           STS.L   PR,@-R15                ;[必要]
 9679                                 M   ;;;;;;; ADD     #-4,R15                 ;[不要?]
 9680 0000147E 9003              2497             MOV.W   #H'FFFFFFFF,R0
 9681 00001480 D902              2498             MOV.L   #_VUP_DATA_AREA_CPUB,R9                 ; ﾌﾗｯｼｭROMﾃﾞｰﾀ書込み先頭ｱﾄﾞﾚｽ
 9682 00001482 D403              2499             MOV.L   #_100_KATA_SIZE/4,R4                    ; ﾌﾟﾛｸﾞﾗﾑ数(10000H/4)
 9683                            2500             M_BRA   _FROM_COPY_FF_LOOP
 9684 00001484 A006                   M           BRA     _FROM_COPY_FF_LOOP
 9685 00001486 0009                   M           NOP
 9686                            2501     
 9687                                     ***** BEGIN-POOL *****
 9688 00001488 FFFF                       DATA FOR SOURCE-LINE 2497
*** SuperH RISC engine ASSEMBLER V.7.01.02.000 ***    07/04/21 19:29:24                                                  PAGE    79
PROGRAM NAME =

 9689 0000148A 0000                       ALIGNMENT CODE
 9690 0000148C AC400000                   DATA FOR SOURCE-LINE 2498
 9691 00001490 00010000                   DATA FOR SOURCE-LINE 2499
 9692                                     ***** END-POOL *****
 9693 00001494                   2502     _FROM_COPY_FF_LOOP:
 9694 00001494 2902              2503             MOV.L   R0,@R9
 9695 00001496 0009              2504             NOP
 9696 00001498 0009              2505             NOP
 9697 0000149A 7904              2506             ADD     #4,R9
 9698 0000149C 4410              2507             DT      R4
 9699 0000149E 8BF9              2508             BF      _FROM_COPY_FF_LOOP
 9700                            2509     
 9701 000014A0 9102              2510             MOV.W   #0,R1                                   ; 全ｺﾋﾟｰ完了
 9702                            2511     
 9703                            2512             SUB_END
 9704                                 M   ;;;;;;; ADD     #4,R15                  ;[不要?]
 9705 000014A2 4F26                   M           LDS.L   @R15+,PR                ;[必要]
 9706                            2513             M_RTS
 9707 000014A4 000B                   M           RTS                             ;RTSの後ろの
 9708 000014A6 0009                   M           NOP                             ;@R15+,PRはﾀﾞﾒ
 9709                            2514     
 9710                            2515     
 9711                            2516     ;       **********************************************************************************
                                          ***
 9712                            2517     ;       *****                                                                           **
                                          ***
 9713                            2518     ;       *****                                                                           **
                                          ***
 9714                            2519     ;       *****   ＦＲＯＭ消去／書込み                                                    **
                                          ***
 9715                            2520     ;       *****                                                                           **
                                          ***
 9716                            2521     ;       *****                                                                           **
                                          ***
 9717                            2522     ;       **********************************************************************************
                                          ***
 9718                                     ***** BEGIN-POOL *****
 9719 000014A8 0000                       DATA FOR SOURCE-LINE 2510
 9720                                     ***** END-POOL *****
 9721 000014AA                   2523     _FROM_GAME_REWRITE:
 9722                            2524             SUB_START
 9723 000014AA 4F22                   M           STS.L   PR,@-R15                ;[必要]
 9724                                 M   ;;;;;;; ADD     #-4,R15                 ;[不要?]
 9725                            2525     
 9726 000014AC D603              2526             MOV.L   #_FROM_REWR_STR_FLG,R6
 9727 000014AE 6061              2527             MOV.W   @R6,R0
 9728 000014B0 2008              2528             TST     R0,R0                                   ; 書込み／消去スタート済み？
 9729 000014B2 8907              2529             BT      _FROM_GAME_RW100                        ; いいえ
 9730 000014B4 DD02              2530             MOV.L   #_from_top,R13
 9731                            2531             M_BRA   _FROM_REWR_COM_100                      ; はい
 9732 000014B6 A125                   M           BRA     _FROM_REWR_COM_100
 9733 000014B8 0009                   M           NOP
 9734                            2532     
 9735                                     ***** BEGIN-POOL *****
 9736 000014BA 0000                       ALIGNMENT CODE
 9737 000014BC 00000000                   DATA FOR SOURCE-LINE 2526
 9738 000014C0 00000000                   DATA FOR SOURCE-LINE 2530
*** SuperH RISC engine ASSEMBLER V.7.01.02.000 ***    07/04/21 19:29:24                                                  PAGE    80
PROGRAM NAME =

 9739                                     ***** END-POOL *****
 9740 000014C4                   2533     _FROM_GAME_RW100:
 9741 000014C4 D103              2534             MOV.L   #_GAM_TABLE2,R1                         ; R1 <- 画面ﾃｰﾌﾞﾙの先頭は、必ずｾｸﾀ
                                          の先頭ｱﾄﾞﾚｽ
 9742 000014C6 DB04              2535             MOV.L   #_GAM_TBL_SIZE3,R11                     ; 80000H
 9743 000014C8 3B1C              2536             ADD     R1,R11                                  ; R11 <- 画面ﾃｰﾌﾞﾙの最終ｱﾄﾞﾚｽ
 9744 000014CA D704              2537             MOV.L   #_FROM_SECT_TBL_GAM2_MC,R7              ; セクタテーブル
 9745                            2538     
 9746 000014CC DD04              2539             MOV.L   #_from_top,R13
 9747                            2540             M_BRA   _FROM_REWR_COM
 9748 000014CE A10D                   M           BRA     _FROM_REWR_COM
 9749 000014D0 0009                   M           NOP
 9750                            2541     ;       ---------------------------------------------------------------------------
 9751                            2542     
 9752                            2543     ;       ---------------------------------------------------------------------------
 9753                                     ***** BEGIN-POOL *****
 9754 000014D2 0000                       ALIGNMENT CODE
 9755 000014D4 00000000                   DATA FOR SOURCE-LINE 2534
 9756 000014D8 00080000                   DATA FOR SOURCE-LINE 2535
 9757 000014DC 00000000                   DATA FOR SOURCE-LINE 2537
 9758 000014E0 00000000                   DATA FOR SOURCE-LINE 2539
 9759                                     ***** END-POOL *****
 9760 000014E4                   2544     _FROM_SEND_REWRITE:
 9761                            2545             SUB_START
 9762 000014E4 4F22                   M           STS.L   PR,@-R15                ;[必要]
 9763                                 M   ;;;;;;; ADD     #-4,R15                 ;[不要?]
 9764 000014E6 D603              2546             MOV.L   #_FROM_REWR_STR_FLG,R6
 9765 000014E8 6061              2547             MOV.W   @R6,R0
 9766 000014EA 2008              2548             TST     R0,R0                                   ; 書込み／消去スタート済み？
 9767 000014EC 8906              2549             BT      _FROM_SEND_RW100                        ; いいえ
 9768 000014EE DD02              2550             MOV.L   #_from_top,R13
 9769                            2551             M_BRA   _FROM_REWR_COM_100                      ; はい
 9770 000014F0 A108                   M           BRA     _FROM_REWR_COM_100
 9771 000014F2 0009                   M           NOP
 9772                            2552     
 9773                                     ***** BEGIN-POOL *****
 9774 000014F4 00000000                   DATA FOR SOURCE-LINE 2546
 9775 000014F8 00000000                   DATA FOR SOURCE-LINE 2550
 9776                                     ***** END-POOL *****
 9777 000014FC                   2553     _FROM_SEND_RW100:
 9778 000014FC D103              2554             MOV.L   #_CB_TABLEX,R1                          ; R1 <- ｾﾝｻﾃｰﾌﾞﾙの先頭は、必ずｾｸﾀ
                                          の先頭ｱﾄﾞﾚｽ
 9779 000014FE DB04              2555             MOV.L   #_CB_TBL_SIZE,R11                       ; 40000H
 9780 00001500 3B1C              2556             ADD     R1,R11                                  ; R11 <- 画面ﾃｰﾌﾞﾙの最終ｱﾄﾞﾚｽ+1
 9781 00001502 D704              2557             MOV.L   #_FROM_SECT_TBL_SENB_MC,R7              ; セクタテーブル
 9782 00001504 DD04              2558             MOV.L   #_from_top,R13
 9783                            2559             M_BRA   _FROM_REWR_COM
 9784 00001506 A0F1                   M           BRA     _FROM_REWR_COM
 9785 00001508 0009                   M           NOP
 9786                            2560     ;       ---------------------------------------------------------------------------
 9787                            2561     
 9788                            2562     ;       ---------------------------------------------------------------------------
 9789                                     ***** BEGIN-POOL *****
 9790 0000150A 0000                       ALIGNMENT CODE
 9791 0000150C 00000000                   DATA FOR SOURCE-LINE 2554
 9792 00001510 00040000                   DATA FOR SOURCE-LINE 2555
 9793 00001514 00000000                   DATA FOR SOURCE-LINE 2557
*** SuperH RISC engine ASSEMBLER V.7.01.02.000 ***    07/04/21 19:29:24                                                  PAGE    81
PROGRAM NAME =

 9794 00001518 00000000                   DATA FOR SOURCE-LINE 2558
 9795                                     ***** END-POOL *****
 9796 0000151C                   2563     _FROM_SYSD_REWRITE:
 9797                            2564             SUB_START
 9798 0000151C 4F22                   M           STS.L   PR,@-R15                ;[必要]
 9799                                 M   ;;;;;;; ADD     #-4,R15                 ;[不要?]
 9800 0000151E D603              2565             MOV.L   #_FROM_REWR_STR_FLG,R6
 9801 00001520 6061              2566             MOV.W   @R6,R0
 9802 00001522 2008              2567             TST     R0,R0                                   ; 書込み／消去スタート済み？
 9803 00001524 8906              2568             BT      _FROM_SYSD_RW100                        ; いいえ
 9804 00001526 DD02              2569             MOV.L   #_from_top,R13
 9805                            2570             M_BRA   _FROM_REWR_COM_100                      ; はい
 9806 00001528 A0EC                   M           BRA     _FROM_REWR_COM_100
 9807 0000152A 0009                   M           NOP
 9808                            2571     
 9809                                     ***** BEGIN-POOL *****
 9810 0000152C 00000000                   DATA FOR SOURCE-LINE 2565
 9811 00001530 00000000                   DATA FOR SOURCE-LINE 2569
 9812                                     ***** END-POOL *****
 9813 00001534                   2572     _FROM_SYSD_RW100:
 9814 00001534 D103              2573             MOV.L   #_CBSYS_TOP,R1                          ; R1 <- ﾃｰﾌﾞﾙの先頭は、必ずｾｸﾀの先
                                          頭ｱﾄﾞﾚｽ
 9815 00001536 DB04              2574             MOV.L   #_CB_SYS_SIZE,R11                       ; 10000H
 9816 00001538 3B1C              2575             ADD     R1,R11                                  ; R11 <- 画面ﾃｰﾌﾞﾙの最終ｱﾄﾞﾚｽ+1
 9817 0000153A D704              2576             MOV.L   #_FROM_SECT_TBL_SYSB_MC,R7              ; シスパラテーブル
 9818 0000153C DD04              2577             MOV.L   #_from_top,R13
 9819                            2578             M_BRA   _FROM_REWR_COM
 9820 0000153E A0D5                   M           BRA     _FROM_REWR_COM
 9821 00001540 0009                   M           NOP
 9822                            2579     ;       ---------------------------------------------------------------------------
 9823                            2580     
 9824                            2581     ;       ---------------------------------------------------------------------------
 9825                            2582     ;/* V01l */
 9826                                     ***** BEGIN-POOL *****
 9827 00001542 0000                       ALIGNMENT CODE
 9828 00001544 00000000                   DATA FOR SOURCE-LINE 2573
 9829 00001548 00010000                   DATA FOR SOURCE-LINE 2574
 9830 0000154C 00000000                   DATA FOR SOURCE-LINE 2576
 9831 00001550 00000000                   DATA FOR SOURCE-LINE 2577
 9832                                     ***** END-POOL *****
 9833 00001554                   2583     _FROM_GAIZ_REWRITE:
 9834                            2584             SUB_START
 9835 00001554 4F22                   M           STS.L   PR,@-R15                ;[必要]
 9836                                 M   ;;;;;;; ADD     #-4,R15                 ;[不要?]
 9837 00001556 D603              2585             MOV.L   #_FROM_REWR_STR_FLG,R6
 9838 00001558 6061              2586             MOV.W   @R6,R0
 9839 0000155A 2008              2587             TST     R0,R0                                   ; 書込み／消去スタート済み？
 9840 0000155C 8906              2588             BT      _FROM_GAIZ_RW100                        ; いいえ
 9841 0000155E DD02              2589             MOV.L   #_from_top,R13
 9842                            2590             M_BRA   _FROM_REWR_COM_100                      ; はい
 9843 00001560 A0D0                   M           BRA     _FROM_REWR_COM_100
 9844 00001562 0009                   M           NOP
 9845                            2591     
 9846                                     ***** BEGIN-POOL *****
 9847 00001564 00000000                   DATA FOR SOURCE-LINE 2585
 9848 00001568 00000000                   DATA FOR SOURCE-LINE 2589
 9849                                     ***** END-POOL *****
*** SuperH RISC engine ASSEMBLER V.7.01.02.000 ***    07/04/21 19:29:24                                                  PAGE    82
PROGRAM NAME =

 9850 0000156C                   2592     _FROM_GAIZ_RW100:
 9851 0000156C D103              2593             MOV.L   #_GAIZI_FROM_TOP,R1                     ; R1 <- 画面ﾃｰﾌﾞﾙの先頭は、必ずｾｸﾀ
                                          の先頭ｱﾄﾞﾚｽ
 9852 0000156E DB04              2594             MOV.L   #_GAIZI_FROM_SIZE,R11                   ; 30000H
 9853 00001570 3B1C              2595             ADD     R1,R11                                  ; R11 <- 画面ﾃｰﾌﾞﾙの最終ｱﾄﾞﾚｽ
 9854 00001572 D704              2596             MOV.L   #_FROM_SECT_TBL_GAIZ_MC,R7              ; セクタテーブル
 9855 00001574 DD04              2597             MOV.L   #_from_top,R13
 9856                            2598             M_BRA   _FROM_REWR_COM
 9857 00001576 A0B9                   M           BRA     _FROM_REWR_COM
 9858 00001578 0009                   M           NOP
 9859                            2599     ;       ---------------------------------------------------------------------------
 9860                            2600     
 9861                            2601     ;       ---------------------------------------------------------------------------
 9862                                     ***** BEGIN-POOL *****
 9863 0000157A 0000                       ALIGNMENT CODE
 9864 0000157C A0280000                   DATA FOR SOURCE-LINE 2593
 9865 00001580 00030000                   DATA FOR SOURCE-LINE 2594
 9866 00001584 00000000                   DATA FOR SOURCE-LINE 2596
 9867 00001588 00000000                   DATA FOR SOURCE-LINE 2597
 9868                                     ***** END-POOL *****
 9869 0000158C                   2602     _FROM_CHAR_REWRITE:
 9870                            2603             SUB_START
 9871 0000158C 4F22                   M           STS.L   PR,@-R15                ;[必要]
 9872                                 M   ;;;;;;; ADD     #-4,R15                 ;[不要?]
 9873 0000158E D603              2604             MOV.L   #_FROM_REWR_STR_FLG,R6
 9874 00001590 6061              2605             MOV.W   @R6,R0
 9875 00001592 2008              2606             TST     R0,R0                                   ; 書込み／消去スタート済み？
 9876 00001594 8906              2607             BT      _FROM_CHAR_RW100                        ; いいえ
 9877 00001596 DD02              2608             MOV.L   #_from_top,R13
 9878                            2609             M_BRA   _FROM_REWR_COM_100                      ; はい
 9879 00001598 A0B4                   M           BRA     _FROM_REWR_COM_100
 9880 0000159A 0009                   M           NOP
 9881                            2610     
 9882                                     ***** BEGIN-POOL *****
 9883 0000159C 00000000                   DATA FOR SOURCE-LINE 2604
 9884 000015A0 00000000                   DATA FOR SOURCE-LINE 2608
 9885                                     ***** END-POOL *****
 9886 000015A4                   2611     _FROM_CHAR_RW100:
 9887 000015A4 D103              2612             MOV.L   #_CHAR_ROM_TOP,R1                       ; R1 <- 画面ﾃｰﾌﾞﾙの先頭は、必ずｾｸﾀ
                                          の先頭ｱﾄﾞﾚｽ
 9888 000015A6 DB04              2613             MOV.L   #_CHAR_ROM_SIZE,R11                     ; 30000H
 9889 000015A8 3B1C              2614             ADD     R1,R11                                  ; R11 <- 画面ﾃｰﾌﾞﾙの最終ｱﾄﾞﾚｽ
 9890 000015AA D704              2615             MOV.L   #_FROM_SECT_TBL_CHAR_MC,R7              ; セクタテーブル
 9891 000015AC DD04              2616             MOV.L   #_from_top,R13
 9892                            2617             M_BRA   _FROM_REWR_COM
 9893 000015AE A09D                   M           BRA     _FROM_REWR_COM
 9894 000015B0 0009                   M           NOP
 9895                            2618     ;       ---------------------------------------------------------------------------
 9896                            2619     
 9897                            2620     ;       ---------------------------------------------------------------------------
 9898                            2621     ;/* V01  */
 9899                                     ***** BEGIN-POOL *****
 9900 000015B2 0000                       ALIGNMENT CODE
 9901 000015B4 A0300000                   DATA FOR SOURCE-LINE 2612
 9902 000015B8 00040000                   DATA FOR SOURCE-LINE 2613
 9903 000015BC 00000000                   DATA FOR SOURCE-LINE 2615
 9904 000015C0 00000000                   DATA FOR SOURCE-LINE 2616
*** SuperH RISC engine ASSEMBLER V.7.01.02.000 ***    07/04/21 19:29:24                                                  PAGE    83
PROGRAM NAME =

 9905                                     ***** END-POOL *****
 9906 000015C4                   2622     _FROM_KATA_REWRITE:
 9907                            2623             SUB_START
 9908 000015C4 4F22                   M           STS.L   PR,@-R15                ;[必要]
 9909                                 M   ;;;;;;; ADD     #-4,R15                 ;[不要?]
 9910 000015C6 D603              2624             MOV.L   #_FROM_REWR_STR_FLG,R6
 9911 000015C8 6061              2625             MOV.W   @R6,R0
 9912 000015CA 2008              2626             TST     R0,R0                                   ; 書込み／消去スタート済み？
 9913 000015CC 8906              2627             BT      _FROM_KATA_RW100                        ; いいえ
 9914 000015CE DD02              2628             MOV.L   #_from_top,R13
 9915                            2629             M_BRA   _FROM_REWR_COM_100                      ; はい
 9916 000015D0 A098                   M           BRA     _FROM_REWR_COM_100
 9917 000015D2 0009                   M           NOP
 9918                            2630     
 9919                                     ***** BEGIN-POOL *****
 9920 000015D4 00000000                   DATA FOR SOURCE-LINE 2624
 9921 000015D8 00000000                   DATA FOR SOURCE-LINE 2628
 9922                                     ***** END-POOL *****
 9923 000015DC                   2631     _FROM_KATA_RW100:
 9924 000015DC D103              2632             MOV.L   #_100_KATA_TOP,R1                       ; R1 <- ﾃｰﾌﾞﾙの先頭は、必ずｾｸﾀの先
                                          頭ｱﾄﾞﾚｽ
 9925 000015DE DB04              2633             MOV.L   #_100_KATA_SIZE,R11                     ; 40000H
 9926 000015E0 3B1C              2634             ADD     R1,R11                                  ; 最終ｱﾄﾞﾚｽ+1
 9927 000015E2 D704              2635             MOV.L   #_FROM_SECT_TBL_KATA_MC,R7                      ;
 9928 000015E4 DD04              2636             MOV.L   #_from_top,R13
 9929                            2637             M_BRA   _FROM_REWR_COM
 9930 000015E6 A081                   M           BRA     _FROM_REWR_COM
 9931 000015E8 0009                   M           NOP
 9932                            2638     ;       ---------------------------------------------------------------------------
 9933                            2639     
 9934                            2640     ;       ---------------------------------------------------------------------------
 9935                            2641     ;/* SIT4-MC */
 9936                                     ***** BEGIN-POOL *****
 9937 000015EA 0000                       ALIGNMENT CODE
 9938 000015EC A0240000                   DATA FOR SOURCE-LINE 2632
 9939 000015F0 00040000                   DATA FOR SOURCE-LINE 2633
 9940 000015F4 00000000                   DATA FOR SOURCE-LINE 2635
 9941 000015F8 00000000                   DATA FOR SOURCE-LINE 2636
 9942                                     ***** END-POOL *****
 9943 000015FC                   2642     _FROM_CPUD_REWRITE:
 9944                            2643             SUB_START
 9945 000015FC 4F22                   M           STS.L   PR,@-R15                ;[必要]
 9946                                 M   ;;;;;;; ADD     #-4,R15                 ;[不要?]
 9947                            2644     
 9948 000015FE D603              2645             MOV.L   #_FROM_REWR_STR_FLG,R6
 9949 00001600 6061              2646             MOV.W   @R6,R0
 9950 00001602 2008              2647             TST     R0,R0                                   ; 書込み／消去スタート済み？
 9951 00001604 8906              2648             BT      _FROM_CPUB4_RW100                       ; いいえ
 9952                            2649     
 9953                            2650             .AIF    0 EQ 0
 9954 00001606 DD02              2651 C           MOV.L   #H'A0000000,R13
 9955                            2652             .AELSE
 9956                            2653             MOV.L   #H'B0000000,R13
 9957                            2654             .AENDI
 9958                            2655             M_BRA   _FROM_REWR_COM_100                      ; はい
 9959 00001608 A07C                   M           BRA     _FROM_REWR_COM_100
 9960 0000160A 0009                   M           NOP
*** SuperH RISC engine ASSEMBLER V.7.01.02.000 ***    07/04/21 19:29:24                                                  PAGE    84
PROGRAM NAME =

 9961                            2656     
 9962                                     ***** BEGIN-POOL *****
 9963 0000160C 00000000                   DATA FOR SOURCE-LINE 2645
 9964 00001610 A0000000                   DATA FOR SOURCE-LINE 2651
 9965                                     ***** END-POOL *****
 9966 00001614                   2657     _FROM_CPUB4_RW100:
 9967                            2658     ;       -------------------------------- 2006/12/26(INS) V05 {
 9968                            2659     ;2016-04-16 koma(ｻﾑﾁｪｯｸしない)  FAR_JSR #_VUP_PROG_SUM_CHK,R11                  ; ﾊﾞｰｼﾞｮﾝU
                                          PﾌﾟﾛｸﾞﾗﾑのSUMﾁｪｯｸ
 9969 00001614 DB03              2660             MOV.L   #_VUP_PRG_NG_DAT,R11
 9970 00001616 61B1              2661             MOV.W   @R11,R1
 9971 00001618 2118              2662             TST     R1,R1                                   ; ﾊﾞｰｼﾞｮﾝUPﾌﾟﾛｸﾞﾗﾑのSUM異常ある？
 9972 0000161A 8905              2663             BT      _FROM_CPUB4_RW140                       ; いいえ
 9973 0000161C 9101              2664             MOV.W   #H'FF,R1                                ; エラー有り
 9974                            2665             M_BRA   _FROM_REWR_EXT
 9975 0000161E A155                   M           BRA     _FROM_REWR_EXT
 9976 00001620 0009                   M           NOP
 9977                                     ***** BEGIN-POOL *****
 9978 00001622 00FF                       DATA FOR SOURCE-LINE 2664
 9979 00001624 00000000                   DATA FOR SOURCE-LINE 2660
 9980                                     ***** END-POOL *****
 9981 00001628                   2666     _FROM_CPUB4_RW140:
 9982                            2667     ;       -------------------------------- }
 9983                            2668     
 9984                            2669             .AIF    0 EQ 0
 9985 00001628 D103              2670 C           MOV.L   #H'A0000000,R1                          ; R1 <-
 9986 0000162A DB04              2671 C           MOV.L   #_CPUB_PRO_SIZE,R11                     ; 80000H
 9987 0000162C 3B1C              2672 C           ADD     R1,R11                                  ; R11 <- 画面ﾃｰﾌﾞﾙの最終ｱﾄﾞﾚｽ
                                          540000H
 9988 0000162E D704              2673 C           MOV.L   #_FROMSYS_SECT_TBL,R7                   ; セクタテーブル
 9989 00001630 DD01              2674 C           MOV.L   #H'A0000000,R13
 9990                            2675             .AELSE
 9991                            2676             MOV.L   #H'B0000000,R1                          ; R1 <-
 9992                            2677             MOV.L   #_CPUB_PRO_SIZE,R11                     ; 80000H
 9993                            2678             ADD     R1,R11                                  ; R11 <- 画面ﾃｰﾌﾞﾙの最終ｱﾄﾞﾚｽ
                                          540000H
 9994                            2679             MOV.L   #_FROMSYSEP_SECT_TBL,R7                 ; セクタテーブル
 9995                            2680             MOV.L   #H'B0000000,R13
 9996                            2681             .AENDI
 9997                            2682             M_BRA   _FROM_REWR_COM
 9998 00001632 A05B                   M           BRA     _FROM_REWR_COM
 9999 00001634 0009                   M           NOP
10000                            2683     ;       ---------------------------------------------------------------------------
10001                            2684     
10002                            2685     ;       ---------------------------------------------------------------------------
10003                            2686     ;/* SIT4-MC  2014/04/17 */
10004                                     ***** BEGIN-POOL *****
10005 00001636 0000                       ALIGNMENT CODE
10006 00001638 A0000000                   DATA FOR SOURCE-LINE 2670,2674
10007 0000163C 000A0000                   DATA FOR SOURCE-LINE 2671
10008 00001640 00000000                   DATA FOR SOURCE-LINE 2673
10009                                     ***** END-POOL *****
10010 00001644                   2687     _FROM_KAT2_REWRITE:
10011                            2688             SUB_START
10012 00001644 4F22                   M           STS.L   PR,@-R15                ;[必要]
10013                                 M   ;;;;;;; ADD     #-4,R15                 ;[不要?]
10014 00001646 D603              2689             MOV.L   #_FROM_REWR_STR_FLG,R6
*** SuperH RISC engine ASSEMBLER V.7.01.02.000 ***    07/04/21 19:29:24                                                  PAGE    85
PROGRAM NAME =

10015 00001648 6061              2690             MOV.W   @R6,R0
10016 0000164A 2008              2691             TST     R0,R0                                   ; 書込み／消去スタート済み？
10017 0000164C 8906              2692             BT      _FROM_KAT2_RW100                        ; いいえ
10018 0000164E DD02              2693             MOV.L   #_from_top,R13
10019                            2694             M_BRA   _FROM_REWR_COM_100                      ; はい
10020 00001650 A058                   M           BRA     _FROM_REWR_COM_100
10021 00001652 0009                   M           NOP
10022                            2695     
10023                                     ***** BEGIN-POOL *****
10024 00001654 00000000                   DATA FOR SOURCE-LINE 2689
10025 00001658 00000000                   DATA FOR SOURCE-LINE 2693
10026                                     ***** END-POOL *****
10027 0000165C                   2696     _FROM_KAT2_RW100:
10028 0000165C D103              2697             MOV.L   #_200_KATA_TOP,R1                       ; R1 <- ﾃｰﾌﾞﾙの先頭は、必ずｾｸﾀの先
                                          頭ｱﾄﾞﾚｽ
10029 0000165E DB04              2698             MOV.L   #_100_KATA_SIZE,R11                     ; 40000H
10030 00001660 3B1C              2699             ADD     R1,R11                                  ; 最終ｱﾄﾞﾚｽ+1
10031 00001662 D704              2700             MOV.L   #_FROM_SECT_TBL_KAT2_MC,R7                      ;
10032 00001664 DD04              2701             MOV.L   #_from_top,R13
10033                            2702             M_BRA   _FROM_REWR_COM
10034 00001666 A041                   M           BRA     _FROM_REWR_COM
10035 00001668 0009                   M           NOP
10036                            2703     ;       ---------------------------------------------------------------------------
10037                            2704     
10038                            2705     ;       ---------------------------------------------------------------------------
10039                            2706     ;/* SIT4-MC  2014/04/17 */
10040                                     ***** BEGIN-POOL *****
10041 0000166A 0000                       ALIGNMENT CODE
10042 0000166C A03C0000                   DATA FOR SOURCE-LINE 2697
10043 00001670 00040000                   DATA FOR SOURCE-LINE 2698
10044 00001674 00000000                   DATA FOR SOURCE-LINE 2700
10045 00001678 00000000                   DATA FOR SOURCE-LINE 2701
10046                                     ***** END-POOL *****
10047 0000167C                   2707     _FROM_KATS_REWRITE:
10048                            2708             SUB_START
10049 0000167C 4F22                   M           STS.L   PR,@-R15                ;[必要]
10050                                 M   ;;;;;;; ADD     #-4,R15                 ;[不要?]
10051 0000167E D603              2709             MOV.L   #_FROM_REWR_STR_FLG,R6
10052 00001680 6061              2710             MOV.W   @R6,R0
10053 00001682 2008              2711             TST     R0,R0                                   ; 書込み／消去スタート済み？
10054 00001684 8906              2712             BT      _FROM_KATS_RW100                        ; いいえ
10055 00001686 DD02              2713             MOV.L   #_from_top,R13
10056                            2714             M_BRA   _FROM_REWR_COM_100                      ; はい
10057 00001688 A03C                   M           BRA     _FROM_REWR_COM_100
10058 0000168A 0009                   M           NOP
10059                            2715     
10060                                     ***** BEGIN-POOL *****
10061 0000168C 00000000                   DATA FOR SOURCE-LINE 2709
10062 00001690 00000000                   DATA FOR SOURCE-LINE 2713
10063                                     ***** END-POOL *****
10064 00001694                   2716     _FROM_KATS_RW100:
10065 00001694 D103              2717             MOV.L   #_SMP_KATA_TOP,R1                       ; R1 <- ﾃｰﾌﾞﾙの先頭は、必ずｾｸﾀの先
                                          頭ｱﾄﾞﾚｽ
10066 00001696 DB04              2718             MOV.L   #_SMP_KATA_SIZE,R11                     ; 40000H
10067 00001698 3B1C              2719             ADD     R1,R11                                  ; 最終ｱﾄﾞﾚｽ+1
10068 0000169A D704              2720             MOV.L   #_FROM_SECT_TBL_KATS_MC,R7                      ;
10069 0000169C DD04              2721             MOV.L   #_from_top,R13
*** SuperH RISC engine ASSEMBLER V.7.01.02.000 ***    07/04/21 19:29:24                                                  PAGE    86
PROGRAM NAME =

10070                            2722             M_BRA   _FROM_REWR_COM
10071 0000169E A025                   M           BRA     _FROM_REWR_COM
10072 000016A0 0009                   M           NOP
10073                            2723     ;       ---------------------------------------------------------------------------
10074                            2724     
10075                            2725     ;       ---------------------------------------------------------------------------
10076                            2726     ;/* SIT4-MC  2015/01/16 */
10077                                     ***** BEGIN-POOL *****
10078 000016A2 0000                       ALIGNMENT CODE
10079 000016A4 A03F0000                   DATA FOR SOURCE-LINE 2717
10080 000016A8 00010000                   DATA FOR SOURCE-LINE 2718
10081 000016AC 00000000                   DATA FOR SOURCE-LINE 2720
10082 000016B0 00000000                   DATA FOR SOURCE-LINE 2721
10083                                     ***** END-POOL *****
10084 000016B4                   2727     _FROM_SEQD_REWRITE:
10085                            2728             SUB_START
10086 000016B4 4F22                   M           STS.L   PR,@-R15                ;[必要]
10087                                 M   ;;;;;;; ADD     #-4,R15                 ;[不要?]
10088                            2729     
10089 000016B6 D603              2730             MOV.L   #_FROM_REWR_STR_FLG,R6
10090 000016B8 6061              2731             MOV.W   @R6,R0
10091 000016BA 2008              2732             TST     R0,R0                                   ; 書込み／消去スタート済み？
10092 000016BC 8906              2733             BT      _FROM_SEQD_RW100                        ; いいえ
10093 000016BE DD02              2734             MOV.L   #_from_top,R13
10094                            2735             M_BRA   _FROM_REWR_COM_100                      ; はい
10095 000016C0 A020                   M           BRA     _FROM_REWR_COM_100
10096 000016C2 0009                   M           NOP
10097                            2736     
10098                                     ***** BEGIN-POOL *****
10099 000016C4 00000000                   DATA FOR SOURCE-LINE 2730
10100 000016C8 00000000                   DATA FOR SOURCE-LINE 2734
10101                                     ***** END-POOL *****
10102 000016CC                   2737     _FROM_SEQD_RW100:
10103 000016CC D103              2738             MOV.L   #_SEQ_COM1_TOP,R1                       ; R1 <- シーケンスの先頭は、必ずｾｸ
                                          ﾀの先頭ｱﾄﾞﾚｽ
10104 000016CE DB04              2739             MOV.L   #_SEQ_PRO_SIZE2,R11                     ; 30000H
10105 000016D0 3B1C              2740             ADD     R1,R11                                  ; R11 <- 画面ﾃｰﾌﾞﾙの最終ｱﾄﾞﾚｽ
10106 000016D2 D704              2741             MOV.L   #_FROM_SECT_TBL_SEQD_MC,R7              ; セクタテーブル
10107                            2742     
10108 000016D4 DD04              2743             MOV.L   #_from_top,R13
10109                            2744             M_BRA   _FROM_REWR_COM
10110 000016D6 A009                   M           BRA     _FROM_REWR_COM
10111 000016D8 0009                   M           NOP
10112                            2745     ;       ---------------------------------------------------------------------------
10113                            2746     
10114                            2747     ;       ---------------------------------------------------------------------------
10115                                     ***** BEGIN-POOL *****
10116 000016DA 0000                       ALIGNMENT CODE
10117 000016DC 00000000                   DATA FOR SOURCE-LINE 2738
10118 000016E0 00030000                   DATA FOR SOURCE-LINE 2739
10119 000016E4 00000000                   DATA FOR SOURCE-LINE 2741
10120 000016E8 00000000                   DATA FOR SOURCE-LINE 2743
10121                                     ***** END-POOL *****
10122 000016EC                   2748     _FROM_REWR_COM:
10123 000016EC D60F              2749             MOV.L   #_FROM_SCT_TOP_ADR,R6
10124 000016EE 2672              2750             MOV.L   R7,@R6                                  ; 先頭のセクタテーブル
10125 000016F0 D60F              2751             MOV.L   #_FROM_REWR_TOP_ADR,R6
*** SuperH RISC engine ASSEMBLER V.7.01.02.000 ***    07/04/21 19:29:24                                                  PAGE    87
PROGRAM NAME =

10126 000016F2 2612              2752             MOV.L   R1,@R6                                  ; 書込み／消去先頭アドレス格納
10127 000016F4 D60F              2753             MOV.L   #_FROM_REWR_END_ADR,R6
10128 000016F6 26B2              2754             MOV.L   R11,@R6                                 ; 書込み／消去最終アドレス格納
10129 000016F8 D90F              2755             MOV.L   #_VUP_DATA_AREA_CPUB,R9
10130 000016FA D610              2756             MOV.L   #_VUP_DATA_AREA_ADR,R6
10131 000016FC 2692              2757             MOV.L   R9,@R6                                  ; 転送元先頭ｱﾄﾞﾚｽ
10132                            2758     
10133 000016FE D610              2759             MOV.L   #_FROM_REWR_STR_FLG,R6
10134 00001700 9013              2760             MOV.W   #BIT0,R0
10135 00001702 2601              2761             MOV.W   R0,@R6                                  ; 書込み／消去スタートＯＮ！
10136                            2762     
10137 00001704                   2763     _FROM_REWR_COM_100:
10138 00001704 D60E              2764             MOV.L   #_FROM_REWR_STR_FLG,R6
10139 00001706 6061              2765             MOV.W   @R6,R0
10140 00001708 C802              2766             TST     #BIT1,R0                                ; 消去済み？
10141 0000170A 8B1F              2767             BF      _FROM_REWR_COM_200                      ; はい
10142                            2768     
10143                            2769     ;       ---------------------------------------------------------------------
10144                            2770     ;       -----   ｾｸﾀnの消去                                              -----
10145                            2771     ;       ---------------------------------------------------------------------
10146 0000170C D608              2772             MOV.L   #_FROM_REWR_TOP_ADR,R6
10147 0000170E 6862              2773             MOV.L   @R6,R8                                  ; 書込み／消去セクタ先頭アドレス格
                                          納
10148                            2774     ;SIT-4  MOV.L   #_from_top,R13
10149                            2775     
10150                            2776             FAR_JSR #_FROM_ERASE_CMND,R10                   ; FROM消去ｺﾏﾝﾄﾞ発行
10151 00001710 DA0C                   M           MOV.L   #_FROM_ERASE_CMND,R10           ;ﾃｰﾌﾞﾙｱﾄﾞﾚｽの内容をREGへ
10152 00001712 4A0B                   M           JSR     @R10                    ;
10153 00001714 0009                   M           NOP                                     ;
10154                            2777                                                             ; In : R13<-_from_top  R0:KEEP
10155                            2778                                                             ; In : R8 <- 消去するｾｸﾀの先頭ｱﾄﾞﾚ
                                          ｽ
10156                            2779             FAR_JSR #_FROM_ERASE_POLLINKG,R10               ; 消去時のﾎﾟｰﾘﾝｸﾞ
10157 00001716 DA0C                   M           MOV.L   #_FROM_ERASE_POLLINKG,R10               ;ﾃｰﾌﾞﾙｱﾄﾞﾚｽの内容をREGへ
10158 00001718 4A0B                   M           JSR     @R10                    ;
10159 0000171A 0009                   M           NOP                                     ;
10160                            2780                                                             ; In : R8 <- 消去するｾｸﾀの先頭ｱﾄﾞﾚ
                                          ｽ
10161 0000171C D608              2781             MOV.L   #_FROM_REWR_STR_FLG,R6
10162 0000171E 6061              2782             MOV.W   @R6,R0
10163 00001720 CB02              2783             OR      #BIT1,R0
10164 00001722 2601              2784             MOV.W   R0,@R6
10165                            2785     
10166 00001724 9101              2786             MOV.W   #1,R1
10167                            2787             M_BRA   _FROM_REWR_EXT
10168 00001726 A0D1                   M           BRA     _FROM_REWR_EXT
10169 00001728 0009                   M           NOP
10170                            2788     ;       --------------------------------------------------------------------
10171                            2789     
10172                                     ***** BEGIN-POOL *****
10173 0000172A 0001                       DATA FOR SOURCE-LINE 2760,2786
10174 0000172C 00000000                   DATA FOR SOURCE-LINE 2749
10175 00001730 00000000                   DATA FOR SOURCE-LINE 2751,2772
10176 00001734 00000000                   DATA FOR SOURCE-LINE 2753
10177 00001738 AC400000                   DATA FOR SOURCE-LINE 2755
10178 0000173C 00000000                   DATA FOR SOURCE-LINE 2756
10179 00001740 00000000                   DATA FOR SOURCE-LINE 2759,2764,2781
*** SuperH RISC engine ASSEMBLER V.7.01.02.000 ***    07/04/21 19:29:24                                                  PAGE    88
PROGRAM NAME =

10180 00001744 00000000                   DATA FOR SOURCE-LINE 2776
10181 00001748 00000000                   DATA FOR SOURCE-LINE 2779
10182                                     ***** END-POOL *****
10183 0000174C                   2790     _FROM_REWR_COM_200:
10184 0000174C D613              2791             MOV.L   #_FROM_REWR_STR_FLG,R6
10185 0000174E 6061              2792             MOV.W   @R6,R0
10186 00001750 C804              2793             TST     #BIT2,R0                                ; 書込み済み？
10187 00001752 8B2F              2794             BF      _FROM_REWR_COM_300                      ; はい
10188                            2795     
10189                            2796     ;       ---------------------------------------------------------------------
10190                            2797     ;       -----   ｾｸﾀnの書込み                                            -----
10191                            2798     ;       ---------------------------------------------------------------------
10192 00001754 D612              2799             MOV.L   #_VUP_DATA_AREA_ADR,R6
10193 00001756 6962              2800             MOV.L   @R6,R9                                  ; 転送元先頭ｱﾄﾞﾚｽ
10194 00001758 D612              2801             MOV.L   #_FROM_REWR_TOP_ADR,R6
10195 0000175A 6862              2802             MOV.L   @R6,R8                                  ; 書込み／消去セクタ先頭アドレス格
                                          納
10196                            2803     ;SIT-4  MOV.L   #_from_top,R13
10197 0000175C                   2804     _FROM_REWR_250:
10198                            2805             FAR_JSR #_FROM_WRITE_CMND,R10                   ; FROM書込みｺﾏﾝﾄﾞ発行
10199 0000175C DA12                   M           MOV.L   #_FROM_WRITE_CMND,R10           ;ﾃｰﾌﾞﾙｱﾄﾞﾚｽの内容をREGへ
10200 0000175E 4A0B                   M           JSR     @R10                    ;
10201 00001760 0009                   M           NOP                                     ;
10202                            2806                                                             ; In:R13<-_from_top  R0:KEEP
10203 00001762 0009              2807             NOP
10204 00001764 0009              2808             NOP
10205 00001766 6095              2809             MOV.W   @R9+,R0
10206 00001768 0009              2810             NOP
10207 0000176A 0009              2811             NOP
10208 0000176C 0009              2812             NOP
10209 0000176E 0009              2813             NOP
10210 00001770 0009              2814             NOP
10211 00001772 2801              2815             MOV.W   R0,@R8
10212 00001774 0009              2816             NOP
10213 00001776 0009              2817             NOP
10214                            2818     
10215                            2819             FAR_JSR #_FROM_WRITE_POLLINKG,R10
10216 00001778 DA0C                   M           MOV.L   #_FROM_WRITE_POLLINKG,R10               ;ﾃｰﾌﾞﾙｱﾄﾞﾚｽの内容をREGへ
10217 0000177A 4A0B                   M           JSR     @R10                    ;
10218 0000177C 0009                   M           NOP                                     ;
10219                            2820     
10220 0000177E 7802              2821             ADD     #2,R8
10221                            2822     
10222 00001780 D60B              2823             MOV.L   #_FROM_SCT_TOP_ADR,R6
10223 00001782 6662              2824             MOV.L   @R6,R6                                  ; 書込み中の先頭のセクタテーブルア
                                          ドレス
10224 00001784 7604              2825             ADD     #4,R6
10225 00001786 6162              2826             MOV.L   @R6,R1                                  ; 次のﾌﾗｯｼｭROMｾｸﾀの先頭ｱﾄﾞﾚｽ
10226 00001788 3812              2827             CMP/HS  R1,R8                                   ; 次のｾｸﾀになった？
10227 0000178A 8BE7              2828             BF      _FROM_REWR_250                          ; いいえ
10228                            2829     
10229 0000178C D603              2830             MOV.L   #_FROM_REWR_STR_FLG,R6
10230 0000178E 6061              2831             MOV.W   @R6,R0
10231 00001790 CB04              2832             OR      #BIT2,R0
10232 00001792 2601              2833             MOV.W   R0,@R6
10233                            2834     
10234 00001794 9101              2835             MOV.W   #1,R1
*** SuperH RISC engine ASSEMBLER V.7.01.02.000 ***    07/04/21 19:29:24                                                  PAGE    89
PROGRAM NAME =

10235                            2836             M_BRA   _FROM_REWR_EXT
10236 00001796 A099                   M           BRA     _FROM_REWR_EXT
10237 00001798 0009                   M           NOP
10238                            2837     ;       ----------------------------------------------------------------------
10239                            2838     
10240                                     ***** BEGIN-POOL *****
10241 0000179A 0001                       DATA FOR SOURCE-LINE 2835
10242 0000179C 00000000                   DATA FOR SOURCE-LINE 2791,2830
10243 000017A0 00000000                   DATA FOR SOURCE-LINE 2799
10244 000017A4 00000000                   DATA FOR SOURCE-LINE 2801
10245 000017A8 00000000                   DATA FOR SOURCE-LINE 2805
10246 000017AC 00000000                   DATA FOR SOURCE-LINE 2819
10247 000017B0 00000000                   DATA FOR SOURCE-LINE 2823
10248                                     ***** END-POOL *****
10249 000017B4                   2839     _FROM_REWR_COM_300:
10250                            2840     ;       ---------------------------------------------------------------------
10251                            2841     ;       -----   ｾｸﾀnのﾍﾞﾘﾌｧｲ                                            -----
10252                            2842     ;       ---------------------------------------------------------------------
10253 000017B4 D611              2843             MOV.L   #_VUP_DATA_AREA_ADR,R6
10254 000017B6 6962              2844             MOV.L   @R6,R9                                  ; 転送元先頭ｱﾄﾞﾚｽ
10255 000017B8 D611              2845             MOV.L   #_FROM_REWR_TOP_ADR,R6
10256 000017BA 6862              2846             MOV.L   @R6,R8                                  ; 書込み／消去セクタ先頭アドレス格
                                          納
10257 000017BC                   2847     _FROM_REWR_400:
10258                            2848             _WDT_CLR                                        ; R0,R10 USED
10259                                 M           PUSH_REG1 R0
10260 000017BC 2F06                   M           MOV.L   R0,@-R15                ;PUSH=SP-4
10261                                 M                                           ;REG=>[SP]
10262                                 M                                           ;"-4" FF,FF,FF,FC
10263                                 M           PUSH_REG1 R10
10264 000017BE 2FA6                   M           MOV.L   R10,@-R15               ;PUSH=SP-4
10265                                 M                                           ;REG=>[SP]
10266                                 M                                           ;"-4" FF,FF,FF,FC
10267                                 M           PUSH_REG1 R14
10268 000017C0 2FE6                   M           MOV.L   R14,@-R15               ;PUSH=SP-4
10269                                 M                                           ;REG=>[SP]
10270                                 M                                           ;"-4" FF,FF,FF,FC
10271                                 M   
10272 000017C2 DA10                   M           MOV.L   #_PJDR,R10                              ;
10273 000017C4 60A0                   M           MOV.B   @R10,R0
10274 000017C6 CB10                   M           OR      #BIT4,R0
10275 000017C8 2A00                   M           MOV.B   R0,@R10
10276 000017CA C9EF                   M           AND     #NBIT4,R0
10277 000017CC 2A00                   M           MOV.B   R0,@R10
10278                                 M   
10279                                 M           ;====== 2006-10-19 SAITO 追加　WDTﾎﾟｰﾄ変更 ======
10280 000017CE DA0E                   M           MOV.L   #_IOGA2_CTRL_DAT1+_IOGA_P5,R10          ;
10281 000017D0 60A1                   M           MOV.W   @R10,R0                                 ;
10282 000017D2 9E10                   M           MOV.W   #BIT0,R14                               ;
10283 000017D4 20EB                   M           OR      R14,R0                                  ;
10284 000017D6 2A01                   M           MOV.W   R0,@R10                                 ; WORK
10285                                 M   
10286                                 M   ;;      MOV.L   #_IOGA2_CTRL_DAT1+_IOGA_P5,R10  ; WORK ADDRESS
10287                                 M   ;;      MOV.W   @R10,R0                                 ;
10288 000017D8 9E0E                   M           MOV.W   #_IO2B_P5EX,R14                         ;
10289 000017DA 20EA                   M           XOR     R14,R0                                  ;
10290 000017DC DA0B                   M           MOV.L   #_dio_top2+_IOGA_PDR5,R10               ; IOGA PF ADDRESS
*** SuperH RISC engine ASSEMBLER V.7.01.02.000 ***    07/04/21 19:29:24                                                  PAGE    90
PROGRAM NAME =

10291 000017DE 2A01                   M           MOV.W   R0,@R10                                 ; 実出力SET
10292                                 M   
10293 000017E0 DA09                   M           MOV.L   #_IOGA2_CTRL_DAT1+_IOGA_P5,R10          ;
10294 000017E2 60A1                   M           MOV.W   @R10,R0                                 ;
10295 000017E4 9E09                   M           MOV.W   #NBIT0,R14                              ;
10296 000017E6 20E9                   M           AND     R14,R0                                  ;
10297 000017E8 2A01                   M           MOV.W   R0,@R10                                 ; WORK
10298                                 M   
10299                                 M   ;;      MOV.L   #_IOGA2_CTRL_DAT1+_IOGA_P5,R10  ; WORK ADDRESS
10300                                 M   ;;      MOV.W   @R10,R0                                 ;
10301 000017EA 9E05                   M           MOV.W   #_IO2B_P5EX,R14                         ;
10302 000017EC 20EA                   M           XOR     R14,R0                                  ;
10303 000017EE DA07                   M           MOV.L   #_dio_top2+_IOGA_PDR5,R10               ; IOGA PF ADDRESS
10304 000017F0 2A01                   M           MOV.W   R0,@R10                                 ; 実出力SET
10305                                 M   
10306                                 M           M_BRA   AAA00005
10307 000017F2 A00D                   M           BRA     AAA00005
10308 000017F4 0009                   M           NOP
10309                                 M   ***** BEGIN-POOL *****
10310 000017F6 0001                   M   DATA FOR SOURCE-LINE 2848
10311 000017F8 0000                   M   DATA FOR SOURCE-LINE 2848,2848
10312 000017FA 00FE                   M   DATA FOR SOURCE-LINE 2848
10313 000017FC 00000000               M   DATA FOR SOURCE-LINE 2843
10314 00001800 00000000               M   DATA FOR SOURCE-LINE 2845
10315 00001804 00000000               M   DATA FOR SOURCE-LINE 2848
10316 00001808 00000000               M   DATA FOR SOURCE-LINE 2848,2848
10317 0000180C 00000000               M   DATA FOR SOURCE-LINE 2848,2848
10318                                 M   ***** END-POOL *****
10319 00001810                        M   AAA00005:
10320                                 M           POP_REG1 R14
10321                                 M                                   ; RE"+4" 00,00,00,04
10322 00001810 6EF6                   M           MOV.L   @R15+,R14        ;
10323                                 M           POP_REG1 R10
10324                                 M                                   ; RE"+4" 00,00,00,04
10325 00001812 6AF6                   M           MOV.L   @R15+,R10        ;
10326                                 M           POP_REG1 R0
10327                                 M                                   ; RE"+4" 00,00,00,04
10328 00001814 60F6                   M           MOV.L   @R15+,R0        ;
10329 00001816 0009              2849             NOP
10330 00001818 0009              2850             NOP
10331 0000181A 0009              2851             NOP
10332 0000181C 0009              2852             NOP
10333 0000181E 0009              2853             NOP
10334 00001820 6095              2854             MOV.W   @R9+,R0
10335 00001822 600D              2855             EXTU.W  R0,R0
10336 00001824 0009              2856             NOP
10337 00001826 0009              2857             NOP
10338 00001828 0009              2858             NOP
10339 0000182A 0009              2859             NOP
10340 0000182C 0009              2860             NOP
10341 0000182E 6185              2861             MOV.W   @R8+,R1
10342 00001830 611D              2862             EXTU.W  R1,R1
10343                            2863     
10344 00001832 3010              2864             CMP/EQ  R1,R0
10345 00001834 891A              2865             BT      _FROM_REWR_VEROK
10346                            2866     
10347                            2867     ;       -------------------------------- 2006/12/26(INS) V05 {
*** SuperH RISC engine ASSEMBLER V.7.01.02.000 ***    07/04/21 19:29:24                                                  PAGE    91
PROGRAM NAME =

10348 00001836 D60A              2868             MOV.L   #_VUP_PRG_RETRY_CNT,R6
10349 00001838 6061              2869             MOV.W   @R6,R0
10350 0000183A 7001              2870             ADD     #1,R0
10351 0000183C 2601              2871             MOV.W   R0,@R6
10352 0000183E 8803              2872             CMP/EQ  #3,R0
10353 00001840 8B02              2873             BF      _FROM_REWR_450
10354 00001842 900A              2874             MOV.W   #H'0082,R0                              ; 書き込みリトライオーバー
10355 00001844 D107              2875             MOV.L   #_VUP_PRG_NG_DAT,R1
10356 00001846 2101              2876             MOV.W   R0,@R1
10357 00001848                   2877     _FROM_REWR_450:
10358 00001848 D707              2878             MOV.L   #_FROM_REWR_STR_FLG,R7
10359 0000184A 6071              2879             MOV.W   @R7,R0
10360 0000184C 9106              2880             MOV.W   #(BIT2+BIT1),R1
10361 0000184E 6117              2881             NOT     R1,R1
10362 00001850 2019              2882             AND     R1,R0                                   ; 消去済み／書き込み済みフラグクリ
                                          ア
10363 00001852 2701              2883             MOV.W   R0,@R7
10364                            2884     ;       -------------------------------- }
10365                            2885     
10366 00001854 9103              2886             MOV.W   #H'FF,R1                                ; エラー有り
10367                            2887             M_BRA   _FROM_REWR_EXT
10368 00001856 A039                   M           BRA     _FROM_REWR_EXT
10369 00001858 0009                   M           NOP
10370                            2888     ;       -----------------------------------------------------------------------------
10371                            2889     
10372                                     ***** BEGIN-POOL *****
10373 0000185A 0082                       DATA FOR SOURCE-LINE 2874
10374 0000185C 0006                       DATA FOR SOURCE-LINE 2880
10375 0000185E 00FF                       DATA FOR SOURCE-LINE 2886
10376 00001860 00000000                   DATA FOR SOURCE-LINE 2868
10377 00001864 00000000                   DATA FOR SOURCE-LINE 2875
10378 00001868 00000000                   DATA FOR SOURCE-LINE 2878
10379                                     ***** END-POOL *****
10380 0000186C                   2890     _FROM_REWR_VEROK:
10381 0000186C D60B              2891             MOV.L   #_FROM_SCT_TOP_ADR,R6
10382 0000186E 6662              2892             MOV.L   @R6,R6                                  ; 書込み中の先頭のセクタテーブルア
                                          ドレス
10383 00001870 7604              2893             ADD     #4,R6
10384 00001872 6162              2894             MOV.L   @R6,R1                                  ; 次のﾌﾗｯｼｭROMｾｸﾀの先頭ｱﾄﾞﾚｽ
10385 00001874 3812              2895             CMP/HS  R1,R8                                   ; 次のｾｸﾀになった？
10386 00001876 8BA1              2896             BF      _FROM_REWR_400                          ; いいえ
10387                            2897     
10388 00001878 D708              2898             MOV.L   #_FROM_SCT_TOP_ADR,R7
10389 0000187A 2762              2899             MOV.L   R6,@R7                                  ; 書込み中の先頭のセクタテーブルア
                                          ドレス
10390 0000187C D708              2900             MOV.L   #_VUP_DATA_AREA_ADR,R7
10391 0000187E 2792              2901             MOV.L   R9,@R7                                  ; 転送元先頭ｱﾄﾞﾚｽ
10392 00001880 D708              2902             MOV.L   #_FROM_REWR_TOP_ADR,R7
10393 00001882 2782              2903             MOV.L   R8,@R7                                  ; 書込み／消去セクタ先頭アドレス格
                                          納
10394                            2904     
10395 00001884 6162              2905             MOV.L   @R6,R1                                  ; 次のﾌﾗｯｼｭROMｾｸﾀの先頭ｱﾄﾞﾚｽ
10396 00001886 D608              2906             MOV.L   #_FROM_REWR_END_ADR,R6
10397 00001888 6B62              2907             MOV.L   @R6,R11                                 ; 書込み最終ｱﾄﾞﾚｽ
10398 0000188A 31B2              2908             CMP/HS  R11,R1                                  ; このセクタは最後？
10399 0000188C 8B10              2909             BF      _FROM_REWR_500                          ; いいえ
10400                            2910     
*** SuperH RISC engine ASSEMBLER V.7.01.02.000 ***    07/04/21 19:29:24                                                  PAGE    92
PROGRAM NAME =

10401 0000188E D707              2911             MOV.L   #_FROM_REWR_STR_FLG,R7
10402 00001890 9003              2912             MOV.W   #0,R0
10403 00001892 2701              2913             MOV.W   R0,@R7
10404                            2914     
10405 00001894 9101              2915             MOV.W   #0,R1                                   ; 正常に全終了
10406                            2916             M_BRA   _FROM_REWR_EXT
10407 00001896 A019                   M           BRA     _FROM_REWR_EXT
10408 00001898 0009                   M           NOP
10409                            2917     
10410                                     ***** BEGIN-POOL *****
10411 0000189A 0000                       DATA FOR SOURCE-LINE 2912,2915
10412 0000189C 00000000                   DATA FOR SOURCE-LINE 2891,2898
10413 000018A0 00000000                   DATA FOR SOURCE-LINE 2900
10414 000018A4 00000000                   DATA FOR SOURCE-LINE 2902
10415 000018A8 00000000                   DATA FOR SOURCE-LINE 2906
10416 000018AC 00000000                   DATA FOR SOURCE-LINE 2911
10417                                     ***** END-POOL *****
10418 000018B0                   2918     _FROM_REWR_500:
10419 000018B0 D705              2919             MOV.L   #_FROM_REWR_STR_FLG,R7
10420 000018B2 6071              2920             MOV.W   @R7,R0
10421 000018B4 9105              2921             MOV.W   #(BIT2+BIT1),R1
10422 000018B6 6117              2922             NOT     R1,R1
10423 000018B8 2019              2923             AND     R1,R0                                   ; 消去済み／書き込み済みフラグクリ
                                          ア
10424 000018BA 2701              2924             MOV.W   R0,@R7
10425                            2925     
10426 000018BC 9102              2926             MOV.W   #1,R1                                   ; 正常に１セクタ終了
10427                            2927             M_BRA   _FROM_REWR_EXT
10428 000018BE A005                   M           BRA     _FROM_REWR_EXT
10429 000018C0 0009                   M           NOP
10430                            2928     
10431                                     ***** BEGIN-POOL *****
10432 000018C2 0006                       DATA FOR SOURCE-LINE 2921
10433 000018C4 0001                       DATA FOR SOURCE-LINE 2926
10434 000018C6 0000                       ALIGNMENT CODE
10435 000018C8 00000000                   DATA FOR SOURCE-LINE 2919
10436                                     ***** END-POOL *****
10437 000018CC                   2929     _FROM_REWR_EXT:
10438                            2930             SUB_END
10439                                 M   ;;;;;;; ADD     #4,R15                  ;[不要?]
10440 000018CC 4F26                   M           LDS.L   @R15+,PR                ;[必要]
10441                            2931             M_RTS
10442 000018CE 000B                   M           RTS                             ;RTSの後ろの
10443 000018D0 0009                   M           NOP                             ;@R15+,PRはﾀﾞﾒ
10444                            2932     
10445                            2933     
10446                            2934     ;       **********************************************************************************
                                          ***
10447                            2935     ;       *****                                                                           **
                                          ***
10448                            2936     ;       *****                                                                           **
                                          ***
10449                            2937     ;       *****   受信データのSUMチェック                                                 **
                                          ***
10450                            2938     ;       *****                                                                           **
                                          ***
10451                            2939     ;       *****   V05 (MAKE) 2006/12/26                                                   **
*** SuperH RISC engine ASSEMBLER V.7.01.02.000 ***    07/04/21 19:29:24                                                  PAGE    93
PROGRAM NAME =

                                          ***
10452                            2940     ;       *****                                                                           **
                                          ***
10453                            2941     ;       **********************************************************************************
                                          ***
10454                            2942             .IMPORT         _ROM_SUM_CODE;
10455                            2943             .IMPORT         _PV_DEB_WORD_WK11;
10456 000018D2                   2944     _VUP_PROG_SUM_CHK:
10457                            2945             SUB_START
10458 000018D2 4F22                   M           STS.L   PR,@-R15                ;[必要]
10459                                 M   ;;;;;;; ADD     #-4,R15                 ;[不要?]
10460                            2946             PUSH_ALL
10461                                 M           PUSH_REG1       R0      ;
10462 000018D4 2F06                   M           MOV.L   R0,@-R15                ;PUSH=SP-4
10463                                 M                                           ;REG=>[SP]
10464                                 M                                           ;"-4" FF,FF,FF,FC
10465                                 M           PUSH_REG1       R1      ;
10466 000018D6 2F16                   M           MOV.L   R1,@-R15                ;PUSH=SP-4
10467                                 M                                           ;REG=>[SP]
10468                                 M                                           ;"-4" FF,FF,FF,FC
10469                                 M           PUSH_REG1       R2      ;
10470 000018D8 2F26                   M           MOV.L   R2,@-R15                ;PUSH=SP-4
10471                                 M                                           ;REG=>[SP]
10472                                 M                                           ;"-4" FF,FF,FF,FC
10473                                 M           PUSH_REG1       R3      ;
10474 000018DA 2F36                   M           MOV.L   R3,@-R15                ;PUSH=SP-4
10475                                 M                                           ;REG=>[SP]
10476                                 M                                           ;"-4" FF,FF,FF,FC
10477                                 M           PUSH_REG1       R4      ;
10478 000018DC 2F46                   M           MOV.L   R4,@-R15                ;PUSH=SP-4
10479                                 M                                           ;REG=>[SP]
10480                                 M                                           ;"-4" FF,FF,FF,FC
10481                                 M           PUSH_REG1       R5      ;
10482 000018DE 2F56                   M           MOV.L   R5,@-R15                ;PUSH=SP-4
10483                                 M                                           ;REG=>[SP]
10484                                 M                                           ;"-4" FF,FF,FF,FC
10485                                 M           PUSH_REG1       R6      ;
10486 000018E0 2F66                   M           MOV.L   R6,@-R15                ;PUSH=SP-4
10487                                 M                                           ;REG=>[SP]
10488                                 M                                           ;"-4" FF,FF,FF,FC
10489                                 M           PUSH_REG1       R7      ;
10490 000018E2 2F76                   M           MOV.L   R7,@-R15                ;PUSH=SP-4
10491                                 M                                           ;REG=>[SP]
10492                                 M                                           ;"-4" FF,FF,FF,FC
10493                                 M           PUSH_REG1       R8      ;
10494 000018E4 2F86                   M           MOV.L   R8,@-R15                ;PUSH=SP-4
10495                                 M                                           ;REG=>[SP]
10496                                 M                                           ;"-4" FF,FF,FF,FC
10497                                 M           PUSH_REG1       R9      ;
10498 000018E6 2F96                   M           MOV.L   R9,@-R15                ;PUSH=SP-4
10499                                 M                                           ;REG=>[SP]
10500                                 M                                           ;"-4" FF,FF,FF,FC
10501                                 M           PUSH_REG1       R10     ;
10502 000018E8 2FA6                   M           MOV.L   R10,@-R15               ;PUSH=SP-4
10503                                 M                                           ;REG=>[SP]
10504                                 M                                           ;"-4" FF,FF,FF,FC
10505                                 M           PUSH_REG1       R11     ;
*** SuperH RISC engine ASSEMBLER V.7.01.02.000 ***    07/04/21 19:29:24                                                  PAGE    94
PROGRAM NAME =

10506 000018EA 2FB6                   M           MOV.L   R11,@-R15               ;PUSH=SP-4
10507                                 M                                           ;REG=>[SP]
10508                                 M                                           ;"-4" FF,FF,FF,FC
10509                                 M           PUSH_REG1       R12     ;
10510 000018EC 2FC6                   M           MOV.L   R12,@-R15               ;PUSH=SP-4
10511                                 M                                           ;REG=>[SP]
10512                                 M                                           ;"-4" FF,FF,FF,FC
10513                                 M           PUSH_REG1       R13     ;
10514 000018EE 2FD6                   M           MOV.L   R13,@-R15               ;PUSH=SP-4
10515                                 M                                           ;REG=>[SP]
10516                                 M                                           ;"-4" FF,FF,FF,FC
10517                                 M           PUSH_REG1       R14     ;
10518 000018F0 2FE6                   M           MOV.L   R14,@-R15               ;PUSH=SP-4
10519                                 M                                           ;REG=>[SP]
10520                                 M                                           ;"-4" FF,FF,FF,FC
10521                                 M           PUSH_MACHL              ;
10522 000018F2 4F02                   M           STS.L   MACH,@-R15
10523 000018F4 4F12                   M           STS.L   MACL,@-R15
10524                                 M           PUSH_SYS_REG    GBR     ;
10525 000018F6 4F13                   M           STC.L   GBR,@-R15
10526                                 M           .AIF    3 EQ 3
10527                                             .AELSE
10528                                             PUSH_FPU_ALL            ;2001-07-08
10529                                             .AENDI
10530                            2947     
10531 000018F8 D103              2948             MOV.L   #_SV_MACINE_SEL1,R1
10532 000018FA 6011              2949             MOV.W   @R1,R0
10533 000018FC 9203              2950             MOV.W   #_NON_SUM_CODE,R2
10534 000018FE 3020              2951             CMP/EQ  R2,R0                                   ; SUM CHECK無しｺｰﾄﾞ？
10535 00001900 8B04              2952             BF      _VUP_PROG_SUMCHK_010                    ; いいえ
10536                            2953             M_BRA   _VUP_PROG_SUMCHK_EXT                    ; はい
10537 00001902 A04F                   M           BRA     _VUP_PROG_SUMCHK_EXT
10538 00001904 0009                   M           NOP
10539                            2954     
10540                                     ***** BEGIN-POOL *****
10541 00001906 0395                       DATA FOR SOURCE-LINE 2950
10542 00001908 00000000                   DATA FOR SOURCE-LINE 2948
10543                                     ***** END-POOL *****
10544 0000190C                   2955     _VUP_PROG_SUMCHK_010:
10545 0000190C D917              2956             MOV.L   #_VUP_DATA_AREA_CPUB,R9                 ; ﾊﾞｰｼﾞｮﾝUPﾌﾟﾛｸﾞﾗﾑ格納領域先頭
10546 0000190E D818              2957             MOV.L   #_ROM_SUM_CODE,R8                       ;
10547                            2958     ;//SIT4-MC      MOV.L   #H'A0000000,R7
10548 00001910 D718              2959             MOV.L   #_ResetHandler,R7
10549 00001912 3878              2960             SUB     R7,R8
10550 00001914 389C              2961             ADD     R9,R8                                   ; ﾊﾞｰｼﾞｮﾝUPﾌﾟﾛｸﾞﾗﾑ格納領域最終
10551 00001916 222A              2962             XOR     R2,R2                                   ; SUM作成用
10552 00001918 9624              2963             MOV.W   #H'7FFF,R6
10553                            2964     
10554 0000191A                   2965     _VUP_PROG_SUMCHK_050:
10555 0000191A 3982              2966             CMP/HS  R8,R9                                   ; 最終ｱﾄﾞﾚｽまできた？
10556 0000191C 8937              2967             BT      _VUP_PROG_SUMCHK_100                    ; はい
10557 0000191E 6096              2968             MOV.L   @R9+,R0
10558 00001920 320C              2969             ADD     R0,R2
10559 00001922 6793              2970             MOV     R9,R7
10560 00001924 2769              2971             AND     R6,R7
10561 00001926 2778              2972             TST     R7,R7
10562 00001928 8BF7              2973             BF      _VUP_PROG_SUMCHK_050
*** SuperH RISC engine ASSEMBLER V.7.01.02.000 ***    07/04/21 19:29:24                                                  PAGE    95
PROGRAM NAME =

10563                            2974             _WDT_CLR
10564                                 M           PUSH_REG1 R0
10565 0000192A 2F06                   M           MOV.L   R0,@-R15                ;PUSH=SP-4
10566                                 M                                           ;REG=>[SP]
10567                                 M                                           ;"-4" FF,FF,FF,FC
10568                                 M           PUSH_REG1 R10
10569 0000192C 2FA6                   M           MOV.L   R10,@-R15               ;PUSH=SP-4
10570                                 M                                           ;REG=>[SP]
10571                                 M                                           ;"-4" FF,FF,FF,FC
10572                                 M           PUSH_REG1 R14
10573 0000192E 2FE6                   M           MOV.L   R14,@-R15               ;PUSH=SP-4
10574                                 M                                           ;REG=>[SP]
10575                                 M                                           ;"-4" FF,FF,FF,FC
10576                                 M   
10577 00001930 DA11                   M           MOV.L   #_PJDR,R10                              ;
10578 00001932 60A0                   M           MOV.B   @R10,R0
10579 00001934 CB10                   M           OR      #BIT4,R0
10580 00001936 2A00                   M           MOV.B   R0,@R10
10581 00001938 C9EF                   M           AND     #NBIT4,R0
10582 0000193A 2A00                   M           MOV.B   R0,@R10
10583                                 M   
10584                                 M           ;====== 2006-10-19 SAITO 追加　WDTﾎﾟｰﾄ変更 ======
10585 0000193C DA0F                   M           MOV.L   #_IOGA2_CTRL_DAT1+_IOGA_P5,R10          ;
10586 0000193E 60A1                   M           MOV.W   @R10,R0                                 ;
10587 00001940 9E11                   M           MOV.W   #BIT0,R14                               ;
10588 00001942 20EB                   M           OR      R14,R0                                  ;
10589 00001944 2A01                   M           MOV.W   R0,@R10                                 ; WORK
10590                                 M   
10591                                 M   ;;      MOV.L   #_IOGA2_CTRL_DAT1+_IOGA_P5,R10  ; WORK ADDRESS
10592                                 M   ;;      MOV.W   @R10,R0                                 ;
10593 00001946 9E0F                   M           MOV.W   #_IO2B_P5EX,R14                         ;
10594 00001948 20EA                   M           XOR     R14,R0                                  ;
10595 0000194A DA0D                   M           MOV.L   #_dio_top2+_IOGA_PDR5,R10               ; IOGA PF ADDRESS
10596 0000194C 2A01                   M           MOV.W   R0,@R10                                 ; 実出力SET
10597                                 M   
10598 0000194E DA0B                   M           MOV.L   #_IOGA2_CTRL_DAT1+_IOGA_P5,R10          ;
10599 00001950 60A1                   M           MOV.W   @R10,R0                                 ;
10600 00001952 9E0A                   M           MOV.W   #NBIT0,R14                              ;
10601 00001954 20E9                   M           AND     R14,R0                                  ;
10602 00001956 2A01                   M           MOV.W   R0,@R10                                 ; WORK
10603                                 M   
10604                                 M   ;;      MOV.L   #_IOGA2_CTRL_DAT1+_IOGA_P5,R10  ; WORK ADDRESS
10605                                 M   ;;      MOV.W   @R10,R0                                 ;
10606 00001958 9E06                   M           MOV.W   #_IO2B_P5EX,R14                         ;
10607 0000195A 20EA                   M           XOR     R14,R0                                  ;
10608 0000195C DA08                   M           MOV.L   #_dio_top2+_IOGA_PDR5,R10               ; IOGA PF ADDRESS
10609 0000195E 2A01                   M           MOV.W   R0,@R10                                 ; 実出力SET
10610                                 M   
10611                                 M           M_BRA   AAA00006
10612 00001960 A010                   M           BRA     AAA00006
10613 00001962 0009                   M           NOP
10614                                 M   ***** BEGIN-POOL *****
10615 00001964 7FFF                   M   DATA FOR SOURCE-LINE 2963
10616 00001966 0001                   M   DATA FOR SOURCE-LINE 2974
10617 00001968 0000                   M   DATA FOR SOURCE-LINE 2974,2974
10618 0000196A 00FE                   M   DATA FOR SOURCE-LINE 2974
10619 0000196C AC400000               M   DATA FOR SOURCE-LINE 2956
*** SuperH RISC engine ASSEMBLER V.7.01.02.000 ***    07/04/21 19:29:24                                                  PAGE    96
PROGRAM NAME =

10620 00001970 00000000               M   DATA FOR SOURCE-LINE 2957
10621 00001974 00000000               M   DATA FOR SOURCE-LINE 2959
10622 00001978 00000000               M   DATA FOR SOURCE-LINE 2974
10623 0000197C 00000000               M   DATA FOR SOURCE-LINE 2974,2974
10624 00001980 00000000               M   DATA FOR SOURCE-LINE 2974,2974
10625                                 M   ***** END-POOL *****
10626 00001984                        M   AAA00006:
10627                                 M           POP_REG1 R14
10628                                 M                                   ; RE"+4" 00,00,00,04
10629 00001984 6EF6                   M           MOV.L   @R15+,R14        ;
10630                                 M           POP_REG1 R10
10631                                 M                                   ; RE"+4" 00,00,00,04
10632 00001986 6AF6                   M           MOV.L   @R15+,R10        ;
10633                                 M           POP_REG1 R0
10634                                 M                                   ; RE"+4" 00,00,00,04
10635 00001988 60F6                   M           MOV.L   @R15+,R0        ;
10636                            2975             M_BRA   _VUP_PROG_SUMCHK_050
10637 0000198A AFC6                   M           BRA     _VUP_PROG_SUMCHK_050
10638 0000198C 0009                   M           NOP
10639                            2976     
10640 0000198E                   2977     _VUP_PROG_SUMCHK_100:
10641 0000198E D110              2978             MOV.L   #_PV_DEB_WORD_WK11,R1
10642 00001990 2122              2979             MOV.L   R2,@R1                                  ; 算出SUM SAVE
10643 00001992 6092              2980             MOV.L   @R9,R0                                  ; 送られてきたSUM
10644 00001994 D10F              2981             MOV.L   #_DUMMY_SUM_CODE,R1
10645 00001996 3010              2982             CMP/EQ  R1,R0                                   ; SUM CHECK無し？
10646 00001998 8904              2983             BT      _VUP_PROG_SUMCHK_150                    ; はい
10647 0000199A 3020              2984             CMP/EQ  R2,R0                                   ; SUM CHECK!!
10648 0000199C 8902              2985             BT      _VUP_PROG_SUMCHK_150                    ; OK
10649 0000199E                   2986     _VUP_PROG_SUMCHK_NG:
10650 0000199E 9016              2987             MOV.W   #H'0081,R0                              ; 受信したﾌﾟﾛｸﾞﾗﾑのSUM異常
10651 000019A0 D10D              2988             MOV.L   #_VUP_PRG_NG_DAT,R1
10652 000019A2 2101              2989             MOV.W   R0,@R1
10653                            2990     
10654 000019A4                   2991     _VUP_PROG_SUMCHK_150:
10655 000019A4                   2992     _VUP_PROG_SUMCHK_EXT:
10656                            2993             POP_ALL
10657                                 M           .AIF    3 EQ 3
10658                                             .AELSE
10659                                             POP_FPU_ALL             ;2001-07-08
10660                                             .AENDI
10661                                 M           POP_SYS_REG     GBR     ;
10662 000019A4 4F17                   M           LDC.L   @R15+,GBR
10663                                 M           POP_MACHL               ;
10664 000019A6 4F16                   M           LDS.L   @R15+,MACL
10665 000019A8 4F06                   M           LDS.L   @R15+,MACH
10666                                 M           POP_REG1        R14     ;
10667                                 M                                   ; RE"+4" 00,00,00,04
10668 000019AA 6EF6                   M           MOV.L   @R15+,R14        ;
10669                                 M           POP_REG1        R13     ;
10670                                 M                                   ; RE"+4" 00,00,00,04
10671 000019AC 6DF6                   M           MOV.L   @R15+,R13        ;
10672                                 M           POP_REG1        R12     ;
10673                                 M                                   ; RE"+4" 00,00,00,04
10674 000019AE 6CF6                   M           MOV.L   @R15+,R12        ;
10675                                 M           POP_REG1        R11     ;
10676                                 M                                   ; RE"+4" 00,00,00,04
*** SuperH RISC engine ASSEMBLER V.7.01.02.000 ***    07/04/21 19:29:24                                                  PAGE    97
PROGRAM NAME =

10677 000019B0 6BF6                   M           MOV.L   @R15+,R11        ;
10678                                 M           POP_REG1        R10     ;
10679                                 M                                   ; RE"+4" 00,00,00,04
10680 000019B2 6AF6                   M           MOV.L   @R15+,R10        ;
10681                                 M           POP_REG1        R9      ;
10682                                 M                                   ; RE"+4" 00,00,00,04
10683 000019B4 69F6                   M           MOV.L   @R15+,R9        ;
10684                                 M           POP_REG1        R8      ;
10685                                 M                                   ; RE"+4" 00,00,00,04
10686 000019B6 68F6                   M           MOV.L   @R15+,R8        ;
10687                                 M           POP_REG1        R7      ;
10688                                 M                                   ; RE"+4" 00,00,00,04
10689 000019B8 67F6                   M           MOV.L   @R15+,R7        ;
10690                                 M           POP_REG1        R6      ;
10691                                 M                                   ; RE"+4" 00,00,00,04
10692 000019BA 66F6                   M           MOV.L   @R15+,R6        ;
10693                                 M           POP_REG1        R5      ;
10694                                 M                                   ; RE"+4" 00,00,00,04
10695 000019BC 65F6                   M           MOV.L   @R15+,R5        ;
10696                                 M           POP_REG1        R4      ;
10697                                 M                                   ; RE"+4" 00,00,00,04
10698 000019BE 64F6                   M           MOV.L   @R15+,R4        ;
10699                                 M           POP_REG1        R3      ;
10700                                 M                                   ; RE"+4" 00,00,00,04
10701 000019C0 63F6                   M           MOV.L   @R15+,R3        ;
10702                                 M           POP_REG1        R2      ;
10703                                 M                                   ; RE"+4" 00,00,00,04
10704 000019C2 62F6                   M           MOV.L   @R15+,R2        ;
10705                                 M           POP_REG1        R1      ;
10706                                 M                                   ; RE"+4" 00,00,00,04
10707 000019C4 61F6                   M           MOV.L   @R15+,R1        ;
10708                                 M           POP_REG1        R0      ;
10709                                 M                                   ; RE"+4" 00,00,00,04
10710 000019C6 60F6                   M           MOV.L   @R15+,R0        ;
10711                            2994             SUB_END
10712                                 M   ;;;;;;; ADD     #4,R15                  ;[不要?]
10713 000019C8 4F26                   M           LDS.L   @R15+,PR                ;[必要]
10714                            2995             M_RTS
10715 000019CA 000B                   M           RTS                             ;RTSの後ろの
10716 000019CC 0009                   M           NOP                             ;@R15+,PRはﾀﾞﾒ
10717                            2996     
10718                            2997     
10719                            2998     ;       **********************************************************************************
                                          ***
10720                            2999     ;       *****                                                                           **
                                          ***
10721                            3000     ;       *****                                                                           **
                                          ***
10722                            3001     ;       *****   通信による設定値変更時、クラッチへのデータ転送要求      V01i            **
                                          ***
10723                            3002     ;       *****                                                                           **
                                          ***
10724                            3003     ;       *****                                                                           **
                                          ***
10725                            3004     ;       **********************************************************************************
                                          ***
10726                                     ***** BEGIN-POOL *****
*** SuperH RISC engine ASSEMBLER V.7.01.02.000 ***    07/04/21 19:29:24                                                  PAGE    98
PROGRAM NAME =

10727 000019CE 0081                       DATA FOR SOURCE-LINE 2987
10728 000019D0 00000000                   DATA FOR SOURCE-LINE 2978
10729 000019D4 5AA53CC3                   DATA FOR SOURCE-LINE 2981
10730 000019D8 00000000                   DATA FOR SOURCE-LINE 2988
10731                                     ***** END-POOL *****
10732 000019DC                   3005     _FRAM_TO_CB:
10733                            3006             SUB_START
10734 000019DC 4F22                   M           STS.L   PR,@-R15                ;[必要]
10735                                 M   ;;;;;;; ADD     #-4,R15                 ;[不要?]
10736 000019DE D11E              3007             MOV.L   #_vup_hs_area+VUP_SEL_PC,R1             ;
10737 000019E0 6011              3008             MOV.W   @R1,R0                                  ; NEW
10738 000019E2 D11E              3009             MOV.L   #_FRAM_TO_CB_CODBAK,R1
10739 000019E4 6211              3010             MOV.W   @R1,R2                                  ; OLD
10740 000019E6 2101              3011             MOV.W   R0,@R1
10741 000019E8 3200              3012             CMP/EQ  R0,R2
10742 000019EA 892F              3013             BT      _FRAMTOCB_EXIT
10743 000019EC 9131              3014             MOV.W   #H'0080,R1
10744 000019EE 3100              3015             CMP/EQ  R0,R1                                   ; 80hになった？
10745 000019F0 8B2C              3016             BF      _FRAMTOCB_EXIT                          ; はい
10746                            3017             PUSH_ALL
10747                                 M           PUSH_REG1       R0      ;
10748 000019F2 2F06                   M           MOV.L   R0,@-R15                ;PUSH=SP-4
10749                                 M                                           ;REG=>[SP]
10750                                 M                                           ;"-4" FF,FF,FF,FC
10751                                 M           PUSH_REG1       R1      ;
10752 000019F4 2F16                   M           MOV.L   R1,@-R15                ;PUSH=SP-4
10753                                 M                                           ;REG=>[SP]
10754                                 M                                           ;"-4" FF,FF,FF,FC
10755                                 M           PUSH_REG1       R2      ;
10756 000019F6 2F26                   M           MOV.L   R2,@-R15                ;PUSH=SP-4
10757                                 M                                           ;REG=>[SP]
10758                                 M                                           ;"-4" FF,FF,FF,FC
10759                                 M           PUSH_REG1       R3      ;
10760 000019F8 2F36                   M           MOV.L   R3,@-R15                ;PUSH=SP-4
10761                                 M                                           ;REG=>[SP]
10762                                 M                                           ;"-4" FF,FF,FF,FC
10763                                 M           PUSH_REG1       R4      ;
10764 000019FA 2F46                   M           MOV.L   R4,@-R15                ;PUSH=SP-4
10765                                 M                                           ;REG=>[SP]
10766                                 M                                           ;"-4" FF,FF,FF,FC
10767                                 M           PUSH_REG1       R5      ;
10768 000019FC 2F56                   M           MOV.L   R5,@-R15                ;PUSH=SP-4
10769                                 M                                           ;REG=>[SP]
10770                                 M                                           ;"-4" FF,FF,FF,FC
10771                                 M           PUSH_REG1       R6      ;
10772 000019FE 2F66                   M           MOV.L   R6,@-R15                ;PUSH=SP-4
10773                                 M                                           ;REG=>[SP]
10774                                 M                                           ;"-4" FF,FF,FF,FC
10775                                 M           PUSH_REG1       R7      ;
10776 00001A00 2F76                   M           MOV.L   R7,@-R15                ;PUSH=SP-4
10777                                 M                                           ;REG=>[SP]
10778                                 M                                           ;"-4" FF,FF,FF,FC
10779                                 M           PUSH_REG1       R8      ;
10780 00001A02 2F86                   M           MOV.L   R8,@-R15                ;PUSH=SP-4
10781                                 M                                           ;REG=>[SP]
10782                                 M                                           ;"-4" FF,FF,FF,FC
10783                                 M           PUSH_REG1       R9      ;
*** SuperH RISC engine ASSEMBLER V.7.01.02.000 ***    07/04/21 19:29:24                                                  PAGE    99
PROGRAM NAME =

10784 00001A04 2F96                   M           MOV.L   R9,@-R15                ;PUSH=SP-4
10785                                 M                                           ;REG=>[SP]
10786                                 M                                           ;"-4" FF,FF,FF,FC
10787                                 M           PUSH_REG1       R10     ;
10788 00001A06 2FA6                   M           MOV.L   R10,@-R15               ;PUSH=SP-4
10789                                 M                                           ;REG=>[SP]
10790                                 M                                           ;"-4" FF,FF,FF,FC
10791                                 M           PUSH_REG1       R11     ;
10792 00001A08 2FB6                   M           MOV.L   R11,@-R15               ;PUSH=SP-4
10793                                 M                                           ;REG=>[SP]
10794                                 M                                           ;"-4" FF,FF,FF,FC
10795                                 M           PUSH_REG1       R12     ;
10796 00001A0A 2FC6                   M           MOV.L   R12,@-R15               ;PUSH=SP-4
10797                                 M                                           ;REG=>[SP]
10798                                 M                                           ;"-4" FF,FF,FF,FC
10799                                 M           PUSH_REG1       R13     ;
10800 00001A0C 2FD6                   M           MOV.L   R13,@-R15               ;PUSH=SP-4
10801                                 M                                           ;REG=>[SP]
10802                                 M                                           ;"-4" FF,FF,FF,FC
10803                                 M           PUSH_REG1       R14     ;
10804 00001A0E 2FE6                   M           MOV.L   R14,@-R15               ;PUSH=SP-4
10805                                 M                                           ;REG=>[SP]
10806                                 M                                           ;"-4" FF,FF,FF,FC
10807                                 M           PUSH_MACHL              ;
10808 00001A10 4F02                   M           STS.L   MACH,@-R15
10809 00001A12 4F12                   M           STS.L   MACL,@-R15
10810                                 M           PUSH_SYS_REG    GBR     ;
10811 00001A14 4F13                   M           STC.L   GBR,@-R15
10812                                 M           .AIF    3 EQ 3
10813                                             .AELSE
10814                                             PUSH_FPU_ALL            ;2001-07-08
10815                                             .AENDI
10816                            3018             FAR_JSR #_mmon_trans_get,R1                     ; V01q(INS)
10817 00001A16 D112                   M           MOV.L   #_mmon_trans_get,R1             ;ﾃｰﾌﾞﾙｱﾄﾞﾚｽの内容をREGへ
10818 00001A18 410B                   M           JSR     @R1                     ;
10819 00001A1A 0009                   M           NOP                                     ;
10820                            3019             POP_ALL
10821                                 M           .AIF    3 EQ 3
10822                                             .AELSE
10823                                             POP_FPU_ALL             ;2001-07-08
10824                                             .AENDI
10825                                 M           POP_SYS_REG     GBR     ;
10826 00001A1C 4F17                   M           LDC.L   @R15+,GBR
10827                                 M           POP_MACHL               ;
10828 00001A1E 4F16                   M           LDS.L   @R15+,MACL
10829 00001A20 4F06                   M           LDS.L   @R15+,MACH
10830                                 M           POP_REG1        R14     ;
10831                                 M                                   ; RE"+4" 00,00,00,04
10832 00001A22 6EF6                   M           MOV.L   @R15+,R14        ;
10833                                 M           POP_REG1        R13     ;
10834                                 M                                   ; RE"+4" 00,00,00,04
10835 00001A24 6DF6                   M           MOV.L   @R15+,R13        ;
10836                                 M           POP_REG1        R12     ;
10837                                 M                                   ; RE"+4" 00,00,00,04
10838 00001A26 6CF6                   M           MOV.L   @R15+,R12        ;
10839                                 M           POP_REG1        R11     ;
10840                                 M                                   ; RE"+4" 00,00,00,04
*** SuperH RISC engine ASSEMBLER V.7.01.02.000 ***    07/04/21 19:29:24                                                  PAGE   100
PROGRAM NAME =

10841 00001A28 6BF6                   M           MOV.L   @R15+,R11        ;
10842                                 M           POP_REG1        R10     ;
10843                                 M                                   ; RE"+4" 00,00,00,04
10844 00001A2A 6AF6                   M           MOV.L   @R15+,R10        ;
10845                                 M           POP_REG1        R9      ;
10846                                 M                                   ; RE"+4" 00,00,00,04
10847 00001A2C 69F6                   M           MOV.L   @R15+,R9        ;
10848                                 M           POP_REG1        R8      ;
10849                                 M                                   ; RE"+4" 00,00,00,04
10850 00001A2E 68F6                   M           MOV.L   @R15+,R8        ;
10851                                 M           POP_REG1        R7      ;
10852                                 M                                   ; RE"+4" 00,00,00,04
10853 00001A30 67F6                   M           MOV.L   @R15+,R7        ;
10854                                 M           POP_REG1        R6      ;
10855                                 M                                   ; RE"+4" 00,00,00,04
10856 00001A32 66F6                   M           MOV.L   @R15+,R6        ;
10857                                 M           POP_REG1        R5      ;
10858                                 M                                   ; RE"+4" 00,00,00,04
10859 00001A34 65F6                   M           MOV.L   @R15+,R5        ;
10860                                 M           POP_REG1        R4      ;
10861                                 M                                   ; RE"+4" 00,00,00,04
10862 00001A36 64F6                   M           MOV.L   @R15+,R4        ;
10863                                 M           POP_REG1        R3      ;
10864                                 M                                   ; RE"+4" 00,00,00,04
10865 00001A38 63F6                   M           MOV.L   @R15+,R3        ;
10866                                 M           POP_REG1        R2      ;
10867                                 M                                   ; RE"+4" 00,00,00,04
10868 00001A3A 62F6                   M           MOV.L   @R15+,R2        ;
10869                                 M           POP_REG1        R1      ;
10870                                 M                                   ; RE"+4" 00,00,00,04
10871 00001A3C 61F6                   M           MOV.L   @R15+,R1        ;
10872                                 M           POP_REG1        R0      ;
10873                                 M                                   ; RE"+4" 00,00,00,04
10874 00001A3E 60F6                   M           MOV.L   @R15+,R0        ;
10875 00001A40 D108              3020             MOV.L   #_SVSW_CHG_FLG,R1
10876                            3021     ;//     MOV.W   #H'012F,R0
10877                            3022     ;//     MOV.W   #H'013F,R0                              ; V01l_d
10878 00001A42 9007              3023             MOV.W   #H'003F,R0                              ; V01o_a
10879 00001A44 2101              3024             MOV.W   R0,@R1                                  ; ｸﾗｯﾁへの転送要求
10880 00001A46 D108              3025             MOV.L   #_GAMNE_REDISP_COD,R1                   ;
10881 00001A48 9005              3026             MOV.W   #H'FF,R0
10882 00001A4A 2101              3027             MOV.W   R0,@R1
10883 00001A4C                   3028     _FRAMTOCB_EXIT:
10884                            3029             SUB_END
10885                                 M   ;;;;;;; ADD     #4,R15                  ;[不要?]
10886 00001A4C 4F26                   M           LDS.L   @R15+,PR                ;[必要]
10887                            3030             M_RTS
10888 00001A4E 000B                   M           RTS                             ;RTSの後ろの
10889 00001A50 0009                   M           NOP                             ;@R15+,PRはﾀﾞﾒ
10890                            3031     
10891                            3032     
10892                            3033     ;       **********************************************************************************
                                          ***
10893                            3034     ;       *****                                                                           **
                                          ***
10894                            3035     ;       *****                                                                           **
                                          ***
*** SuperH RISC engine ASSEMBLER V.7.01.02.000 ***    07/04/21 19:29:24                                                  PAGE   101
PROGRAM NAME =

10895                            3036     ;       *****   ローダコマンドをそのままＣ／Ｂへ        V01v                            **
                                          ***
10896                            3037     ;       *****                                                                           **
                                          ***
10897                            3038     ;       *****                                                                           **
                                          ***
10898                            3039     ;       **********************************************************************************
                                          ***
10899                                     ***** BEGIN-POOL *****
10900 00001A52 0080                       DATA FOR SOURCE-LINE 3014
10901 00001A54 003F                       DATA FOR SOURCE-LINE 3023
10902 00001A56 00FF                       DATA FOR SOURCE-LINE 3026
10903 00001A58 00000000                   DATA FOR SOURCE-LINE 3007
10904 00001A5C 00000000                   DATA FOR SOURCE-LINE 3009
10905 00001A60 00000000                   DATA FOR SOURCE-LINE 3018
10906 00001A64 00000000                   DATA FOR SOURCE-LINE 3020
10907 00001A68 00000000                   DATA FOR SOURCE-LINE 3025
10908                                     ***** END-POOL *****
10909 00001A6C                   3040     _LDCMD_PC2CB:
10910                            3041             SUB_START
10911 00001A6C 4F22                   M           STS.L   PR,@-R15                ;[必要]
10912                                 M   ;;;;;;; ADD     #-4,R15                 ;[不要?]
10913                            3042             PUSH_ALL
10914                                 M           PUSH_REG1       R0      ;
10915 00001A6E 2F06                   M           MOV.L   R0,@-R15                ;PUSH=SP-4
10916                                 M                                           ;REG=>[SP]
10917                                 M                                           ;"-4" FF,FF,FF,FC
10918                                 M           PUSH_REG1       R1      ;
10919 00001A70 2F16                   M           MOV.L   R1,@-R15                ;PUSH=SP-4
10920                                 M                                           ;REG=>[SP]
10921                                 M                                           ;"-4" FF,FF,FF,FC
10922                                 M           PUSH_REG1       R2      ;
10923 00001A72 2F26                   M           MOV.L   R2,@-R15                ;PUSH=SP-4
10924                                 M                                           ;REG=>[SP]
10925                                 M                                           ;"-4" FF,FF,FF,FC
10926                                 M           PUSH_REG1       R3      ;
10927 00001A74 2F36                   M           MOV.L   R3,@-R15                ;PUSH=SP-4
10928                                 M                                           ;REG=>[SP]
10929                                 M                                           ;"-4" FF,FF,FF,FC
10930                                 M           PUSH_REG1       R4      ;
10931 00001A76 2F46                   M           MOV.L   R4,@-R15                ;PUSH=SP-4
10932                                 M                                           ;REG=>[SP]
10933                                 M                                           ;"-4" FF,FF,FF,FC
10934                                 M           PUSH_REG1       R5      ;
10935 00001A78 2F56                   M           MOV.L   R5,@-R15                ;PUSH=SP-4
10936                                 M                                           ;REG=>[SP]
10937                                 M                                           ;"-4" FF,FF,FF,FC
10938                                 M           PUSH_REG1       R6      ;
10939 00001A7A 2F66                   M           MOV.L   R6,@-R15                ;PUSH=SP-4
10940                                 M                                           ;REG=>[SP]
10941                                 M                                           ;"-4" FF,FF,FF,FC
10942                                 M           PUSH_REG1       R7      ;
10943 00001A7C 2F76                   M           MOV.L   R7,@-R15                ;PUSH=SP-4
10944                                 M                                           ;REG=>[SP]
10945                                 M                                           ;"-4" FF,FF,FF,FC
10946                                 M           PUSH_REG1       R8      ;
10947 00001A7E 2F86                   M           MOV.L   R8,@-R15                ;PUSH=SP-4
*** SuperH RISC engine ASSEMBLER V.7.01.02.000 ***    07/04/21 19:29:24                                                  PAGE   102
PROGRAM NAME =

10948                                 M                                           ;REG=>[SP]
10949                                 M                                           ;"-4" FF,FF,FF,FC
10950                                 M           PUSH_REG1       R9      ;
10951 00001A80 2F96                   M           MOV.L   R9,@-R15                ;PUSH=SP-4
10952                                 M                                           ;REG=>[SP]
10953                                 M                                           ;"-4" FF,FF,FF,FC
10954                                 M           PUSH_REG1       R10     ;
10955 00001A82 2FA6                   M           MOV.L   R10,@-R15               ;PUSH=SP-4
10956                                 M                                           ;REG=>[SP]
10957                                 M                                           ;"-4" FF,FF,FF,FC
10958                                 M           PUSH_REG1       R11     ;
10959 00001A84 2FB6                   M           MOV.L   R11,@-R15               ;PUSH=SP-4
10960                                 M                                           ;REG=>[SP]
10961                                 M                                           ;"-4" FF,FF,FF,FC
10962                                 M           PUSH_REG1       R12     ;
10963 00001A86 2FC6                   M           MOV.L   R12,@-R15               ;PUSH=SP-4
10964                                 M                                           ;REG=>[SP]
10965                                 M                                           ;"-4" FF,FF,FF,FC
10966                                 M           PUSH_REG1       R13     ;
10967 00001A88 2FD6                   M           MOV.L   R13,@-R15               ;PUSH=SP-4
10968                                 M                                           ;REG=>[SP]
10969                                 M                                           ;"-4" FF,FF,FF,FC
10970                                 M           PUSH_REG1       R14     ;
10971 00001A8A 2FE6                   M           MOV.L   R14,@-R15               ;PUSH=SP-4
10972                                 M                                           ;REG=>[SP]
10973                                 M                                           ;"-4" FF,FF,FF,FC
10974                                 M           PUSH_MACHL              ;
10975 00001A8C 4F02                   M           STS.L   MACH,@-R15
10976 00001A8E 4F12                   M           STS.L   MACL,@-R15
10977                                 M           PUSH_SYS_REG    GBR     ;
10978 00001A90 4F13                   M           STC.L   GBR,@-R15
10979                                 M           .AIF    3 EQ 3
10980                                             .AELSE
10981                                             PUSH_FPU_ALL            ;2001-07-08
10982                                             .AENDI
10983                            3043     
10984 00001A92 DB06              3044             MOV.L   #_sci0_rxd_buf,R11
10985 00001A94 DC06              3045             MOV.L   #_HMI2CB_LDCMD_DAT,R12
10986 00001A96 9D07              3046             MOV.W   #512/2,R13
10987                            3047     
10988 00001A98                   3048     _LDCMD_P2C_050:
10989 00001A98 2DD8              3049             TST     R13,R13
10990 00001A9A 890B              3050             BT      _LDCMD_P2C_100
10991 00001A9C 6EB5              3051             MOV.W   @R11+,R14
10992 00001A9E 2CE1              3052             MOV.W   R14,@R12                        ; HMI->C/B ﾛｰﾀﾞｺﾏﾝﾄﾞ
10993 00001AA0 7C02              3053             ADD     #2,R12
10994 00001AA2 7DFF              3054             ADD     #-1,R13
10995                            3055             M_BRA   _LDCMD_P2C_050
10996 00001AA4 AFF8                   M           BRA     _LDCMD_P2C_050
10997 00001AA6 0009                   M           NOP
10998                                     ***** BEGIN-POOL *****
10999 00001AA8 0100                       DATA FOR SOURCE-LINE 3046
11000 00001AAA 0000                       ALIGNMENT CODE
11001 00001AAC 00000000                   DATA FOR SOURCE-LINE 3044
11002 00001AB0 00000000                   DATA FOR SOURCE-LINE 3045
11003                                     ***** END-POOL *****
11004 00001AB4                   3056     _LDCMD_P2C_100:
*** SuperH RISC engine ASSEMBLER V.7.01.02.000 ***    07/04/21 19:29:24                                                  PAGE   103
PROGRAM NAME =

11005                            3057     
11006 00001AB4 DC0C              3058             MOV.L   #_HMI2CB_LDCMD_FLG,R12
11007 00001AB6 9E15              3059             MOV.W   #1,R14
11008 00001AB8 2CE1              3060             MOV.W   R14,@R12                        ; HMI->C/B ﾛｰﾀﾞｺﾏﾝﾄﾞｾｯﾄﾌﾞﾗｸﾞｾｯﾄ
11009                            3061     
11010 00001ABA                   3062     _LDCMD_P2C_EXT:
11011                            3063             POP_ALL
11012                                 M           .AIF    3 EQ 3
11013                                             .AELSE
11014                                             POP_FPU_ALL             ;2001-07-08
11015                                             .AENDI
11016                                 M           POP_SYS_REG     GBR     ;
11017 00001ABA 4F17                   M           LDC.L   @R15+,GBR
11018                                 M           POP_MACHL               ;
11019 00001ABC 4F16                   M           LDS.L   @R15+,MACL
11020 00001ABE 4F06                   M           LDS.L   @R15+,MACH
11021                                 M           POP_REG1        R14     ;
11022                                 M                                   ; RE"+4" 00,00,00,04
11023 00001AC0 6EF6                   M           MOV.L   @R15+,R14        ;
11024                                 M           POP_REG1        R13     ;
11025                                 M                                   ; RE"+4" 00,00,00,04
11026 00001AC2 6DF6                   M           MOV.L   @R15+,R13        ;
11027                                 M           POP_REG1        R12     ;
11028                                 M                                   ; RE"+4" 00,00,00,04
11029 00001AC4 6CF6                   M           MOV.L   @R15+,R12        ;
11030                                 M           POP_REG1        R11     ;
11031                                 M                                   ; RE"+4" 00,00,00,04
11032 00001AC6 6BF6                   M           MOV.L   @R15+,R11        ;
11033                                 M           POP_REG1        R10     ;
11034                                 M                                   ; RE"+4" 00,00,00,04
11035 00001AC8 6AF6                   M           MOV.L   @R15+,R10        ;
11036                                 M           POP_REG1        R9      ;
11037                                 M                                   ; RE"+4" 00,00,00,04
11038 00001ACA 69F6                   M           MOV.L   @R15+,R9        ;
11039                                 M           POP_REG1        R8      ;
11040                                 M                                   ; RE"+4" 00,00,00,04
11041 00001ACC 68F6                   M           MOV.L   @R15+,R8        ;
11042                                 M           POP_REG1        R7      ;
11043                                 M                                   ; RE"+4" 00,00,00,04
11044 00001ACE 67F6                   M           MOV.L   @R15+,R7        ;
11045                                 M           POP_REG1        R6      ;
11046                                 M                                   ; RE"+4" 00,00,00,04
11047 00001AD0 66F6                   M           MOV.L   @R15+,R6        ;
11048                                 M           POP_REG1        R5      ;
11049                                 M                                   ; RE"+4" 00,00,00,04
11050 00001AD2 65F6                   M           MOV.L   @R15+,R5        ;
11051                                 M           POP_REG1        R4      ;
11052                                 M                                   ; RE"+4" 00,00,00,04
11053 00001AD4 64F6                   M           MOV.L   @R15+,R4        ;
11054                                 M           POP_REG1        R3      ;
11055                                 M                                   ; RE"+4" 00,00,00,04
11056 00001AD6 63F6                   M           MOV.L   @R15+,R3        ;
11057                                 M           POP_REG1        R2      ;
11058                                 M                                   ; RE"+4" 00,00,00,04
11059 00001AD8 62F6                   M           MOV.L   @R15+,R2        ;
11060                                 M           POP_REG1        R1      ;
11061                                 M                                   ; RE"+4" 00,00,00,04
*** SuperH RISC engine ASSEMBLER V.7.01.02.000 ***    07/04/21 19:29:24                                                  PAGE   104
PROGRAM NAME =

11062 00001ADA 61F6                   M           MOV.L   @R15+,R1        ;
11063                                 M           POP_REG1        R0      ;
11064                                 M                                   ; RE"+4" 00,00,00,04
11065 00001ADC 60F6                   M           MOV.L   @R15+,R0        ;
11066                            3064             SUB_END
11067                                 M   ;;;;;;; ADD     #4,R15                  ;[不要?]
11068 00001ADE 4F26                   M           LDS.L   @R15+,PR                ;[必要]
11069                            3065             M_RTS
11070 00001AE0 000B                   M           RTS                             ;RTSの後ろの
11071 00001AE2 0009                   M           NOP                             ;@R15+,PRはﾀﾞﾒ
11072                            3066     
11073                            3067     
11074                            3068     ;       **********************************************************************************
                                          ***
11075                            3069     ;       *****                                                                           **
                                          ***
11076                            3070     ;       *****                                                                           **
                                          ***
11077                            3071     ;       *****   Ｃ／Ｂからくるローダコマンドをそのまま上位へ    V01v                    **
                                          ***
11078                            3072     ;       *****                                                                           **
                                          ***
11079                            3073     ;       *****                                                                           **
                                          ***
11080                            3074     ;       **********************************************************************************
                                          ***
11081                                     ***** BEGIN-POOL *****
11082 00001AE4 0001                       DATA FOR SOURCE-LINE 3059
11083 00001AE6 0000                       ALIGNMENT CODE
11084 00001AE8 00000000                   DATA FOR SOURCE-LINE 3058
11085                                     ***** END-POOL *****
11086 00001AEC                   3075     _LDCMD_CB2PC:
11087                            3076             SUB_START
11088 00001AEC 4F22                   M           STS.L   PR,@-R15                ;[必要]
11089                                 M   ;;;;;;; ADD     #-4,R15                 ;[不要?]
11090                            3077             PUSH_ALL
11091                                 M           PUSH_REG1       R0      ;
11092 00001AEE 2F06                   M           MOV.L   R0,@-R15                ;PUSH=SP-4
11093                                 M                                           ;REG=>[SP]
11094                                 M                                           ;"-4" FF,FF,FF,FC
11095                                 M           PUSH_REG1       R1      ;
11096 00001AF0 2F16                   M           MOV.L   R1,@-R15                ;PUSH=SP-4
11097                                 M                                           ;REG=>[SP]
11098                                 M                                           ;"-4" FF,FF,FF,FC
11099                                 M           PUSH_REG1       R2      ;
11100 00001AF2 2F26                   M           MOV.L   R2,@-R15                ;PUSH=SP-4
11101                                 M                                           ;REG=>[SP]
11102                                 M                                           ;"-4" FF,FF,FF,FC
11103                                 M           PUSH_REG1       R3      ;
11104 00001AF4 2F36                   M           MOV.L   R3,@-R15                ;PUSH=SP-4
11105                                 M                                           ;REG=>[SP]
11106                                 M                                           ;"-4" FF,FF,FF,FC
11107                                 M           PUSH_REG1       R4      ;
11108 00001AF6 2F46                   M           MOV.L   R4,@-R15                ;PUSH=SP-4
11109                                 M                                           ;REG=>[SP]
11110                                 M                                           ;"-4" FF,FF,FF,FC
11111                                 M           PUSH_REG1       R5      ;
*** SuperH RISC engine ASSEMBLER V.7.01.02.000 ***    07/04/21 19:29:24                                                  PAGE   105
PROGRAM NAME =

11112 00001AF8 2F56                   M           MOV.L   R5,@-R15                ;PUSH=SP-4
11113                                 M                                           ;REG=>[SP]
11114                                 M                                           ;"-4" FF,FF,FF,FC
11115                                 M           PUSH_REG1       R6      ;
11116 00001AFA 2F66                   M           MOV.L   R6,@-R15                ;PUSH=SP-4
11117                                 M                                           ;REG=>[SP]
11118                                 M                                           ;"-4" FF,FF,FF,FC
11119                                 M           PUSH_REG1       R7      ;
11120 00001AFC 2F76                   M           MOV.L   R7,@-R15                ;PUSH=SP-4
11121                                 M                                           ;REG=>[SP]
11122                                 M                                           ;"-4" FF,FF,FF,FC
11123                                 M           PUSH_REG1       R8      ;
11124 00001AFE 2F86                   M           MOV.L   R8,@-R15                ;PUSH=SP-4
11125                                 M                                           ;REG=>[SP]
11126                                 M                                           ;"-4" FF,FF,FF,FC
11127                                 M           PUSH_REG1       R9      ;
11128 00001B00 2F96                   M           MOV.L   R9,@-R15                ;PUSH=SP-4
11129                                 M                                           ;REG=>[SP]
11130                                 M                                           ;"-4" FF,FF,FF,FC
11131                                 M           PUSH_REG1       R10     ;
11132 00001B02 2FA6                   M           MOV.L   R10,@-R15               ;PUSH=SP-4
11133                                 M                                           ;REG=>[SP]
11134                                 M                                           ;"-4" FF,FF,FF,FC
11135                                 M           PUSH_REG1       R11     ;
11136 00001B04 2FB6                   M           MOV.L   R11,@-R15               ;PUSH=SP-4
11137                                 M                                           ;REG=>[SP]
11138                                 M                                           ;"-4" FF,FF,FF,FC
11139                                 M           PUSH_REG1       R12     ;
11140 00001B06 2FC6                   M           MOV.L   R12,@-R15               ;PUSH=SP-4
11141                                 M                                           ;REG=>[SP]
11142                                 M                                           ;"-4" FF,FF,FF,FC
11143                                 M           PUSH_REG1       R13     ;
11144 00001B08 2FD6                   M           MOV.L   R13,@-R15               ;PUSH=SP-4
11145                                 M                                           ;REG=>[SP]
11146                                 M                                           ;"-4" FF,FF,FF,FC
11147                                 M           PUSH_REG1       R14     ;
11148 00001B0A 2FE6                   M           MOV.L   R14,@-R15               ;PUSH=SP-4
11149                                 M                                           ;REG=>[SP]
11150                                 M                                           ;"-4" FF,FF,FF,FC
11151                                 M           PUSH_MACHL              ;
11152 00001B0C 4F02                   M           STS.L   MACH,@-R15
11153 00001B0E 4F12                   M           STS.L   MACL,@-R15
11154                                 M           PUSH_SYS_REG    GBR     ;
11155 00001B10 4F13                   M           STC.L   GBR,@-R15
11156                                 M           .AIF    3 EQ 3
11157                                             .AELSE
11158                                             PUSH_FPU_ALL            ;2001-07-08
11159                                             .AENDI
11160                            3078     
11161 00001B12 DC03              3079             MOV.L   #_CB2HMI_LDCMD_FLG,R12
11162 00001B14 60C1              3080             MOV.W   @R12,R0
11163 00001B16 8801              3081             CMP/EQ  #1,R0                           ; C/B->HMI ﾛｰﾀﾞｺﾏﾝﾄﾞｾｯﾄﾌﾞﾗｸﾞＯＮ？
11164 00001B18 8904              3082             BT      _LDCMD_C2P_020                  ; はい
11165                            3083             M_BRA   _LDCMD_C2P_EXT                  ; いいえ
11166 00001B1A A026                   M           BRA     _LDCMD_C2P_EXT
11167 00001B1C 0009                   M           NOP
11168                            3084     
*** SuperH RISC engine ASSEMBLER V.7.01.02.000 ***    07/04/21 19:29:24                                                  PAGE   106
PROGRAM NAME =

11169                                     ***** BEGIN-POOL *****
11170 00001B1E 0000                       ALIGNMENT CODE
11171 00001B20 00000000                   DATA FOR SOURCE-LINE 3079
11172                                     ***** END-POOL *****
11173 00001B24                   3085     _LDCMD_C2P_020:
11174 00001B24 DB05              3086             MOV.L   #_CB2HMI_LDCMD_DAT,R11
11175 00001B26 DC06              3087             MOV.L   #_sci0_txd_buf,R12
11176 00001B28 9D07              3088             MOV.W   #512/2,R13
11177                            3089     
11178 00001B2A                   3090     _LDCMD_C2P_050:
11179 00001B2A 2DD8              3091             TST     R13,R13
11180 00001B2C 890A              3092             BT      _LDCMD_C2P_100
11181 00001B2E 6EB5              3093             MOV.W   @R11+,R14
11182 00001B30 2CE1              3094             MOV.W   R14,@R12                        ; C/B->HMI ﾛｰﾀﾞｺﾏﾝﾄﾞ
11183 00001B32 7C02              3095             ADD     #2,R12
11184 00001B34 7DFF              3096             ADD     #-1,R13
11185                            3097             M_BRA   _LDCMD_C2P_050
11186 00001B36 AFF8                   M           BRA     _LDCMD_C2P_050
11187 00001B38 0009                   M           NOP
11188                                     ***** BEGIN-POOL *****
11189 00001B3A 0100                       DATA FOR SOURCE-LINE 3088
11190 00001B3C 00000000                   DATA FOR SOURCE-LINE 3086
11191 00001B40 00000000                   DATA FOR SOURCE-LINE 3087
11192                                     ***** END-POOL *****
11193 00001B44                   3098     _LDCMD_C2P_100:
11194                            3099     
11195 00001B44 DC14              3100             MOV.L   #_CB2HMI_LDCMD_FLG,R12
11196 00001B46 9025              3101             MOV.W   #0,R0
11197 00001B48 2C01              3102             MOV.W   R0,@R12                         ; C/B->HMI ﾛｰﾀﾞｺﾏﾝﾄﾞｾｯﾄﾌﾞﾗｸﾞクリア
11198                            3103     
11199 00001B4A DA14              3104             MOV.L   #_sci0_txd_buf+_DATA_CNTL,R10           ;
11200 00001B4C 62A4              3105             MOV.B   @R10+,R2                                ; ﾃﾞｰﾀ数ｶｳﾝﾀ(L)
11201 00001B4E 602C              3106             EXTU.B  R2,R0                                   ;
11202 00001B50 62A4              3107             MOV.B   @R10+,R2                                ; ﾃﾞｰﾀ数ｶｳﾝﾀ(H)
11203 00001B52 4218              3108             SHLL8   R2
11204 00001B54 220B              3109             OR      R0,R2
11205 00001B56 622D              3110             EXTU.W  R2,R2                                   ; ﾃﾞｰﾀ数ｶｳﾝﾀ
11206 00001B58 7203              3111             ADD     #3,R2                                   ; ﾃﾞｰﾀ数ｶｳﾝﾀ＋3(伝送ﾍｯﾀﾞ部)＝全送
                                          信ﾊﾞｲﾄ数
11207 00001B5A DA11              3112             MOV.L   #_sci0_wkram+TXD_CNT,R10
11208 00001B5C 2A21              3113             MOV.W   R2,@R10                                 ; 全送信ﾊﾞｲﾄ数格納
11209 00001B5E 200A              3114             XOR     R0,R0
11210 00001B60 DA10              3115             MOV.L   #_sci0_wkram+TXD_BUF_POI,R10
11211 00001B62 2A01              3116             MOV.W   R0,@R10                                 ; 送信ﾊﾞｯﾌｧ用ﾎﾟｲﾝﾀをｸﾘｱ
11212                            3117     
11213                            3118             FAR_JSR #_SCI0_TXI_EI,R10                       ; 送信ｴﾝﾌﾟﾃｨ割込み許可
11214 00001B64 DA10                   M           MOV.L   #_SCI0_TXI_EI,R10               ;ﾃｰﾌﾞﾙｱﾄﾞﾚｽの内容をREGへ
11215 00001B66 4A0B                   M           JSR     @R10                    ;
11216 00001B68 0009                   M           NOP                                     ;
11217                            3119     
11218 00001B6A                   3120     _LDCMD_C2P_EXT:
11219                            3121             POP_ALL
11220                                 M           .AIF    3 EQ 3
11221                                             .AELSE
11222                                             POP_FPU_ALL             ;2001-07-08
11223                                             .AENDI
11224                                 M           POP_SYS_REG     GBR     ;
*** SuperH RISC engine ASSEMBLER V.7.01.02.000 ***    07/04/21 19:29:24                                                  PAGE   107
PROGRAM NAME =

11225 00001B6A 4F17                   M           LDC.L   @R15+,GBR
11226                                 M           POP_MACHL               ;
11227 00001B6C 4F16                   M           LDS.L   @R15+,MACL
11228 00001B6E 4F06                   M           LDS.L   @R15+,MACH
11229                                 M           POP_REG1        R14     ;
11230                                 M                                   ; RE"+4" 00,00,00,04
11231 00001B70 6EF6                   M           MOV.L   @R15+,R14        ;
11232                                 M           POP_REG1        R13     ;
11233                                 M                                   ; RE"+4" 00,00,00,04
11234 00001B72 6DF6                   M           MOV.L   @R15+,R13        ;
11235                                 M           POP_REG1        R12     ;
11236                                 M                                   ; RE"+4" 00,00,00,04
11237 00001B74 6CF6                   M           MOV.L   @R15+,R12        ;
11238                                 M           POP_REG1        R11     ;
11239                                 M                                   ; RE"+4" 00,00,00,04
11240 00001B76 6BF6                   M           MOV.L   @R15+,R11        ;
11241                                 M           POP_REG1        R10     ;
11242                                 M                                   ; RE"+4" 00,00,00,04
11243 00001B78 6AF6                   M           MOV.L   @R15+,R10        ;
11244                                 M           POP_REG1        R9      ;
11245                                 M                                   ; RE"+4" 00,00,00,04
11246 00001B7A 69F6                   M           MOV.L   @R15+,R9        ;
11247                                 M           POP_REG1        R8      ;
11248                                 M                                   ; RE"+4" 00,00,00,04
11249 00001B7C 68F6                   M           MOV.L   @R15+,R8        ;
11250                                 M           POP_REG1        R7      ;
11251                                 M                                   ; RE"+4" 00,00,00,04
11252 00001B7E 67F6                   M           MOV.L   @R15+,R7        ;
11253                                 M           POP_REG1        R6      ;
11254                                 M                                   ; RE"+4" 00,00,00,04
11255 00001B80 66F6                   M           MOV.L   @R15+,R6        ;
11256                                 M           POP_REG1        R5      ;
11257                                 M                                   ; RE"+4" 00,00,00,04
11258 00001B82 65F6                   M           MOV.L   @R15+,R5        ;
11259                                 M           POP_REG1        R4      ;
11260                                 M                                   ; RE"+4" 00,00,00,04
11261 00001B84 64F6                   M           MOV.L   @R15+,R4        ;
11262                                 M           POP_REG1        R3      ;
11263                                 M                                   ; RE"+4" 00,00,00,04
11264 00001B86 63F6                   M           MOV.L   @R15+,R3        ;
11265                                 M           POP_REG1        R2      ;
11266                                 M                                   ; RE"+4" 00,00,00,04
11267 00001B88 62F6                   M           MOV.L   @R15+,R2        ;
11268                                 M           POP_REG1        R1      ;
11269                                 M                                   ; RE"+4" 00,00,00,04
11270 00001B8A 61F6                   M           MOV.L   @R15+,R1        ;
11271                                 M           POP_REG1        R0      ;
11272                                 M                                   ; RE"+4" 00,00,00,04
11273 00001B8C 60F6                   M           MOV.L   @R15+,R0        ;
11274                            3122             SUB_END
11275                                 M   ;;;;;;; ADD     #4,R15                  ;[不要?]
11276 00001B8E 4F26                   M           LDS.L   @R15+,PR                ;[必要]
11277                            3123             M_RTS
11278 00001B90 000B                   M           RTS                             ;RTSの後ろの
11279 00001B92 0009                   M           NOP                             ;@R15+,PRはﾀﾞﾒ
11280                            3124     
11281                            3125     
*** SuperH RISC engine ASSEMBLER V.7.01.02.000 ***    07/04/21 19:29:24                                                  PAGE   108
PROGRAM NAME =

11282                            3126     ;       **********************************************************************************
                                          ***
11283                            3127     ;       *****                                                                           **
                                          ***
11284                            3128     ;       *****           WORK RAM                                                        **
                                          ***
11285                            3129     ;       *****                                                                           **
                                          ***
11286                            3130     ;       *****                                                                           **
                                          ***
11287                            3131     ;       **********************************************************************************
                                          ***
11288                                     ***** BEGIN-POOL *****
11289 00001B94 0000                       DATA FOR SOURCE-LINE 3101
11290 00001B96 0000                       ALIGNMENT CODE
11291 00001B98 00000000                   DATA FOR SOURCE-LINE 3100
11292 00001B9C 00000000                   DATA FOR SOURCE-LINE 3104
11293 00001BA0 00000000                   DATA FOR SOURCE-LINE 3112
11294 00001BA4 00000000                   DATA FOR SOURCE-LINE 3115
11295 00001BA8 00000000                   DATA FOR SOURCE-LINE 3118
11296                                     ***** END-POOL *****
11297 00000670                   3132             .SECTION        BvupsciwkRAM, DATA,ALIGN=4                      ;
11298                            3133             .export         _VUP_PRG_NG_DAT
11299 00000670 00000004          3134     _FROM_SCT_TOP_ADR       .SRES           4               ;
11300 00000674 00000004          3135     _FROM_REWR_TOP_ADR      .SRES           4               ;
11301 00000678 00000004          3136     _FROM_REWR_END_ADR      .SRES           4               ;
11302 0000067C 00000004          3137     _VUP_DATA_AREA_ADR      .SRES           4               ;
11303 00000680 00000002          3138     _FROM_REWR_STR_FLG      .SRES           2               ;
11304 00000682 00000002          3139     _SECTOR_RETRY           .SRES           2               ; 2004/04/20(INS)
11305 00000684 00000002          3140     _FRAM_TO_CB_CODBAK      .SRES           2               ; 2004/05/19 V01i (INS)
11306 00000686 00000002          3141     _VUP_PRG_NG_DAT         .SRES           2               ; 2006/12/26 V05
11307 00000688 00000002          3142     _VUP_PRG_RETRY_CNT      .SRES           2               ; 2006/12/26 V05
11308                            3143     
11309                            3144     
11310                            3145     ;★★★★★★★★★★★★★★★★★★★★★★★★★★★★★★★★★★★★★★★★★★★★
                                          ★★★★★★★★★★★
11311                            3146     
11312                            3147     
11313 00001BAC                   3148             .SECTION        PvupsciROM,CODE,ALIGN=4
11314                            3149     ;       **********************************************************************************
                                          ***
11315                            3150     ;       *****                                                                           **
                                          ***
11316                            3151     ;       *****   ＳＨ４(CPUA)へＦＲＯＭデータを渡し、書かせる                            **
                                          ***
11317                            3152     ;       *****                                                                           **
                                          ***
11318                            3153     ;       **********************************************************************************
                                          ***
11319 00001BAC                   3154     _FROM_SEQA_REWRITE:
11320                            3155             SUB_START
11321 00001BAC 4F22                   M           STS.L   PR,@-R15                ;[必要]
11322                                 M   ;;;;;;; ADD     #-4,R15                 ;[不要?]
11323                            3156     
11324 00001BAE DA05              3157             MOV.L   #_CB_SYS_PARAM248,R10                   ; シーケンス実行CPUD選択        20
                                          15/01/16
11325 00001BB0 60A1              3158             MOV.W   @R10,R0
*** SuperH RISC engine ASSEMBLER V.7.01.02.000 ***    07/04/21 19:29:24                                                  PAGE   109
PROGRAM NAME =

11326 00001BB2 DA05              3159             MOV.L   #1234,R10
11327 00001BB4 30A0              3160             CMP/EQ  R10,R0                                  ; 1234ならCPUD
11328 00001BB6 8B0B              3161             BF      _FROM_SEQA_RW050
11329                            3162     
11330                            3163             FAR_JSR #_FROM_SEQD_REWRITE,R10                 ; CPUD SEQ バージョンアップ
11331 00001BB8 DA04                   M           MOV.L   #_FROM_SEQD_REWRITE,R10         ;ﾃｰﾌﾞﾙｱﾄﾞﾚｽの内容をREGへ
11332 00001BBA 4A0B                   M           JSR     @R10                    ;
11333 00001BBC 0009                   M           NOP                                     ;
11334                            3164             M_BRA   _FROM_CPUA_REWR_END
11335 00001BBE A1BA                   M           BRA     _FROM_CPUA_REWR_END
11336 00001BC0 0009                   M           NOP
11337                            3165     
11338                                     ***** BEGIN-POOL *****
11339 00001BC2 0000                       ALIGNMENT CODE
11340 00001BC4 00000000                   DATA FOR SOURCE-LINE 3157
11341 00001BC8 000004D2                   DATA FOR SOURCE-LINE 3159
11342 00001BCC 00000000                   DATA FOR SOURCE-LINE 3163
11343                                     ***** END-POOL *****
11344 00001BD0                   3166     _FROM_SEQA_RW050:
11345                            3167     
11346                            3168     
11347                            3169     
11348 00001BD0 D803              3170             MOV.L   #_VUP_HSAREA_B_TO_A,R8                  ; ﾊﾝﾄﾞｼｪｲｸ領域CPUB書込みｴﾘｱ先頭ｱﾄﾞ
                                          ﾚｽ
11349 00001BD2 D904              3171             MOV.L   #_VUP_HSAREA_A_TO_B,R9                  ; ﾊﾝﾄﾞｼｪｲｸ領域CPUA書込みｴﾘｱ先頭ｱﾄﾞ
                                          ﾚｽ
11350                            3172     
11351 00001BD4 DA04              3173             MOV.L   #_FROM_REWR_STR_FLG,R10
11352 00001BD6 60A1              3174             MOV.W   @R10,R0
11353 00001BD8 C801              3175             TST     #BIT0,R0                                ; ＣＰＵＡへスタート開始済み？
11354 00001BDA 8907              3176             BT      _FROM_SEQA_RW100                        ; いいえ
11355                            3177             M_BRA   _FROM_CPUA_REWR_100                     ; はい
11356 00001BDC A100                   M           BRA     _FROM_CPUA_REWR_100
11357 00001BDE 0009                   M           NOP
11358                            3178     
11359                                     ***** BEGIN-POOL *****
11360 00001BE0 00000000                   DATA FOR SOURCE-LINE 3170
11361 00001BE4 00000000                   DATA FOR SOURCE-LINE 3171
11362 00001BE8 00000000                   DATA FOR SOURCE-LINE 3173
11363                                     ***** END-POOL *****
11364 00001BEC                   3179     _FROM_SEQA_RW100:
11365 00001BEC D004              3180             MOV.L   #_VUP_DATA_AREA_CPUB,R0                 ; 400000H
11366 00001BEE DA05              3181             MOV.L   #_VUP_DATA_AREA_ADR,R10
11367 00001BF0 2A02              3182             MOV.L   R0,@R10
11368                            3183     
11369 00001BF2 DA05              3184             MOV.L   #_SEQ_PRO_SIZE,R10
11370 00001BF4 30AC              3185             ADD     R10,R0                                  ; 410000H
11371 00001BF6 DA05              3186             MOV.L   #_FROM_REWR_END_ADR,R10
11372 00001BF8 2A02              3187             MOV.L   R0,@R10
11373                            3188     
11374 00001BFA C500              3189             MOV.W   @(VUP_SEL_PC,GBR),R0                    ; ﾊﾞｰｼﾞｮﾝUP種別CPUAへ
11375                            3190             M_BRA   _FROM_CPUA_REWR_COM
11376 00001BFC A06E                   M           BRA     _FROM_CPUA_REWR_COM
11377 00001BFE 0009                   M           NOP
11378                            3191     ;       ----------------------------------------------------------------------------------
                                          ---
11379                            3192     
*** SuperH RISC engine ASSEMBLER V.7.01.02.000 ***    07/04/21 19:29:24                                                  PAGE   110
PROGRAM NAME =

11380                                     ***** BEGIN-POOL *****
11381 00001C00 AC400000                   DATA FOR SOURCE-LINE 3180
11382 00001C04 00000000                   DATA FOR SOURCE-LINE 3181
11383 00001C08 00010000                   DATA FOR SOURCE-LINE 3184
11384 00001C0C 00000000                   DATA FOR SOURCE-LINE 3186
11385                                     ***** END-POOL *****
11386 00001C10                   3193     _FROM_CPUA_REWRITE:
11387                            3194             SUB_START
11388 00001C10 4F22                   M           STS.L   PR,@-R15                ;[必要]
11389                                 M   ;;;;;;; ADD     #-4,R15                 ;[不要?]
11390 00001C12 D804              3195             MOV.L   #_VUP_HSAREA_B_TO_A,R8                  ; ﾊﾝﾄﾞｼｪｲｸ領域CPUB書込みｴﾘｱ先頭ｱﾄﾞ
                                          ﾚｽ
11391 00001C14 D904              3196             MOV.L   #_VUP_HSAREA_A_TO_B,R9                  ; ﾊﾝﾄﾞｼｪｲｸ領域CPUA書込みｴﾘｱ先頭ｱﾄﾞ
                                          ﾚｽ
11392                            3197     
11393 00001C16 DA05              3198             MOV.L   #_FROM_REWR_STR_FLG,R10
11394 00001C18 60A1              3199             MOV.W   @R10,R0
11395 00001C1A C801              3200             TST     #BIT0,R0                                ; ＣＰＵＡへスタート開始済み？
11396 00001C1C 8908              3201             BT      _FROM_CPUA_RW100                        ; いいえ
11397                            3202             M_BRA   _FROM_CPUA_REWR_100                     ; はい
11398 00001C1E A0DF                   M           BRA     _FROM_CPUA_REWR_100
11399 00001C20 0009                   M           NOP
11400                            3203     
11401                                     ***** BEGIN-POOL *****
11402 00001C22 0000                       ALIGNMENT CODE
11403 00001C24 00000000                   DATA FOR SOURCE-LINE 3195
11404 00001C28 00000000                   DATA FOR SOURCE-LINE 3196
11405 00001C2C 00000000                   DATA FOR SOURCE-LINE 3198
11406                                     ***** END-POOL *****
11407 00001C30                   3204     _FROM_CPUA_RW100:
11408 00001C30 D004              3205             MOV.L   #_VUP_DATA_AREA_CPUB,R0                 ; 400000H
11409 00001C32 DA05              3206             MOV.L   #_VUP_DATA_AREA_ADR,R10
11410 00001C34 2A02              3207             MOV.L   R0,@R10
11411                            3208     
11412 00001C36 DA05              3209             MOV.L   #_CPUA_PRO_SIZE,R10
11413 00001C38 30AC              3210             ADD     R10,R0                                  ; 460000H
11414 00001C3A DA05              3211             MOV.L   #_FROM_REWR_END_ADR,R10
11415 00001C3C 2A02              3212             MOV.L   R0,@R10
11416                            3213     
11417 00001C3E C500              3214             MOV.W   @(VUP_SEL_PC,GBR),R0                    ; ﾊﾞｰｼﾞｮﾝUP種別CPUAへ
11418                            3215             M_BRA   _FROM_CPUA_REWR_COM
11419 00001C40 A04C                   M           BRA     _FROM_CPUA_REWR_COM
11420 00001C42 0009                   M           NOP
11421                            3216     ;       ----------------------------------------------------------------------------------
                                          ---
11422                            3217     
11423                                     ***** BEGIN-POOL *****
11424 00001C44 AC400000                   DATA FOR SOURCE-LINE 3205
11425 00001C48 00000000                   DATA FOR SOURCE-LINE 3206
11426 00001C4C 00060000                   DATA FOR SOURCE-LINE 3209
11427 00001C50 00000000                   DATA FOR SOURCE-LINE 3211
11428                                     ***** END-POOL *****
11429 00001C54                   3218     _FROM_SENA_REWRITE:
11430                            3219             SUB_START
11431 00001C54 4F22                   M           STS.L   PR,@-R15                ;[必要]
11432                                 M   ;;;;;;; ADD     #-4,R15                 ;[不要?]
11433 00001C56 D804              3220             MOV.L   #_VUP_HSAREA_B_TO_A,R8                  ; ﾊﾝﾄﾞｼｪｲｸ領域CPUB書込みｴﾘｱ先頭ｱﾄﾞ
*** SuperH RISC engine ASSEMBLER V.7.01.02.000 ***    07/04/21 19:29:24                                                  PAGE   111
PROGRAM NAME =

                                          ﾚｽ
11434 00001C58 D904              3221             MOV.L   #_VUP_HSAREA_A_TO_B,R9                  ; ﾊﾝﾄﾞｼｪｲｸ領域CPUA書込みｴﾘｱ先頭ｱﾄﾞ
                                          ﾚｽ
11435                            3222     
11436 00001C5A DA05              3223             MOV.L   #_FROM_REWR_STR_FLG,R10
11437 00001C5C 60A1              3224             MOV.W   @R10,R0
11438 00001C5E C801              3225             TST     #BIT0,R0                                ; ＣＰＵＡへスタート開始済み？
11439 00001C60 8908              3226             BT      _FROM_SENA_RW100                        ; はい
11440                            3227             M_BRA   _FROM_CPUA_REWR_100                     ; はい
11441 00001C62 A0BD                   M           BRA     _FROM_CPUA_REWR_100
11442 00001C64 0009                   M           NOP
11443                            3228     
11444                                     ***** BEGIN-POOL *****
11445 00001C66 0000                       ALIGNMENT CODE
11446 00001C68 00000000                   DATA FOR SOURCE-LINE 3220
11447 00001C6C 00000000                   DATA FOR SOURCE-LINE 3221
11448 00001C70 00000000                   DATA FOR SOURCE-LINE 3223
11449                                     ***** END-POOL *****
11450 00001C74                   3229     _FROM_SENA_RW100:
11451 00001C74 D004              3230             MOV.L   #_VUP_DATA_AREA_CPUB,R0                 ; 400000H
11452 00001C76 DA05              3231             MOV.L   #_VUP_DATA_AREA_ADR,R10
11453 00001C78 2A02              3232             MOV.L   R0,@R10
11454                            3233     
11455 00001C7A DA05              3234             MOV.L   #_CB_TBL_SIZE,R10
11456 00001C7C 30AC              3235             ADD     R10,R0                                  ; 440000H
11457 00001C7E DA05              3236             MOV.L   #_FROM_REWR_END_ADR,R10
11458 00001C80 2A02              3237             MOV.L   R0,@R10
11459                            3238     
11460 00001C82 C500              3239             MOV.W   @(VUP_SEL_PC,GBR),R0                    ; ﾊﾞｰｼﾞｮﾝUP種別CPUAへ
11461                            3240             M_BRA   _FROM_CPUA_REWR_COM
11462 00001C84 A02A                   M           BRA     _FROM_CPUA_REWR_COM
11463 00001C86 0009                   M           NOP
11464                            3241     ;       ----------------------------------------------------------------------------------
                                          ---
11465                            3242     
11466                                     ***** BEGIN-POOL *****
11467 00001C88 AC400000                   DATA FOR SOURCE-LINE 3230
11468 00001C8C 00000000                   DATA FOR SOURCE-LINE 3231
11469 00001C90 00040000                   DATA FOR SOURCE-LINE 3234
11470 00001C94 00000000                   DATA FOR SOURCE-LINE 3236
11471                                     ***** END-POOL *****
11472 00001C98                   3243     _FROM_SYSA_REWRITE:
11473                            3244             SUB_START
11474 00001C98 4F22                   M           STS.L   PR,@-R15                ;[必要]
11475                                 M   ;;;;;;; ADD     #-4,R15                 ;[不要?]
11476 00001C9A D804              3245             MOV.L   #_VUP_HSAREA_B_TO_A,R8                  ; ﾊﾝﾄﾞｼｪｲｸ領域CPUB書込みｴﾘｱ先頭ｱﾄﾞ
                                          ﾚｽ
11477 00001C9C D904              3246             MOV.L   #_VUP_HSAREA_A_TO_B,R9                  ; ﾊﾝﾄﾞｼｪｲｸ領域CPUA書込みｴﾘｱ先頭ｱﾄﾞ
                                          ﾚｽ
11478                            3247     
11479 00001C9E DA05              3248             MOV.L   #_FROM_REWR_STR_FLG,R10
11480 00001CA0 60A1              3249             MOV.W   @R10,R0
11481 00001CA2 C801              3250             TST     #BIT0,R0                                ; ＣＰＵＡへスタート開始済み？
11482 00001CA4 8908              3251             BT      _FROM_SYSA_RW100                        ; いいえ
11483                            3252             M_BRA   _FROM_CPUA_REWR_100                     ; はい
11484 00001CA6 A09B                   M           BRA     _FROM_CPUA_REWR_100
11485 00001CA8 0009                   M           NOP
*** SuperH RISC engine ASSEMBLER V.7.01.02.000 ***    07/04/21 19:29:24                                                  PAGE   112
PROGRAM NAME =

11486                            3253     
11487                                     ***** BEGIN-POOL *****
11488 00001CAA 0000                       ALIGNMENT CODE
11489 00001CAC 00000000                   DATA FOR SOURCE-LINE 3245
11490 00001CB0 00000000                   DATA FOR SOURCE-LINE 3246
11491 00001CB4 00000000                   DATA FOR SOURCE-LINE 3248
11492                                     ***** END-POOL *****
11493 00001CB8                   3254     _FROM_SYSA_RW100:
11494 00001CB8 D004              3255             MOV.L   #_VUP_DATA_AREA_CPUB,R0                 ; 400000H
11495 00001CBA DA05              3256             MOV.L   #_VUP_DATA_AREA_ADR,R10
11496 00001CBC 2A02              3257             MOV.L   R0,@R10
11497                            3258     
11498 00001CBE DA05              3259             MOV.L   #_CB_SYS_SIZE,R10
11499 00001CC0 30AC              3260             ADD     R10,R0                                  ; 410000H
11500 00001CC2 DA05              3261             MOV.L   #_FROM_REWR_END_ADR,R10
11501 00001CC4 2A02              3262             MOV.L   R0,@R10
11502                            3263     
11503 00001CC6 C500              3264             MOV.W   @(VUP_SEL_PC,GBR),R0                    ; ﾊﾞｰｼﾞｮﾝUP種別CPUAへ
11504                            3265             M_BRA   _FROM_CPUA_REWR_COM
11505 00001CC8 A008                   M           BRA     _FROM_CPUA_REWR_COM
11506 00001CCA 0009                   M           NOP
11507                            3266     ;       ----------------------------------------------------------------------------------
                                          ---
11508                            3267     
11509                                     ***** BEGIN-POOL *****
11510 00001CCC AC400000                   DATA FOR SOURCE-LINE 3255
11511 00001CD0 00000000                   DATA FOR SOURCE-LINE 3256
11512 00001CD4 00010000                   DATA FOR SOURCE-LINE 3259
11513 00001CD8 00000000                   DATA FOR SOURCE-LINE 3261
11514                                     ***** END-POOL *****
11515 00001CDC                   3268     _FROM_CPUA_REWR_COM:
11516 00001CDC 8180              3269             MOV.W   R0,@(VUP_SEL_PC,R8)                     ; ﾊﾞｰｼﾞｮﾝUP種別CPUAへ
11517 00001CDE D004              3270             MOV.L   #1,R0
11518 00001CE0 8181              3271             MOV.W   R0,@(VUP_STR_PC,R8)                     ; ﾊﾞｰｼﾞｮﾝUPｽﾀｰﾄCPUAへ
11519                            3272     
11520 00001CE2 DA04              3273             MOV.L   #_FROM_REWR_STR_FLG,R10
11521 00001CE4 9003              3274             MOV.W   #BIT0,R0
11522 00001CE6 2A01              3275             MOV.W   R0,@R10                                 ; ＣＰＵＡへスタート開始済みＯＮ！
11523                            3276     
11524 00001CE8 E101              3277             MOV     #1,R1
11525                            3278             M_BRA   _FROM_CPUA_REWR_END
11526 00001CEA A124                   M           BRA     _FROM_CPUA_REWR_END
11527 00001CEC 0009                   M           NOP
11528                            3279     
11529                            3280     ;       **********************************************************************************
                                          ***
11530                            3281     ;       *****                                                                           **
                                          ***
11531                            3282     ;       *****   ＳＨ３(CPUB)へＦＲＯＭデータを渡し、書かせる                            **
                                          ***
11532                            3283     ;       *****                                                                           **
                                          ***
11533                            3284     ;       **********************************************************************************
                                          ***
11534                                     ***** BEGIN-POOL *****
11535 00001CEE 0001                       DATA FOR SOURCE-LINE 3274
11536 00001CF0 00000001                   DATA FOR SOURCE-LINE 3270
*** SuperH RISC engine ASSEMBLER V.7.01.02.000 ***    07/04/21 19:29:24                                                  PAGE   113
PROGRAM NAME =

11537 00001CF4 00000000                   DATA FOR SOURCE-LINE 3273
11538                                     ***** END-POOL *****
11539 00001CF8                   3285     _FROM_CPUB4_REWRITE:
11540                            3286             SUB_START
11541 00001CF8 4F22                   M           STS.L   PR,@-R15                ;[必要]
11542                                 M   ;;;;;;; ADD     #-4,R15                 ;[不要?]
11543 00001CFA D804              3287             MOV.L   #_VUP_HSAREA_B_TO_A - _dpram_top + _dpramB_top,R8       ; ﾊﾝﾄﾞｼｪｲｸ領域CPUB
                                          書込みｴﾘｱ先頭ｱﾄﾞﾚｽ
11544 00001CFC D904              3288             MOV.L   #_VUP_HSAREA_A_TO_B - _dpram_top + _dpramB_top,R9       ; ﾊﾝﾄﾞｼｪｲｸ領域CPUA
                                          書込みｴﾘｱ先頭ｱﾄﾞﾚｽ
11545                            3289     
11546 00001CFE DA05              3290             MOV.L   #_FROM_REWR_STR_FLG,R10
11547 00001D00 60A1              3291             MOV.W   @R10,R0
11548 00001D02 C801              3292             TST     #BIT0,R0                                ; ＣＰＵＡへスタート開始済み？
11549 00001D04 8908              3293             BT      _FROM_CPUB_RW100                        ; いいえ
11550                            3294             M_BRA   _FROM_CPUA_REWR_100                     ; はい
11551 00001D06 A06B                   M           BRA     _FROM_CPUA_REWR_100
11552 00001D08 0009                   M           NOP
11553                            3295     
11554                                     ***** BEGIN-POOL *****
11555 00001D0A 0000                       ALIGNMENT CODE
11556 00001D0C 00000000                   DATA FOR SOURCE-LINE 3287
11557 00001D10 00000000                   DATA FOR SOURCE-LINE 3288
11558 00001D14 00000000                   DATA FOR SOURCE-LINE 3290
11559                                     ***** END-POOL *****
11560 00001D18                   3296     _FROM_CPUB_RW100:
11561 00001D18 D004              3297             MOV.L   #_VUP_DATA_AREA_CPUB,R0                 ; 400000H
11562 00001D1A DA05              3298             MOV.L   #_VUP_DATA_AREA_ADR,R10
11563 00001D1C 2A02              3299             MOV.L   R0,@R10
11564                            3300     
11565 00001D1E DA05              3301             MOV.L   #_CPUB_PRO_SIZE,R10
11566 00001D20 30AC              3302             ADD     R10,R0                                  ; 460000H
11567 00001D22 DA05              3303             MOV.L   #_FROM_REWR_END_ADR,R10
11568 00001D24 2A02              3304             MOV.L   R0,@R10
11569                            3305     
11570 00001D26 C500              3306             MOV.W   @(VUP_SEL_PC,GBR),R0                    ; ﾊﾞｰｼﾞｮﾝUP種別CPUAへ
11571                            3307             M_BRA   _FROM_CPUB_REWR_COM
11572 00001D28 A04C                   M           BRA     _FROM_CPUB_REWR_COM
11573 00001D2A 0009                   M           NOP
11574                            3308     ;       ----------------------------------------------------------------------------------
                                          ---
11575                            3309     
11576                                     ***** BEGIN-POOL *****
11577 00001D2C AC400000                   DATA FOR SOURCE-LINE 3297
11578 00001D30 00000000                   DATA FOR SOURCE-LINE 3298
11579 00001D34 000A0000                   DATA FOR SOURCE-LINE 3301
11580 00001D38 00000000                   DATA FOR SOURCE-LINE 3303
11581                                     ***** END-POOL *****
11582 00001D3C                   3310     _FROM_SENB_REWRITE:
11583                            3311             SUB_START
11584 00001D3C 4F22                   M           STS.L   PR,@-R15                ;[必要]
11585                                 M   ;;;;;;; ADD     #-4,R15                 ;[不要?]
11586 00001D3E D804              3312             MOV.L   #_VUP_HSAREA_B_TO_A - _dpram_top + _dpramB_top,R8       ; ﾊﾝﾄﾞｼｪｲｸ領域CPUB
                                          書込みｴﾘｱ先頭ｱﾄﾞﾚｽ
11587 00001D40 D904              3313             MOV.L   #_VUP_HSAREA_A_TO_B - _dpram_top + _dpramB_top,R9       ; ﾊﾝﾄﾞｼｪｲｸ領域CPUA
                                          書込みｴﾘｱ先頭ｱﾄﾞﾚｽ
11588                            3314     
*** SuperH RISC engine ASSEMBLER V.7.01.02.000 ***    07/04/21 19:29:24                                                  PAGE   114
PROGRAM NAME =

11589 00001D42 DA05              3315             MOV.L   #_FROM_REWR_STR_FLG,R10
11590 00001D44 60A1              3316             MOV.W   @R10,R0
11591 00001D46 C801              3317             TST     #BIT0,R0                                ; ＣＰＵＡへスタート開始済み？
11592 00001D48 8908              3318             BT      _FROM_SENB_RW100                        ; はい
11593                            3319             M_BRA   _FROM_CPUA_REWR_100                     ; はい
11594 00001D4A A049                   M           BRA     _FROM_CPUA_REWR_100
11595 00001D4C 0009                   M           NOP
11596                            3320     
11597                                     ***** BEGIN-POOL *****
11598 00001D4E 0000                       ALIGNMENT CODE
11599 00001D50 00000000                   DATA FOR SOURCE-LINE 3312
11600 00001D54 00000000                   DATA FOR SOURCE-LINE 3313
11601 00001D58 00000000                   DATA FOR SOURCE-LINE 3315
11602                                     ***** END-POOL *****
11603 00001D5C                   3321     _FROM_SENB_RW100:
11604 00001D5C D004              3322             MOV.L   #_VUP_DATA_AREA_CPUB,R0                 ; 400000H
11605 00001D5E DA05              3323             MOV.L   #_VUP_DATA_AREA_ADR,R10
11606 00001D60 2A02              3324             MOV.L   R0,@R10
11607                            3325     
11608 00001D62 DA05              3326             MOV.L   #_CB_TBL_SIZE,R10
11609 00001D64 30AC              3327             ADD     R10,R0                                  ; 440000H
11610 00001D66 DA05              3328             MOV.L   #_FROM_REWR_END_ADR,R10
11611 00001D68 2A02              3329             MOV.L   R0,@R10
11612                            3330     
11613 00001D6A C500              3331             MOV.W   @(VUP_SEL_PC,GBR),R0                    ; ﾊﾞｰｼﾞｮﾝUP種別CPUAへ
11614                            3332             M_BRA   _FROM_CPUB_REWR_COM
11615 00001D6C A02A                   M           BRA     _FROM_CPUB_REWR_COM
11616 00001D6E 0009                   M           NOP
11617                            3333     ;       ----------------------------------------------------------------------------------
                                          ---
11618                            3334     
11619                                     ***** BEGIN-POOL *****
11620 00001D70 AC400000                   DATA FOR SOURCE-LINE 3322
11621 00001D74 00000000                   DATA FOR SOURCE-LINE 3323
11622 00001D78 00040000                   DATA FOR SOURCE-LINE 3326
11623 00001D7C 00000000                   DATA FOR SOURCE-LINE 3328
11624                                     ***** END-POOL *****
11625 00001D80                   3335     _FROM_SYSB_REWRITE:
11626                            3336             SUB_START
11627 00001D80 4F22                   M           STS.L   PR,@-R15                ;[必要]
11628                                 M   ;;;;;;; ADD     #-4,R15                 ;[不要?]
11629 00001D82 D804              3337             MOV.L   #_VUP_HSAREA_B_TO_A - _dpram_top + _dpramB_top,R8       ; ﾊﾝﾄﾞｼｪｲｸ領域CPUB
                                          書込みｴﾘｱ先頭ｱﾄﾞﾚｽ
11630 00001D84 D904              3338             MOV.L   #_VUP_HSAREA_A_TO_B - _dpram_top + _dpramB_top,R9       ; ﾊﾝﾄﾞｼｪｲｸ領域CPUA
                                          書込みｴﾘｱ先頭ｱﾄﾞﾚｽ
11631                            3339     
11632 00001D86 DA05              3340             MOV.L   #_FROM_REWR_STR_FLG,R10
11633 00001D88 60A1              3341             MOV.W   @R10,R0
11634 00001D8A C801              3342             TST     #BIT0,R0                                ; ＣＰＵＡへスタート開始済み？
11635 00001D8C 8908              3343             BT      _FROM_SYSB_RW100                        ; いいえ
11636                            3344             M_BRA   _FROM_CPUA_REWR_100                     ; はい
11637 00001D8E A027                   M           BRA     _FROM_CPUA_REWR_100
11638 00001D90 0009                   M           NOP
11639                            3345     
11640                                     ***** BEGIN-POOL *****
11641 00001D92 0000                       ALIGNMENT CODE
11642 00001D94 00000000                   DATA FOR SOURCE-LINE 3337
*** SuperH RISC engine ASSEMBLER V.7.01.02.000 ***    07/04/21 19:29:24                                                  PAGE   115
PROGRAM NAME =

11643 00001D98 00000000                   DATA FOR SOURCE-LINE 3338
11644 00001D9C 00000000                   DATA FOR SOURCE-LINE 3340
11645                                     ***** END-POOL *****
11646 00001DA0                   3346     _FROM_SYSB_RW100:
11647 00001DA0 D004              3347             MOV.L   #_VUP_DATA_AREA_CPUB,R0                 ; 400000H
11648 00001DA2 DA05              3348             MOV.L   #_VUP_DATA_AREA_ADR,R10
11649 00001DA4 2A02              3349             MOV.L   R0,@R10
11650                            3350     
11651 00001DA6 DA05              3351             MOV.L   #_CB_SYS_SIZE,R10
11652 00001DA8 30AC              3352             ADD     R10,R0                                  ; 410000H
11653 00001DAA DA05              3353             MOV.L   #_FROM_REWR_END_ADR,R10
11654 00001DAC 2A02              3354             MOV.L   R0,@R10
11655                            3355     
11656 00001DAE C500              3356             MOV.W   @(VUP_SEL_PC,GBR),R0                    ; ﾊﾞｰｼﾞｮﾝUP種別CPUAへ
11657                            3357             M_BRA   _FROM_CPUB_REWR_COM
11658 00001DB0 A008                   M           BRA     _FROM_CPUB_REWR_COM
11659 00001DB2 0009                   M           NOP
11660                            3358     ;       ----------------------------------------------------------------------------------
                                          ---
11661                            3359     
11662                                     ***** BEGIN-POOL *****
11663 00001DB4 AC400000                   DATA FOR SOURCE-LINE 3347
11664 00001DB8 00000000                   DATA FOR SOURCE-LINE 3348
11665 00001DBC 00010000                   DATA FOR SOURCE-LINE 3351
11666 00001DC0 00000000                   DATA FOR SOURCE-LINE 3353
11667                                     ***** END-POOL *****
11668 00001DC4                   3360     _FROM_CPUB_REWR_COM:
11669 00001DC4 8180              3361             MOV.W   R0,@(VUP_SEL_PC,R8)                     ; ﾊﾞｰｼﾞｮﾝUP種別CPUAへ
11670 00001DC6 D004              3362             MOV.L   #1,R0
11671 00001DC8 8181              3363             MOV.W   R0,@(VUP_STR_PC,R8)                     ; ﾊﾞｰｼﾞｮﾝUPｽﾀｰﾄCPUAへ
11672                            3364     
11673 00001DCA DA04              3365             MOV.L   #_FROM_REWR_STR_FLG,R10
11674 00001DCC 9003              3366             MOV.W   #(BIT7+BIT0),R0
11675 00001DCE 2A01              3367             MOV.W   R0,@R10                                 ; ＣＰＵＡへスタート開始済みＯＮ！
11676                            3368     
11677 00001DD0 E101              3369             MOV     #1,R1
11678                            3370             M_BRA   _FROM_CPUA_REWR_END
11679 00001DD2 A0B0                   M           BRA     _FROM_CPUA_REWR_END
11680 00001DD4 0009                   M           NOP
11681                            3371     
11682                            3372     ;-----------------------------------------------------------------------------------------
                                          -----------------------
11683                            3373     ;-----------------------------------------------------------------------------------------
                                          -----------------------
11684                            3374     ;-----------------------------------------------------------------------------------------
                                          -----------------------
11685                            3375     ;//CPUA/B共通
11686                                     ***** BEGIN-POOL *****
11687 00001DD6 0081                       DATA FOR SOURCE-LINE 3366
11688 00001DD8 00000001                   DATA FOR SOURCE-LINE 3362
11689 00001DDC 00000000                   DATA FOR SOURCE-LINE 3365
11690                                     ***** END-POOL *****
11691 00001DE0                   3376     _FROM_CPUA_REWR_100:
11692                            3377     ;       -------------------------------- 2006/12/26(INS) V05 {
11693 00001DE0 859C              3378             MOV.W   @(VUP_REV1_SH,R9),R0                    ; ﾊﾞｰｼﾞｮﾝUPｽﾀｰﾄCPUAから
11694 00001DE2 C10C              3379             MOV.W   R0,@(VUP_REV1_SH,GBR)
11695                            3380     ;       -------------------------------- }
*** SuperH RISC engine ASSEMBLER V.7.01.02.000 ***    07/04/21 19:29:24                                                  PAGE   116
PROGRAM NAME =

11696                            3381     
11697                            3382     ;       -------------------------------------------------
11698                            3383     ;               CPUAからのｽﾀｰﾄｺｰﾄﾞ応答待ち
11699                            3384     ;       -------------------------------------------------
11700 00001DE4 DA07              3385             MOV.L   #_FROM_REWR_STR_FLG,R10
11701 00001DE6 60A1              3386             MOV.W   @R10,R0
11702 00001DE8 C802              3387             TST     #BIT1,R0                                ; ＣＰＵＡからスタート開始応答済み
                                          ？
11703 00001DEA 8B0D              3388             BF      _FROM_CPUA_REWR_150                     ; はい
11704                            3389     
11705 00001DEC 8581              3390             MOV.W   @(VUP_STR_PC,R8),R0                     ; ﾊﾞｰｼﾞｮﾝUPｽﾀｰﾄCPUAへ
11706 00001DEE 6103              3391             MOV     R0,R1
11707 00001DF0 8591              3392             MOV.W   @(VUP_STR_PC,R9),R0                     ; ﾊﾞｰｼﾞｮﾝUPｽﾀｰﾄCPUAから
11708 00001DF2 3100              3393             CMP/EQ  R0,R1                                   ; CPUAから応答有り？
11709 00001DF4 8B03              3394             BF      _FROM_CPUA_REWR_120                     ; いいえ
11710                            3395     
11711 00001DF6 DA03              3396             MOV.L   #_FROM_REWR_STR_FLG,R10
11712 00001DF8 60A1              3397             MOV.W   @R10,R0
11713 00001DFA CB02              3398             OR      #BIT1,R0                                ; ｽﾀｰﾄ応答済みＯＮ！
11714 00001DFC 2A01              3399             MOV.W   R0,@R10
11715                            3400     
11716 00001DFE                   3401     _FROM_CPUA_REWR_120:
11717 00001DFE E101              3402             MOV     #1,R1
11718                            3403             M_BRA   _FROM_CPUA_REWR_END
11719 00001E00 A099                   M           BRA     _FROM_CPUA_REWR_END
11720 00001E02 0009                   M           NOP
11721                            3404     
11722                            3405     ;       -------------------------------------------------
11723                            3406     ;               CPUAへ2000Hづつ転送
11724                            3407     ;       -------------------------------------------------
11725                                     ***** BEGIN-POOL *****
11726 00001E04 00000000                   DATA FOR SOURCE-LINE 3385,3396
11727                                     ***** END-POOL *****
11728 00001E08                   3408     _FROM_CPUA_REWR_150:
11729 00001E08 DA10              3409             MOV.L   #_FROM_REWR_STR_FLG,R10
11730 00001E0A 60A1              3410             MOV.W   @R10,R0
11731 00001E0C C804              3411             TST     #BIT2,R0                                ; ＣＰＵＡへ2000Ｈ転送完了済み？
11732 00001E0E 8B25              3412             BF      _FROM_CPUA_REWR_200                     ; はい
11733                            3413     
11734 00001E10 DA0F              3414             MOV.L   #_VUP_DATA_AREA_ADR,R10
11735 00001E12 6BA2              3415             MOV.L   @R10,R11
11736 00001E14 DC0F              3416             MOV.L   #_VUP_DATA_ADR_OP1,R12
11737 00001E16 C880              3417             TST     #BIT7,R0                                ; ＣＰＵＢ？
11738 00001E18 8900              3418             BT      _FROM_CPUA_REWR_160                     ; いいえ
11739 00001E1A DC0F              3419             MOV.L   #_VUP_DATA_ADR_OP1 - _dpram_top + _dpramB_top,R12
11740 00001E1C                   3420     _FROM_CPUA_REWR_160:
11741 00001E1C 9413              3421             MOV.W   #(H'2000/4),R4
11742                            3422     
11743 00001E1E                   3423     _FROM_CPUA_REWR_170:
11744 00001E1E 60B6              3424             MOV.L   @R11+,R0
11745 00001E20 0009              3425             NOP
11746 00001E22 2C02              3426             MOV.L   R0,@R12
11747 00001E24 7C04              3427             ADD     #4,R12
11748 00001E26 4410              3428             DT      R4
11749 00001E28 8BF9              3429             BF      _FROM_CPUA_REWR_170
11750                            3430     
11751 00001E2A DA09              3431             MOV.L   #_VUP_DATA_AREA_ADR,R10
*** SuperH RISC engine ASSEMBLER V.7.01.02.000 ***    07/04/21 19:29:24                                                  PAGE   117
PROGRAM NAME =

11752 00001E2C 2AB2              3432             MOV.L   R11,@R10
11753                            3433     
11754 00001E2E 8585              3434             MOV.W   @(VUP_REV2_PC,R8),R0
11755 00001E30 7001              3435             ADD     #1,R0
11756 00001E32 8185              3436             MOV.W   R0,@(VUP_REV2_PC,R8)                    ; データブロック番号
11757 00001E34 9008              3437             MOV.W   #1,R0
11758 00001E36 8184              3438             MOV.W   R0,@(VUP_REV1_PC,R8)                    ; 2000H転送完了
11759                            3439     
11760 00001E38 DA04              3440             MOV.L   #_FROM_REWR_STR_FLG,R10
11761 00001E3A 60A1              3441             MOV.W   @R10,R0
11762 00001E3C CB04              3442             OR      #BIT2,R0                                ; ＣＰＵＡへ2000Ｈ転送完了ＯＮ！
11763 00001E3E 2A01              3443             MOV.W   R0,@R10
11764                            3444     
11765 00001E40 E101              3445             MOV     #1,R1
11766                            3446             M_BRA   _FROM_CPUA_REWR_END
11767 00001E42 A078                   M           BRA     _FROM_CPUA_REWR_END
11768 00001E44 0009                   M           NOP
11769                            3447     
11770                            3448     ;       -------------------------------------------------
11771                            3449     ;               CPUAから2000H受信完了応答待ち
11772                            3450     ;       -------------------------------------------------
11773                                     ***** BEGIN-POOL *****
11774 00001E46 0800                       DATA FOR SOURCE-LINE 3421
11775 00001E48 0001                       DATA FOR SOURCE-LINE 3437
11776 00001E4A 0000                       ALIGNMENT CODE
11777 00001E4C 00000000                   DATA FOR SOURCE-LINE 3409,3440
11778 00001E50 00000000                   DATA FOR SOURCE-LINE 3414,3431
11779 00001E54 00000000                   DATA FOR SOURCE-LINE 3416
11780 00001E58 00000000                   DATA FOR SOURCE-LINE 3419
11781                                     ***** END-POOL *****
11782 00001E5C                   3451     _FROM_CPUA_REWR_200:
11783 00001E5C DA09              3452             MOV.L   #_FROM_REWR_STR_FLG,R10
11784 00001E5E 60A1              3453             MOV.W   @R10,R0
11785 00001E60 C808              3454             TST     #BIT3,R0                                ; ＣＰＵＡから2000Ｈ受信完了応答済
                                          み？
11786 00001E62 8B11              3455             BF      _FROM_CPUA_REWR_250                     ; はい
11787                            3456     
11788 00001E64 8584              3457             MOV.W   @(VUP_REV1_PC,R8),R0                    ;
11789 00001E66 6103              3458             MOV     R0,R1
11790 00001E68 8594              3459             MOV.W   @(VUP_REV1_PC,R9),R0                    ;
11791 00001E6A 3100              3460             CMP/EQ  R0,R1                                   ; CPUAから応答有り？
11792 00001E6C 8B05              3461             BF      _FROM_CPUA_REWR_240                     ; いいえ
11793                            3462     
11794 00001E6E 9007              3463             MOV.W   #0,R0
11795 00001E70 8184              3464             MOV.W   R0,@(VUP_REV1_PC,R8)                    ; ＣＰＵＡへ2000H転送完了ＯＦＦ
11796                            3465     
11797 00001E72 DA04              3466             MOV.L   #_FROM_REWR_STR_FLG,R10
11798 00001E74 60A1              3467             MOV.W   @R10,R0
11799 00001E76 CB08              3468             OR      #BIT3,R0                                ; 応答済みＯＮ！
11800 00001E78 2A01              3469             MOV.W   R0,@R10
11801                            3470     
11802 00001E7A                   3471     _FROM_CPUA_REWR_240:
11803 00001E7A E101              3472             MOV     #1,R1
11804                            3473             M_BRA   _FROM_CPUA_REWR_END
11805 00001E7C A05B                   M           BRA     _FROM_CPUA_REWR_END
11806 00001E7E 0009                   M           NOP
11807                            3474     
*** SuperH RISC engine ASSEMBLER V.7.01.02.000 ***    07/04/21 19:29:24                                                  PAGE   118
PROGRAM NAME =

11808                            3475     ;       -------------------------------------------------
11809                            3476     ;               CPUAから2000H受信完了信号OFF待ち
11810                            3477     ;       -------------------------------------------------
11811                                     ***** BEGIN-POOL *****
11812 00001E80 0000                       DATA FOR SOURCE-LINE 3463
11813 00001E82 0000                       ALIGNMENT CODE
11814 00001E84 00000000                   DATA FOR SOURCE-LINE 3452,3466
11815                                     ***** END-POOL *****
11816 00001E88                   3478     _FROM_CPUA_REWR_250:
11817 00001E88 DA0B              3479             MOV.L   #_FROM_REWR_STR_FLG,R10
11818 00001E8A 60A1              3480             MOV.W   @R10,R0
11819 00001E8C C810              3481             TST     #BIT4,R0                                ; ＣＰＵＡから2000Ｈ受信完了応答済
                                          み？
11820 00001E8E 8B29              3482             BF      _FROM_CPUA_REWR_300                     ; はい
11821                            3483     
11822 00001E90 8584              3484             MOV.W   @(VUP_REV1_PC,R8),R0                    ;
11823 00001E92 6103              3485             MOV     R0,R1
11824 00001E94 8594              3486             MOV.W   @(VUP_REV1_PC,R9),R0                    ;
11825 00001E96 3100              3487             CMP/EQ  R0,R1                                   ; CPUAから応答有り？
11826 00001E98 8B1C              3488             BF      _FROM_CPUA_REWR_290                     ; いいえ
11827                            3489     
11828 00001E9A DA08              3490             MOV.L   #_VUP_DATA_AREA_ADR,R10
11829 00001E9C 60A2              3491             MOV.L   @R10,R0
11830 00001E9E DA08              3492             MOV.L   #_FROM_REWR_END_ADR,R10
11831 00001EA0 61A2              3493             MOV.L   @R10,R1
11832 00001EA2 3012              3494             CMP/HS  R1,R0                                   ; 転送最終アドレス？
11833 00001EA4 890E              3495             BT      _FROM_CPUA_REWR_270                     ; はい
11834                            3496     
11835 00001EA6 DA04              3497             MOV.L   #_FROM_REWR_STR_FLG,R10
11836 00001EA8 60A1              3498             MOV.W   @R10,R0
11837 00001EAA 9104              3499             MOV.W   #(BIT3+BIT2),R1
11838 00001EAC 6117              3500             NOT     R1,R1
11839 00001EAE 2019              3501             AND     R1,R0                                   ; 転送完了／応答済みＯＦＦ！
11840 00001EB0 2A01              3502             MOV.W   R0,@R10
11841                            3503             M_BRA   _FROM_CPUA_REWR_290
11842 00001EB2 A00F                   M           BRA     _FROM_CPUA_REWR_290
11843 00001EB4 0009                   M           NOP
11844                            3504     
11845                                     ***** BEGIN-POOL *****
11846 00001EB6 000C                       DATA FOR SOURCE-LINE 3499
11847 00001EB8 00000000                   DATA FOR SOURCE-LINE 3479,3497
11848 00001EBC 00000000                   DATA FOR SOURCE-LINE 3490
11849 00001EC0 00000000                   DATA FOR SOURCE-LINE 3492
11850                                     ***** END-POOL *****
11851 00001EC4                   3505     _FROM_CPUA_REWR_270:
11852 00001EC4 9009              3506             MOV.W   #0,R0
11853 00001EC6 8185              3507             MOV.W   R0,@(VUP_REV2_PC,R8)                    ; データブロック番号クリア
11854 00001EC8 9008              3508             MOV.W   #1,R0
11855 00001ECA 8183              3509             MOV.W   R0,@(VUP_DATA_WR_PC,R8)                 ; フラッシュへデータ書けＯＮ！
11856                            3510     
11857 00001ECC DA04              3511             MOV.L   #_FROM_REWR_STR_FLG,R10
11858 00001ECE 60A1              3512             MOV.W   @R10,R0
11859 00001ED0 CB10              3513             OR      #BIT4,R0                                ; 全データ送信完ＯＮ！
11860 00001ED2 2A01              3514             MOV.W   R0,@R10
11861                            3515     
11862 00001ED4                   3516     _FROM_CPUA_REWR_290:
11863 00001ED4 E101              3517             MOV     #1,R1
*** SuperH RISC engine ASSEMBLER V.7.01.02.000 ***    07/04/21 19:29:24                                                  PAGE   119
PROGRAM NAME =

11864                            3518             M_BRA   _FROM_CPUA_REWR_END
11865 00001ED6 A02E                   M           BRA     _FROM_CPUA_REWR_END
11866 00001ED8 0009                   M           NOP
11867                            3519     
11868                            3520     ;       -------------------------------------------------
11869                            3521     ;               CPUAからﾌﾗｯｼｭ書込み完了応答待ち
11870                            3522     ;       -------------------------------------------------
11871                                     ***** BEGIN-POOL *****
11872 00001EDA 0000                       DATA FOR SOURCE-LINE 3506
11873 00001EDC 0001                       DATA FOR SOURCE-LINE 3508
11874 00001EDE 0000                       ALIGNMENT CODE
11875 00001EE0 00000000                   DATA FOR SOURCE-LINE 3511
11876                                     ***** END-POOL *****
11877 00001EE4                   3523     _FROM_CPUA_REWR_300:
11878 00001EE4 DA09              3524             MOV.L   #_FROM_REWR_STR_FLG,R10
11879 00001EE6 60A1              3525             MOV.W   @R10,R0
11880 00001EE8 C820              3526             TST     #BIT5,R0                                ; ＣＰＵＡから2000Ｈ受信完了応答済
                                          み？
11881 00001EEA 8B11              3527             BF      _FROM_CPUA_REWR_350                     ; はい
11882                            3528     
11883 00001EEC 8583              3529             MOV.W   @(VUP_DATA_WR_PC,R8),R0                 ;
11884 00001EEE 6103              3530             MOV     R0,R1
11885 00001EF0 8593              3531             MOV.W   @(VUP_DATA_WR_PC,R9),R0                 ;
11886 00001EF2 3100              3532             CMP/EQ  R0,R1                                   ; CPUAから応答有り？
11887 00001EF4 8B05              3533             BF      _FROM_CPUA_REWR_340                     ; いいえ
11888                            3534     
11889 00001EF6 9007              3535             MOV.W   #0,R0
11890 00001EF8 8183              3536             MOV.W   R0,@(VUP_DATA_WR_PC,R8)                 ; ＣＰＵＡへ書込み指令ＯＦＦ
11891                            3537     
11892 00001EFA DA04              3538             MOV.L   #_FROM_REWR_STR_FLG,R10
11893 00001EFC 60A1              3539             MOV.W   @R10,R0
11894 00001EFE CB20              3540             OR      #BIT5,R0                                ; 書込み完了ＯＮ！
11895 00001F00 2A01              3541             MOV.W   R0,@R10
11896                            3542     
11897 00001F02                   3543     _FROM_CPUA_REWR_340:
11898 00001F02 E101              3544             MOV     #1,R1
11899                            3545             M_BRA   _FROM_CPUA_REWR_END
11900 00001F04 A017                   M           BRA     _FROM_CPUA_REWR_END
11901 00001F06 0009                   M           NOP
11902                            3546     
11903                            3547     ;       -------------------------------------------------
11904                            3548     ;               CPUAからﾌﾗｯｼｭ書込み完了応答OFF待ち
11905                            3549     ;       -------------------------------------------------
11906                                     ***** BEGIN-POOL *****
11907 00001F08 0000                       DATA FOR SOURCE-LINE 3535
11908 00001F0A 0000                       ALIGNMENT CODE
11909 00001F0C 00000000                   DATA FOR SOURCE-LINE 3524,3538
11910                                     ***** END-POOL *****
11911 00001F10                   3550     _FROM_CPUA_REWR_350:
11912 00001F10 8583              3551             MOV.W   @(VUP_DATA_WR_PC,R8),R0                 ;
11913 00001F12 6103              3552             MOV     R0,R1
11914 00001F14 8593              3553             MOV.W   @(VUP_DATA_WR_PC,R9),R0                 ;
11915 00001F16 3100              3554             CMP/EQ  R0,R1                                   ; CPUAから応答有り？
11916 00001F18 8B0A              3555             BF      _FROM_CPUA_REWR_390                     ; いいえ
11917                            3556     
11918 00001F1A 9005              3557             MOV.W   #0,R0
11919 00001F1C 8181              3558             MOV.W   R0,@(VUP_STR_PC,R8)
*** SuperH RISC engine ASSEMBLER V.7.01.02.000 ***    07/04/21 19:29:24                                                  PAGE   120
PROGRAM NAME =

11920                            3559     
11921 00001F1E DA03              3560             MOV.L   #_FROM_REWR_STR_FLG,R10
11922 00001F20 2A01              3561             MOV.W   R0,@R10
11923                            3562     
11924 00001F22 E100              3563             MOV     #0,R1
11925                            3564             M_BRA   _FROM_CPUA_REWR_END
11926 00001F24 A007                   M           BRA     _FROM_CPUA_REWR_END
11927 00001F26 0009                   M           NOP
11928                            3565     
11929                                     ***** BEGIN-POOL *****
11930 00001F28 0000                       DATA FOR SOURCE-LINE 3557
11931 00001F2A 0000                       ALIGNMENT CODE
11932 00001F2C 00000000                   DATA FOR SOURCE-LINE 3560
11933                                     ***** END-POOL *****
11934 00001F30                   3566     _FROM_CPUA_REWR_390:
11935 00001F30 E101              3567             MOV     #1,R1
11936                            3568             M_BRA   _FROM_CPUA_REWR_END
11937 00001F32 A000                   M           BRA     _FROM_CPUA_REWR_END
11938 00001F34 0009                   M           NOP
11939                            3569     
11940 00001F36                   3570     _FROM_CPUA_REWR_END:
11941                            3571             SUB_END
11942                                 M   ;;;;;;; ADD     #4,R15                  ;[不要?]
11943 00001F36 4F26                   M           LDS.L   @R15+,PR                ;[必要]
11944                            3572             M_RTS
11945 00001F38 000B                   M           RTS                             ;RTSの後ろの
11946 00001F3A 0009                   M           NOP                             ;@R15+,PRはﾀﾞﾒ
11947                            3573     
11948                            3574     
11949                            3575     ;★★★★★★★★★★★★★★★★★★★★★★★★★★★★★★★★★★★★★★★★★★★★
                                          ★★★★★★★★★★★★
11950                            3576     
11951                            3577     
11952 00001F3C                   3578             .SECTION        PvupsciROM,CODE,ALIGN=4
11953                            3579     ;       **********************************************************************************
                                          ***
11954                            3580     ;       *****                                                                           **
                                          ***
11955                            3581     ;       *****                                                                           **
                                          ***
11956                            3582     ;       *****   ＥＰＲＯＭからＦＲＯＭへ全コピー                                        **
                                          ***
11957                            3583     ;       *****   （ＥＰＲＯＭで動かしＦＲＯＭにコピーしたいとき）                        **
                                          ***
11958                            3584     ;       *****                                                                           **
                                          ***
11959                            3585     ;       **********************************************************************************
                                          ***
11960 00001F3C                   3586     _EPROM_TO_FROM_COPY:
11961                            3587             SUB_START
11962 00001F3C 4F22                   M           STS.L   PR,@-R15                ;[必要]
11963                                 M   ;;;;;;; ADD     #-4,R15                 ;[不要?]
11964                            3588             .AIF    1 EQ 1
11965                            3589 C   
11966 00001F3E DA04              3590 C           MOV.L   #_EPROM_TO_FROM_END,R10
11967 00001F40 60A1              3591 C           MOV.W   @R10,R0
11968 00001F42 9403              3592 C           MOV.W   #H'5AA5,R4
*** SuperH RISC engine ASSEMBLER V.7.01.02.000 ***    07/04/21 19:29:24                                                  PAGE   121
PROGRAM NAME =

11969 00001F44 3400              3593 C           CMP/EQ  R0,R4
11970 00001F46 8B05              3594 C           BF      _EP2F_COPY_STR
11971                            3595 C           M_BRA   _EP2F_COPY_EXT
11972 00001F48 A04D                   M           BRA     _EP2F_COPY_EXT
11973 00001F4A 0009                   M           NOP
11974                            3596 C   
11975                                 C   ***** BEGIN-POOL *****
11976 00001F4C 5AA5                   C   DATA FOR SOURCE-LINE 3592
11977 00001F4E 0000                   C   ALIGNMENT CODE
11978 00001F50 00000000               C   DATA FOR SOURCE-LINE 3590
11979                                 C   ***** END-POOL *****
11980 00001F54                   3597 C   _EP2F_COPY_STR:
11981 00001F54 DA03              3598 C           MOV.L   #_PFDR,R10
11982 00001F56 60A0              3599 C           MOV.B   @R10,R0
11983 00001F58 6007              3600 C           NOT     R0,R0
11984 00001F5A 600C              3601 C           EXTU.B  R0,R0
11985 00001F5C 885A              3602 C           CMP/EQ  #H'5A,R0
11986 00001F5E 8903              3603 C           BT      _EP2F_COPY_000
11987                            3604 C           M_BRA   _EP2F_COPY_EXT
11988 00001F60 A041                   M           BRA     _EP2F_COPY_EXT
11989 00001F62 0009                   M           NOP
11990                            3605 C   
11991                                 C   ***** BEGIN-POOL *****
11992 00001F64 00000000               C   DATA FOR SOURCE-LINE 3598
11993                                 C   ***** END-POOL *****
11994 00001F68                   3606 C   _EP2F_COPY_000:
11995 00001F68 940D              3607 C           MOV.W   #11,R4
11996 00001F6A DB07              3608 C           MOV.L   #_FROMSYSEP_SECT_TBL+0*4,R11
11997 00001F6C                   3609 C   _EP2F_COPY_050:
11998 00001F6C 2448              3610 C           TST     R4,R4                                   ; ｾｸﾀ0〜10（ｱﾄﾞﾚｽ0〜7FFFF）まで消
                                          去
11999 00001F6E 8913              3611 C           BT      _EP2F_COPY_100
12000 00001F70 68B6              3612 C           MOV.L   @R11+,R8                                ;
12001 00001F72 DD06              3613 C           MOV.L   #H'B0000000,R13                         ; ｺﾋﾟｰ先先頭ｱﾄﾞﾚｽ
12002                            3614 C           FAR_JSR #_FROM_ERASE_CMND,R10                   ; 消去ｺﾏﾝﾄﾞ発行
12003 00001F74 DA06                   M           MOV.L   #_FROM_ERASE_CMND,R10           ;ﾃｰﾌﾞﾙｱﾄﾞﾚｽの内容をREGへ
12004 00001F76 4A0B                   M           JSR     @R10                    ;
12005 00001F78 0009                   M           NOP                                     ;
12006                            3615 C                                                           ; In : R13<-_from_top  R0:KEEP
12007                            3616 C                                                           ; In : R8 <- 消去するｾｸﾀの先頭ｱﾄﾞﾚ
                                          ｽ
12008                            3617 C           FAR_JSR #_FROM_ERASE_POLLINKG,R10               ; 消去時のﾎﾟｰﾘﾝｸﾞ
12009 00001F7A DA06                   M           MOV.L   #_FROM_ERASE_POLLINKG,R10               ;ﾃｰﾌﾞﾙｱﾄﾞﾚｽの内容をREGへ
12010 00001F7C 4A0B                   M           JSR     @R10                    ;
12011 00001F7E 0009                   M           NOP                                     ;
12012                            3618 C                                                           ; In : R8 <- 消去するｾｸﾀの先頭ｱﾄﾞﾚ
                                          ｽ
12013 00001F80 74FF              3619 C           ADD     #-1,R4
12014                            3620 C           M_BRA   _EP2F_COPY_050
12015 00001F82 AFF3                   M           BRA     _EP2F_COPY_050
12016 00001F84 0009                   M           NOP
12017                            3621 C   
12018                                 C   ***** BEGIN-POOL *****
12019 00001F86 000B                   C   DATA FOR SOURCE-LINE 3607
12020 00001F88 00000000               C   DATA FOR SOURCE-LINE 3608
12021 00001F8C B0000000               C   DATA FOR SOURCE-LINE 3613
12022 00001F90 00000000               C   DATA FOR SOURCE-LINE 3614
*** SuperH RISC engine ASSEMBLER V.7.01.02.000 ***    07/04/21 19:29:24                                                  PAGE   122
PROGRAM NAME =

12023 00001F94 00000000               C   DATA FOR SOURCE-LINE 3617
12024                                 C   ***** END-POOL *****
12025 00001F98                   3622 C   _EP2F_COPY_100:
12026                            3623 C   
12027 00001F98 D90C              3624 C           MOV.L   #0,R9                                   ; ｺﾋﾟｰ元先頭ｱﾄﾞﾚｽ
12028 00001F9A D80D              3625 C           MOV.L   #H'B0000000,R8                          ; ｺﾋﾟｰ先先頭ｱﾄﾞﾚｽ
12029 00001F9C D50D              3626 C           MOV.L   #H'B007EFFF,R5                          ; ｺﾋﾟｰ先最終ｱﾄﾞﾚｽ
12030 00001F9E                   3627 C   _EP2F_COPY_150:
12031 00001F9E 3856              3628 C           CMP/HI  R5,R8                                   ; 最終ｱﾄﾞﾚｽを超えた？
12032 00001FA0 891E              3629 C           BT      _EP2F_COPY_200
12033                            3630 C   
12034 00001FA2 DD0B              3631 C           MOV.L   #H'B0000000,R13                         ; ｺﾋﾟｰ先先頭ｱﾄﾞﾚｽ
12035                            3632 C           FAR_JSR #_FROM_WRITE_CMND,R10                   ; FROM書込みｺﾏﾝﾄﾞ発行
12036 00001FA4 DA0C                   M           MOV.L   #_FROM_WRITE_CMND,R10           ;ﾃｰﾌﾞﾙｱﾄﾞﾚｽの内容をREGへ
12037 00001FA6 4A0B                   M           JSR     @R10                    ;
12038 00001FA8 0009                   M           NOP                                     ;
12039                            3633 C                                                           ; In:R13<-_from_top  R0:KEEP
12040 00001FAA 0009              3634 C           NOP
12041 00001FAC 0009              3635 C           NOP
12042 00001FAE 6095              3636 C           MOV.W   @R9+,R0
12043 00001FB0 0009              3637 C           NOP
12044 00001FB2 0009              3638 C           NOP
12045 00001FB4 0009              3639 C           NOP
12046 00001FB6 0009              3640 C           NOP
12047 00001FB8 0009              3641 C           NOP
12048 00001FBA 2801              3642 C           MOV.W   R0,@R8
12049 00001FBC 0009              3643 C           NOP
12050 00001FBE 0009              3644 C           NOP
12051                            3645 C   
12052                            3646 C           FAR_JSR #_FROM_WRITE_POLLINKG,R10
12053 00001FC0 DA06                   M           MOV.L   #_FROM_WRITE_POLLINKG,R10               ;ﾃｰﾌﾞﾙｱﾄﾞﾚｽの内容をREGへ
12054 00001FC2 4A0B                   M           JSR     @R10                    ;
12055 00001FC4 0009                   M           NOP                                     ;
12056 00001FC6 7802              3647 C           ADD     #2,R8
12057                            3648 C           M_BRA   _EP2F_COPY_150
12058 00001FC8 AFE9                   M           BRA     _EP2F_COPY_150
12059 00001FCA 0009                   M           NOP
12060                            3649 C   
12061                                 C   ***** BEGIN-POOL *****
12062 00001FCC 00000000               C   DATA FOR SOURCE-LINE 3624
12063 00001FD0 B0000000               C   DATA FOR SOURCE-LINE 3625,3631
12064 00001FD4 B007EFFF               C   DATA FOR SOURCE-LINE 3626
12065 00001FD8 00000000               C   DATA FOR SOURCE-LINE 3632
12066 00001FDC 00000000               C   DATA FOR SOURCE-LINE 3646
12067                                 C   ***** END-POOL *****
12068 00001FE0                   3650 C   _EP2F_COPY_200:
12069 00001FE0 DA03              3651 C           MOV.L   #_EPROM_TO_FROM_END,R10
12070 00001FE2 9403              3652 C           MOV.W   #H'5AA5,R4
12071 00001FE4 2A41              3653 C           MOV.W   R4,@R10
12072                            3654 C   
12073 00001FE6                   3655 C   _EP2F_COPY_EXT:
12074                            3656             .AENDI
12075                            3657             SUB_END
12076                                 M   ;;;;;;; ADD     #4,R15                  ;[不要?]
12077 00001FE6 4F26                   M           LDS.L   @R15+,PR                ;[必要]
12078                            3658             M_RTS
12079 00001FE8 000B                   M           RTS                             ;RTSの後ろの
*** SuperH RISC engine ASSEMBLER V.7.01.02.000 ***    07/04/21 19:29:24                                                  PAGE   123
PROGRAM NAME =

12080 00001FEA 0009                   M           NOP                             ;@R15+,PRはﾀﾞﾒ
12081                            3659     
12082                            3660     
12083                            3661     ;//_FROMSYS_SECT_TBL:
12084                            3662     ;//     .DATA.L         H'A0000000                      ; ｾｸﾀ0  16kb
12085                            3663     ;//     .DATA.L         H'A0004000                      ; ｾｸﾀ1  8kb
12086                            3664     ;//     .DATA.L         H'A0006000                      ; ｾｸﾀ2  8kb
12087                            3665     ;//     .DATA.L         H'A0008000                      ; ｾｸﾀ3  32kb
12088                            3666     ;//     .DATA.L         H'A0010000                      ; ｾｸﾀ4  64kb
12089                            3667     ;//     .DATA.L         H'A0020000                      ; ｾｸﾀ5  64kb
12090                            3668     ;//     .DATA.L         H'A0030000                      ; ｾｸﾀ6  64kb
12091                            3669     ;//     .DATA.L         H'A0040000                      ; ｾｸﾀ7  64kb
12092                            3670     ;//     .DATA.L         H'A0050000                      ; ｾｸﾀ8  64kb
12093                            3671     ;//     .DATA.L         H'A0060000                      ; ｾｸﾀ9  64kb
12094                            3672     ;//     .DATA.L         H'A0070000                      ; ｾｸﾀ10 64kb
12095                            3673     ;//     .DATA.L         H'A0080000                      ; ｾｸﾀ11 64kb
12096                            3674     ;//     .DATA.L         H'A0090000                      ; ｾｸﾀ12 64kb
12097                            3675     ;//     .DATA.L         H'A00a0000                      ; ｾｸﾀ13 64kb
12098                            3676     ;//     .DATA.L         H'A00b0000                      ; ｾｸﾀ14 64kb
12099                            3677     ;//     .DATA.L         H'A00c0000                      ; ｾｸﾀ15 64kb
12100                            3678     ;//     .DATA.L         H'A00d0000                      ; ｾｸﾀ16 64kb
12101                            3679     ;//     .DATA.L         H'A00e0000                      ; ｾｸﾀ17 64kb
12102                            3680     ;//     .DATA.L         H'A00f0000                      ; ｾｸﾀ18 64kb
12103                            3681     ;//     .DATA.L         H'A0100000                      ; DUMMY
12104                            3682     
12105                            3683     
12106                                     ***** BEGIN-POOL *****
12107 00001FEC 5AA5                       DATA FOR SOURCE-LINE 3652
12108 00001FEE 0000                       ALIGNMENT CODE
12109 00001FF0 00000000                   DATA FOR SOURCE-LINE 3651
12110                                     ***** END-POOL *****
12111 00001FF4                   3684     _FROMSYS_SECT_TBL:
12112 00001FF4 A0000000          3685             .DATA.L         H'A0000000                      ; ｾｸﾀ0          8kb
12113 00001FF8 A0002000          3686             .DATA.L         H'A0002000                      ; ｾｸﾀ1          8kb
12114 00001FFC A0004000          3687             .DATA.L         H'A0004000                      ; ｾｸﾀ2          8kb
12115 00002000 A0006000          3688             .DATA.L         H'A0006000                      ; ｾｸﾀ3          8kb
12116 00002004 A0008000          3689             .DATA.L         H'A0008000                      ; ｾｸﾀ4          8kb
12117 00002008 A000A000          3690             .DATA.L         H'A000A000                      ; ｾｸﾀ5          8kb
12118 0000200C A000C000          3691             .DATA.L         H'A000C000                      ; ｾｸﾀ6          8kb
12119 00002010 A000E000          3692             .DATA.L         H'A000E000                      ; ｾｸﾀ7          8kb
12120 00002014 A0010000          3693             .DATA.L         H'A0010000                      ; ｾｸﾀ8          64kb
12121 00002018 A0020000          3694             .DATA.L         H'A0020000                      ; ｾｸﾀ9          64kb
12122 0000201C A0030000          3695             .DATA.L         H'A0030000                      ; ｾｸﾀ10         64kb
12123 00002020 A0040000          3696             .DATA.L         H'A0040000                      ; ｾｸﾀ11         64kb
12124 00002024 A0050000          3697             .DATA.L         H'A0050000                      ; ｾｸﾀ12         64kb
12125 00002028 A0060000          3698             .DATA.L         H'A0060000                      ; ｾｸﾀ13         64kb
12126 0000202C A0070000          3699             .DATA.L         H'A0070000                      ; ｾｸﾀ14         64kb
12127 00002030 A0080000          3700             .DATA.L         H'A0080000                      ; ｾｸﾀ15         64kb
12128 00002034 A0090000          3701             .DATA.L         H'A0090000                      ; ｾｸﾀ16         64kb
12129 00002038 A00A0000          3702             .DATA.L         H'A00a0000                      ; ｾｸﾀ17         64kb
12130 0000203C A00B0000          3703             .DATA.L         H'A00b0000                      ; ｾｸﾀ18         64kb
12131 00002040 A00C0000          3704             .DATA.L         H'A00c0000                      ; ｾｸﾀ19         64kb
12132 00002044 A00D0000          3705             .DATA.L         H'A00D0000                      ; ｾｸﾀ20         64kb
12133 00002048 A00E0000          3706             .DATA.L         H'A00E0000                      ; ｾｸﾀ21         64kb
12134 0000204C A00F0000          3707             .DATA.L         H'A00F0000                      ; ｾｸﾀ22         64kb
12135 00002050 A0100000          3708             .DATA.L         H'A0100000                      ; ｾｸﾀ23         64kb
12136 00002054 A0110000          3709             .DATA.L         H'A0110000                      ; ｾｸﾀ24         64kb
*** SuperH RISC engine ASSEMBLER V.7.01.02.000 ***    07/04/21 19:29:24                                                  PAGE   124
PROGRAM NAME =

12137 00002058 A0120000          3710             .DATA.L         H'A0120000                      ; ｾｸﾀ25         64kb
12138 0000205C A0130000          3711             .DATA.L         H'A0130000                      ; ｾｸﾀ26         64kb
12139 00002060 A0140000          3712             .DATA.L         H'A0140000                      ; ｾｸﾀ27         64kb
12140 00002064 A0150000          3713             .DATA.L         H'A0150000                      ; ｾｸﾀ28         64kb
12141 00002068 A0160000          3714             .DATA.L         H'A0160000                      ; ｾｸﾀ29         64kb
12142 0000206C A0170000          3715             .DATA.L         H'A0170000                      ; ｾｸﾀ30         64kb
12143 00002070 A0180000          3716             .DATA.L         H'A0180000                      ; ｾｸﾀ31         64kb
12144 00002074 A0190000          3717             .DATA.L         H'A0190000                      ; ｾｸﾀ32         64kb
12145 00002078 A01A0000          3718             .DATA.L         H'A01a0000                      ; ｾｸﾀ33         64kb
12146 0000207C A01B0000          3719             .DATA.L         H'A01b0000                      ; ｾｸﾀ34         64kb
12147 00002080 A01C0000          3720             .DATA.L         H'A01c0000                      ; ｾｸﾀ35         64kb
12148 00002084 A01D0000          3721             .DATA.L         H'A01D0000                      ; ｾｸﾀ36         64kb
12149 00002088 A01E0000          3722             .DATA.L         H'A01E0000                      ; ｾｸﾀ37         64kb
12150 0000208C A01F0000          3723             .DATA.L         H'A01F0000                      ; ｾｸﾀ38         64kb
12151 00002090 A0200000          3724             .DATA.L         H'A0200000                      ; ｾｸﾀ39         64kb
12152 00002094 A0210000          3725             .DATA.L         H'A0210000                      ; ｾｸﾀ40         64kb
12153 00002098 A0220000          3726             .DATA.L         H'A0220000                      ; ｾｸﾀ41         64kb
12154 0000209C A0230000          3727             .DATA.L         H'A0230000                      ; ｾｸﾀ42         64kb
12155 000020A0                   3728     _FROM_SECT_TBL_KATA_MC:
12156 000020A0 A0240000          3729             .DATA.L         H'A0240000                      ; ｾｸﾀ43         64kb
12157 000020A4 A0250000          3730             .DATA.L         H'A0250000                      ; ｾｸﾀ44         64kb
12158 000020A8 A0260000          3731             .DATA.L         H'A0260000                      ; ｾｸﾀ45         64kb
12159 000020AC A0270000          3732             .DATA.L         H'A0270000                      ; ｾｸﾀ46         64kb
12160 000020B0                   3733     _FROM_SECT_TBL_GAIZ_MC:
12161 000020B0 A0280000          3734             .DATA.L         H'A0280000                      ; ｾｸﾀ47         64kb
12162 000020B4 A0290000          3735             .DATA.L         H'A0290000                      ; ｾｸﾀ48         64kb
12163 000020B8 A02A0000          3736             .DATA.L         H'A02a0000                      ; ｾｸﾀ49         64kb
12164 000020BC                   3737     _FROM_SECT_TBL_SYSB_MC:
12165 000020BC A02B0000          3738             .DATA.L         H'A02b0000                      ; ｾｸﾀ50         64kb
12166 000020C0                   3739     _FROM_SECT_TBL_SENB_MC:
12167 000020C0 A02C0000          3740             .DATA.L         H'A02c0000                      ; ｾｸﾀ51         64kb
12168 000020C4 A02D0000          3741             .DATA.L         H'A02D0000                      ; ｾｸﾀ52         64kb
12169 000020C8 A02E0000          3742             .DATA.L         H'A02E0000                      ; ｾｸﾀ53         64kb
12170 000020CC A02F0000          3743             .DATA.L         H'A02F0000                      ; ｾｸﾀ54         64kb
12171 000020D0                   3744     _FROM_SECT_TBL_CHAR_MC:
12172 000020D0 A0300000          3745             .DATA.L         H'A0300000                      ; ｾｸﾀ55         64kb
12173 000020D4 A0310000          3746             .DATA.L         H'A0310000                      ; ｾｸﾀ56         64kb
12174 000020D8 A0320000          3747             .DATA.L         H'A0320000                      ; ｾｸﾀ57         64kb
12175 000020DC A0330000          3748             .DATA.L         H'A0330000                      ; ｾｸﾀ58         64kb
12176 000020E0                   3749     _FROM_SECT_TBL_GAM2_MC:
12177 000020E0 A0340000          3750             .DATA.L         H'A0340000                      ; ｾｸﾀ59         64kb
12178 000020E4 A0350000          3751             .DATA.L         H'A0350000                      ; ｾｸﾀ60         64kb
12179 000020E8 A0360000          3752             .DATA.L         H'A0360000                      ; ｾｸﾀ61         64kb
12180 000020EC A0370000          3753             .DATA.L         H'A0370000                      ; ｾｸﾀ62         64kb
12181 000020F0 A0380000          3754             .DATA.L         H'A0380000                      ; ｾｸﾀ63         64kb
12182 000020F4 A0390000          3755             .DATA.L         H'A0390000                      ; ｾｸﾀ64         64kb
12183 000020F8 A03A0000          3756             .DATA.L         H'A03a0000                      ; ｾｸﾀ65         64kb
12184 000020FC A03B0000          3757             .DATA.L         H'A03b0000                      ; ｾｸﾀ66         64kb
12185 00002100                   3758     _FROM_SECT_TBL_KAT2_MC:
12186 00002100 A03C0000          3759             .DATA.L         H'A03c0000                      ; ｾｸﾀ67         64kb
12187 00002104 A03D0000          3760             .DATA.L         H'A03D0000                      ; ｾｸﾀ68         64kb
12188 00002108 A03E0000          3761             .DATA.L         H'A03E0000                      ; ｾｸﾀ69         64kb
12189 0000210C                   3762     _FROM_SECT_TBL_KATS_MC:
12190 0000210C A03F0000          3763             .DATA.L         H'A03F0000                      ; ｾｸﾀ70         64kb
12191 00002110 A0400000          3764             .DATA.L         H'A0400000                      ; ｾｸﾀ71         64kb
12192 00002114 A0410000          3765             .DATA.L         H'A0410000                      ; ｾｸﾀ72         64kb
12193 00002118 A0420000          3766             .DATA.L         H'A0420000                      ; ｾｸﾀ73         64kb
*** SuperH RISC engine ASSEMBLER V.7.01.02.000 ***    07/04/21 19:29:24                                                  PAGE   125
PROGRAM NAME =

12194 0000211C A0430000          3767             .DATA.L         H'A0430000                      ; ｾｸﾀ74         64kb
12195 00002120 A0440000          3768             .DATA.L         H'A0440000                      ; ｾｸﾀ75         64kb
12196 00002124 A0450000          3769             .DATA.L         H'A0450000                      ; ｾｸﾀ76         64kb
12197 00002128 A0460000          3770             .DATA.L         H'A0460000                      ; ｾｸﾀ77         64kb
12198 0000212C A0470000          3771             .DATA.L         H'A0470000                      ; ｾｸﾀ78         64kb
12199 00002130 A0480000          3772             .DATA.L         H'A0480000                      ; ｾｸﾀ79         64kb
12200 00002134 A0490000          3773             .DATA.L         H'A0490000                      ; ｾｸﾀ80         64kb
12201 00002138 A04A0000          3774             .DATA.L         H'A04a0000                      ; ｾｸﾀ81         64kb
12202 0000213C A04B0000          3775             .DATA.L         H'A04b0000                      ; ｾｸﾀ82         64kb
12203 00002140 A04C0000          3776             .DATA.L         H'A04c0000                      ; ｾｸﾀ83         64kb
12204 00002144 A04D0000          3777             .DATA.L         H'A04D0000                      ; ｾｸﾀ84         64kb
12205 00002148 A04E0000          3778             .DATA.L         H'A04E0000                      ; ｾｸﾀ85         64kb
12206 0000214C A04F0000          3779             .DATA.L         H'A04F0000                      ; ｾｸﾀ86         64kb
12207 00002150 A0500000          3780             .DATA.L         H'A0500000                      ; ｾｸﾀ87         64kb
12208 00002154 A0510000          3781             .DATA.L         H'A0510000                      ; ｾｸﾀ88         64kb
12209 00002158 A0520000          3782             .DATA.L         H'A0520000                      ; ｾｸﾀ89         64kb
12210 0000215C A0530000          3783             .DATA.L         H'A0530000                      ; ｾｸﾀ90         64kb
12211 00002160 A0540000          3784             .DATA.L         H'A0540000                      ; ｾｸﾀ91         64kb
12212 00002164 A0550000          3785             .DATA.L         H'A0550000                      ; ｾｸﾀ92         64kb
12213 00002168 A0560000          3786             .DATA.L         H'A0560000                      ; ｾｸﾀ93         64kb
12214 0000216C A0570000          3787             .DATA.L         H'A0570000                      ; ｾｸﾀ94         64kb
12215 00002170 A0580000          3788             .DATA.L         H'A0580000                      ; ｾｸﾀ95         64kb
12216 00002174 A0590000          3789             .DATA.L         H'A0590000                      ; ｾｸﾀ96         64kb
12217 00002178 A05A0000          3790             .DATA.L         H'A05a0000                      ; ｾｸﾀ97         64kb
12218 0000217C A05B0000          3791             .DATA.L         H'A05b0000                      ; ｾｸﾀ98         64kb
12219 00002180 A05C0000          3792             .DATA.L         H'A05c0000                      ; ｾｸﾀ99         64kb
12220 00002184 A05D0000          3793             .DATA.L         H'A05D0000                      ; ｾｸﾀ100        64kb
12221 00002188 A05E0000          3794             .DATA.L         H'A05E0000                      ; ｾｸﾀ101        64kb
12222 0000218C A05F0000          3795             .DATA.L         H'A05F0000                      ; ｾｸﾀ102        64kb
12223 00002190 A0600000          3796             .DATA.L         H'A0600000                      ; ｾｸﾀ103        64kb
12224 00002194 A0610000          3797             .DATA.L         H'A0610000                      ; ｾｸﾀ104        64kb
12225 00002198 A0620000          3798             .DATA.L         H'A0620000                      ; ｾｸﾀ105        64kb
12226 0000219C A0630000          3799             .DATA.L         H'A0630000                      ; ｾｸﾀ106        64kb
12227 000021A0 A0640000          3800             .DATA.L         H'A0640000                      ; ｾｸﾀ107        64kb
12228 000021A4 A0650000          3801             .DATA.L         H'A0650000                      ; ｾｸﾀ108        64kb
12229 000021A8 A0660000          3802             .DATA.L         H'A0660000                      ; ｾｸﾀ109        64kb
12230 000021AC A0670000          3803             .DATA.L         H'A0670000                      ; ｾｸﾀ110        64kb
12231 000021B0 A0680000          3804             .DATA.L         H'A0680000                      ; ｾｸﾀ111        64kb
12232 000021B4 A0690000          3805             .DATA.L         H'A0690000                      ; ｾｸﾀ112        64kb
12233 000021B8 A06A0000          3806             .DATA.L         H'A06a0000                      ; ｾｸﾀ113        64kb
12234 000021BC A06B0000          3807             .DATA.L         H'A06b0000                      ; ｾｸﾀ114        64kb
12235 000021C0 A06C0000          3808             .DATA.L         H'A06c0000                      ; ｾｸﾀ115        64kb
12236 000021C4 A06D0000          3809             .DATA.L         H'A06D0000                      ; ｾｸﾀ116        64kb
12237 000021C8 A06E0000          3810             .DATA.L         H'A06E0000                      ; ｾｸﾀ117        64kb
12238 000021CC A06F0000          3811             .DATA.L         H'A06F0000                      ; ｾｸﾀ118        64kb
12239 000021D0                   3812     _FROM_SECT_TBL_SEQD_MC:                                                                 ;2
                                          015/01/16
12240 000021D0 A0700000          3813             .DATA.L         H'A0700000                      ; ｾｸﾀ119        64kb
12241 000021D4 A0710000          3814             .DATA.L         H'A0710000                      ; ｾｸﾀ120        64kb
12242 000021D8 A0720000          3815             .DATA.L         H'A0720000                      ; ｾｸﾀ121        64kb
12243 000021DC A0730000          3816             .DATA.L         H'A0730000                      ; ｾｸﾀ122        64kb
12244 000021E0 A0740000          3817             .DATA.L         H'A0740000                      ; ｾｸﾀ123        64kb
12245 000021E4 A0750000          3818             .DATA.L         H'A0750000                      ; ｾｸﾀ124        64kb
12246 000021E8 A0760000          3819             .DATA.L         H'A0760000                      ; ｾｸﾀ125        64kb
12247 000021EC A0770000          3820             .DATA.L         H'A0770000                      ; ｾｸﾀ126        64kb
12248 000021F0 A0780000          3821             .DATA.L         H'A0780000                      ; ｾｸﾀ127        64kb
12249 000021F4 A0790000          3822             .DATA.L         H'A0790000                      ; ｾｸﾀ128        64kb
*** SuperH RISC engine ASSEMBLER V.7.01.02.000 ***    07/04/21 19:29:24                                                  PAGE   126
PROGRAM NAME =

12250 000021F8 A07A0000          3823             .DATA.L         H'A07a0000                      ; ｾｸﾀ129        64kb
12251 000021FC A07B0000          3824             .DATA.L         H'A07b0000                      ; ｾｸﾀ130        64kb
12252 00002200 A07C0000          3825             .DATA.L         H'A07c0000                      ; ｾｸﾀ131        64kb
12253 00002204 A07D0000          3826             .DATA.L         H'A07D0000                      ; ｾｸﾀ132        64kb
12254 00002208 A07E0000          3827             .DATA.L         H'A07E0000                      ; ｾｸﾀ133        64kb
12255 0000220C A07F0000          3828             .DATA.L         H'A07F0000                      ; ｾｸﾀ134        8kb
12256 00002210 A07F2000          3829             .DATA.L         H'A07F2000                      ; ｾｸﾀ135        8kb
12257 00002214 A07F4000          3830             .DATA.L         H'A07F4000                      ; ｾｸﾀ136        8kb
12258 00002218 A07F6000          3831             .DATA.L         H'A07F6000                      ; ｾｸﾀ137        8kb
12259 0000221C A07F8000          3832             .DATA.L         H'A07F8000                      ; ｾｸﾀ138        8kb
12260 00002220 A07FA000          3833             .DATA.L         H'A07FA000                      ; ｾｸﾀ139        8kb
12261 00002224 A07FC000          3834             .DATA.L         H'A07FC000                      ; ｾｸﾀ140        8kb
12262 00002228 A07FE000          3835             .DATA.L         H'A07FE000                      ; ｾｸﾀ141        8kb
12263 0000222C A0800000          3836             .DATA.L         H'A0800000                      ; DUMMY
12264                            3837     
12265                            3838     
12266 00002230                   3839     _FROMSYSEP_SECT_TBL:
12267 00002230 B0000000          3840             .DATA.L         H'B0000000                      ; ｾｸﾀ0  16kb
12268 00002234 B0004000          3841             .DATA.L         H'B0004000                      ; ｾｸﾀ1  8kb
12269 00002238 B0006000          3842             .DATA.L         H'B0006000                      ; ｾｸﾀ2  8kb
12270 0000223C B0008000          3843             .DATA.L         H'B0008000                      ; ｾｸﾀ3  32kb
12271 00002240 B0010000          3844             .DATA.L         H'B0010000                      ; ｾｸﾀ4  64kb
12272 00002244 B0020000          3845             .DATA.L         H'B0020000                      ; ｾｸﾀ5  64kb
12273 00002248 B0030000          3846             .DATA.L         H'B0030000                      ; ｾｸﾀ6  64kb
12274 0000224C B0040000          3847             .DATA.L         H'B0040000                      ; ｾｸﾀ7  64kb
12275 00002250 B0050000          3848             .DATA.L         H'B0050000                      ; ｾｸﾀ8  64kb
12276 00002254 B0060000          3849             .DATA.L         H'B0060000                      ; ｾｸﾀ9  64kb
12277 00002258 B0070000          3850             .DATA.L         H'B0070000                      ; ｾｸﾀ10 64kb
12278 0000225C B0080000          3851             .DATA.L         H'B0080000                      ; ｾｸﾀ11 64kb
12279 00002260 B0090000          3852             .DATA.L         H'B0090000                      ; ｾｸﾀ12 64kb
12280 00002264 B00A0000          3853             .DATA.L         H'B00a0000                      ; ｾｸﾀ13 64kb
12281 00002268 B00B0000          3854             .DATA.L         H'B00b0000                      ; ｾｸﾀ14 64kb
12282 0000226C B00C0000          3855             .DATA.L         H'B00c0000                      ; ｾｸﾀ15 64kb
12283 00002270 B00D0000          3856             .DATA.L         H'B00d0000                      ; ｾｸﾀ16 64kb
12284 00002274 B00E0000          3857             .DATA.L         H'B00e0000                      ; ｾｸﾀ17 64kb
12285 00002278 B00F0000          3858             .DATA.L         H'B00f0000                      ; ｾｸﾀ18 64kb
12286 0000227C B0100000          3859             .DATA.L         H'B0100000                      ; DUMMY
12287                            3860     
12288                            3861     
12289 0000068A                   3862             .SECTION        BvupsciwkRAM, DATA,ALIGN=4                      ;
12290 0000068A 00000002          3863     _EPROM_TO_FROM_END      .SRES           2;
12291                            3864     
12292                            3865     
12293                            3866             .AIF    1 EQ 1
12294                            3867 C           .INCLUDE        "ssa_etif.inc"                  ; V04a(INS)
12295                               1 I1  ;       **********************************************************************************
                                          ***
12296                               2 I1  ;       *****                                                                           **
                                          ***
12297                               3 I1  ;       *****   ＥＴ１上位通信インターフェース                                          **
                                          ***
12298                               4 I1  ;       *****                                                                           **
                                          ***
12299                               5 I1  ;       *****                                                                           **
                                          ***
12300                               6 I1  ;       **********************************************************************************
                                          ***
*** SuperH RISC engine ASSEMBLER V.7.01.02.000 ***    07/04/21 19:29:24                                                  PAGE   127
PROGRAM NAME =

12301                               7 I1  
12302                               8 I1  ;//2012/10/02   .SECTION        P,CODE,ALIGN=4
12303 00002280                      9 I1          .SECTION        PvupsciROM,CODE,ALIGN=4
12304                              10 I1  
12305                              11 I1          .IMPORT         _ET_LDCMND_AREA         ;LdCmnd set area
12306                              12 I1          .IMPORT         _ET_LDCMND_REQ          ;LdCmnd Request Flag
12307                              13 I1          .IMPORT         _ET_LDCMND_RES          ;LdCmnd Response Flag
12308                              14 I1          .IMPORT         _MEM_ARI                ;
12309                              15 I1          .IMPORT         _ET1_INITAL_FLG         ;
12310                              16 I1  
12311          00000000            17 I1  _ET_DP          .EQU    H'00                    ; DP相対ｱﾄﾞﾚｽ
12312          00000001            18 I1  _ET_SP          .EQU    H'01                    ; SP相対ｱﾄﾞﾚｽ
12313          00000002            19 I1  _ET_TRAN        .EQU    H'02                    ; トランザクション相対ｱﾄﾞﾚｽ
12314          00000004            20 I1  _ET_STS         .EQU    H'04                    ; 処理ｽﾃｰｽ相対ｱﾄﾞﾚｽ
12315          00000006            21 I1  _ET_IDL         .EQU    H'06                    ; 接続ID相対ｱﾄﾞﾚｽ
12316          00000012            22 I1  _ET_BYTENL      .EQU    H'12                    ; ﾃﾞｰﾀ部ﾊﾞｲﾄ数(L)相対ｱﾄﾞﾚｽ
12317          00000015            23 I1  _ET_ADRL        .EQU    H'15                    ;
12318          00000016            24 I1  _ET_ADRM        .EQU    H'16                    ;
12319          00000017            25 I1  _ET_ADRH        .EQU    H'17                    ;
12320                              26 I1  
12321                              27 I1  
12322                              28 I1  
12323                              29 I1          .EXPORT         _ET1_LDCMD_IF;
12324 00002280                     30 I1  _ET1_LDCMD_IF:
12325                              31 I1          SUB_START
12326 00002280 4F22                   M           STS.L   PR,@-R15                ;[必要]
12327                                 M   ;;;;;;; ADD     #-4,R15                 ;[不要?]
12328                              32 I1  
12329                              33 I1  ;-----------------------------------------------------------------------------------------
                                          ---------
12330 00002282 D103                34 I1          MOV.L   #_ET1_INITAL_FLG,R1             ; V05h(INS)
12331 00002284 6011                35 I1          MOV.W   @R1,R0                          ;
12332 00002286 C840                36 I1          TST     #BIT6,R0                        ;
12333                              37 I1          TST_BIT_ON _ET1_LDCMD_IF_STR00          ;
12334 00002288 8B04                   M           BF      _ET1_LDCMD_IF_STR00
12335                              38 I1          M_BRA   _ET1_LDCMDIF_EXT                ;
12336 0000228A A125                   M           BRA     _ET1_LDCMDIF_EXT
12337 0000228C 0009                   M           NOP
12338                              39 I1  ;-----------------------------------------------------------------------------------------
                                          ---------
12339                              40 I1  
12340                                 I1  ***** BEGIN-POOL *****
12341 0000228E 0000                   I1  ALIGNMENT CODE
12342 00002290 00000000               I1  DATA FOR SOURCE-LINE 34
12343                                 I1  ***** END-POOL *****
12344 00002294                     41 I1  _ET1_LDCMD_IF_STR00:
12345                              42 I1  ;;;;;   MOV.L   #_MEM_ARI,R1                    ;
12346                              43 I1  ;;;;;   MOV.B   @R1,R0                          ;
12347                              44 I1  ;;;;    EXTU.B  R0,R0                           ;
12348 00002294 D103                45 I1          MOV.L   #_OPTION_ET1_ARI,R1             ;[MC]005A CPUB-->CPUD
12349 00002296 6011                46 I1          MOV.W   @R1,R0                          ;[MC]
12350                              47 I1  
12351 00002298 9103                48 I1          MOV.W   #H'00A5,R1                      ;
12352 0000229A 3010                49 I1          CMP/EQ  R1,R0                           ;
12353 0000229C 8904                50 I1          BT      _ET1_LDCMD_IF_START             ;接続
12354                              51 I1          M_BRA   _ET1_LDCMDIF_EXT                ;未接続
12355 0000229E A11B                   M           BRA     _ET1_LDCMDIF_EXT
*** SuperH RISC engine ASSEMBLER V.7.01.02.000 ***    07/04/21 19:29:24                                                  PAGE   128
PROGRAM NAME =

12356 000022A0 0009                   M           NOP
12357                              52 I1  
12358                                 I1  ***** BEGIN-POOL *****
12359 000022A2 00A5                   I1  DATA FOR SOURCE-LINE 48
12360 000022A4 00000000               I1  DATA FOR SOURCE-LINE 45
12361                                 I1  ***** END-POOL *****
12362 000022A8                     53 I1  _ET1_LDCMD_IF_START:
12363 000022A8 D102                54 I1          MOV.L   #_sci0_wkram+ET1_LDCMND_REQ,R1
12364 000022AA 6011                55 I1          MOV.W   @R1,R0
12365 000022AC 8801                56 I1          CMP/EQ  #1,R0                           ; 既に受信済み有り？
12366 000022AE 8B03                57 I1          BF      _ET1_LDCMDIF_000                ; いいえ
12367                              58 I1          M_BRA   _ET1_LDCMDIF_300                ; はい
12368 000022B0 A092                   M           BRA     _ET1_LDCMDIF_300
12369 000022B2 0009                   M           NOP
12370                              59 I1  
12371                              60 I1  ;       ==============================================================================
12372                              61 I1  
12373                                 I1  ***** BEGIN-POOL *****
12374 000022B4 00000000               I1  DATA FOR SOURCE-LINE 54
12375                                 I1  ***** END-POOL *****
12376 000022B8                     62 I1  _ET1_LDCMDIF_000:
12377 000022B8 D103                63 I1          MOV.L   #_ET_LDCMND_REQ+0,R1
12378                              64 I1  ;//SIT-MC       MOV.B   @R1,R0
12379                              65 I1  ;////////       CMP/EQ  #H'01,R0                        ; LdCmnd Request Flag有り？
12380 000022BA 6011                66 I1          MOV.W   @R1,R0
12381 000022BC 6008                67 I1          SWAP.B  R0,R0
12382 000022BE 8801                68 I1          CMP/EQ  #H'01,R0                        ; LdCmnd Request Flag有り？
12383 000022C0 8904                69 I1          BT      _ET1_LDCMDIF_100
12384                              70 I1          M_BRA   _ET1_LDCMDIF_EXT
12385 000022C2 A109                   M           BRA     _ET1_LDCMDIF_EXT
12386 000022C4 0009                   M           NOP
12387                              71 I1  
12388                                 I1  ***** BEGIN-POOL *****
12389 000022C6 0000                   I1  ALIGNMENT CODE
12390 000022C8 00000000               I1  DATA FOR SOURCE-LINE 63
12391                                 I1  ***** END-POOL *****
12392 000022CC                     72 I1  _ET1_LDCMDIF_100:
12393                              73 I1  ;       ----- SIT4-MC --------------------------
12394 000022CC D406                74 I1          MOV.L   #(512/2),R4                     ; SIT4-MCは直接ET1と接続では無くCPUBと接続
                                          になったため。
12395 000022CE D807                75 I1          MOV.L   #_ET_LDCMND_AREA,R8             ; CPUBとはﾜｰﾄﾞﾜｸｾｽしか出来ないから一旦受信
                                          ﾃﾞｰﾀをﾜｰｸへ。
12396 000022D0 D907                76 I1          MOV.L   #_ET_LDCMND_WORK,R9
12397 000022D2 0009                77 I1          NOP
12398 000022D4                     78 I1  _ET1_LDCMDIF_105:
12399 000022D4 2448                79 I1          TST     R4,R4
12400 000022D6 890D                80 I1          BT      _ET1_LDCMDIF_106
12401 000022D8 6081                81 I1          MOV.W   @R8,R0
12402 000022DA 2901                82 I1          MOV.W   R0,@R9
12403 000022DC 7802                83 I1          ADD     #2,R8
12404 000022DE 7902                84 I1          ADD     #2,R9
12405 000022E0 74FF                85 I1          ADD     #-1,R4
12406                              86 I1          M_BRA   _ET1_LDCMDIF_105
12407 000022E2 AFF7                   M           BRA     _ET1_LDCMDIF_105
12408 000022E4 0009                   M           NOP
12409                                 I1  ***** BEGIN-POOL *****
12410 000022E6 0000                   I1  ALIGNMENT CODE
*** SuperH RISC engine ASSEMBLER V.7.01.02.000 ***    07/04/21 19:29:24                                                  PAGE   129
PROGRAM NAME =

12411 000022E8 00000100               I1  DATA FOR SOURCE-LINE 74
12412 000022EC 00000000               I1  DATA FOR SOURCE-LINE 75
12413 000022F0 00000000               I1  DATA FOR SOURCE-LINE 76
12414                                 I1  ***** END-POOL *****
12415 000022F4                     87 I1  _ET1_LDCMDIF_106:
12416                              88 I1  ;       ----------------------------------------
12417                              89 I1  
12418 000022F4 D822                90 I1          MOV.L   #_sci0_rxd_buf+_STR_CODE,R8
12419 000022F6 299A                91 I1          XOR     R9,R9                           ; BCC作成用
12420 000022F8 9A3D                92 I1          MOV.W   #H'0FF,R10
12421                              93 I1  
12422                              94 I1  ;       --- ｱﾄﾞﾚｽ変換 ﾜｰﾄﾞｱﾄﾞﾚｽ→ﾊﾞｲﾄｱﾄﾞﾚｽ ---
12423                              95 I1  ;//SIT4-MC      MOV.L   #_ET_LDCMND_AREA+_ET_ADRL,R3
12424                              96 I1  ;//SIT4-MC      MOV.L   #_ET_LDCMND_AREA+_ET_ADRM,R4
12425                              97 I1  ;//SIT4-MC      MOV.L   #_ET_LDCMND_AREA+_ET_ADRH,R5
12426 000022FA D322                98 I1          MOV.L   #_ET_LDCMND_WORK+_ET_ADRL,R3
12427 000022FC D422                99 I1          MOV.L   #_ET_LDCMND_WORK+_ET_ADRM,R4
12428 000022FE D523               100 I1          MOV.L   #_ET_LDCMND_WORK+_ET_ADRH,R5
12429 00002300 6030               101 I1          MOV.B   @R3,R0
12430 00002302 20A9               102 I1          AND     R10,R0                          ; ADR L
12431 00002304 6140               103 I1          MOV.B   @R4,R1
12432 00002306 21A9               104 I1          AND     R10,R1                          ; ADR M
12433 00002308 4118               105 I1          SHLL8   R1
12434 0000230A 6250               106 I1          MOV.B   @R5,R2
12435 0000230C 22A9               107 I1          AND     R10,R2                          ; ADR H
12436 0000230E 4228               108 I1          SHLL16  R2
12437 00002310 201B               109 I1          OR      R1,R0
12438 00002312 202B               110 I1          OR      R2,R0
12439 00002314 4000               111 I1          SHLL    R0                              ; ﾜｰﾄﾞｱﾄﾞﾚｽ→ﾊﾞｲﾄｱﾄﾞﾚｽ
12440 00002316 2300               112 I1          MOV.B   R0,@R3                          ; ADR L
12441 00002318 6103               113 I1          MOV     R0,R1
12442 0000231A 4119               114 I1          SHLR8   R1
12443 0000231C 2410               115 I1          MOV.B   R1,@R4                          ; ADR M
12444 0000231E 6203               116 I1          MOV     R0,R2
12445 00002320 4229               117 I1          SHLR16  R2
12446 00002322 2520               118 I1          MOV.B   R2,@R5                          ; ADR H
12447                             119 I1  
12448                             120 I1  ;       --- 伝送ﾍｯﾀﾞ部転送 ---
12449 00002324 E05A               121 I1          MOV.B   #H'5A,R0
12450 00002326 2800               122 I1          MOV.B   R0,@R8                          ; ｽﾀｰﾄｺｰﾄﾞ
12451 00002328 7801               123 I1          ADD     #1,R8
12452                             124 I1  
12453                             125 I1  ;//SIT4-MC      MOV.L   #_ET_LDCMND_AREA+_ET_BYTENL,R7
12454 0000232A D719               126 I1          MOV.L   #_ET_LDCMND_WORK+_ET_BYTENL,R7
12455 0000232C 6074               127 I1          MOV.B   @R7+,R0
12456 0000232E 20A9               128 I1          AND     R10,R0
12457 00002330 6174               129 I1          MOV.B   @R7+,R1
12458 00002332 4118               130 I1          SHLL8   R1
12459 00002334 201B               131 I1          OR      R1,R0                           ; データ部バイト数
12460                             132 I1  
12461                             133 I1  ;-----------------------------------------------------------------------------------------
                                          ---------
12462                             134 I1  ;;;だめ　2007-12-06 MOV #512-3-16-1,R11                 ; 512-3-16-1=492がバイト数最大値
                                          V05h(INS)
12463 00002336 9B1F               135 I1          MOV.W   #(512-3-16-1),R11                       ; 512-3-16-1=492がバイト数最大値
                                          V05h(INS)
12464 00002338 30B6               136 I1          CMP/HI  R11,R0                          ; 492より大きい？
*** SuperH RISC engine ASSEMBLER V.7.01.02.000 ***    07/04/21 19:29:24                                                  PAGE   130
PROGRAM NAME =

12465 0000233A 8B00               137 I1          BF      _ET1_LDCMDIF_110                ; いいえ
12466 0000233C 60B3               138 I1          MOV     R11,R0                          ; リミット
12467 0000233E                    139 I1  _ET1_LDCMDIF_110:
12468                             140 I1  ;-----------------------------------------------------------------------------------------
                                          ---------
12469                             141 I1  
12470 0000233E 6B03               142 I1          MOV     R0,R11                          ; データ部バイト数KEEP
12471 00002340 921B               143 I1          MOV.W   #16,R2
12472 00002342 302C               144 I1          ADD     R2,R0                           ; ＋コマンドヘッダバイト数
12473 00002344 921A               145 I1          MOV.W   #1,R2
12474 00002346 302C               146 I1          ADD     R2,R0                           ; ＋ＢＣＣバイト数
12475                             147 I1  
12476 00002348 6103               148 I1          MOV     R0,R1
12477 0000234A 20A9               149 I1          AND     R10,R0
12478 0000234C 2800               150 I1          MOV.B   R0,@R8                          ; データ数カウンタ(L)
12479 0000234E 7801               151 I1          ADD     #1,R8
12480 00002350 390C               152 I1          ADD     R0,R9                           ; +BCC
12481                             153 I1  
12482 00002352 6013               154 I1          MOV     R1,R0
12483 00002354 4019               155 I1          SHLR8   R0
12484 00002356 20A9               156 I1          AND     R10,R0
12485 00002358 2800               157 I1          MOV.B   R0,@R8                          ; データ数カウンタ(H)
12486 0000235A 7801               158 I1          ADD     #1,R8
12487 0000235C 390C               159 I1          ADD     R0,R9                           ; +BCC
12488                             160 I1  
12489                             161 I1  ;       --- ｺﾏﾝﾄﾞﾍｯﾀﾞ部転送 ---
12490                             162 I1  ;//SIT4-MC      MOV.L   #_ET_LDCMND_AREA+_ET_STS,R7
12491 0000235E D70D               163 I1          MOV.L   #_ET_LDCMND_WORK+_ET_STS,R7
12492 00002360 940B               164 I1          MOV.W   #16,R4                          ; コマンドヘッダバイト数
12493 00002362                    165 I1  _ET1_LDCMDIF_120:
12494 00002362 2448               166 I1          TST     R4,R4
12495 00002364 8918               167 I1          BT      _ET1_LDCMDIF_140
12496 00002366 6074               168 I1          MOV.B   @R7+,R0
12497 00002368 20A9               169 I1          AND     R10,R0
12498 0000236A 2800               170 I1          MOV.B   R0,@R8
12499 0000236C 7801               171 I1          ADD     #1,R8
12500 0000236E 390C               172 I1          ADD     R0,R9                           ; +BCC
12501 00002370 74FF               173 I1          ADD     #-1,R4
12502                             174 I1          M_BRA   _ET1_LDCMDIF_120
12503 00002372 AFF6                   M           BRA     _ET1_LDCMDIF_120
12504 00002374 0009                   M           NOP
12505                             175 I1  
12506                             176 I1  ;       --- ﾃﾞｰﾀ部転送 ---
12507                                 I1  ***** BEGIN-POOL *****
12508 00002376 00FF                   I1  DATA FOR SOURCE-LINE 92
12509 00002378 01EC                   I1  DATA FOR SOURCE-LINE 135
12510 0000237A 0010                   I1  DATA FOR SOURCE-LINE 143,164
12511 0000237C 0001                   I1  DATA FOR SOURCE-LINE 145
12512 0000237E 0000                   I1  ALIGNMENT CODE
12513 00002380 00000000               I1  DATA FOR SOURCE-LINE 90
12514 00002384 00000000               I1  DATA FOR SOURCE-LINE 98
12515 00002388 00000000               I1  DATA FOR SOURCE-LINE 99
12516 0000238C 00000000               I1  DATA FOR SOURCE-LINE 100
12517 00002390 00000000               I1  DATA FOR SOURCE-LINE 126
12518 00002394 00000000               I1  DATA FOR SOURCE-LINE 163
12519                                 I1  ***** END-POOL *****
12520 00002398                    177 I1  _ET1_LDCMDIF_140:
*** SuperH RISC engine ASSEMBLER V.7.01.02.000 ***    07/04/21 19:29:24                                                  PAGE   131
PROGRAM NAME =

12521 00002398 64B3               178 I1          MOV     R11,R4                          ; データ部バイト数
12522 0000239A                    179 I1  _ET1_LDCMDIF_160:
12523 0000239A 2448               180 I1          TST     R4,R4
12524 0000239C 8907               181 I1          BT      _ET1_LDCMDIF_180
12525 0000239E 6074               182 I1          MOV.B   @R7+,R0
12526 000023A0 20A9               183 I1          AND     R10,R0
12527 000023A2 2800               184 I1          MOV.B   R0,@R8
12528 000023A4 7801               185 I1          ADD     #1,R8
12529 000023A6 390C               186 I1          ADD     R0,R9                           ; +BCC
12530 000023A8 74FF               187 I1          ADD     #-1,R4
12531                             188 I1          M_BRA   _ET1_LDCMDIF_160
12532 000023AA AFF6                   M           BRA     _ET1_LDCMDIF_160
12533 000023AC 0009                   M           NOP
12534                             189 I1  
12535                             190 I1  ;       --- BCC部転送 ---
12536 000023AE                    191 I1  _ET1_LDCMDIF_180:
12537 000023AE 699B               192 I1          NEG     R9,R9
12538 000023B0 2890               193 I1          MOV.B   R9,@R8                          ; BCC
12539                             194 I1  
12540 000023B2 D106               195 I1          MOV.L   #_ET_LDCMND_REQ+0,R1
12541                             196 I1  ;//SIT4-MC      MOV.B   #0,R0
12542                             197 I1  ;/////////      MOV.B   R0,@R1                          ; LdCmnd Request Flagクリア
12543 000023B4 9008               198 I1          MOV.W   #0,R0
12544 000023B6 2101               199 I1          MOV.W   R0,@R1                          ; LdCmnd Request Flagクリア
12545                             200 I1  
12546 000023B8 D105               201 I1          MOV.L   #_sci0_wkram+ET1_LDCMND_REQ,R1
12547 000023BA 9006               202 I1          MOV.W   #1,R0
12548 000023BC 2101               203 I1          MOV.W   R0,@R1                          ; 内部LdCmnd Request FlagＯＮ
12549                             204 I1  
12550 000023BE D105               205 I1          MOV.L   #_sci0_wkram+RX_END,R1
12551 000023C0 9003               206 I1          MOV.W   #1,R0
12552 000023C2 2101               207 I1          MOV.W   R0,@R1                          ; 内部的に受信完了FlagＯＮ
12553                             208 I1  
12554                             209 I1          M_BRA   _ET1_LDCMDIF_EXT
12555 000023C4 A088                   M           BRA     _ET1_LDCMDIF_EXT
12556 000023C6 0009                   M           NOP
12557                             210 I1  
12558                             211 I1  ;       ==============================================================================
12559                             212 I1  
12560                                 I1  ***** BEGIN-POOL *****
12561 000023C8 0000                   I1  DATA FOR SOURCE-LINE 198
12562 000023CA 0001                   I1  DATA FOR SOURCE-LINE 202,206
12563 000023CC 00000000               I1  DATA FOR SOURCE-LINE 195
12564 000023D0 00000000               I1  DATA FOR SOURCE-LINE 201
12565 000023D4 00000000               I1  DATA FOR SOURCE-LINE 205
12566                                 I1  ***** END-POOL *****
12567 000023D8                    213 I1  _ET1_LDCMDIF_300:
12568 000023D8 D102               214 I1          MOV.L   #_sci0_wkram+ET1_LDCMND_RES,R1
12569 000023DA 6011               215 I1          MOV.W   @R1,R0
12570 000023DC 8801               216 I1          CMP/EQ  #1,R0                           ; レスポンス有り？
12571 000023DE 8903               217 I1          BT      _ET1_LDCMDIF_320                ; はい
12572                             218 I1          M_BRA   _ET1_LDCMDIF_EXT                ; いいえ
12573 000023E0 A07A                   M           BRA     _ET1_LDCMDIF_EXT
12574 000023E2 0009                   M           NOP
12575                             219 I1  
12576                                 I1  ***** BEGIN-POOL *****
12577 000023E4 00000000               I1  DATA FOR SOURCE-LINE 214
*** SuperH RISC engine ASSEMBLER V.7.01.02.000 ***    07/04/21 19:29:24                                                  PAGE   132
PROGRAM NAME =

12578                                 I1  ***** END-POOL *****
12579 000023E8                    220 I1  _ET1_LDCMDIF_320:
12580 000023E8 9030               221 I1          MOV.W   #0,R0
12581 000023EA D11A               222 I1          MOV.L   #_sci0_wkram+ET1_LDCMND_REQ,R1
12582 000023EC 2101               223 I1          MOV.W   R0,@R1                          ; 内部LdCmnd Request Flagクリア
12583 000023EE D11A               224 I1          MOV.L   #_sci0_wkram+ET1_LDCMND_RES,R1
12584 000023F0 2101               225 I1          MOV.W   R0,@R1                          ; 内部LdCmnd Response Flagクリア
12585                             226 I1  
12586 000023F2 9A2C               227 I1          MOV.W   #H'0FF,R10
12587                             228 I1  
12588                             229 I1  ;       --- ｱﾄﾞﾚｽ変換 ﾊﾞｲﾄｱﾄﾞﾚｽ→ﾜｰﾄﾞｱﾄﾞﾚｽ ---
12589 000023F4 D319               230 I1          MOV.L   #_sci0_txd_buf+_ADRL,R3
12590 000023F6 D41A               231 I1          MOV.L   #_sci0_txd_buf+_ADRM,R4
12591 000023F8 D51A               232 I1          MOV.L   #_sci0_txd_buf+_ADRH,R5
12592 000023FA 6030               233 I1          MOV.B   @R3,R0
12593 000023FC 20A9               234 I1          AND     R10,R0                          ; ADR L
12594 000023FE 6140               235 I1          MOV.B   @R4,R1
12595 00002400 21A9               236 I1          AND     R10,R1                          ; ADR M
12596 00002402 4118               237 I1          SHLL8   R1
12597 00002404 6250               238 I1          MOV.B   @R5,R2
12598 00002406 22A9               239 I1          AND     R10,R2                          ; ADR H
12599 00002408 4228               240 I1          SHLL16  R2
12600 0000240A 201B               241 I1          OR      R1,R0
12601 0000240C 202B               242 I1          OR      R2,R0
12602 0000240E 4001               243 I1          SHLR    R0                              ; ﾊﾞｲﾄｱﾄﾞﾚｽ→ﾜｰﾄﾞｱﾄﾞﾚｽ
12603 00002410 2300               244 I1          MOV.B   R0,@R3                          ; ADR L
12604 00002412 6103               245 I1          MOV     R0,R1
12605 00002414 4119               246 I1          SHLR8   R1
12606 00002416 2410               247 I1          MOV.B   R1,@R4                          ; ADR M
12607 00002418 6203               248 I1          MOV     R0,R2
12608 0000241A 4229               249 I1          SHLR16  R2
12609 0000241C 2520               250 I1          MOV.B   R2,@R5                          ; ADR H
12610                             251 I1  
12611                             252 I1  ;       --- ﾌﾟﾛﾄｺﾙﾍｯﾀﾞ部転送 ---
12612                             253 I1  ;//SIT4-MC      MOV.L   #_ET_LDCMND_AREA+_ET_DP,R8
12613 0000241E D812               254 I1          MOV.L   #_ET_LDCMND_WORK+_ET_DP,R8
12614 00002420 E080               255 I1          MOV.B   #H'80,R0
12615 00002422 2800               256 I1          MOV.B   R0,@R8                          ; DP
12616 00002424 7801               257 I1          ADD     #1,R8
12617                             258 I1  
12618 00002426 E0FB               259 I1          MOV.B   #H'FB,R0
12619 00002428 2800               260 I1          MOV.B   R0,@R8                          ; SP
12620 0000242A 7801               261 I1          ADD     #1,R8
12621                             262 I1  
12622 0000242C E0C0               263 I1          MOV.B   #H'C0,R0
12623 0000242E 2800               264 I1          MOV.B   R0,@R8                          ; ﾄﾗﾝｻﾞｸｼｮﾝ
12624 00002430 7801               265 I1          ADD     #1,R8
12625                             266 I1  
12626 00002432 E000               267 I1          MOV.B   #H'0,R0
12627 00002434 2800               268 I1          MOV.B   R0,@R8                          ; 伝送ｽﾃｰﾀｽ
12628 00002436 7801               269 I1          ADD     #1,R8
12629                             270 I1  
12630                             271 I1  ;       --- ｺﾏﾝﾄﾞﾍｯﾀﾞ部転送 ---
12631 00002438 D70C               272 I1          MOV.L   #_sci0_txd_buf+_SYORI_STS,R7
12632 0000243A 9409               273 I1          MOV.W   #16,R4                          ; コマンドヘッダバイト数
12633 0000243C                    274 I1  _ET1_LDCMDIF_340:
12634 0000243C 2448               275 I1          TST     R4,R4
*** SuperH RISC engine ASSEMBLER V.7.01.02.000 ***    07/04/21 19:29:24                                                  PAGE   133
PROGRAM NAME =

12635 0000243E 8917               276 I1          BT      _ET1_LDCMDIF_360
12636 00002440 6074               277 I1          MOV.B   @R7+,R0
12637 00002442 2800               278 I1          MOV.B   R0,@R8
12638 00002444 7801               279 I1          ADD     #1,R8
12639 00002446 74FF               280 I1          ADD     #-1,R4
12640                             281 I1          M_BRA   _ET1_LDCMDIF_340
12641 00002448 AFF8                   M           BRA     _ET1_LDCMDIF_340
12642 0000244A 0009                   M           NOP
12643                             282 I1  
12644                             283 I1  ;       --- ﾃﾞｰﾀ部転送 ---
12645                                 I1  ***** BEGIN-POOL *****
12646 0000244C 0000                   I1  DATA FOR SOURCE-LINE 221
12647 0000244E 00FF                   I1  DATA FOR SOURCE-LINE 227
12648 00002450 0010                   I1  DATA FOR SOURCE-LINE 273
12649 00002452 0000                   I1  ALIGNMENT CODE
12650 00002454 00000000               I1  DATA FOR SOURCE-LINE 222
12651 00002458 00000000               I1  DATA FOR SOURCE-LINE 224
12652 0000245C 00000000               I1  DATA FOR SOURCE-LINE 230
12653 00002460 00000000               I1  DATA FOR SOURCE-LINE 231
12654 00002464 00000000               I1  DATA FOR SOURCE-LINE 232
12655 00002468 00000000               I1  DATA FOR SOURCE-LINE 254
12656 0000246C 00000000               I1  DATA FOR SOURCE-LINE 272
12657                                 I1  ***** END-POOL *****
12658 00002470                    284 I1  _ET1_LDCMDIF_360:
12659 00002470 D207               285 I1          MOV.L   #_sci0_txd_buf+_BYTENL,R2
12660 00002472 6024               286 I1          MOV.B   @R2+,R0
12661 00002474 20A9               287 I1          AND     R10,R0
12662 00002476 6124               288 I1          MOV.B   @R2+,R1
12663 00002478 4118               289 I1          SHLL8   R1
12664 0000247A 201B               290 I1          OR      R1,R0                           ; データ部バイト数
12665 0000247C 6403               291 I1          MOV     R0,R4
12666 0000247E                    292 I1  _ET1_LDCMDIF_380:
12667 0000247E 2448               293 I1          TST     R4,R4
12668 00002480 8908               294 I1          BT      _ET1_LDCMDIF_400
12669 00002482 6074               295 I1          MOV.B   @R7+,R0
12670 00002484 2800               296 I1          MOV.B   R0,@R8
12671 00002486 7801               297 I1          ADD     #1,R8
12672 00002488 74FF               298 I1          ADD     #-1,R4
12673                             299 I1          M_BRA   _ET1_LDCMDIF_380
12674 0000248A AFF8                   M           BRA     _ET1_LDCMDIF_380
12675 0000248C 0009                   M           NOP
12676                             300 I1  
12677                             301 I1  ;       --- 接続ID書換え ---
12678                                 I1  ***** BEGIN-POOL *****
12679 0000248E 0000                   I1  ALIGNMENT CODE
12680 00002490 00000000               I1  DATA FOR SOURCE-LINE 285
12681                                 I1  ***** END-POOL *****
12682 00002494                    302 I1  _ET1_LDCMDIF_400:
12683                             303 I1  ;//SIT4-MC      MOV.L   #_ET_LDCMND_AREA+_ET_IDL,R8
12684 00002494 D807               304 I1          MOV.L   #_ET_LDCMND_WORK+_ET_IDL,R8
12685 00002496 E0A5               305 I1          MOV.B   #H'A5,R0
12686 00002498 2800               306 I1          MOV.B   R0,@R8
12687                             307 I1  
12688                             308 I1  ;       ----- SIT4-MC --------------------------
12689 0000249A D407               309 I1          MOV.L   #(512/2),R4                     ; SIT4-MCは直接ET1と接続では無くCPUBと接続
                                          になったため。
12690 0000249C D807               310 I1          MOV.L   #_ET_LDCMND_WORK,R8
*** SuperH RISC engine ASSEMBLER V.7.01.02.000 ***    07/04/21 19:29:24                                                  PAGE   134
PROGRAM NAME =

12691 0000249E D908               311 I1          MOV.L   #_ET_LDCMND_AREA,R9
12692 000024A0 0009               312 I1          NOP
12693 000024A2                    313 I1  _ET1_LDCMDIF_420:
12694 000024A2 2448               314 I1          TST     R4,R4
12695 000024A4 890E               315 I1          BT      _ET1_LDCMDIF_440
12696 000024A6 6081               316 I1          MOV.W   @R8,R0
12697 000024A8 2901               317 I1          MOV.W   R0,@R9
12698 000024AA 7802               318 I1          ADD     #2,R8
12699 000024AC 7902               319 I1          ADD     #2,R9
12700 000024AE 74FF               320 I1          ADD     #-1,R4
12701                             321 I1          M_BRA   _ET1_LDCMDIF_420
12702 000024B0 AFF7                   M           BRA     _ET1_LDCMDIF_420
12703 000024B2 0009                   M           NOP
12704                                 I1  ***** BEGIN-POOL *****
12705 000024B4 00000000               I1  DATA FOR SOURCE-LINE 304
12706 000024B8 00000100               I1  DATA FOR SOURCE-LINE 309
12707 000024BC 00000000               I1  DATA FOR SOURCE-LINE 310
12708 000024C0 00000000               I1  DATA FOR SOURCE-LINE 311
12709                                 I1  ***** END-POOL *****
12710 000024C4                    322 I1  _ET1_LDCMDIF_440:
12711                             323 I1  ;       ----------------------------------------
12712                             324 I1  
12713 000024C4 D103               325 I1          MOV.L   #_ET_LDCMND_RES+0,R1
12714                             326 I1  ;//SIT4-MC      MOV.B   #1,R0
12715                             327 I1  ;/////////      MOV.B   R0,@R1                          ; LdCmnd Response Flagセット
12716 000024C6 9003               328 I1          MOV.W   #1,R0
12717 000024C8 6008               329 I1          SWAP.B  R0,R0
12718 000024CA 2101               330 I1          MOV.W   R0,@R1                          ; LdCmnd Response Flagセット
12719                             331 I1  
12720                             332 I1          M_BRA   _ET1_LDCMDIF_EXT
12721 000024CC A004                   M           BRA     _ET1_LDCMDIF_EXT
12722 000024CE 0009                   M           NOP
12723                             333 I1  
12724                                 I1  ***** BEGIN-POOL *****
12725 000024D0 0001                   I1  DATA FOR SOURCE-LINE 328
12726 000024D2 0000                   I1  ALIGNMENT CODE
12727 000024D4 00000000               I1  DATA FOR SOURCE-LINE 325
12728                                 I1  ***** END-POOL *****
12729 000024D8                    334 I1  _ET1_LDCMDIF_EXT:
12730                             335 I1          SUB_END
12731                                 M   ;;;;;;; ADD     #4,R15                  ;[不要?]
12732 000024D8 4F26                   M           LDS.L   @R15+,PR                ;[必要]
12733                             336 I1          M_RTS
12734 000024DA 000B                   M           RTS                             ;RTSの後ろの
12735 000024DC 0009                   M           NOP                             ;@R15+,PRはﾀﾞﾒ
12736                             337 I1  
12737                             338 I1  
12738                             339 I1  ;**************************************************
12739                             340 I1  ;***                                            ***
12740                             341 I1  ;***    電源投入時、IPアドレスをET1へ教える     ***     V05j
12741                             342 I1  ;***                                            ***
12742                             343 I1  ;**************************************************
12743                             344 I1          .IMPORT         _ET1_VER
12744                             345 I1          .IMPORT         _SV_IPS_ADR0
12745                             346 I1          .IMPORT         _ET1_IPS_ADR0
12746                             347 I1          .IMPORT         _ET1_IPS_ENT
12747                             348 I1          .IMPORT         _ET1_IPM_ADR0
*** SuperH RISC engine ASSEMBLER V.7.01.02.000 ***    07/04/21 19:29:24                                                  PAGE   135
PROGRAM NAME =

12748                             349 I1          .IMPORT         _PV0_IPM_ADR0
12749                             350 I1          .EXPORT         _ASM_ET1_IP_BACK
12750 000024DE                    351 I1  _ASM_ET1_IP_BACK:
12751                             352 I1          SUB_START
12752 000024DE 4F22                   M           STS.L   PR,@-R15                ;[必要]
12753                                 M   ;;;;;;; ADD     #-4,R15                 ;[不要?]
12754                             353 I1          PUSH_ALL
12755                                 M           PUSH_REG1       R0      ;
12756 000024E0 2F06                   M           MOV.L   R0,@-R15                ;PUSH=SP-4
12757                                 M                                           ;REG=>[SP]
12758                                 M                                           ;"-4" FF,FF,FF,FC
12759                                 M           PUSH_REG1       R1      ;
12760 000024E2 2F16                   M           MOV.L   R1,@-R15                ;PUSH=SP-4
12761                                 M                                           ;REG=>[SP]
12762                                 M                                           ;"-4" FF,FF,FF,FC
12763                                 M           PUSH_REG1       R2      ;
12764 000024E4 2F26                   M           MOV.L   R2,@-R15                ;PUSH=SP-4
12765                                 M                                           ;REG=>[SP]
12766                                 M                                           ;"-4" FF,FF,FF,FC
12767                                 M           PUSH_REG1       R3      ;
12768 000024E6 2F36                   M           MOV.L   R3,@-R15                ;PUSH=SP-4
12769                                 M                                           ;REG=>[SP]
12770                                 M                                           ;"-4" FF,FF,FF,FC
12771                                 M           PUSH_REG1       R4      ;
12772 000024E8 2F46                   M           MOV.L   R4,@-R15                ;PUSH=SP-4
12773                                 M                                           ;REG=>[SP]
12774                                 M                                           ;"-4" FF,FF,FF,FC
12775                                 M           PUSH_REG1       R5      ;
12776 000024EA 2F56                   M           MOV.L   R5,@-R15                ;PUSH=SP-4
12777                                 M                                           ;REG=>[SP]
12778                                 M                                           ;"-4" FF,FF,FF,FC
12779                                 M           PUSH_REG1       R6      ;
12780 000024EC 2F66                   M           MOV.L   R6,@-R15                ;PUSH=SP-4
12781                                 M                                           ;REG=>[SP]
12782                                 M                                           ;"-4" FF,FF,FF,FC
12783                                 M           PUSH_REG1       R7      ;
12784 000024EE 2F76                   M           MOV.L   R7,@-R15                ;PUSH=SP-4
12785                                 M                                           ;REG=>[SP]
12786                                 M                                           ;"-4" FF,FF,FF,FC
12787                                 M           PUSH_REG1       R8      ;
12788 000024F0 2F86                   M           MOV.L   R8,@-R15                ;PUSH=SP-4
12789                                 M                                           ;REG=>[SP]
12790                                 M                                           ;"-4" FF,FF,FF,FC
12791                                 M           PUSH_REG1       R9      ;
12792 000024F2 2F96                   M           MOV.L   R9,@-R15                ;PUSH=SP-4
12793                                 M                                           ;REG=>[SP]
12794                                 M                                           ;"-4" FF,FF,FF,FC
12795                                 M           PUSH_REG1       R10     ;
12796 000024F4 2FA6                   M           MOV.L   R10,@-R15               ;PUSH=SP-4
12797                                 M                                           ;REG=>[SP]
12798                                 M                                           ;"-4" FF,FF,FF,FC
12799                                 M           PUSH_REG1       R11     ;
12800 000024F6 2FB6                   M           MOV.L   R11,@-R15               ;PUSH=SP-4
12801                                 M                                           ;REG=>[SP]
12802                                 M                                           ;"-4" FF,FF,FF,FC
12803                                 M           PUSH_REG1       R12     ;
12804 000024F8 2FC6                   M           MOV.L   R12,@-R15               ;PUSH=SP-4
*** SuperH RISC engine ASSEMBLER V.7.01.02.000 ***    07/04/21 19:29:24                                                  PAGE   136
PROGRAM NAME =

12805                                 M                                           ;REG=>[SP]
12806                                 M                                           ;"-4" FF,FF,FF,FC
12807                                 M           PUSH_REG1       R13     ;
12808 000024FA 2FD6                   M           MOV.L   R13,@-R15               ;PUSH=SP-4
12809                                 M                                           ;REG=>[SP]
12810                                 M                                           ;"-4" FF,FF,FF,FC
12811                                 M           PUSH_REG1       R14     ;
12812 000024FC 2FE6                   M           MOV.L   R14,@-R15               ;PUSH=SP-4
12813                                 M                                           ;REG=>[SP]
12814                                 M                                           ;"-4" FF,FF,FF,FC
12815                                 M           PUSH_MACHL              ;
12816 000024FE 4F02                   M           STS.L   MACH,@-R15
12817 00002500 4F12                   M           STS.L   MACL,@-R15
12818                                 M           PUSH_SYS_REG    GBR     ;
12819 00002502 4F13                   M           STC.L   GBR,@-R15
12820                                 M           .AIF    3 EQ 3
12821                                             .AELSE
12822                                             PUSH_FPU_ALL            ;2001-07-08
12823                                             .AENDI
12824                             354 I1  
12825                             355 I1  ;;//////        MOV.L   #_ET1_VER,R1            ;
12826                             356 I1  ;;//////        MOV.W   @R1,R0                          ;
12827                             357 I1  ;;//////        MOV.W   #H'4554,R2                      ; "ET"
12828                             358 I1  ;;//////        CMP/EQ  R2,R0                           ; バージョン「ＥＴ」が来た？
12829                             359 I1  ;;//////        BT      _ASM_ET1IP_BK_000               ; はい
12830                             360 I1  ;;//////        M_BRA   _ASM_ET1IP_BK_EXT               ; いいえ
12831                             361 I1  
12832 00002504 D104               362 I1          MOV.L   #_MEM_ARI,R1                    ;
12833 00002506 6010               363 I1          MOV.B   @R1,R0                          ;
12834 00002508 600C               364 I1          EXTU.B  R0,R0                           ;
12835 0000250A 9103               365 I1          MOV.W   #H'00A5,R1                      ;
12836 0000250C 3010               366 I1          CMP/EQ  R1,R0                           ;
12837 0000250E 8905               367 I1          BT      _ASM_ET1IP_BK_000               ; はい
12838                             368 I1          M_BRA   _ASM_ET1IP_BK_EXT               ; いいえ
12839 00002510 A02A                   M           BRA     _ASM_ET1IP_BK_EXT
12840 00002512 0009                   M           NOP
12841                             369 I1  
12842                                 I1  ***** BEGIN-POOL *****
12843 00002514 00A5                   I1  DATA FOR SOURCE-LINE 365
12844 00002516 0000                   I1  ALIGNMENT CODE
12845 00002518 00000000               I1  DATA FOR SOURCE-LINE 362
12846                                 I1  ***** END-POOL *****
12847 0000251C                    370 I1  _ASM_ET1IP_BK_000:
12848 0000251C D105               371 I1          MOV.L   #_SV_IPS_ADR0,R1
12849 0000251E D206               372 I1          MOV.L   #_ET1_IPS_ADR0,R2
12850 00002520 9407               373 I1          MOV.W   #4*3,R4                                 ; IPｱﾄﾞﾚｽ、ｻﾌﾞﾈｯﾄﾏｽｸ、ﾃﾞﾌｫﾙﾄｹﾞｰﾄｳｪ
                                          ｲ
12851 00002522                    374 I1  _ASM_ET1IP_BK_100:
12852 00002522 2448               375 I1          TST     R4,R4
12853 00002524 890A               376 I1          BT      _ASM_ET1IP_BK_150
12854 00002526 6015               377 I1          MOV.W   @R1+,R0
12855 00002528 2201               378 I1          MOV.W   R0,@R2
12856 0000252A 7202               379 I1          ADD     #2,R2
12857 0000252C 74FF               380 I1          ADD     #-1,R4
12858                             381 I1          M_BRA   _ASM_ET1IP_BK_100
12859 0000252E AFF8                   M           BRA     _ASM_ET1IP_BK_100
12860 00002530 0009                   M           NOP
*** SuperH RISC engine ASSEMBLER V.7.01.02.000 ***    07/04/21 19:29:24                                                  PAGE   137
PROGRAM NAME =

12861                             382 I1  
12862                                 I1  ***** BEGIN-POOL *****
12863 00002532 000C                   I1  DATA FOR SOURCE-LINE 373
12864 00002534 00000000               I1  DATA FOR SOURCE-LINE 371
12865 00002538 00000000               I1  DATA FOR SOURCE-LINE 372
12866                                 I1  ***** END-POOL *****
12867 0000253C                    383 I1  _ASM_ET1IP_BK_150:
12868 0000253C 900C               384 I1          MOV.W   #H'5AA5,R0
12869 0000253E D107               385 I1          MOV.L   #_ET1_IPS_ENT,R1                        ;IPｱﾄﾞﾚｽ確定
12870 00002540 2101               386 I1          MOV.W   R0,@R1
12871                             387 I1  
12872 00002542 D107               388 I1          MOV.L   #_ET1_IPM_ADR0,R1
12873 00002544 D207               389 I1          MOV.L   #_PV0_IPM_ADR0,R2
12874 00002546 9408               390 I1          MOV.W   #4*1,R4                                 ; ﾓﾆﾀ用IPｱﾄﾞﾚｽ
12875 00002548                    391 I1  _ASM_ET1IP_BK_200:
12876 00002548 2448               392 I1          TST     R4,R4
12877 0000254A 890D               393 I1          BT      _ASM_ET1IP_BK_250
12878 0000254C 6015               394 I1          MOV.W   @R1+,R0
12879 0000254E 2201               395 I1          MOV.W   R0,@R2
12880 00002550 7202               396 I1          ADD     #2,R2
12881 00002552 74FF               397 I1          ADD     #-1,R4
12882                             398 I1          M_BRA   _ASM_ET1IP_BK_200
12883 00002554 AFF8                   M           BRA     _ASM_ET1IP_BK_200
12884 00002556 0009                   M           NOP
12885                             399 I1  
12886                                 I1  ***** BEGIN-POOL *****
12887 00002558 5AA5                   I1  DATA FOR SOURCE-LINE 384
12888 0000255A 0004                   I1  DATA FOR SOURCE-LINE 390
12889 0000255C 00000000               I1  DATA FOR SOURCE-LINE 385
12890 00002560 00000000               I1  DATA FOR SOURCE-LINE 388
12891 00002564 00000000               I1  DATA FOR SOURCE-LINE 389
12892                                 I1  ***** END-POOL *****
12893 00002568                    400 I1  _ASM_ET1IP_BK_250:
12894                             401 I1  
12895 00002568                    402 I1  _ASM_ET1IP_BK_EXT:
12896                             403 I1          POP_ALL
12897                                 M           .AIF    3 EQ 3
12898                                             .AELSE
12899                                             POP_FPU_ALL             ;2001-07-08
12900                                             .AENDI
12901                                 M           POP_SYS_REG     GBR     ;
12902 00002568 4F17                   M           LDC.L   @R15+,GBR
12903                                 M           POP_MACHL               ;
12904 0000256A 4F16                   M           LDS.L   @R15+,MACL
12905 0000256C 4F06                   M           LDS.L   @R15+,MACH
12906                                 M           POP_REG1        R14     ;
12907                                 M                                   ; RE"+4" 00,00,00,04
12908 0000256E 6EF6                   M           MOV.L   @R15+,R14        ;
12909                                 M           POP_REG1        R13     ;
12910                                 M                                   ; RE"+4" 00,00,00,04
12911 00002570 6DF6                   M           MOV.L   @R15+,R13        ;
12912                                 M           POP_REG1        R12     ;
12913                                 M                                   ; RE"+4" 00,00,00,04
12914 00002572 6CF6                   M           MOV.L   @R15+,R12        ;
12915                                 M           POP_REG1        R11     ;
12916                                 M                                   ; RE"+4" 00,00,00,04
12917 00002574 6BF6                   M           MOV.L   @R15+,R11        ;
*** SuperH RISC engine ASSEMBLER V.7.01.02.000 ***    07/04/21 19:29:24                                                  PAGE   138
PROGRAM NAME =

12918                                 M           POP_REG1        R10     ;
12919                                 M                                   ; RE"+4" 00,00,00,04
12920 00002576 6AF6                   M           MOV.L   @R15+,R10        ;
12921                                 M           POP_REG1        R9      ;
12922                                 M                                   ; RE"+4" 00,00,00,04
12923 00002578 69F6                   M           MOV.L   @R15+,R9        ;
12924                                 M           POP_REG1        R8      ;
12925                                 M                                   ; RE"+4" 00,00,00,04
12926 0000257A 68F6                   M           MOV.L   @R15+,R8        ;
12927                                 M           POP_REG1        R7      ;
12928                                 M                                   ; RE"+4" 00,00,00,04
12929 0000257C 67F6                   M           MOV.L   @R15+,R7        ;
12930                                 M           POP_REG1        R6      ;
12931                                 M                                   ; RE"+4" 00,00,00,04
12932 0000257E 66F6                   M           MOV.L   @R15+,R6        ;
12933                                 M           POP_REG1        R5      ;
12934                                 M                                   ; RE"+4" 00,00,00,04
12935 00002580 65F6                   M           MOV.L   @R15+,R5        ;
12936                                 M           POP_REG1        R4      ;
12937                                 M                                   ; RE"+4" 00,00,00,04
12938 00002582 64F6                   M           MOV.L   @R15+,R4        ;
12939                                 M           POP_REG1        R3      ;
12940                                 M                                   ; RE"+4" 00,00,00,04
12941 00002584 63F6                   M           MOV.L   @R15+,R3        ;
12942                                 M           POP_REG1        R2      ;
12943                                 M                                   ; RE"+4" 00,00,00,04
12944 00002586 62F6                   M           MOV.L   @R15+,R2        ;
12945                                 M           POP_REG1        R1      ;
12946                                 M                                   ; RE"+4" 00,00,00,04
12947 00002588 61F6                   M           MOV.L   @R15+,R1        ;
12948                                 M           POP_REG1        R0      ;
12949                                 M                                   ; RE"+4" 00,00,00,04
12950 0000258A 60F6                   M           MOV.L   @R15+,R0        ;
12951                             404 I1          SUB_END
12952                                 M   ;;;;;;; ADD     #4,R15                  ;[不要?]
12953 0000258C 4F26                   M           LDS.L   @R15+,PR                ;[必要]
12954                             405 I1          M_RTS
12955 0000258E 000B                   M           RTS                             ;RTSの後ろの
12956 00002590 0009                   M           NOP                             ;@R15+,PRはﾀﾞﾒ
12957                             406 I1  
12958                             407 I1  
12959                            3868             .AENDI
12960                            3869     
12961                            3870     
12962                            3871     ;★★★★★★★★★★★★★★★★★★★★★★★★★★★★★★★★★★★★★★★★★★★★
                                          ★★★★★★★★★★★★
12963                            3872     
12964                            3873     
12965 00002592                   3874             .SECTION        PvupsciROM,CODE,ALIGN=4
12966                            3875     ;       **********************************************************************************
                                          ***
12967                            3876     ;       *****                                                                           **
                                          ***
12968                            3877     ;       *****   指定型データの読出し            SIT4-MC  2014/05/08                     **
                                          ***
12969                            3878     ;       *****                                                                           **
                                          ***
*** SuperH RISC engine ASSEMBLER V.7.01.02.000 ***    07/04/21 19:29:24                                                  PAGE   139
PROGRAM NAME =

12970                            3879     ;       **********************************************************************************
                                          ***
12971                            3880             .IMPORT         _kata_no_ld
12972                            3881             .IMPORT         _kata_adr_ld
12973                            3882             .IMPORT         _KATA_LOAD_ASM
12974                            3883     
12975 00002592                   3884     _SCI_KATA_READ:
12976                            3885             SUB_START
12977 00002592 4F22                   M           STS.L   PR,@-R15                ;[必要]
12978                                 M   ;;;;;;; ADD     #-4,R15                 ;[不要?]
12979                            3886     
12980 00002594 C506              3887             MOV.W   @(VUP_KTNO_PC,GBR),R0                   ; 型番号
12981 00002596 2008              3888             TST     R0,R0                                   ; 型番号指定ある？
12982 00002598 890C              3889             BT      _SCI_KATA_RD_EXT                        ; いいえ
12983 0000259A D208              3890             MOV.L   #220,R2
12984 0000259C 3203              3891             CMP/GE  R0,R2                                   ; 型番号220以下？
12985 0000259E 8B09              3892             BF      _SCI_KATA_RD_EXT                        ; いいえ
12986                            3893     
12987 000025A0 D107              3894             MOV.L   #_kata_no_ld,R1
12988 000025A2 2101              3895             MOV.W   R0,@R1                                  ; 読出し型番号
12989                            3896     
12990 000025A4 D107              3897             MOV.L   #_kata_adr_ld,R1
12991 000025A6 D208              3898             MOV.L   #_KATA_RW_AREA,R2                       ; コピー先
12992 000025A8 2122              3899             MOV.L   R2,@R1
12993                            3900     
12994                            3901             FAR_JSR #_KATA_LOAD_ASM,R1
12995 000025AA D108                   M           MOV.L   #_KATA_LOAD_ASM,R1              ;ﾃｰﾌﾞﾙｱﾄﾞﾚｽの内容をREGへ
12996 000025AC 410B                   M           JSR     @R1                     ;
12997 000025AE 0009                   M           NOP                                     ;
12998                            3902     
12999 000025B0 9003              3903             MOV.W   #H'02,R0                                ; 読出し完了
13000 000025B2 C109              3904             MOV.W   R0,@(VUP_STR_SH,GBR)                    ; PCへ
13001                            3905     
13002 000025B4                   3906     _SCI_KATA_RD_EXT:
13003                            3907             SUB_END
13004                                 M   ;;;;;;; ADD     #4,R15                  ;[不要?]
13005 000025B4 4F26                   M           LDS.L   @R15+,PR                ;[必要]
13006                            3908             M_RTS
13007 000025B6 000B                   M           RTS                             ;RTSの後ろの
13008 000025B8 0009                   M           NOP                             ;@R15+,PRはﾀﾞﾒ
13009                            3909     
13010                            3910     ;       **********************************************************************************
                                          ***
13011                            3911     ;       *****                                                                           **
                                          ***
13012                            3912     ;       *****   指定型データの書込み            SIT4-MC  2014/05/08                     **
                                          ***
13013                            3913     ;       *****                                                                           **
                                          ***
13014                            3914     ;       **********************************************************************************
                                          ***
13015                            3915             .IMPORT         _kata_no_sv
13016                            3916             .IMPORT         _kata_adr_sv
13017                            3917             .IMPORT         _KATA_SAVE_ASM
13018                            3918             .IMPORT         _GET_KAT_NAME_MEMO              ; Cソース       2014/12/23
13019                            3919     
13020                                     ***** BEGIN-POOL *****
*** SuperH RISC engine ASSEMBLER V.7.01.02.000 ***    07/04/21 19:29:24                                                  PAGE   140
PROGRAM NAME =

13021 000025BA 0002                       DATA FOR SOURCE-LINE 3903
13022 000025BC 000000DC                   DATA FOR SOURCE-LINE 3890
13023 000025C0 00000000                   DATA FOR SOURCE-LINE 3894
13024 000025C4 00000000                   DATA FOR SOURCE-LINE 3897
13025 000025C8 00000000                   DATA FOR SOURCE-LINE 3898
13026 000025CC 00000000                   DATA FOR SOURCE-LINE 3901
13027                                     ***** END-POOL *****
13028 000025D0                   3920     _SCI_KATA_WRITE:
13029                            3921             SUB_START
13030 000025D0 4F22                   M           STS.L   PR,@-R15                ;[必要]
13031                                 M   ;;;;;;; ADD     #-4,R15                 ;[不要?]
13032                            3922     
13033 000025D2 C506              3923             MOV.W   @(VUP_KTNO_PC,GBR),R0                   ; 型番号
13034 000025D4 2008              3924             TST     R0,R0                                   ; 型番号指定ある？
13035 000025D6 8933              3925             BT      _SCI_KATA_WR_EXT                        ; いいえ
13036 000025D8 D21B              3926             MOV.L   #220,R2
13037 000025DA 3203              3927             CMP/GE  R0,R2                                   ; 型番号220以下？
13038 000025DC 8B30              3928             BF      _SCI_KATA_WR_EXT                        ; いいえ
13039                            3929     
13040 000025DE D11B              3930             MOV.L   #_kata_no_sv,R1
13041 000025E0 2101              3931             MOV.W   R0,@R1                                  ; 書込み型番号
13042                            3932     
13043 000025E2 D11B              3933             MOV.L   #_kata_adr_sv,R1
13044 000025E4 D21B              3934             MOV.L   #_KATA_RW_AREA,R2                       ; コピー元
13045 000025E6 2122              3935             MOV.L   R2,@R1
13046                            3936     
13047                            3937             FAR_JSR #_KATA_SAVE_ASM,R1
13048 000025E8 D11B                   M           MOV.L   #_KATA_SAVE_ASM,R1              ;ﾃｰﾌﾞﾙｱﾄﾞﾚｽの内容をREGへ
13049 000025EA 410B                   M           JSR     @R1                     ;
13050 000025EC 0009                   M           NOP                                     ;
13051                            3938     
13052 000025EE 902A              3939             MOV.W   #H'03,R0                                ; 書込み完了
13053 000025F0 C109              3940             MOV.W   R0,@(VUP_STR_SH,GBR)                    ; PCへ
13054                            3941     
13055                            3942             PUSH_ALL
13056                                 M           PUSH_REG1       R0      ;
13057 000025F2 2F06                   M           MOV.L   R0,@-R15                ;PUSH=SP-4
13058                                 M                                           ;REG=>[SP]
13059                                 M                                           ;"-4" FF,FF,FF,FC
13060                                 M           PUSH_REG1       R1      ;
13061 000025F4 2F16                   M           MOV.L   R1,@-R15                ;PUSH=SP-4
13062                                 M                                           ;REG=>[SP]
13063                                 M                                           ;"-4" FF,FF,FF,FC
13064                                 M           PUSH_REG1       R2      ;
13065 000025F6 2F26                   M           MOV.L   R2,@-R15                ;PUSH=SP-4
13066                                 M                                           ;REG=>[SP]
13067                                 M                                           ;"-4" FF,FF,FF,FC
13068                                 M           PUSH_REG1       R3      ;
13069 000025F8 2F36                   M           MOV.L   R3,@-R15                ;PUSH=SP-4
13070                                 M                                           ;REG=>[SP]
13071                                 M                                           ;"-4" FF,FF,FF,FC
13072                                 M           PUSH_REG1       R4      ;
13073 000025FA 2F46                   M           MOV.L   R4,@-R15                ;PUSH=SP-4
13074                                 M                                           ;REG=>[SP]
13075                                 M                                           ;"-4" FF,FF,FF,FC
13076                                 M           PUSH_REG1       R5      ;
13077 000025FC 2F56                   M           MOV.L   R5,@-R15                ;PUSH=SP-4
*** SuperH RISC engine ASSEMBLER V.7.01.02.000 ***    07/04/21 19:29:24                                                  PAGE   141
PROGRAM NAME =

13078                                 M                                           ;REG=>[SP]
13079                                 M                                           ;"-4" FF,FF,FF,FC
13080                                 M           PUSH_REG1       R6      ;
13081 000025FE 2F66                   M           MOV.L   R6,@-R15                ;PUSH=SP-4
13082                                 M                                           ;REG=>[SP]
13083                                 M                                           ;"-4" FF,FF,FF,FC
13084                                 M           PUSH_REG1       R7      ;
13085 00002600 2F76                   M           MOV.L   R7,@-R15                ;PUSH=SP-4
13086                                 M                                           ;REG=>[SP]
13087                                 M                                           ;"-4" FF,FF,FF,FC
13088                                 M           PUSH_REG1       R8      ;
13089 00002602 2F86                   M           MOV.L   R8,@-R15                ;PUSH=SP-4
13090                                 M                                           ;REG=>[SP]
13091                                 M                                           ;"-4" FF,FF,FF,FC
13092                                 M           PUSH_REG1       R9      ;
13093 00002604 2F96                   M           MOV.L   R9,@-R15                ;PUSH=SP-4
13094                                 M                                           ;REG=>[SP]
13095                                 M                                           ;"-4" FF,FF,FF,FC
13096                                 M           PUSH_REG1       R10     ;
13097 00002606 2FA6                   M           MOV.L   R10,@-R15               ;PUSH=SP-4
13098                                 M                                           ;REG=>[SP]
13099                                 M                                           ;"-4" FF,FF,FF,FC
13100                                 M           PUSH_REG1       R11     ;
13101 00002608 2FB6                   M           MOV.L   R11,@-R15               ;PUSH=SP-4
13102                                 M                                           ;REG=>[SP]
13103                                 M                                           ;"-4" FF,FF,FF,FC
13104                                 M           PUSH_REG1       R12     ;
13105 0000260A 2FC6                   M           MOV.L   R12,@-R15               ;PUSH=SP-4
13106                                 M                                           ;REG=>[SP]
13107                                 M                                           ;"-4" FF,FF,FF,FC
13108                                 M           PUSH_REG1       R13     ;
13109 0000260C 2FD6                   M           MOV.L   R13,@-R15               ;PUSH=SP-4
13110                                 M                                           ;REG=>[SP]
13111                                 M                                           ;"-4" FF,FF,FF,FC
13112                                 M           PUSH_REG1       R14     ;
13113 0000260E 2FE6                   M           MOV.L   R14,@-R15               ;PUSH=SP-4
13114                                 M                                           ;REG=>[SP]
13115                                 M                                           ;"-4" FF,FF,FF,FC
13116                                 M           PUSH_MACHL              ;
13117 00002610 4F02                   M           STS.L   MACH,@-R15
13118 00002612 4F12                   M           STS.L   MACL,@-R15
13119                                 M           PUSH_SYS_REG    GBR     ;
13120 00002614 4F13                   M           STC.L   GBR,@-R15
13121                                 M           .AIF    3 EQ 3
13122                                             .AELSE
13123                                             PUSH_FPU_ALL            ;2001-07-08
13124                                             .AENDI
13125                            3943             FAR_JSR #_GET_KAT_NAME_MEMO,R1                  ; 2014/12/23
13126 00002616 D111                   M           MOV.L   #_GET_KAT_NAME_MEMO,R1          ;ﾃｰﾌﾞﾙｱﾄﾞﾚｽの内容をREGへ
13127 00002618 410B                   M           JSR     @R1                     ;
13128 0000261A 0009                   M           NOP                                     ;
13129                            3944             POP_ALL
13130                                 M           .AIF    3 EQ 3
13131                                             .AELSE
13132                                             POP_FPU_ALL             ;2001-07-08
13133                                             .AENDI
13134                                 M           POP_SYS_REG     GBR     ;
*** SuperH RISC engine ASSEMBLER V.7.01.02.000 ***    07/04/21 19:29:24                                                  PAGE   142
PROGRAM NAME =

13135 0000261C 4F17                   M           LDC.L   @R15+,GBR
13136                                 M           POP_MACHL               ;
13137 0000261E 4F16                   M           LDS.L   @R15+,MACL
13138 00002620 4F06                   M           LDS.L   @R15+,MACH
13139                                 M           POP_REG1        R14     ;
13140                                 M                                   ; RE"+4" 00,00,00,04
13141 00002622 6EF6                   M           MOV.L   @R15+,R14        ;
13142                                 M           POP_REG1        R13     ;
13143                                 M                                   ; RE"+4" 00,00,00,04
13144 00002624 6DF6                   M           MOV.L   @R15+,R13        ;
13145                                 M           POP_REG1        R12     ;
13146                                 M                                   ; RE"+4" 00,00,00,04
13147 00002626 6CF6                   M           MOV.L   @R15+,R12        ;
13148                                 M           POP_REG1        R11     ;
13149                                 M                                   ; RE"+4" 00,00,00,04
13150 00002628 6BF6                   M           MOV.L   @R15+,R11        ;
13151                                 M           POP_REG1        R10     ;
13152                                 M                                   ; RE"+4" 00,00,00,04
13153 0000262A 6AF6                   M           MOV.L   @R15+,R10        ;
13154                                 M           POP_REG1        R9      ;
13155                                 M                                   ; RE"+4" 00,00,00,04
13156 0000262C 69F6                   M           MOV.L   @R15+,R9        ;
13157                                 M           POP_REG1        R8      ;
13158                                 M                                   ; RE"+4" 00,00,00,04
13159 0000262E 68F6                   M           MOV.L   @R15+,R8        ;
13160                                 M           POP_REG1        R7      ;
13161                                 M                                   ; RE"+4" 00,00,00,04
13162 00002630 67F6                   M           MOV.L   @R15+,R7        ;
13163                                 M           POP_REG1        R6      ;
13164                                 M                                   ; RE"+4" 00,00,00,04
13165 00002632 66F6                   M           MOV.L   @R15+,R6        ;
13166                                 M           POP_REG1        R5      ;
13167                                 M                                   ; RE"+4" 00,00,00,04
13168 00002634 65F6                   M           MOV.L   @R15+,R5        ;
13169                                 M           POP_REG1        R4      ;
13170                                 M                                   ; RE"+4" 00,00,00,04
13171 00002636 64F6                   M           MOV.L   @R15+,R4        ;
13172                                 M           POP_REG1        R3      ;
13173                                 M                                   ; RE"+4" 00,00,00,04
13174 00002638 63F6                   M           MOV.L   @R15+,R3        ;
13175                                 M           POP_REG1        R2      ;
13176                                 M                                   ; RE"+4" 00,00,00,04
13177 0000263A 62F6                   M           MOV.L   @R15+,R2        ;
13178                                 M           POP_REG1        R1      ;
13179                                 M                                   ; RE"+4" 00,00,00,04
13180 0000263C 61F6                   M           MOV.L   @R15+,R1        ;
13181                                 M           POP_REG1        R0      ;
13182                                 M                                   ; RE"+4" 00,00,00,04
13183 0000263E 60F6                   M           MOV.L   @R15+,R0        ;
13184                            3945     
13185 00002640                   3946     _SCI_KATA_WR_EXT:
13186                            3947             SUB_END
13187                                 M   ;;;;;;; ADD     #4,R15                  ;[不要?]
13188 00002640 4F26                   M           LDS.L   @R15+,PR                ;[必要]
13189                            3948             M_RTS
13190 00002642 000B                   M           RTS                             ;RTSの後ろの
13191 00002644 0009                   M           NOP                             ;@R15+,PRはﾀﾞﾒ
*** SuperH RISC engine ASSEMBLER V.7.01.02.000 ***    07/04/21 19:29:24                                                  PAGE   143
PROGRAM NAME =

13192                            3949     
13193                            3950     ;       **********************************************************************************
                                          ***
13194                            3951     ;       *****                                                                           **
                                          ***
13195                            3952     ;       *****           WORK RAM                                                        **
                                          ***
13196                            3953     ;       *****                                                                           **
                                          ***
13197                            3954     ;       **********************************************************************************
                                          ***
13198                                     ***** BEGIN-POOL *****
13199 00002646 0003                       DATA FOR SOURCE-LINE 3939
13200 00002648 000000DC                   DATA FOR SOURCE-LINE 3926
13201 0000264C 00000000                   DATA FOR SOURCE-LINE 3930
13202 00002650 00000000                   DATA FOR SOURCE-LINE 3933
13203 00002654 00000000                   DATA FOR SOURCE-LINE 3934
13204 00002658 00000000                   DATA FOR SOURCE-LINE 3937
13205 0000265C 00000000                   DATA FOR SOURCE-LINE 3943
13206                                     ***** END-POOL *****
13207 0000068C                   3955             .SECTION        BvupsciwkRAM, DATA,ALIGN=4                      ;
13208 0000068C 00001000          3956     _KATA_RW_AREA   .SRES           H'1000;
13209                            3957     
13210                            3958             .END
  *****TOTAL ERRORS       0
  *****TOTAL WARNINGS     0
*** SuperH RISC engine ASSEMBLER V.7.01.02.000 ***    07/04/21 19:29:24                                                  PAGE   144

*** CROSS REFERENCE LIST

NAME                             SECTION  ATTR VALUE             SEQUENCE

AAA00000                         PvupsciR      00000074   5644  5655*
AAA00001                         PvupsciR      00000CD8   8129  8139*
AAA00002                         PvupsciR      00000E2C   8399  8409*
AAA00003                         PvupsciR      00000F3C   8618  8629*
AAA00004                         PvupsciR      00001208   9287  9297*
AAA00005                         PvupsciR      00001810  10307 10319*
AAA00006                         PvupsciR      00001984  10612 10626*
BIT0                                      EQU  00000001    230* 5619  8104  8374  8593  9262 10134 10282 10587 11353 11395 11438 
                                                         11481 11521 11548 11591 11634 11674 
BIT1                                      EQU  00000002    231*10140 10163 10360 10421 11702 11713 
BIT10                                     EQU  00000400    240*
BIT11                                     EQU  00000800    241*
BIT12                                     EQU  00001000    242*
BIT13                                     EQU  00002000    243* 7900  8655  8904  9216 
BIT14                                     EQU  00004000    244*
BIT15                                     EQU  00008000    245*
BIT16                                     EQU  00010000    246*
BIT17                                     EQU  00020000    247*
BIT18                                     EQU  00040000    248*
BIT19                                     EQU  00080000    249*
BIT2                                      EQU  00000004    232* 8483  8559  8641  8668  8862  8917 10186 10231 10360 10421 11731 
                                                         11762 11837 
BIT20                                     EQU  00100000    250*
BIT21                                     EQU  00200000    251*
BIT22                                     EQU  00400000    252*
BIT23                                     EQU  00800000    253*
BIT24                                     EQU  01000000    254*
BIT25                                     EQU  02000000    255*
BIT26                                     EQU  04000000    256*
BIT27                                     EQU  08000000    257*
BIT28                                     EQU  10000000    258*
BIT29                                     EQU  20000000    259*
BIT3                                      EQU  00000008    233* 7985 11785 11799 11837 
BIT30                                     EQU  40000000    260*
BIT31                                     EQU  80000000    261*
BIT4                                      EQU  00000010    234* 5611  7985  8060  8096  8366  8585  9254 10274 10579 11819 11859 
BIT5                                      EQU  00000020    235* 7912  7985  8046  8321  8545  8668  8917 11880 11894 
BIT6                                      EQU  00000040    236* 8070  8151 12332 
BIT7                                      EQU  00000080    237* 7912  8335  8421 11674 11737 
BIT8                                      EQU  00000100    238*
BIT9                                      EQU  00000200    239*
BvupsciwkRAM                     Bvupsciw SCT  00000000   8969*11297*12289*13207*
ET1_LDCMND_REQ                            EQU  00000016   2303* 7878 12363 12546 12581 
ET1_LDCMND_RES                            EQU  00000018   2304* 7883 12568 12583 
FROM_DUMMY_ADR0                           EQU  00000000   2355*
FROM_ERS_ADR_BL0_0                        EQU  00000000   2371*
FROM_ERS_ADR_BL0_1                        EQU  00004000   2372*
FROM_ERS_ADR_BL0_2                        EQU  00006000   2373*
FROM_ERS_ADR_BL0_3                        EQU  00008000   2374*
FROM_ERS_ADR_BL1                          EQU  00010000   2375*
FROM_ERS_ADR_BL2                          EQU  00020000   2376*
FROM_ERS_ADR_BL3                          EQU  00030000   2377*
FROM_ERS_ADR_BL4                          EQU  00040000   2378*
FROM_ERS_ADR_BL5                          EQU  00050000   2379*
*** SuperH RISC engine ASSEMBLER V.7.01.02.000 ***    07/04/21 19:29:24                                                  PAGE   145

*** CROSS REFERENCE LIST

NAME                             SECTION  ATTR VALUE             SEQUENCE

FROM_ERS_ADR_BL6                          EQU  00060000   2380*
FROM_ERS_ADR_BL7                          EQU  00070000   2381*
FROM_ERS_ADR_BL8                          EQU  00080000   2382*
FROM_ERS_ADR_BL9                          EQU  00090000   2383*
FROM_ERS_ADR_BLA                          EQU  000A0000   2384*
FROM_ERS_ADR_BLB                          EQU  000B0000   2385*
FROM_ERS_ADR_BLC                          EQU  000C0000   2386*
FROM_ERS_ADR_BLD                          EQU  000D0000   2387*
FROM_ERS_ADR_BLE                          EQU  000E0000   2388*
FROM_ERS_ADR_BLF                          EQU  000F0000   2389*
FROM_ERS_CMND_ADR0                        EQU  00000555   2357*
FROM_ERS_CMND_ADR1                        EQU  000002AA   2358*
FROM_ERS_CMND_ADR2                        EQU  00000555   2359*
FROM_ERS_CMND_ADR3                        EQU  00000555   2360*
FROM_ERS_CMND_ADR4                        EQU  000002AA   2361*
FROM_ERS_CMND_ADR5                        EQU  00000555   2362*
FROM_ERS_CMND_DAT0                        EQU  000000AA   2363*
FROM_ERS_CMND_DAT1                        EQU  00000055   2364*
FROM_ERS_CMND_DAT2                        EQU  00000080   2365*
FROM_ERS_CMND_DAT3                        EQU  000000AA   2366*
FROM_ERS_CMND_DAT4                        EQU  00000055   2367*
FROM_ERS_CMND_DAT5                        EQU  00000010   2368*
FROM_ERS_DAT11                            EQU  00000030   2370*
FROM_WR_CMND_ADR0                         EQU  00000555   2391*
FROM_WR_CMND_ADR1                         EQU  000002AA   2392*
FROM_WR_CMND_ADR2                         EQU  00000555   2393*
FROM_WR_CMND_DAT0                         EQU  000000AA   2394*
FROM_WR_CMND_DAT1                         EQU  00000055   2395*
FROM_WR_CMND_DAT2                         EQU  000000A0   2396*
HEAD_END                                  EQU  0000000A   2297* 5891  7982  8194  8210  8235  8739  8757  8773 
H_BYTE                                    EQU  00000000    297*
LOD_CRDP_010                     PvupsciR      00000780   7061  7070*
LOD_CRDP_020                     PvupsciR      000007C4   7088  7112*
LOD_CRDP_050                     PvupsciR      000007F0   7128  7139*
LOD_CRDP_100                     PvupsciR      00000800   7141  7152*
LOD_CRDP_110                     PvupsciR      00000810   7155  7166*
LOD_CRDP_120                     PvupsciR      00000820   7169  7180*
LOD_CRDP_130                     PvupsciR      00000830   7183  7197*
LOD_CRDP_140                     PvupsciR      00000840   7200  7211*
LOD_CRDP_150                     PvupsciR      00000854   7214  7228*
LOD_CRDP_160                     PvupsciR      00000864   7231  7242*
LOD_CRDP_170                     PvupsciR      00000874   7244  7255*
LOD_CRDP_200                     PvupsciR      00000878   7132  7145  7159  7173  7190  7204  7235  7248  7261*
LOD_CRDP_250                     PvupsciR      00000890   7274  7276*
LOD_CRDP_EXT                     PvupsciR      0000089C   7063  7100  7221  7257  7287*
LOD_CWRP_010                     PvupsciR      00000200   6054  6062*
LOD_CWRP_020                     PvupsciR      0000024C   6084  6108*
LOD_CWRP_050                     PvupsciR      00000278   6124  6135*
LOD_CWRP_100                     PvupsciR      00000288   6137  6148*
LOD_CWRP_110                     PvupsciR      00000290   6151  6157*
LOD_CWRP_120                     PvupsciR      000002A0   6160  6171*
LOD_CWRP_130                     PvupsciR      000002B0   6174  6187*
LOD_CWRP_140                     PvupsciR      000002C0   6190  6201*
LOD_CWRP_150                     PvupsciR      000002D4   6204  6218*
*** SuperH RISC engine ASSEMBLER V.7.01.02.000 ***    07/04/21 19:29:24                                                  PAGE   146

*** CROSS REFERENCE LIST

NAME                             SECTION  ATTR VALUE             SEQUENCE

LOD_CWRP_160                     PvupsciR      000002E4   6221  6232*
LOD_CWRP_170                     PvupsciR      000002F4   6234  6245*
LOD_CWRP_200                     PvupsciR      000002F8   6141  6250*
LOD_CWRP_202                     PvupsciR      00000310   6255  6266*
LOD_CWRP_204                     PvupsciR      00000320   6268  6278*
LOD_CWRP_206                     PvupsciR      00000330   6280  6290*
LOD_CWRP_208                     PvupsciR      00000340   6292  6302*
LOD_CWRP_210                     PvupsciR      00000350   6304  6314*
LOD_CWRP_212                     PvupsciR      00000360   6316  6326*
LOD_CWRP_214                     PvupsciR      00000370   6328  6338*
LOD_CWRP_216                     PvupsciR      00000380   6340  6350*
LOD_CWRP_216A                    PvupsciR      00000390   6352  6362*
LOD_CWRP_216AA                   PvupsciR      000003A0   6364  6375*
LOD_CWRP_216AB                   PvupsciR      000003B0   6377  6388*
LOD_CWRP_216AC                   PvupsciR      000003C0   6390  6401*
LOD_CWRP_216AD                   PvupsciR      000003D0   6403  6414*
LOD_CWRP_216AF                   PvupsciR      000003E0   6416  6427*
LOD_CWRP_216B                    PvupsciR      000003F0   6429  6439*
LOD_CWRP_216C                    PvupsciR      00000400   6442  6452*
LOD_CWRP_216D                    PvupsciR      00000410   6454  6464*
LOD_CWRP_216E                    PvupsciR      00000420   6466  6476*
LOD_CWRP_218                     PvupsciR      00000424   6258  6271  6283  6295  6307  6319  6331  6343  6355  6367  6380  6393 
                                                          6406  6419  6432  6445  6457  6469  6481*
LOD_CWRP_220                     PvupsciR      00000426   6128  6164  6180  6194  6225  6238  6484*
LOD_CWRP_222                     PvupsciR      00000444   6496  6505*
LOD_CWRP_223                     PvupsciR      00000458   6507  6519*
LOD_CWRP_230                     PvupsciR      00000458   6498  6510  6521*
LOD_CWRP_250                     PvupsciR      00000460   6532* 6546 
LOD_CWRP_300                     PvupsciR      0000047C   6512  6534  6552*
LOD_CWRP_340                     PvupsciR      00000490   6556  6558  6566*
LOD_CWRP_350                     PvupsciR      00000496   6560  6572*
LOD_CWRP_EXT                     PvupsciR      000004A2   6056  6096  6154  6211  6247  6478  6582*
L_BYTE                                    EQU  00000001    296*
NBIT0                                     EQU  000000FE    264* 5632  8117  8387  8606  9275 10295 10600 
NBIT1                                     EQU  000000FD    265*
NBIT10                                    EQU  0000FBFF    275*
NBIT11                                    EQU  0000F7FF    276*
NBIT12                                    EQU  0000EFFF    277*
NBIT13                                    EQU  0000DFFF    278*
NBIT14                                    EQU  0000BFFF    279*
NBIT15                                    EQU  00007FFF    280*
NBIT2                                     EQU  000000FB    266*
NBIT3                                     EQU  000000F7    267*
NBIT4                                     EQU  000000EF    268* 5613  8098  8368  8587  9256 10276 10581 
NBIT5                                     EQU  000000DF    269*
NBIT6                                     EQU  000000BF    270* 8215  8259  8798 
NBIT7                                     EQU  0000007F    271* 7950  8455  8488  8868 
NBIT8                                     EQU  0000FEFF    273*
NBIT9                                     EQU  0000FDFF    274*
PvupsciROM                       PvupsciR SCT  00000000   5515* 5788* 8981*11313*11952*12303*12965*
RTS_FLG                                   EQU  00000014   2302* 7898  8653  8902  9214 
RX0I_010                         PvupsciR      00000FB4   8720  8732*
RX0I_020                         PvupsciR      00000FBC   8715  8738*
RX0I_030                         PvupsciR      00000FD4   8722  8754*
*** SuperH RISC engine ASSEMBLER V.7.01.02.000 ***    07/04/21 19:29:24                                                  PAGE   147

*** CROSS REFERENCE LIST

NAME                             SECTION  ATTR VALUE             SEQUENCE

RX0I_050                         PvupsciR      00000FE4   8741  8767*
RX0I_100                         PvupsciR      00001000   8747  8770  8785*
RX0I_200                         PvupsciR      0000100C   8790  8792*
RX0I_300                         PvupsciR      0000100E   8760  8795*
RX0I_END                         PvupsciR      00001016   8801*
RX0_M020                         PvupsciR      00000D20   8177  8181  8193*
RX0_M030                         PvupsciR      00000D34   8184  8207*
RX0_M050                         PvupsciR      00000D50   8196  8229*
RX0_M400                         PvupsciR      00000D6C   8202  8232  8247*
RX0_M500                         PvupsciR      00000D78   8252  8254*
RX0_MEND                         PvupsciR      00000D94   8272*
RXD_BUF_POI                               EQU  00000004   2294* 5892  7983  8170  8211  8255  8708  8758  8793 
RXD_CNT                                   EQU  00000002   2293* 5890  7981  8198  8200  8209  8245  8743  8745  8756  8783 
RX_END                                    EQU  0000000C   2298* 5895  5938  7980  8205  8750 12550 
RX_ERR                                    EQU  0000000E   2299* 6046  6081  6656  6861  7053  7085  7325  7584  7636  7704  7746 
                                                          7790 
RX_TIMER                                  EQU  00000012   2301* 5886  8734  8949 
RX_TIMOUT_FLG                             EQU  00000010   2300* 5883  8736  8752 
SCI0_BCC_CK100                   PvupsciR      00000A36   7564* 7570 
SCI0_BCC_CKEND                   PvupsciR      00000A54   7577  7587*
SCI0_MADR_ERR                    PvupsciR      00000AEC   7689  7691  7702*
SCI0_MADR_EXT                    PvupsciR      00000AF2   7672  7693  7707*
SCI0_MSEL_EXT                    PvupsciR      00000A96   7617  7619  7621  7623  7625  7627  7629  7631  7633  7639*
SCI0_RDEI_EXT                    PvupsciR      00000B50   7781  7787  7793*
SCI0_WKRAM_RE15                           EQU  0000001E   2307*
SCI0_WREI_EXT                    PvupsciR      00000B1C   7737  7743  7749*
SEQ_LDCMND_REQ                            EQU  0000001A   2305* 5899  5914  7841 
SEQ_LDCMND_RES                            EQU  0000001C   2306* 5903  5916  7837 
SR_Init                                   EQU  40000010     24*
SR_Init_DI                                EQU  400000F0     25* 8021  8297  8520 
SR_Init_SCIEI                             EQU  400000D0     26* 9187 
TXD_BUF_POI                               EQU  00000008   2296* 5912  6812  7016  7523  8432  8828 11210 
TXD_CNT                                   EQU  00000006   2295* 6808  7012  7519  8445  8841 11207 
VUP_DATA_WR_PC                            EQU  00000006   2256* 9112  9209 11855 11883 11885 11890 11912 11914 
VUP_DATA_WR_SH                            EQU  00000016   2264* 9115  9205  9321 
VUP_END_PC                                EQU  00000004   2255* 9096 
VUP_END_SH                                EQU  00000014   2263* 9097 
VUP_KTNO_PC                               EQU  0000000C   2259*12980 13033 
VUP_KTNO_SH                               EQU  0000001C   2267*
VUP_KTRW_PC                               EQU  0000000E   2260*
VUP_KTRW_SH                               EQU  0000001E   2268*
VUP_REV10_SH                              EQU  0000002A   2274*
VUP_REV11_SH                              EQU  0000002C   2275*
VUP_REV12_SH                              EQU  0000002E   2276*
VUP_REV13_SH                              EQU  00000030   2277*
VUP_REV14_SH                              EQU  00000032   2278*
VUP_REV15_SH                              EQU  00000034   2279*
VUP_REV16_SH                              EQU  00000036   2280*
VUP_REV17_SH                              EQU  00000038   2281*
VUP_REV18_SH                              EQU  0000003A   2282*
VUP_REV19_SH                              EQU  0000003C   2283*
VUP_REV1_PC                               EQU  00000008   2257*11758 11788 11790 11795 11822 11824 
VUP_REV1_SH                               EQU  00000018   2265* 9123 11693 11694 
VUP_REV20_SH                              EQU  0000003E   2284*
*** SuperH RISC engine ASSEMBLER V.7.01.02.000 ***    07/04/21 19:29:24                                                  PAGE   148

*** CROSS REFERENCE LIST

NAME                             SECTION  ATTR VALUE             SEQUENCE

VUP_REV2_PC                               EQU  0000000A   2258*11754 11756 11853 
VUP_REV2_SH                               EQU  0000001A   2266*
VUP_REV5_SH                               EQU  00000020   2269*
VUP_REV6_SH                               EQU  00000022   2270*
VUP_REV7_SH                               EQU  00000024   2271*
VUP_REV8_SH                               EQU  00000026   2272*
VUP_REV9_SH                               EQU  00000028   2273*
VUP_SEL_PC                                EQU  00000000   2253* 6251  9099  9191  9307 10736 11374 11417 11460 11503 11516 11570 
                                                         11613 11656 11669 
VUP_SEL_SH                                EQU  00000010   2261* 9100 
VUP_START                                 EQU  00000000   2292* 5700  9180 
VUP_STR_PC                                EQU  00000002   2254* 9102  9142 11518 11671 11705 11707 11919 
VUP_STR_SH                                EQU  00000012   2262* 9109  9134  9201 13000 13053 
XBIT0                                     EQU  00000000    283*
XBIT1                                     EQU  00000001    284*
XBIT2                                     EQU  00000002    285*
XBIT3                                     EQU  00000003    286*
XBIT4                                     EQU  00000004    287*
XBIT5                                     EQU  00000005    288*
XBIT6                                     EQU  00000006    289*
XBIT7                                     EQU  00000007    290*
_100_KATA_SIZE                            EQU  00040000   2344* 9522  9682  9925 10029 
_100_KATA_TOP                             EQU  A0240000   2341* 9924 
_200_KATA_TOP                             EQU  A03C0000   2342* 9520 10028 
_ACDR                                     IMPT 00000000    660 
_ACTR1                                    IMPT 00000000    652 
_ACTR2                                    IMPT 00000000    653 
_AD2CNV_IN_DATA                           IMPT 00000000   5209 
_AD2_AVG_BUF                              IMPT 00000000   5206 
_AD2_AVG_TOTAL                            IMPT 00000000   5207 
_AD2_BUFCNT                               IMPT 00000000   5205 
_AD3CNV_IN_DATA                           IMPT 00000000   5215 
_AD3_AVG_BUF                              IMPT 00000000   5212 
_AD3_AVG_TOTAL                            IMPT 00000000   5213 
_AD3_BUFCNT                               IMPT 00000000   5211 
_AD4CNV_IN_DATA                           IMPT 00000000   5221 
_AD4_AVG_BUF                              IMPT 00000000   5218 
_AD4_AVG_TOTAL                            IMPT 00000000   5219 
_AD4_BUFCNT                               IMPT 00000000   5217 
_ADCNV_SEL                                IMPT 00000000   5223 
_ADCR                                     IMPT 00000000    594 
_ADCSR                                    IMPT 00000000    593 
_ADDRAH                                   IMPT 00000000    585 
_ADDRAL                                   IMPT 00000000    586 
_ADDRBH                                   IMPT 00000000    587 
_ADDRBL                                   IMPT 00000000    588 
_ADDRCH                                   IMPT 00000000    589 
_ADDRCL                                   IMPT 00000000    590 
_ADDRDH                                   IMPT 00000000    591 
_ADDRDL                                   IMPT 00000000    592 
_ADRH                                     EQU  00000016   2242*12591 
_ADRL                                     EQU  00000014   2240*12589 
_ADRM                                     EQU  00000015   2241*12590 
_AD_AVG_BUF                               IMPT 00000000   5200 
*** SuperH RISC engine ASSEMBLER V.7.01.02.000 ***    07/04/21 19:29:24                                                  PAGE   149

*** CROSS REFERENCE LIST

NAME                             SECTION  ATTR VALUE             SEQUENCE

_AD_AVG_TOTAL                             IMPT 00000000   5201 
_AD_BUFCNT                                IMPT 00000000   5199 
_AD_CNV_DT0                               IMPT 00000000   5197 
_AREA_SEL                                 EQU  00000013   2239* 6109  6492  6553  6753  7113  7428  7613  7668  7733  7777 
_ASDR                                     IMPT 00000000    661 
_ASM_ET1IP_BK_000                PvupsciR      0000251C  12837 12847*
_ASM_ET1IP_BK_100                PvupsciR      00002522  12851*12859 
_ASM_ET1IP_BK_150                PvupsciR      0000253C  12853 12867*
_ASM_ET1IP_BK_200                PvupsciR      00002548  12875*12883 
_ASM_ET1IP_BK_250                PvupsciR      00002568  12877 12893*
_ASM_ET1IP_BK_EXT                PvupsciR      00002568  12839 12895*
_ASM_ET1_IP_BACK                 PvupsciR EXPT 000024DE  12749 12750*
_ASTR1                                    IMPT 00000000    654 
_ASTR2                                    IMPT 00000000    655 
_BAMRA                                    IMPT 00000000    799 
_BAMRB                                    IMPT 00000000    795 
_BARA                                     IMPT 00000000    798 
_BARB                                     IMPT 00000000    794 
_BASRA                                    IMPT 00000000    806 
_BASRB                                    IMPT 00000000    807 
_BBRA                                     IMPT 00000000    800 
_BBRB                                     IMPT 00000000    796 
_BCR1                                     IMPT 00000000    775 
_BCR2                                     IMPT 00000000    776 
_BDMRB                                    IMPT 00000000    791 
_BDRB                                     IMPT 00000000    790 
_BETR                                     IMPT 00000000    793 
_BRCR                                     IMPT 00000000    792 
_BRDR                                     IMPT 00000000    801 
_BRR0                                     IMPT 00000000    740 
_BRSR                                     IMPT 00000000    797 
_BTNER_ERR_TM                             IMPT 00000000   5146 
_BYTENH                                   EQU  00000012   2238*
_BYTENL                                   EQU  00000011   2237*12659 
_Bwkram1_top                              EQU  AC090000   2338* 6192  7202 
_CB2HMI_LDCMD_DAT                         IMPT 00000000   3848 11174 
_CB2HMI_LDCMD_FLG                         IMPT 00000000   3847 11161 11195 
_CBSYS_TOP                                IMPT 00000000   5489  9814 
_CB_BAKUP_CMD1                            EQU  00005678    329*
_CB_BAKUP_CMD2                            EQU  00001234    330*
_CB_BAK_SUM_COD1                          EQU  5AA51234    327*
_CB_BAK_SUM_COD2                          EQU  A55A4321    328*
_CB_ERR_INFO_MEM                          EQU  00000080    353*
_CB_ERR_INFO_PSIZE                        EQU  00000008    354*
_CB_STS_BUF_1BLK                          EQU  00000040    332*  334 
_CB_STS_BUF_BLKMAX                        EQU  00000008    333*  334 
_CB_STS_BUF_MAX                           EQU  00000200    334*
_CB_STS_SAVE_FLG                          IMPT 00000000   2537 
_CB_SYS_PARAM248                          IMPT 00000000   5499  9583 11324 
_CB_SYS_SIZE                              EQU  00010000   2327* 9664  9815 11498 11651 
_CB_TABLEX                                IMPT 00000000   5488  9778 
_CB_TBL_SIZE                              EQU  00040000   2323* 9611  9779 11455 11608 
_CB_TRD_BEFORE                            EQU  00000060    342*
_CB_TRD_BUF_DP_MAX                        EQU  00000080    346*
*** SuperH RISC engine ASSEMBLER V.7.01.02.000 ***    07/04/21 19:29:24                                                  PAGE   150

*** CROSS REFERENCE LIST

NAME                             SECTION  ATTR VALUE             SEQUENCE

_CB_TRD_BUF_MAX                           EQU  00000800    343*
_CB_TRD_DP_1CNT                           EQU  00000008    345*
_CB_TRD_DP_CH                             EQU  00000004    338*
_CB_TRD_SAVE_FLG                          IMPT 00000000   2538 
_CB_TRD_SMP_CNT                           EQU  00000080    341*
_CCR                                      IMPT 00000000    808 
_CCR2                                     IMPT 00000000    598 
_CHAR_ROM_SIZE                            EQU  00040000   2336* 9505  9888 
_CHAR_ROM_TOP                             EQU  A0300000   2335* 9503  9887 
_CHCR0                                    IMPT 00000000    567 
_CHCR1                                    IMPT 00000000    571 
_CHCR2                                    IMPT 00000000    575 
_CHCR3                                    IMPT 00000000    579 
_CHRAR                                    IMPT 00000000    672 
_CKIO2CR                                  IMPT 00000000    677 
_CMCNT                                    IMPT 00000000    583 
_CMCOR                                    IMPT 00000000    584 
_CMCSR                                    IMPT 00000000    582 
_CMD_1CYCLE_DSP1                          IMPT 00000000   2541 
_CMD_DAIPOS_DSP1                          IMPT 00000000   2542 
_CMD_KJTECH_DSP1                          IMPT 00000000   2545 
_CMND                                     EQU  0000000D   2233* 5940 
_CMP2_ERR_FIRST                           IMPT 00000000   5231 
_CMP2_ERR_TM2                             IMPT 00000000   5155 
_CMSTR                                    IMPT 00000000    581 
_COP_SET_CLRF                             IMPT 00000000   4955 
_CPA_SHTDAT2                              IMPT 00000000   3855 
_CPA_SMPDAT2                              IMPT 00000000   3854 
_CPUAB_HS_VUP_64KE                        EQU  00000014   2460*
_CPUAB_HS_VUP_64KE_CODE                   EQU  A55A6789   2469*
_CPUAB_HS_VUP_8KE                         EQU  00000010   2459*
_CPUAB_HS_VUP_8KE_CODE                    EQU  9876A55A   2468*
_CPUAB_HS_VUP_BLK0                        EQU  00000008   2457*
_CPUAB_HS_VUP_BLK1                        EQU  0000000C   2458*
_CPUAB_HS_VUP_SEL                         EQU  00000000   2455*
_CPUAB_HS_VUP_STR                         EQU  00000004   2456*
_CPUAB_HS_VUP_STR_CODE                    EQU  12345AA5   2467*
_CPUATOB_STS_SAVECMD                      IMPT 00000000   3603 
_CPUATOB_STS_SAVEDAT1                     IMPT 00000000   3604 
_CPUATOB_STS_SAVEDAT2                     IMPT 00000000   3605 
_CPUATOB_STS_SAVEDAT3                     IMPT 00000000   3606 
_CPUATOD_1CYCL_SIG                        IMPT 00000000   4919 
_CPUA_DP_SIZEHCK_END                      IMPT 00000000   4935 
_CPUA_EMG_IN_FLG                          IMPT 00000000   5312 
_CPUA_PRO_SIZE                            EQU  00060000   2324* 9627 11412 
_CPUA_RCV_ACK_ET1                         IMPT 00000000   3865 
_CPUA_RCV_INI_ET1                         IMPT 00000000   3863 
_CPUA_RD_ACK                              IMPT 00000000   3877 
_CPUA_RD_ADR                              IMPT 00000000   3879 
_CPUA_RD_BUF                              IMPT 00000000   3880 
_CPUA_RD_CNT                              IMPT 00000000   3878 
_CPUA_RD_REQ                              IMPT 00000000   3876 
_CPUA_SND_DAT                             IMPT 00000000   3868 
_CPUA_SND_END                             IMPT 00000000   3869 
*** SuperH RISC engine ASSEMBLER V.7.01.02.000 ***    07/04/21 19:29:24                                                  PAGE   151

*** CROSS REFERENCE LIST

NAME                             SECTION  ATTR VALUE             SEQUENCE

_CPUA_SND_INI_ET1                         IMPT 00000000   3862 
_CPUA_SND_REQ_ADR                         IMPT 00000000   3866 
_CPUA_SND_REQ_CNT                         IMPT 00000000   3867 
_CPUA_SND_REQ_ET1                         IMPT 00000000   3864 
_CPUA_WR2_ACK                             IMPT 00000000   3888 
_CPUA_WR2_ADR                             IMPT 00000000   3885 
_CPUA_WR2_BUF                             IMPT 00000000   3886 
_CPUA_WR2_CNT                             IMPT 00000000   3889 
_CPUA_WR2_REQ                             IMPT 00000000   3887 
_CPUBTOA_STS_LOADDAT1                     IMPT 00000000   3609 
_CPUBTOA_STS_LOADDAT2                     IMPT 00000000   3610 
_CPUBTOA_STS_LOADDAT3                     IMPT 00000000   3611 
_CPUBTOA_STS_LOADSTS                      IMPT 00000000   3608 
_CPUB_PRO_SIZE                            EQU  000A0000   2326* 6508  9645  9986 11565 
_CPUDTOA_DAT1_ACKCOD                      IMPT 00000000   4910 
_CPUDTOA_DAT1_DATTOP                      IMPT 00000000   4911 
_CPUDTOA_DAT1_REQADR                      IMPT 00000000   4906 
_CPUDTOA_DAT1_REQCNT                      IMPT 00000000   4908 
_CPUDTOA_DAT1_REQCOD                      IMPT 00000000   4909 
_CPUDTOA_DAT1_REQKND                      IMPT 00000000   4907 
_CPUD_AD_INF                              IMPT 00000000   4931 
_CPUD_PV_AD2                              IMPT 00000000   4928 
_CPUD_PV_AD3                              IMPT 00000000   4929 
_CPUD_PV_AD4                              IMPT 00000000   4930 
_CPUD_START_COD                           IMPT 00000000   2512 
_CPUN_2CMP_DATA                           IMPT 00000000   5230 
_CPUN_2CMP_LATCH1                         IMPT 00000000   5234 
_CPUN_2CMP_LATCH2                         IMPT 00000000   5233 
_DACR1                                    IMPT 00000000    597 
_DADR0                                    IMPT 00000000    595 
_DADR1                                    IMPT 00000000    596 
_DAR0                                     IMPT 00000000    565 
_DAR1                                     IMPT 00000000    569 
_DAR2                                     IMPT 00000000    573 
_DAR3                                     IMPT 00000000    577 
_DATA                                     EQU  00000019   2245* 6531 
_DATA_CNTH                                EQU  00000002   2222*
_DATA_CNTL                                EQU  00000001   2221* 6792  6996  7503  7551 11199 
_DBG2_MONI_A00                            IMPT 00000000   3576 
_DBG2_MONI_A01                            IMPT 00000000   3577 
_DBG2_MONI_A02                            IMPT 00000000   3578 
_DBG2_MONI_A03                            IMPT 00000000   3579 
_DBG2_MONI_A04                            IMPT 00000000   3580 
_DBG2_MONI_A05                            IMPT 00000000   3581 
_DBG2_MONI_A06                            IMPT 00000000   3582 
_DBG2_MONI_A07                            IMPT 00000000   3583 
_DBG2_MONI_B00                            IMPT 00000000   3593 
_DBG2_MONI_B01                            IMPT 00000000   3594 
_DBG2_MONI_B02                            IMPT 00000000   3595 
_DBG2_MONI_B03                            IMPT 00000000   3596 
_DBG2_MONI_B04                            IMPT 00000000   3597 
_DBG2_MONI_B05                            IMPT 00000000   3598 
_DBG2_MONI_B06                            IMPT 00000000   3599 
_DBG2_MONI_B07                            IMPT 00000000   3600 
*** SuperH RISC engine ASSEMBLER V.7.01.02.000 ***    07/04/21 19:29:24                                                  PAGE   152

*** CROSS REFERENCE LIST

NAME                             SECTION  ATTR VALUE             SEQUENCE

_DBG4_MONI_A00                            IMPT 00000000   3568 
_DBG4_MONI_A01                            IMPT 00000000   3569 
_DBG4_MONI_A02                            IMPT 00000000   3570 
_DBG4_MONI_A03                            IMPT 00000000   3571 
_DBG4_MONI_A04                            IMPT 00000000   3572 
_DBG4_MONI_A05                            IMPT 00000000   3573 
_DBG4_MONI_A06                            IMPT 00000000   3574 
_DBG4_MONI_A07                            IMPT 00000000   3575 
_DBG4_MONI_B00                            IMPT 00000000   3585 
_DBG4_MONI_B01                            IMPT 00000000   3586 
_DBG4_MONI_B02                            IMPT 00000000   3587 
_DBG4_MONI_B03                            IMPT 00000000   3588 
_DBG4_MONI_B04                            IMPT 00000000   3589 
_DBG4_MONI_B05                            IMPT 00000000   3590 
_DBG4_MONI_B06                            IMPT 00000000   3591 
_DBG4_MONI_B07                            IMPT 00000000   3592 
_DBG_ERRCHK_NASI                          IMPT 00000000   5139 
_DEBUG_MONI_ABS_POS                       IMPT 00000000   3394 
_DEBUG_MONI_C1                            IMPT 00000000   3397 
_DEBUG_MONI_C2                            IMPT 00000000   3398 
_DEBUG_MONI_MD_DT0                        IMPT 00000000   3395 
_DEBUG_MONI_MD_DT1                        IMPT 00000000   3396 
_DEBUG_MONI_WORK1                         IMPT 00000000   3399 
_DEBUG_MONI_WORK2                         IMPT 00000000   3400 
_DEBUG_MONI_WORK3                         IMPT 00000000   3401 
_DEBUG_MONI_WORK4                         IMPT 00000000   3402 
_DEBUG_MONI_WORK5                         IMPT 00000000   3403 
_DEBUG_MONI_WORK6                         IMPT 00000000   3404 
_DENSOU_LOCK_CD                           EQU  00000008   2228*
_DMAOR                                    IMPT 00000000    580 
_DMATCR0                                  IMPT 00000000    566 
_DMATCR1                                  IMPT 00000000    570 
_DMATCR2                                  IMPT 00000000    574 
_DMATCR3                                  IMPT 00000000    578 
_DPNQ                                     IMPT 00000000    658 
_DPRAM_SIZE                               EQU  00003FFF   4979*
_DSET_SW_CPUB                             IMPT 00000000   4948 
_DSET_SW_FLG                              IMPT 00000000   5286 
_DUMMY                                    IMPT 00000000    222 
_DUMMY_SUM_CODE                           EQU  5AA53CC3    320*10644 
_EBR1_FE800                               EQU  00000002   2407*
_EBR2_FE800                               EQU  00000003   2408*
_ECLEAR                                   EQU  000000FD   2443*
_END_STS                                  EQU  0000000F   2235*
_EP2F_COPY_000                   PvupsciR      00001F68  11986 11994*
_EP2F_COPY_050                   PvupsciR      00001F6C  11997*12015 
_EP2F_COPY_100                   PvupsciR      00001F98  11999 12025*
_EP2F_COPY_150                   PvupsciR      00001F9E  12030*12058 
_EP2F_COPY_200                   PvupsciR      00001FE0  12032 12068*
_EP2F_COPY_EXT                   PvupsciR      00001FE6  11972 11988 12073*
_EP2F_COPY_STR                   PvupsciR      00001F54  11970 11980*
_EPROM_TO_FROM_COPY              PvupsciR      00001F3C   5696 11960*
_EPROM_TO_FROM_END               Bvupsciw      0000068A  11966 12069 12290*
_ER0_INT                         PvupsciR EXPT 00000C14   5800  7971*
*** SuperH RISC engine ASSEMBLER V.7.01.02.000 ***    07/04/21 19:29:24                                                  PAGE   153

*** CROSS REFERENCE LIST

NAME                             SECTION  ATTR VALUE             SEQUENCE

_ERR_CHK_OK_FLG                           IMPT 00000000   5134 
_ERR_INFO_CPUA_FLG                        IMPT 00000000   3634 
_ERR_INFO_CPUA_TOP                        IMPT 00000000   3635 
_ER_SFTSW_CHG_OLD                         IMPT 00000000   5141 
_ER_SQRAM_WK1                             IMPT 00000000   5136 
_ER_SQRAM_WK2                             IMPT 00000000   5137 
_ESET                                     EQU  00000002   2442*
_ESUCLEAR                                 EQU  000000DF   2441*
_ESUSET                                   EQU  00000020   2440*
_ET1_INITAL_FLG                           IMPT 00000000  12309 12330 
_ET1_IPM_ADR0                             IMPT 00000000  12747 12872 
_ET1_IPS_ADR0                             IMPT 00000000  12745 12849 
_ET1_IPS_ENT                              IMPT 00000000  12746 12869 
_ET1_LDCMDIF_000                 PvupsciR      000022B8  12366 12376*
_ET1_LDCMDIF_100                 PvupsciR      000022CC  12383 12392*
_ET1_LDCMDIF_105                 PvupsciR      000022D4  12398*12407 
_ET1_LDCMDIF_106                 PvupsciR      000022F4  12400 12415*
_ET1_LDCMDIF_110                 PvupsciR      0000233E  12465 12467*
_ET1_LDCMDIF_120                 PvupsciR      00002362  12493*12503 
_ET1_LDCMDIF_140                 PvupsciR      00002398  12495 12520*
_ET1_LDCMDIF_160                 PvupsciR      0000239A  12522*12532 
_ET1_LDCMDIF_180                 PvupsciR      000023AE  12524 12536*
_ET1_LDCMDIF_300                 PvupsciR      000023D8  12368 12567*
_ET1_LDCMDIF_320                 PvupsciR      000023E8  12571 12579*
_ET1_LDCMDIF_340                 PvupsciR      0000243C  12633*12641 
_ET1_LDCMDIF_360                 PvupsciR      00002470  12635 12658*
_ET1_LDCMDIF_380                 PvupsciR      0000247E  12666*12674 
_ET1_LDCMDIF_400                 PvupsciR      00002494  12668 12682*
_ET1_LDCMDIF_420                 PvupsciR      000024A2  12693*12702 
_ET1_LDCMDIF_440                 PvupsciR      000024C4  12695 12710*
_ET1_LDCMDIF_EXT                 PvupsciR      000024D8  12336 12355 12385 12555 12573 12721 12729*
_ET1_LDCMD_IF                    PvupsciR EXPT 00002280   5667 12323 12324*
_ET1_LDCMD_IF_START              PvupsciR      000022A8  12353 12362*
_ET1_LDCMD_IF_STR00              PvupsciR      00002294  12334 12344*
_ET1_VER                                  IMPT 00000000  12743 
_ET2_WORD_SITM_ACK                        IMPT 00000000   4958 
_ET2_WORD_SITM_REQ                        IMPT 00000000   4957 
_ET_ADRH                                  EQU  00000017  12319*12428 
_ET_ADRL                                  EQU  00000015  12317*12426 
_ET_ADRM                                  EQU  00000016  12318*12427 
_ET_BYTENL                                EQU  00000012  12316*12454 
_ET_DP                                    EQU  00000000  12311*12613 
_ET_IDL                                   EQU  00000006  12315*12684 
_ET_LDCMND_AREA                           IMPT 00000000  12305 12395 12691 
_ET_LDCMND_REQ                            IMPT 00000000  12306 12377 12540 
_ET_LDCMND_RES                            IMPT 00000000  12307 12713 
_ET_LDCMND_WORK                  Bvupsciw      00000470   8976*12396 12426 12427 12428 12454 12491 12613 12684 12690 
_ET_SP                                    EQU  00000001  12312*
_ET_STS                                   EQU  00000004  12314*12491 
_ET_TRAN                                  EQU  00000002  12313*
_EVCLEAR                                  EQU  000000F7   2445*
_EVSET                                    EQU  00000008   2444*
_EXCPGCR                                  IMPT 00000000    676 
_EXPEVT                                   IMPT 00000000    803 
*** SuperH RISC engine ASSEMBLER V.7.01.02.000 ***    07/04/21 19:29:24                                                  PAGE   154

*** CROSS REFERENCE LIST

NAME                             SECTION  ATTR VALUE             SEQUENCE

_EXPFC                                    IMPT 00000000    675 
_FACT_IN_DATA                             IMPT 00000000   5239 
_FDEV_IN_DATA                             IMPT 00000000   5241 
_FLASH_REG_TOP                            EQU  FFFFE800   2404*
_FLMCR1_FE800                             EQU  00000000   2405*
_FLMCR2_FE800                             EQU  00000001   2406*
_FRAMTOCB_EXIT                   PvupsciR      00001A4C  10742 10745 10883*
_FRAM_KAT_END                             IMPT 00000000   7656  7687 
_FRAM_KAT_TOP                             IMPT 00000000   7655  7686 
_FRAM_TO_CB                      PvupsciR      000019DC   5691 10732*
_FRAM_TO_CB_CODBAK               Bvupsciw      00000684  10738 11305*
_FRAM_csum_set_ASM               PvupsciR      000004B4   6568  6603*
_FRAM_csum_set_ASM_LOOP          PvupsciR      000004C0   6612* 6617 
_FROMSYSEP_SECT_TBL              PvupsciR      00002230  11996 12266*
_FROMSYS_SECT_TBL                PvupsciR      00001FF4   9988 12111*
_FROM_CHAR_COPY                  PvupsciR      00001388   9420  9499*
_FROM_CHAR_REWRITE               PvupsciR      0000158C   9420  9869*
_FROM_CHAR_RW100                 PvupsciR      000015A4   9876  9886*
_FROM_COPY_FF_LOOP               PvupsciR      00001494   9592  9613  9629  9647  9666  9684  9693* 9699 
_FROM_CPUA_COPY                  PvupsciR      00001434   9399  9409  9621*
_FROM_CPUA_REWRITE               PvupsciR      00001C10   9399  9409 11386*
_FROM_CPUA_REWR_100              PvupsciR      00001DE0  11356 11398 11441 11484 11551 11594 11637 11691*
_FROM_CPUA_REWR_120              PvupsciR      00001DFE  11709 11716*
_FROM_CPUA_REWR_150              PvupsciR      00001E08  11703 11728*
_FROM_CPUA_REWR_160              PvupsciR      00001E1C  11738 11740*
_FROM_CPUA_REWR_170              PvupsciR      00001E1E  11743*11749 
_FROM_CPUA_REWR_200              PvupsciR      00001E5C  11732 11782*
_FROM_CPUA_REWR_240              PvupsciR      00001E7A  11792 11802*
_FROM_CPUA_REWR_250              PvupsciR      00001E88  11786 11816*
_FROM_CPUA_REWR_270              PvupsciR      00001EC4  11833 11851*
_FROM_CPUA_REWR_290              PvupsciR      00001ED4  11826 11842 11862*
_FROM_CPUA_REWR_300              PvupsciR      00001EE4  11820 11877*
_FROM_CPUA_REWR_340              PvupsciR      00001F02  11887 11897*
_FROM_CPUA_REWR_350              PvupsciR      00001F10  11881 11911*
_FROM_CPUA_REWR_390              PvupsciR      00001F30  11916 11934*
_FROM_CPUA_REWR_COM              PvupsciR      00001CDC  11376 11419 11462 11505 11515*
_FROM_CPUA_REWR_END              PvupsciR      00001F36  11335 11526 11679 11719 11767 11805 11865 11900 11926 11937 11940*
_FROM_CPUA_RW100                 PvupsciR      00001C30  11396 11407*
_FROM_CPUB4_REWRITE              PvupsciR      00001CF8   9404  9414 11539*
_FROM_CPUB4_RW100                PvupsciR      00001614   9951  9966*
_FROM_CPUB4_RW140                PvupsciR      00001628   9972  9981*
_FROM_CPUB_COPY                  PvupsciR      0000144C   9404  9414  9638*
_FROM_CPUB_REWR_COM              PvupsciR      00001DC4  11572 11615 11658 11668*
_FROM_CPUB_RW100                 PvupsciR      00001D18  11549 11560*
_FROM_CPUD_COPY                  PvupsciR      0000144C   9426  9639*
_FROM_CPUD_REWRITE               PvupsciR      000015FC   9426  9943*
_FROM_DUMY_COPY                  PvupsciR      00001350   9396  9421  9422  9423  9424  9431  9432  9433  9434  9435  9436  9437 
                                                          9438  9442*
_FROM_DUMY_REWRITE               PvupsciR      00001350   9396  9421  9422  9423  9424  9431  9432  9433  9434  9435  9436  9437 
                                                          9438  9443*
_FROM_ERASE_CMND                          IMPT 00000000   8991 10151 12003 
_FROM_ERASE_POLLINKG                      IMPT 00000000   8992 10157 12009 
_FROM_GAIZ_COPY                  PvupsciR      00001370   9419  9483*
_FROM_GAIZ_REWRITE               PvupsciR      00001554   9419  9833*
*** SuperH RISC engine ASSEMBLER V.7.01.02.000 ***    07/04/21 19:29:24                                                  PAGE   155

*** CROSS REFERENCE LIST

NAME                             SECTION  ATTR VALUE             SEQUENCE

_FROM_GAIZ_RW100                 PvupsciR      0000156C   9840  9850*
_FROM_GAMCOPY_LOOP               PvupsciR      000013D0   9474  9491  9507  9524  9541  9549* 9558 
_FROM_GAME_COPY                  PvupsciR      00001358   9397  9463*
_FROM_GAME_REWRITE               PvupsciR      000014AA   9397  9721*
_FROM_GAME_RW100                 PvupsciR      000014C4   9729  9740*
_FROM_KAT2_COPY                  PvupsciR      000013A0   9429  9516*
_FROM_KAT2_REWRITE               PvupsciR      00001644   9429 10010*
_FROM_KAT2_RW100                 PvupsciR      0000165C  10017 10027*
_FROM_KATA_COPY                  PvupsciR      0000147C   9428  9676*
_FROM_KATA_REWRITE               PvupsciR      000015C4   9428  9906*
_FROM_KATA_RW100                 PvupsciR      000015DC   9913  9923*
_FROM_KATS_COPY                  PvupsciR      000013B8   9430  9533*
_FROM_KATS_REWRITE               PvupsciR      0000167C   9430 10047*
_FROM_KATS_RW100                 PvupsciR      00001694  10054 10064*
_FROM_REWR_250                   PvupsciR      0000175C  10197*10227 
_FROM_REWR_400                   PvupsciR      000017BC  10257*10386 
_FROM_REWR_450                   PvupsciR      00001848  10353 10357*
_FROM_REWR_500                   PvupsciR      000018B0  10399 10418*
_FROM_REWR_COM                   PvupsciR      000016EC   9748  9784  9820  9857  9893  9930  9998 10034 10071 10110 10122*
_FROM_REWR_COM_100               PvupsciR      00001704   9732  9770  9806  9843  9879  9916  9959 10020 10057 10095 10137*
_FROM_REWR_COM_200               PvupsciR      0000174C  10141 10183*
_FROM_REWR_COM_300               PvupsciR      000017B4  10187 10249*
_FROM_REWR_END_ADR               Bvupsciw      00000678  10127 10396 11301*11371 11414 11457 11500 11567 11610 11653 11830 
_FROM_REWR_EXT                   PvupsciR      000018CC   9975 10168 10236 10368 10407 10428 10437*
_FROM_REWR_STR_FLG               Bvupsciw      00000680   9726  9764  9800  9837  9873  9910  9948 10014 10051 10089 10133 10138 
                                                         10161 10184 10229 10358 10401 10419 11303*11351 11393 11436 11479 11520 
                                                         11546 11589 11632 11673 11700 11711 11729 11760 11783 11797 11817 11835 
                                                         11857 11878 11892 11921 
_FROM_REWR_TOP_ADR               Bvupsciw      00000674  10125 10146 10194 10255 10392 11300*
_FROM_REWR_VEROK                 PvupsciR      0000186C  10345 10380*
_FROM_SCT_TOP_ADR                Bvupsciw      00000670  10123 10222 10381 10388 11299*
_FROM_SECT_TBL                            IMPT 00000000   8996 
_FROM_SECT_TBL_CHAR_MC           PvupsciR      000020D0   9890 12171*
_FROM_SECT_TBL_GAIZ_MC           PvupsciR      000020B0   9854 12160*
_FROM_SECT_TBL_GAM2_MC           PvupsciR      000020E0   9744 12176*
_FROM_SECT_TBL_KAT2_MC           PvupsciR      00002100  10031 12185*
_FROM_SECT_TBL_KATA_MC           PvupsciR      000020A0   9927 12155*
_FROM_SECT_TBL_KATS_MC           PvupsciR      0000210C  10068 12189*
_FROM_SECT_TBL_SENB_MC           PvupsciR      000020C0   9781 12166*
_FROM_SECT_TBL_SEQD_MC           PvupsciR      000021D0  10106 12239*
_FROM_SECT_TBL_SIZE                       IMPT 00000000   8995 
_FROM_SECT_TBL_SYSB_MC           PvupsciR      000020BC   9817 12164*
_FROM_SENA_COPY                  PvupsciR      0000141C   9407  9603*
_FROM_SENA_REWRITE               PvupsciR      00001C54   9407 11429*
_FROM_SENA_RW100                 PvupsciR      00001C74  11439 11450*
_FROM_SENB_COPY                  PvupsciR      0000141C   9408  9604*
_FROM_SENB_REWRITE               PvupsciR      00001D3C   9408 11582*
_FROM_SENB_RW100                 PvupsciR      00001D5C  11592 11603*
_FROM_SEND_COPY                  PvupsciR      0000141C   9425  9605*
_FROM_SEND_REWRITE               PvupsciR      000014E4   9425  9760*
_FROM_SEND_RW100                 PvupsciR      000014FC   9767  9777*
_FROM_SEQA_COPY                  PvupsciR      000013EC   9398  9574*
_FROM_SEQA_REWRITE               PvupsciR      00001BAC   9398 11319*
_FROM_SEQA_RW050                 PvupsciR      00001BD0  11328 11344*
*** SuperH RISC engine ASSEMBLER V.7.01.02.000 ***    07/04/21 19:29:24                                                  PAGE   156

*** CROSS REFERENCE LIST

NAME                             SECTION  ATTR VALUE             SEQUENCE

_FROM_SEQA_RW100                 PvupsciR      00001BEC  11354 11364*
_FROM_SEQD_REWRITE               PvupsciR      000016B4  10084*11331 
_FROM_SEQD_RW100                 PvupsciR      000016CC  10092 10102*
_FROM_SQCP_100                   PvupsciR      00001400   9587  9589*
_FROM_SUMCHK_CODE                         IMPT 00000000   5143 
_FROM_SYSA_COPY                  PvupsciR      00001464   9417  9656*
_FROM_SYSA_REWRITE               PvupsciR      00001C98   9417 11472*
_FROM_SYSA_RW100                 PvupsciR      00001CB8  11482 11493*
_FROM_SYSB_COPY                  PvupsciR      00001464   9418  9657*
_FROM_SYSB_REWRITE               PvupsciR      00001D80   9418 11625*
_FROM_SYSB_RW100                 PvupsciR      00001DA0  11635 11646*
_FROM_SYSD_COPY                  PvupsciR      00001464   9427  9658*
_FROM_SYSD_REWRITE               PvupsciR      0000151C   9427  9796*
_FROM_SYSD_RW100                 PvupsciR      00001534   9803  9813*
_FROM_TO_SRAM_TABLE              PvupsciR      00001258   9194  9311  9394*
_FROM_WRITE_CMND                          IMPT 00000000   8993 10199 12036 
_FROM_WRITE_POLLINKG                      IMPT 00000000   8994 10216 12053 
_FRQCR                                    IMPT 00000000    785 
_FSFT_TRERR_TM                            IMPT 00000000   5156 
_FWESET                                   EQU  00000080   2437*
_GAIZI_FROM_SIZE                          EQU  00030000   2331* 9489  9852 
_GAIZI_FROM_TOP                           EQU  A0280000   2330* 9487  9851 
_GAMNE_REDISP_COD                         IMPT 00000000   5494 10880 
_GAM_TABLE                                IMPT 00000000   5486 
_GAM_TABLE2                               IMPT 00000000   5487  9468  9741 
_GAM_TBL_SIZE                             EQU  00040000   2318*
_GAM_TBL_SIZE2                            EQU  00060000   2319*
_GAM_TBL_SIZE3                            EQU  00080000   2320* 9472  9742 
_GET_KAT_NAME_MEMO                        IMPT 00000000  13018 13126 
_HMI2CB_LDCMD_DAT                         IMPT 00000000   3846 10985 
_HMI2CB_LDCMD_FLG                         IMPT 00000000   3845 11006 
_HND_SHTCNT_FLG2                          IMPT 00000000   3857 
_HND_SMPCNT_FLG2                          IMPT 00000000   3856 
_HS_PVP_LOTCNT_FLG                        IMPT 00000000   2532 
_HS_PVP_TAKIKI_FLG                        IMPT 00000000   2531 
_HS_SVCHG_A_TO_B                          IMPT 00000000   2530 
_HS_SVCHG_B_TO_A                          IMPT 00000000   2507 
_ICR0                                     IMPT 00000000    772 
_ICR1                                     IMPT 00000000    558 
_ICR2                                     IMPT 00000000    559 
_ICR3                                     IMPT 00000000    671 
_INTEVT                                   IMPT 00000000    804 
_INTEVT2                                  IMPT 00000000    554 
_INT_ADC_ADI                              IMPT 00000000    190 
_INT_AFEIF_AFEIFI                         IMPT 00000000    204 
_INT_Address_load                         IMPT 00000000     52 
_INT_Address_store                        IMPT 00000000     54 
_INT_BSC_RCMI                             IMPT 00000000    126 
_INT_BSC_ROVI                             IMPT 00000000    128 
_INT_CPG_ITI                              IMPT 00000000    124 
_INT_DMAC_DEI0                            IMPT 00000000    166 
_INT_DMAC_DEI1                            IMPT 00000000    168 
_INT_DMAC_DEI2                            IMPT 00000000    170 
_INT_DMAC_DEI3                            IMPT 00000000    172 
*** SuperH RISC engine ASSEMBLER V.7.01.02.000 ***    07/04/21 19:29:24                                                  PAGE   157

*** CROSS REFERENCE LIST

NAME                             SECTION  ATTR VALUE             SEQUENCE

_INT_Extern_0000                          IMPT 00000000     70 
_INT_Extern_0001                          IMPT 00000000     72 
_INT_Extern_0010                          IMPT 00000000     74 
_INT_Extern_0011                          IMPT 00000000     76 
_INT_Extern_0100                          IMPT 00000000     78 
_INT_Extern_0101                          IMPT 00000000     80 
_INT_Extern_0110                          IMPT 00000000     82 
_INT_Extern_0111                          IMPT 00000000     84 
_INT_Extern_1000                          IMPT 00000000     86 
_INT_Extern_1001                          IMPT 00000000     88 
_INT_Extern_1010                          IMPT 00000000     90 
_INT_Extern_1011                          IMPT 00000000     92 
_INT_Extern_1100                          IMPT 00000000     94 
_INT_Extern_1101                          IMPT 00000000     96 
_INT_Extern_1110                          IMPT 00000000     98 
_INT_H_UDI                                IMPT 00000000    132 
_INT_IRQ0                                 IMPT 00000000    134 
_INT_IRQ1                                 IMPT 00000000    136 
_INT_IRQ2                                 IMPT 00000000    138 
_INT_IRQ3                                 IMPT 00000000    140 
_INT_IRQ4                                 IMPT 00000000    142 
_INT_IRQ5                                 IMPT 00000000    144 
_INT_Illegal_code                         IMPT 00000000     62 
_INT_Illegal_slot                         IMPT 00000000     64 
_INT_LCDC_LCDCI                           IMPT 00000000    192 
_INT_NMI                                  IMPT 00000000     66 
_INT_PCC0                                 IMPT 00000000    194 
_INT_PINT0_7                              IMPT 00000000    150 
_INT_PINT8_15                             IMPT 00000000    152 
_INT_RTC_ATI                              IMPT 00000000    110 
_INT_RTC_CUI                              IMPT 00000000    114 
_INT_RTC_PRI                              IMPT 00000000    112 
_INT_Reserved1                            IMPT 00000000     56 
_INT_Reserved2                            IMPT 00000000     58 
_INT_Reserved3E0                          IMPT 00000000    100 
_INT_Reserved5C0                          IMPT 00000000    130 
_INT_Reserved6C0                          IMPT 00000000    146 
_INT_Reserved6E0                          IMPT 00000000    148 
_INT_Reserved740                          IMPT 00000000    154 
_INT_Reserved760                          IMPT 00000000    156 
_INT_Reserved780                          IMPT 00000000    158 
_INT_Reserved7A0                          IMPT 00000000    160 
_INT_Reserved7C0                          IMPT 00000000    162 
_INT_Reserved7E0                          IMPT 00000000    164 
_INT_Reserved880                          IMPT 00000000    174 
_INT_Reserved8A0                          IMPT 00000000    176 
_INT_Reserved8C0                          IMPT 00000000    178 
_INT_Reserved8E0                          IMPT 00000000    180 
_INT_Reserved9E0                          IMPT 00000000    196 
_INT_ReservedA80                          IMPT 00000000    206 
_INT_ReservedAA0                          IMPT 00000000    208 
_INT_ReservedAC0                          IMPT 00000000    210 
_INT_ReservedAE0                          IMPT 00000000    212 
_INT_SCIF_BRI2                            IMPT 00000000    186 
*** SuperH RISC engine ASSEMBLER V.7.01.02.000 ***    07/04/21 19:29:24                                                  PAGE   158

*** CROSS REFERENCE LIST

NAME                             SECTION  ATTR VALUE             SEQUENCE

_INT_SCIF_ERI2                            IMPT 00000000    182 
_INT_SCIF_RXI2                            IMPT 00000000    184 
_INT_SCIF_TXI2                            IMPT 00000000    188 
_INT_SCI_ERI                              IMPT 00000000    116 
_INT_SCI_RXI                              IMPT 00000000    118 
_INT_SCI_TEI                              IMPT 00000000    122 
_INT_SCI_TXI                              IMPT 00000000    120 
_INT_SIOF_SIFCCI                          IMPT 00000000    220 
_INT_SIOF_SIFERI                          IMPT 00000000    214 
_INT_SIOF_SIFRXI                          IMPT 00000000    218 
_INT_SIOF_SIFTXI                          IMPT 00000000    216 
_INT_TLBCPU_ADERR                         IMPT 00000000     42 
_INT_TLBInitial_Page                      IMPT 00000000     44 
_INT_TLBMiss_Load                         IMPT 00000000     38 
_INT_TLBMiss_Store                        IMPT 00000000     40 
_INT_TLBProtect_Load                      IMPT 00000000     46 
_INT_TLBProtect_Loop                      IMPT 00000000     50 
_INT_TLBProtect_Store                     IMPT 00000000     48 
_INT_TMU_TICPI2                           IMPT 00000000    108 
_INT_TMU_TUNI0                            IMPT 00000000    102 
_INT_TMU_TUNI1                            IMPT 00000000    104 
_INT_TMU_TUNI2                            IMPT 00000000    106 
_INT_TRAPA                                IMPT 00000000     60 
_INT_USBF_USBFI0                          IMPT 00000000    200 
_INT_USBF_USBFI1                          IMPT 00000000    202 
_INT_USBH_USBHI                           IMPT 00000000    198 
_INT_User_Break                           IMPT 00000000     68 
_IN_RNA_REF_ERR_FLG1                      IMPT 00000000   5261 
_IN_RNA_REF_ERR_FLG2                      IMPT 00000000   5262 
_IO1A_P4EX                                EQU  00000000   5037*
_IO1A_P5EX                                EQU  0000007B   5038*
_IO1A_P6EX                                EQU  00000000   5039*
_IO1A_P7EX                                EQU  00000000   5040*
_IO1B_P4EX                                EQU  000000FF   5047*
_IO1B_P5EX                                EQU  00000070   5048*
_IO1B_P6EX                                EQU  00000000   5049*
_IO1B_P7EX                                EQU  00000000   5050*
_IO2A_P5EX                                EQU  0000002F   5042*
_IO2A_P6EX                                EQU  0000009C   5043*
_IO2A_P7EX                                EQU  00000000   5044*
_IO2B_P5EX                                EQU  00000000   5053* 5625  5638  8110  8123  8380  8393  8599  8612  9268  9281 10288 
                                                         10301 10593 10606 
_IO2B_P6EX                                EQU  0000009C   5054*
_IO2B_P7EX                                EQU  00000000   5055*
_IOGA1_CTRL_DAT1                          IMPT 00000000   5433 
_IOGA1_PA_DT_OLD1                         IMPT 00000000   5438 
_IOGA1_PA_DT_OLD2                         IMPT 00000000   5444 
_IOGA1_PB_DT_OLD1                         IMPT 00000000   5439 
_IOGA1_PB_DT_OLD2                         IMPT 00000000   5445 
_IOGA1_PC_DT_OLD1                         IMPT 00000000   5440 
_IOGA1_PC_DT_OLD2                         IMPT 00000000   5446 
_IOGA1_PD_DT_OLD1                         IMPT 00000000   5441 
_IOGA1_PD_DT_OLD2                         IMPT 00000000   5447 
_IOGA1_PE_DT_OLD1                         IMPT 00000000   5442 
*** SuperH RISC engine ASSEMBLER V.7.01.02.000 ***    07/04/21 19:29:24                                                  PAGE   159

*** CROSS REFERENCE LIST

NAME                             SECTION  ATTR VALUE             SEQUENCE

_IOGA1_PE_DT_OLD2                         IMPT 00000000   5448 
_IOGA2_CTRL_DAT1                          IMPT 00000000   5435  5617  5630  8102  8115  8372  8385  8591  8604  9260  9273 10280 
                                                         10293 10585 10598 
_IOGA2_PA_DT_OLD1                         IMPT 00000000   5450 
_IOGA2_PA_DT_OLD2                         IMPT 00000000   5456 
_IOGA2_PB_DT_OLD1                         IMPT 00000000   5451 
_IOGA2_PB_DT_OLD2                         IMPT 00000000   5457 
_IOGA2_PC_DT_OLD1                         IMPT 00000000   5452 
_IOGA2_PC_DT_OLD2                         IMPT 00000000   5458 
_IOGA2_PD_DT_OLD1                         IMPT 00000000   5453 
_IOGA2_PD_DT_OLD2                         IMPT 00000000   5459 
_IOGA2_PE_DT_OLD1                         IMPT 00000000   5454 
_IOGA2_PE_DT_OLD2                         IMPT 00000000   5460 
_IOGA_P0                                  EQU  00000000   4996*
_IOGA_P1                                  EQU  00000002   4997*
_IOGA_P2                                  EQU  00000004   4998*
_IOGA_P3                                  EQU  00000006   4999*
_IOGA_P4                                  EQU  00000008   5000*
_IOGA_P5                                  EQU  0000000A   5001* 5617  5630  8102  8115  8372  8385  8591  8604  9260  9273 10280 
                                                         10293 10585 10598 
_IOGA_P6                                  EQU  0000000C   5002*
_IOGA_P7                                  EQU  0000000E   5003*
_IOGA_PDIR0                               EQU  00000002   5021*
_IOGA_PDIR1                               EQU  00000006   5022*
_IOGA_PDIR2                               EQU  0000000A   5023*
_IOGA_PDIR3                               EQU  0000000E   5024*
_IOGA_PDIR4                               EQU  00000012   5025*
_IOGA_PDIR5                               EQU  00000016   5026*
_IOGA_PDIR6                               EQU  0000001A   5027*
_IOGA_PDIR7                               EQU  0000001C   5028*
_IOGA_PDR0                                EQU  00000000   5011*
_IOGA_PDR1                                EQU  00000004   5012*
_IOGA_PDR2                                EQU  00000008   5013*
_IOGA_PDR3                                EQU  0000000C   5014*
_IOGA_PDR4                                EQU  00000010   5015*
_IOGA_PDR5                                EQU  00000014   5016* 5627  5640  8112  8125  8382  8395  8601  8614  9270  9283 10290 
                                                         10303 10595 10608 
_IOGA_PDR6                                EQU  00000018   5017*
_IOGA_PDR7                                EQU  0000001C   5018*
_IOGAi_PA                                 EQU  00000000   4987*
_IOGAi_PB                                 EQU  00000002   4988*
_IOGAi_PC                                 EQU  00000004   4989*
_IOGAi_PD                                 EQU  00000006   4990*
_IOGAo_PE                                 EQU  00000008   4991*
_IOGAo_PF                                 EQU  0000000A   4992*
_IOGAo_PG                                 EQU  0000000C   4993*
_IOGAo_PH                                 EQU  0000000E   4994*
_IPR3                                     IMPT 00000000    669 
_IPR4                                     IMPT 00000000    670 
_IPRA                                     IMPT 00000000    773 
_IPRB                                     IMPT 00000000    774 
_IPRC                                     IMPT 00000000    561 
_IPRD                                     IMPT 00000000    562 
_IPRE                                     IMPT 00000000    563 
*** SuperH RISC engine ASSEMBLER V.7.01.02.000 ***    07/04/21 19:29:24                                                  PAGE   160

*** CROSS REFERENCE LIST

NAME                             SECTION  ATTR VALUE             SEQUENCE

_IPRF                                     IMPT 00000000    667 
_IPRG                                     IMPT 00000000    668 
_IRAM_SIZE                                EQU  00007FFF   4978*
_IRAM_TOP                                 EQU  FFFF6000   4977*
_IRR0                                     IMPT 00000000    555 
_IRR1                                     IMPT 00000000    556 
_IRR2                                     IMPT 00000000    557 
_KATA_LOAD_ASM                            IMPT 00000000  12973 12995 
_KATA_RW_AREA                    Bvupsciw      0000068C   6236  7246 12991 13044 13208*
_KATA_SAVE_ASM                            IMPT 00000000  13017 13048 
_KEEPRY_BKUP_ERR                          IMPT 00000000   5382 
_KEEPRY_BKUP_FLG                          IMPT 00000000   2534 
_KEY_DT_CPUB                              IMPT 00000000   4947 
_KEY_USE_SEL                              IMPT 00000000   4946 
_KISYU_GOKAN_CD                           EQU  00000007   2227*
_LDACLNR                                  IMPT 00000000    734 
_LDCMD_C2P_020                   PvupsciR      00001B24  11164 11173*
_LDCMD_C2P_050                   PvupsciR      00001B2A  11178*11186 
_LDCMD_C2P_100                   PvupsciR      00001B44  11180 11193*
_LDCMD_C2P_EXT                   PvupsciR      00001B6A  11166 11218*
_LDCMD_CB2PC                     PvupsciR      00001AEC   5707 11086*
_LDCMD_P2C_050                   PvupsciR      00001A98  10988*10996 
_LDCMD_P2C_100                   PvupsciR      00001AB4  10990 11004*
_LDCMD_P2C_EXT                   PvupsciR      00001ABA  11010*
_LDCMD_PC2CB                     PvupsciR      00001A6C   6207  7217 10909*
_LDCNTR                                   IMPT 00000000    738 
_LDDFR                                    IMPT 00000000    723 
_LDHCNR                                   IMPT 00000000    729 
_LDHSYNR                                  IMPT 00000000    730 
_LDICKR                                   IMPT 00000000    721 
_LDINTR                                   IMPT 00000000    735 
_LDLAOR                                   IMPT 00000000    727 
_LDMTR                                    IMPT 00000000    722 
_LDPALCR                                  IMPT 00000000    728 
_LDPMMR                                   IMPT 00000000    736 
_LDPR00                                   IMPT 00000000    720 
_LDPSPR                                   IMPT 00000000    737 
_LDSARL                                   IMPT 00000000    726 
_LDSARU                                   IMPT 00000000    725 
_LDSMR                                    IMPT 00000000    724 
_LDVDLNR                                  IMPT 00000000    731 
_LDVSYNR                                  IMPT 00000000    733 
_LDVTLNR                                  IMPT 00000000    732 
_LOD_AREA0                                EQU  00000000   2205* 6123  6495  7127  7616 
_LOD_AREA1                                EQU  00000001   2206* 6136  6506  7140  7618 
_LOD_AREA_DPRAM                           EQU  00000004   2209* 6173  7182  7624 
_LOD_AREA_FRAM                            EQU  00000003   2208* 6159  6555  7168  7622 
_LOD_AREA_FRAMX                           EQU  00000013   2212* 6220  6557  7230  7630  7671  7736  7780 
_LOD_AREA_FROM                            EQU  00000002   2207* 6150  7154  7620 
_LOD_AREA_KATA                            EQU  00000006   2211* 6233  7243  7632 
_LOD_AREA_SAMP                            EQU  00000015   2213* 6203  7213  7628 
_LOD_AREA_SRAM                            EQU  00000005   2210* 6189  7199  7626 
_LOD_CMND_RD                              EQU  00000000   2204* 5951 
_LOD_CMND_RD_PRO                 PvupsciR      00000760   5955  7047*
*** SuperH RISC engine ASSEMBLER V.7.01.02.000 ***    07/04/21 19:29:24                                                  PAGE   161

*** CROSS REFERENCE LIST

NAME                             SECTION  ATTR VALUE             SEQUENCE

_LOD_CMND_WR                              EQU  00000001   2203* 5942 
_LOD_CMND_WR_PRO                 PvupsciR      000001E2   5946  6040*
_LT_RNA_REF_ERR_FLG1                      IMPT 00000000   5265 
_LT_RNA_REF_ERR_FLG2                      IMPT 00000000   5266 
_MAXErase                                 EQU  00000064   2446*
_MAXVerify                                EQU  000003E8   2447*
_MCR                                      IMPT 00000000    779 
_MEM_ARI                                  IMPT 00000000  12308 12832 
_MMUCR                                    IMPT 00000000    805 
_MODE                                     EQU  0000000E   2234*
_MPCR                                     IMPT 00000000    657 
_MRCR                                     IMPT 00000000    656 
_Manual_Reset                             IMPT 00000000     35 
_NCHSW_ERR_TM1                            IMPT 00000000   5147 
_NCHSW_ERR_TM2                            IMPT 00000000   5148 
_NON_SUM_CODE                             EQU  00000395   5513*10533 
_OPTION_COP_ARI                           IMPT 00000000   4952 
_OPTION_ET1_ARI                           IMPT 00000000   4953 12348 
_PACR                                     IMPT 00000000    614 
_PADR                                     IMPT 00000000    627 
_PANEL_FRQ_DAT                            IMPT 00000000   4950 
_PANEL_LED_DAT                            IMPT 00000000   4949 
_PASSWARD_HH                              EQU  0000000C   2232*
_PASSWARD_HL                              EQU  0000000B   2231*
_PASSWARD_LH                              EQU  0000000A   2230*
_PASSWARD_LL                              EQU  00000009   2229*
_PBCR                                     IMPT 00000000    615 
_PBDR                                     IMPT 00000000    628 
_PB_INDT_OLD1                             IMPT 00000000   5322 
_PB_INDT_OLD2                             IMPT 00000000   5323 
_PB_PORT_CTL_DATA                         IMPT 00000000   5321 
_PCC0CSCIER                               IMPT 00000000    651 
_PCC0CSCR                                 IMPT 00000000    650 
_PCC0GCR                                  IMPT 00000000    649 
_PCC0ISR                                  IMPT 00000000    648 
_PCCR                                     IMPT 00000000    616 
_PCDR                                     IMPT 00000000    629 
_PCLEAR                                   EQU  000000FE   2434*
_PCR                                      IMPT 00000000    780 
_PDCR                                     IMPT 00000000    617 
_PDDR                                     IMPT 00000000    630 
_PECR                                     IMPT 00000000    618 
_PEDR                                     IMPT 00000000    631 
_PFCR                                     IMPT 00000000    619 
_PFDR                                     IMPT 00000000    632 11981 
_PGCR                                     IMPT 00000000    620 
_PGDR                                     IMPT 00000000    633 
_PHCR                                     IMPT 00000000    621 
_PHDR                                     IMPT 00000000    634 
_PINTER                                   IMPT 00000000    560 
_PJCR                                     IMPT 00000000    622 
_PJDR                                     IMPT 00000000    635  5609  8094  8364  8583  9252 10272 10577 
_PJ_INDT_OLD1                             IMPT 00000000   5327 
_PJ_INDT_OLD2                             IMPT 00000000   5328 
*** SuperH RISC engine ASSEMBLER V.7.01.02.000 ***    07/04/21 19:29:24                                                  PAGE   162

*** CROSS REFERENCE LIST

NAME                             SECTION  ATTR VALUE             SEQUENCE

_PJ_PORT_CTL_DATA                         IMPT 00000000   5326 
_PKCR                                     IMPT 00000000    623 
_PKDR                                     IMPT 00000000    636 
_PK_INDT_OLD1                             IMPT 00000000   5332 
_PK_INDT_OLD2                             IMPT 00000000   5333 
_PK_PORT_CTL_DATA                         IMPT 00000000   5331 
_PLCR                                     IMPT 00000000    624 
_PLDR                                     IMPT 00000000    637 
_PLSiCH1                                  EQU  00000000   5063*
_PLSiCH2                                  EQU  00000030   5064*
_PL_BitComdH                              EQU  00000002   5067*
_PL_BitComdL                              EQU  00000000   5066*
_PL_BitInfoH                              EQU  00000006   5069*
_PL_BitInfoL                              EQU  00000004   5068*
_PL_CtrlReg                               EQU  0000002A   5073*
_PL_INDT_OLD1                             IMPT 00000000   5337 
_PL_INDT_OLD2                             IMPT 00000000   5338 
_PL_NowPos1H                              EQU  00000026   5071*
_PL_NowPos1L                              EQU  00000024   5070*
_PL_NowPos2                               EQU  00000028   5072*
_PL_PORT_CTL_DATA                         IMPT 00000000   5336 
_PMCR                                     IMPT 00000000    626 
_PMDR                                     IMPT 00000000    639 
_PSET                                     EQU  00000001   2433*
_PSUCLEAR                                 EQU  000000EF   2432*
_PSUSET                                   EQU  00000010   2431*
_PTEH                                     IMPT 00000000    809 
_PTEL                                     IMPT 00000000    810 
_PV0_IPM_ADR0                             IMPT 00000000  12748 12873 
_PV0_SCRW_POS                             IMPT 00000000   5127 
_PV1_SCRW_POS                             IMPT 00000000   5125 
_PVCLEAR                                  EQU  000000FB   2436*
_PVP_1ROT_CALSPM                          IMPT 00000000   2965 
_PVP_360_DEG                              IMPT 00000000   2976 
_PVP_ABS_ENC_SPD                          IMPT 00000000   3534 
_PVP_ABS_OUT_SPD                          IMPT 00000000   3535 
_PVP_ARA1_KAJ_L                           IMPT 00000000   2961 
_PVP_ARA1_KAJ_R                           IMPT 00000000   2960 
_PVP_ARA1_KAJ_T                           IMPT 00000000   2962 
_PVP_ARA1_KAJ_T2                          IMPT 00000000   3029 
_PVP_ATSLID_OBJ1                          IMPT 00000000   3822 
_PVP_A_LOT_CNT1                           IMPT 00000000   3543 
_PVP_A_LOT_CNT2                           IMPT 00000000   3545 
_PVP_A_LOT_CNT3                           IMPT 00000000   3547 
_PVP_A_LOT_CNT4                           IMPT 00000000   3549 
_PVP_A_LOT_CNT5                           IMPT 00000000   3551 
_PVP_BAKORG_PLS1                          IMPT 00000000   2972 
_PVP_BAKORG_PLS2                          IMPT 00000000   2973 
_PVP_BREAK_DIG                            IMPT 00000000   3499 
_PVP_BREAK_TIM1                           IMPT 00000000   3504 
_PVP_BRK_ENC_SPD                          IMPT 00000000   3538 
_PVP_BRK_OUT_SPD                          IMPT 00000000   3539 
_PVP_B_LOT_CNT1                           IMPT 00000000   3544 
_PVP_B_LOT_CNT2                           IMPT 00000000   3546 
*** SuperH RISC engine ASSEMBLER V.7.01.02.000 ***    07/04/21 19:29:24                                                  PAGE   163

*** CROSS REFERENCE LIST

NAME                             SECTION  ATTR VALUE             SEQUENCE

_PVP_B_LOT_CNT3                           IMPT 00000000   3548 
_PVP_B_LOT_CNT4                           IMPT 00000000   3550 
_PVP_B_LOT_CNT5                           IMPT 00000000   3552 
_PVP_CB_A_VER                             IMPT 00000000   3618 
_PVP_CB_B_VER                             IMPT 00000000   3619 
_PVP_CB_C_VER                             IMPT 00000000   3638 
_PVP_CKAGL_OVBIT                          IMPT 00000000   3793 
_PVP_CKLMT_AGL01                          IMPT 00000000   3795 
_PVP_CKLMT_AGL02                          IMPT 00000000   3796 
_PVP_CKLMT_AGL03                          IMPT 00000000   3797 
_PVP_CKLMT_AGL04                          IMPT 00000000   3798 
_PVP_CKLMT_AGL05                          IMPT 00000000   3799 
_PVP_CKLMT_AGL06                          IMPT 00000000   3800 
_PVP_CKLMT_AGL07                          IMPT 00000000   3801 
_PVP_CKLMT_AGL08                          IMPT 00000000   3802 
_PVP_CKLMT_AGL09                          IMPT 00000000   3803 
_PVP_CKLMT_AGL10                          IMPT 00000000   3804 
_PVP_CKLMT_AGLTOP                         IMPT 00000000   3794 
_PVP_CKLMT_MDSPD                          IMPT 00000000   3104 
_PVP_CKLMT_SPD01                          IMPT 00000000   3107 
_PVP_CKLMT_SPD02                          IMPT 00000000   3108 
_PVP_CKLMT_SPD03                          IMPT 00000000   3109 
_PVP_CKLMT_SPD04                          IMPT 00000000   3110 
_PVP_CKLMT_SPD05                          IMPT 00000000   3111 
_PVP_CKLMT_SPD06                          IMPT 00000000   3112 
_PVP_CKLMT_SPD07                          IMPT 00000000   3113 
_PVP_CKLMT_SPD08                          IMPT 00000000   3114 
_PVP_CKLMT_SPD09                          IMPT 00000000   3115 
_PVP_CKLMT_SPD10                          IMPT 00000000   3116 
_PVP_CKLMT_SPDTOP                         IMPT 00000000   3106 
_PVP_CKSPD_LMBIT                          IMPT 00000000   3817 
_PVP_CKSPD_OVBIT                          IMPT 00000000   3103 
_PVP_CKSPD_STPBT                          IMPT 00000000   3818 
_PVP_COM_ADR                              IMPT 00000000   3501 
_PVP_COM_ERR                              IMPT 00000000   3500 
_PVP_CPUA_ANAIN                           IMPT 00000000   3529 
_PVP_CPUA_TEPPLS                          IMPT 00000000   3527 
_PVP_CPUB_ANAIN                           IMPT 00000000   3530 
_PVP_CPUB_TEPPLS                          IMPT 00000000   3528 
_PVP_CYCLE_SPM1                           IMPT 00000000   3488 
_PVP_CYCLE_TIME0                          IMPT 00000000   3485 
_PVP_DEB_DAT0                             IMPT 00000000   3424 
_PVP_DEB_DAT1                             IMPT 00000000   3425 
_PVP_DEB_DAT2                             IMPT 00000000   3426 
_PVP_DEB_DAT3                             IMPT 00000000   3427 
_PVP_DEB_DAT4                             IMPT 00000000   3428 
_PVP_DEB_DAT5                             IMPT 00000000   3429 
_PVP_DEB_DAT6                             IMPT 00000000   3430 
_PVP_DEB_DAT7                             IMPT 00000000   3431 
_PVP_DEB_DAT8                             IMPT 00000000   3432 
_PVP_DEB_DAT9                             IMPT 00000000   3433 
_PVP_DISP_SPM2                            IMPT 00000000   3489 
_PVP_DYHITO_HOSLNG                        IMPT 00000000   3491 
_PVP_DYHITO_POS                           IMPT 00000000   3492 
*** SuperH RISC engine ASSEMBLER V.7.01.02.000 ***    07/04/21 19:29:24                                                  PAGE   164

*** CROSS REFERENCE LIST

NAME                             SECTION  ATTR VALUE             SEQUENCE

_PVP_ECO_METER                            IMPT 00000000   3556 
_PVP_ENC_PLS_SPD                          IMPT 00000000   3532 
_PVP_ENC_SPD_DIR                          IMPT 00000000   3540 
_PVP_ENC_SPD_PER                          IMPT 00000000   3536 
_PVP_EPM_KAISE                            IMPT 00000000   3559 
_PVP_EPM_SYOHI                            IMPT 00000000   3558 
_PVP_GMNSEQ_CNT01                         IMPT 00000000   3506 
_PVP_GMNSEQ_CNT02                         IMPT 00000000   3507 
_PVP_GMNSEQ_CNT03                         IMPT 00000000   3508 
_PVP_GMNSEQ_CNT04                         IMPT 00000000   3509 
_PVP_GMNSEQ_CNT05                         IMPT 00000000   3510 
_PVP_GMNSEQ_CNT06                         IMPT 00000000   3511 
_PVP_GMNSEQ_CNT07                         IMPT 00000000   3512 
_PVP_GMNSEQ_CNT08                         IMPT 00000000   3513 
_PVP_GMNSEQ_TIM01                         IMPT 00000000   3515 
_PVP_GMNSEQ_TIM02                         IMPT 00000000   3516 
_PVP_GMNSEQ_TIM03                         IMPT 00000000   3517 
_PVP_GMNSEQ_TIM04                         IMPT 00000000   3518 
_PVP_GMNSEQ_TIM05                         IMPT 00000000   3519 
_PVP_GMNSEQ_TIM06                         IMPT 00000000   3520 
_PVP_GMNSEQ_TIM07                         IMPT 00000000   3521 
_PVP_GMNSEQ_TIM08                         IMPT 00000000   3522 
_PVP_IVW_DOT                              IMPT 00000000   3561 
_PVP_KAJLIV_LFT                           IMPT 00000000   2945 
_PVP_KAJLIV_RIH                           IMPT 00000000   2947 
_PVP_KAJLIV_TTL                           IMPT 00000000   2946 
_PVP_MENTE_CNT                            IMPT 00000000   3031 
_PVP_MONALM1_TOP                          IMPT 00000000   3447 
_PVP_MONALM2_TOP                          IMPT 00000000   3567 
_PVP_MONALM_A01                           IMPT 00000000   3460 
_PVP_MONALM_A02                           IMPT 00000000   3461 
_PVP_MONALM_A03                           IMPT 00000000   3462 
_PVP_MONALM_A04                           IMPT 00000000   3463 
_PVP_MONALM_A05                           IMPT 00000000   3464 
_PVP_MONALM_A06                           IMPT 00000000   3465 
_PVP_MONALM_A07                           IMPT 00000000   3466 
_PVP_MONALM_A08                           IMPT 00000000   3467 
_PVP_MONALM_B01                           IMPT 00000000   3468 
_PVP_MONALM_B02                           IMPT 00000000   3469 
_PVP_MONALM_B03                           IMPT 00000000   3470 
_PVP_MONALM_B04                           IMPT 00000000   3471 
_PVP_MONALM_B05                           IMPT 00000000   3472 
_PVP_MONALM_B06                           IMPT 00000000   3473 
_PVP_MONALM_B07                           IMPT 00000000   3474 
_PVP_MONALM_B08                           IMPT 00000000   3475 
_PVP_MONALM_C01                           IMPT 00000000   3452 
_PVP_MONALM_C02                           IMPT 00000000   3453 
_PVP_MONALM_C03                           IMPT 00000000   3454 
_PVP_MONALM_C04                           IMPT 00000000   3455 
_PVP_MONALM_C05                           IMPT 00000000   3456 
_PVP_MONALM_C06                           IMPT 00000000   3457 
_PVP_MONALM_C07                           IMPT 00000000   3458 
_PVP_MONALM_C08                           IMPT 00000000   3459 
_PVP_MONALM_P01                           IMPT 00000000   3448 
*** SuperH RISC engine ASSEMBLER V.7.01.02.000 ***    07/04/21 19:29:24                                                  PAGE   165

*** CROSS REFERENCE LIST

NAME                             SECTION  ATTR VALUE             SEQUENCE

_PVP_MONALM_P02                           IMPT 00000000   3449 
_PVP_MONALM_P03                           IMPT 00000000   3450 
_PVP_MONALM_P04                           IMPT 00000000   3451 
_PVP_MOTINS_AG2                           IMPT 00000000   3095 
_PVP_MOTINS_AG3                           IMPT 00000000   3098 
_PVP_MOTINS_AGL                           IMPT 00000000   3090 
_PVP_MOTINS_DAN                           IMPT 00000000   3089 
_PVP_MOTINS_DANAFT                        IMPT 00000000   3119 
_PVP_MOTINS_DANBEF                        IMPT 00000000   3118 
_PVP_MOTINS_INF                           IMPT 00000000   3100 
_PVP_MOTINS_POS                           IMPT 00000000   3091 
_PVP_MOTINS_PS2                           IMPT 00000000   3094 
_PVP_MOTINS_PS3                           IMPT 00000000   3099 
_PVP_NOW_ANGLE00                          IMPT 00000000   3484 
_PVP_NOW_ANGLE_RNA                        IMPT 00000000   3490 
_PVP_NOW_POSI000                          IMPT 00000000   3482 
_PVP_ORGRNA_MOV1                          IMPT 00000000   2968 
_PVP_ORGRNA_MOV2                          IMPT 00000000   2969 
_PVP_ORGSTRK_LEG1                         IMPT 00000000   2970 
_PVP_ORGSTRK_LEG2                         IMPT 00000000   2971 
_PVP_OUT_PLS_SPD                          IMPT 00000000   3533 
_PVP_OUT_SPD_DIR                          IMPT 00000000   3541 
_PVP_OUT_SPD_PER                          IMPT 00000000   3537 
_PVP_PAR_A_CHAR                           IMPT 00000000   3628 
_PVP_PAR_A_VER                            IMPT 00000000   3622 
_PVP_PAR_B_CHAR                           IMPT 00000000   3629 
_PVP_PAR_B_VER                            IMPT 00000000   3623 
_PVP_PAR_C_CHAR                           IMPT 00000000   3640 
_PVP_PAR_C_VER                            IMPT 00000000   3639 
_PVP_PG12_DEG1                            IMPT 00000000   3038 
_PVP_PG_DEG1                              IMPT 00000000   2977 
_PVP_PG_DEG1X                             IMPT 00000000   3034 
_PVP_PG_DEG2                              IMPT 00000000   2978 
_PVP_PG_DEG2X                             IMPT 00000000   3035 
_PVP_PG_PLS1                              IMPT 00000000   3036 
_PVP_PG_PLS2                              IMPT 00000000   3037 
_PVP_POWER_KWH                            IMPT 00000000   3557 
_PVP_POWER_MONI                           IMPT 00000000   3525 
_PVP_RENIA_BUP1                           IMPT 00000000   3021 
_PVP_RENIA_BUP2                           IMPT 00000000   3022 
_PVP_RENIA_BUP3                           IMPT 00000000   3023 
_PVP_RENIA_BUP4                           IMPT 00000000   3024 
_PVP_RENIA_POS1                           IMPT 00000000   2974 
_PVP_RENIA_POS2                           IMPT 00000000   2975 
_PVP_RENIA_POSI0                          IMPT 00000000   3483 
_PVP_RNABUP_ENB                           IMPT 00000000   3025 
_PVP_RNAORG_PLS1                          IMPT 00000000   3481 
_PVP_RNA_STLORK                           IMPT 00000000   3497 
_PVP_SEQ_ERR                              IMPT 00000000   3502 
_PVP_SINKAKU_UPDN1                        IMPT 00000000   3812 
_PVP_SINKAKU_UPDN2                        IMPT 00000000   3813 
_PVP_SLIDE_POS                            IMPT 00000000   3493 
_PVP_STOP_TIM                             IMPT 00000000   3498 
_PVP_TAIKITEN_POS                         IMPT 00000000   3495 
*** SuperH RISC engine ASSEMBLER V.7.01.02.000 ***    07/04/21 19:29:24                                                  PAGE   166

*** CROSS REFERENCE LIST

NAME                             SECTION  ATTR VALUE             SEQUENCE

_PVP_TAIKI_POS                            IMPT 00000000   3494 
_PVP_TBL_A_CHAR                           IMPT 00000000   3630 
_PVP_TBL_A_VER                            IMPT 00000000   3624 
_PVP_TBL_B_CHAR                           IMPT 00000000   3631 
_PVP_TBL_B_VER                            IMPT 00000000   3625 
_PVP_TBL_C_CHAR                           IMPT 00000000   3642 
_PVP_TBL_C_VER                            IMPT 00000000   3641 
_PVP_WTJUD_AGL                            IMPT 00000000   3808 
_PVP_WTJUD_POS                            IMPT 00000000   3809 
_PVP_WTJUD_SNO                            IMPT 00000000   3807 
_PVP_ZURE_PLS                             IMPT 00000000   2979 
_PVP_ZURE_RNA                             IMPT 00000000   2980 
_PVSET                                    EQU  00000004   2435*
_PV_AD_DATA                               IMPT 00000000   5202 
_PV_CB_STS_DAT_TOP                        IMPT 00000000   3438 
_PV_CB_STS_POINT                          IMPT 00000000   3440 
_PV_CB_TRD_DAT_TOP                        IMPT 00000000   3439 
_PV_CB_TRD_POINT                          IMPT 00000000   3441 
_PV_DEB_WORD_WK11                         IMPT 00000000  10455 10641 
_PV_POWER_ON_CNT                          IMPT 00000000   3442 
_PV_TOTLC1_B3                             IMPT 00000000   5491  6609 
_PowerON_Reset                            IMPT 00000000     31 
_R64CNT                                   IMPT 00000000    756 
_RACT_IN_DATA                             IMPT 00000000   5240 
_RCNT                                     IMPT 00000000    659 
_RCR1                                     IMPT 00000000    770 
_RCR2                                     IMPT 00000000    771 
_RDAYAR                                   IMPT 00000000    768 
_RDAYCNT                                  IMPT 00000000    761 
_RDEV_IN_DATA                             IMPT 00000000   5242 
_RDFP                                     IMPT 00000000    663 
_RDR0                                     IMPT 00000000    744  8165  8703 
_REAL_INP1_DATA                           IMPT 00000000   5316 
_REAL_INP1_DT_OLD1                        IMPT 00000000   5317 
_REAL_INP1_DT_OLD2                        IMPT 00000000   5318 
_REMOTE_ERR_CHKTM                         IMPT 00000000   5175 
_RFCR                                     IMPT 00000000    784 
_RHRAR                                    IMPT 00000000    766 
_RHRCNT                                   IMPT 00000000    759 
_RMINAR                                   IMPT 00000000    765 
_RMINCNT                                  IMPT 00000000    758 
_RMONAR                                   IMPT 00000000    769 
_RMONCNT                                  IMPT 00000000    762 
_RNA_ALM_BIT0_CNT                         IMPT 00000000   5273 
_RNA_ALM_BIT1_CNT                         IMPT 00000000   5274 
_RNA_ALM_BIT2_CNT                         IMPT 00000000   5275 
_RNA_ALM_BIT3_CNT                         IMPT 00000000   5276 
_RNA_ALM_BIT4_CNT                         IMPT 00000000   5277 
_RNA_ALM_BIT5_CNT                         IMPT 00000000   5278 
_RNA_ALM_BIT6_CNT                         IMPT 00000000   5279 
_RNA_ALM_BIT7_CNT                         IMPT 00000000   5280 
_RNA_ALM_CNT                              IMPT 00000000   5281 
_RNA_ALM_DAT                              IMPT 00000000   5282 
_RNA_CMD_VERIFY_CNT                       IMPT 00000000   5268 
*** SuperH RISC engine ASSEMBLER V.7.01.02.000 ***    07/04/21 19:29:24                                                  PAGE   167

*** CROSS REFERENCE LIST

NAME                             SECTION  ATTR VALUE             SEQUENCE

_RNA_CMD_VERIFY_DAT                       IMPT 00000000   5269 
_RNA_REF1_CNT                             IMPT 00000000   5283 
_RNA_REF2_CNT                             IMPT 00000000   5284 
_RNA_REF_ERR_FLG1                         IMPT 00000000   5263 
_RNA_REF_ERR_FLG2                         IMPT 00000000   5264 
_RNA_STS_ERR_DAT                          IMPT 00000000   5272 
_RNA_STS_REQERR_CNT                       IMPT 00000000   5271 
_RNA_STS_SYSERR_CNT                       IMPT 00000000   5270 
_ROM_SUM_CODE                             IMPT 00000000  10454 10546 
_ROM_SYSPAR_ERRADR                        IMPT 00000000   5177 
_RSECAR                                   IMPT 00000000    764 
_RSECCNT                                  IMPT 00000000    757 
_RSFT_TRERR_TM                            IMPT 00000000   5157 
_RTCNT                                    IMPT 00000000    782 
_RTCOR                                    IMPT 00000000    783 
_RTCSR                                    IMPT 00000000    781 
_RWKAR                                    IMPT 00000000    767 
_RWKCNT                                   IMPT 00000000    760 
_RX0_INT                         PvupsciR EXPT 00000F80   5801  8695*
_RX0_M100                        PvupsciR      00000C64   8024  8037*
_RX0_M150                        PvupsciR      00000C78   8047  8059*
_RX0_M200                        PvupsciR      00000C82   8061  8069*
_RX0_M250                        PvupsciR      00000C8C   8071  8079* 8154  8262 
_RX0_M300                        PvupsciR      00000CF0   8152  8161*
_RX0_MAIN                        PvupsciR      00000C40   5671  8012*
_RX_TIME_000                     PvupsciR      000010BE   8952  8955*
_RYRCNT                                   IMPT 00000000    763 
_ResetHandler                             IMPT 00000000   5498 10548 
_SAITO_ASM_RAM_TOP                        IMPT 00000000   5091 
_SAR0                                     IMPT 00000000    564 
_SAR1                                     IMPT 00000000    568 
_SAR2                                     IMPT 00000000    572 
_SAR3                                     IMPT 00000000    576 
_SCBRR2                                   IMPT 00000000    641 
_SCFCR2                                   IMPT 00000000    646 
_SCFDR2                                   IMPT 00000000    647 
_SCFRDR2                                  IMPT 00000000    645 
_SCFTDR2                                  IMPT 00000000    643 
_SCI0_BCC_CHECK                  PvupsciR      00000A20   6065  7073  7546*
_SCI0_M020                       PvupsciR      0000014A   5885  5888  5894*
_SCI0_M040                       PvupsciR      00000174   5902  5906  5924*
_SCI0_M050                       PvupsciR      0000018C   5897  5936*
_SCI0_M100                       PvupsciR      0000019E   5943  5950*
_SCI0_M150                       PvupsciR      000001A8   5952  5959*
_SCI0_MAIN                       PvupsciR EXPT 0000010C   5675  5799  5805*
_SCI0_MEMADR_CHECK               PvupsciR      00000AA8   6073  7663*
_SCI0_MEMSEL_CHECK               PvupsciR      00000A64   6069  7077  7608*
_SCI0_MEND                       PvupsciR      000001B8   5926  5961  5969*
_SCI0_RDEI_CHECK                 PvupsciR      00000B34   7081  7772*
_SCI0_SEQCMD_CHECK               PvupsciR      00000B68   6050  7057  7814*
_SCI0_SQCM_CHK_EXT               PvupsciR      00000B92   7826  7833  7847*
_SCI0_TB_MK2_100                 PvupsciR      000009AA   7465* 7486 
_SCI0_TB_MK2_200                 PvupsciR      000009E8   7467  7500*
_SCI0_TXDBUF_MAKE1               PvupsciR      000004E0   6574  6640*
*** SuperH RISC engine ASSEMBLER V.7.01.02.000 ***    07/04/21 19:29:24                                                  PAGE   168

*** CROSS REFERENCE LIST

NAME                             SECTION  ATTR VALUE             SEQUENCE

_SCI0_TXDBUF_MAKE2               PvupsciR      000008AC   7279  7309*
_SCI0_TXDBUF_MAKE_NG             PvupsciR      00000624   6087  6845* 7091 
_SCI0_TXIEI_000                  PvupsciR      00000BDC   7881  7895*
_SCI0_TXIEI_EXT                  PvupsciR      00000BEE   7886  7915*
_SCI0_TXI_DI                     PvupsciR      00000C00   7937* 8471  8850 
_SCI0_TXI_EI                     PvupsciR      00000BBC   5920  6091  6578  7095  7283  7873*11214 
_SCI0_WREI_CHECK                 PvupsciR      00000B00   6077  7728*
_SCI_KATA_RD_EXT                 PvupsciR      000025B4  12982 12985 13002*
_SCI_KATA_READ                   PvupsciR      00002592   9155 12975*
_SCI_KATA_WRITE                  PvupsciR      000025D0   9168 13028*
_SCI_KATA_WR_EXT                 PvupsciR      00002640  13035 13038 13185*
_SCI_VUP_M000                    PvupsciR      00000026   5594* 5703 
_SCI_VUP_MAIN                    PvupsciR EXPT 00000000   5518  5519*
_SCPCR                                    IMPT 00000000    625 
_SCPDR                                    IMPT 00000000    638 
_SCR0                                     IMPT 00000000    741  7904  7942  8038  8313  8475  8537  8660  8854  8909 
_SCSCMR                                   IMPT 00000000    745 
_SCSCR2                                   IMPT 00000000    642 
_SCSMR2                                   IMPT 00000000    640 
_SCSSR2                                   IMPT 00000000    644 
_SDDRL                                    IMPT 00000000    666 
_SDDR_SDDRH                               IMPT 00000000    665 
_SDIR                                     IMPT 00000000    664 
_SECTOR_RETRY                    Bvupsciw      00000682  11304*
_SELF_ACT_FLG                             IMPT 00000000   5185 
_SELF_CHK_FLG                             IMPT 00000000   5184 
_SELF_CHK_TIMER                           IMPT 00000000   5194 
_SELF_FSTY_USE                            IMPT 00000000   5191 
_SELF_HAND_FLG1                           IMPT 00000000   5188 
_SELF_HAND_FLG2                           IMPT 00000000   5189 
_SELF_RSTY_USE                            IMPT 00000000   5192 
_SEQ_016_SV                               IMPT 00000000   5490  6608 
_SEQ_COM1_TOP                             IMPT 00000000   5500 10103 
_SEQ_DP_TOP                               IMPT 00000000   3838 
_SEQ_NO                                   EQU  00000010   2236*
_SEQ_PAR_000                              IMPT 00000000   3894 
_SEQ_PAR_001                              IMPT 00000000   3895 
_SEQ_PAR_002                              IMPT 00000000   3896 
_SEQ_PAR_003                              IMPT 00000000   3897 
_SEQ_PAR_004                              IMPT 00000000   3898 
_SEQ_PAR_005                              IMPT 00000000   3899 
_SEQ_PAR_006                              IMPT 00000000   3900 
_SEQ_PAR_007                              IMPT 00000000   3901 
_SEQ_PAR_008                              IMPT 00000000   3902 
_SEQ_PAR_009                              IMPT 00000000   3903 
_SEQ_PAR_010                              IMPT 00000000   3904 
_SEQ_PAR_011                              IMPT 00000000   3905 
_SEQ_PAR_012                              IMPT 00000000   3906 
_SEQ_PAR_013                              IMPT 00000000   3907 
_SEQ_PAR_014                              IMPT 00000000   3908 
_SEQ_PAR_015                              IMPT 00000000   3909 
_SEQ_PAR_016                              IMPT 00000000   3910 
_SEQ_PAR_017                              IMPT 00000000   3911 
_SEQ_PAR_018                              IMPT 00000000   3912 
*** SuperH RISC engine ASSEMBLER V.7.01.02.000 ***    07/04/21 19:29:24                                                  PAGE   169

*** CROSS REFERENCE LIST

NAME                             SECTION  ATTR VALUE             SEQUENCE

_SEQ_PAR_019                              IMPT 00000000   3913 
_SEQ_PAR_020                              IMPT 00000000   3914 
_SEQ_PAR_021                              IMPT 00000000   3915 
_SEQ_PAR_022                              IMPT 00000000   3916 
_SEQ_PAR_023                              IMPT 00000000   3917 
_SEQ_PAR_024                              IMPT 00000000   3918 
_SEQ_PAR_025                              IMPT 00000000   3919 
_SEQ_PAR_026                              IMPT 00000000   3920 
_SEQ_PAR_027                              IMPT 00000000   3921 
_SEQ_PAR_028                              IMPT 00000000   3922 
_SEQ_PAR_029                              IMPT 00000000   3923 
_SEQ_PAR_030                              IMPT 00000000   3924 
_SEQ_PAR_031                              IMPT 00000000   3925 
_SEQ_PAR_032                              IMPT 00000000   3926 
_SEQ_PAR_033                              IMPT 00000000   3927 
_SEQ_PAR_034                              IMPT 00000000   3928 
_SEQ_PAR_035                              IMPT 00000000   3929 
_SEQ_PAR_036                              IMPT 00000000   3930 
_SEQ_PAR_037                              IMPT 00000000   3931 
_SEQ_PAR_038                              IMPT 00000000   3932 
_SEQ_PAR_039                              IMPT 00000000   3933 
_SEQ_PAR_040                              IMPT 00000000   3934 
_SEQ_PAR_041                              IMPT 00000000   3935 
_SEQ_PAR_042                              IMPT 00000000   3936 
_SEQ_PAR_043                              IMPT 00000000   3937 
_SEQ_PAR_044                              IMPT 00000000   3938 
_SEQ_PAR_045                              IMPT 00000000   3939 
_SEQ_PAR_046                              IMPT 00000000   3940 
_SEQ_PAR_047                              IMPT 00000000   3941 
_SEQ_PAR_048                              IMPT 00000000   3942 
_SEQ_PAR_049                              IMPT 00000000   3943 
_SEQ_PAR_050                              IMPT 00000000   3944 
_SEQ_PAR_051                              IMPT 00000000   3945 
_SEQ_PAR_052                              IMPT 00000000   3946 
_SEQ_PAR_053                              IMPT 00000000   3947 
_SEQ_PAR_054                              IMPT 00000000   3948 
_SEQ_PAR_055                              IMPT 00000000   3949 
_SEQ_PAR_056                              IMPT 00000000   3950 
_SEQ_PAR_057                              IMPT 00000000   3951 
_SEQ_PAR_058                              IMPT 00000000   3952 
_SEQ_PAR_059                              IMPT 00000000   3953 
_SEQ_PAR_060                              IMPT 00000000   3954 
_SEQ_PAR_061                              IMPT 00000000   3955 
_SEQ_PAR_062                              IMPT 00000000   3956 
_SEQ_PAR_063                              IMPT 00000000   3957 
_SEQ_PAR_064                              IMPT 00000000   3958 
_SEQ_PAR_065                              IMPT 00000000   3959 
_SEQ_PAR_066                              IMPT 00000000   3960 
_SEQ_PAR_067                              IMPT 00000000   3961 
_SEQ_PAR_068                              IMPT 00000000   3962 
_SEQ_PAR_069                              IMPT 00000000   3963 
_SEQ_PAR_070                              IMPT 00000000   3964 
_SEQ_PAR_071                              IMPT 00000000   3965 
_SEQ_PAR_072                              IMPT 00000000   3966 
*** SuperH RISC engine ASSEMBLER V.7.01.02.000 ***    07/04/21 19:29:24                                                  PAGE   170

*** CROSS REFERENCE LIST

NAME                             SECTION  ATTR VALUE             SEQUENCE

_SEQ_PAR_073                              IMPT 00000000   3967 
_SEQ_PAR_074                              IMPT 00000000   3968 
_SEQ_PAR_075                              IMPT 00000000   3969 
_SEQ_PAR_076                              IMPT 00000000   3970 
_SEQ_PAR_077                              IMPT 00000000   3971 
_SEQ_PAR_078                              IMPT 00000000   3972 
_SEQ_PAR_079                              IMPT 00000000   3973 
_SEQ_PAR_080                              IMPT 00000000   3974 
_SEQ_PAR_081                              IMPT 00000000   3975 
_SEQ_PAR_082                              IMPT 00000000   3976 
_SEQ_PAR_083                              IMPT 00000000   3977 
_SEQ_PAR_084                              IMPT 00000000   3978 
_SEQ_PAR_085                              IMPT 00000000   3979 
_SEQ_PAR_086                              IMPT 00000000   3980 
_SEQ_PAR_087                              IMPT 00000000   3981 
_SEQ_PAR_088                              IMPT 00000000   3982 
_SEQ_PAR_089                              IMPT 00000000   3983 
_SEQ_PAR_090                              IMPT 00000000   3984 
_SEQ_PAR_091                              IMPT 00000000   3985 
_SEQ_PAR_092                              IMPT 00000000   3986 
_SEQ_PAR_093                              IMPT 00000000   3987 
_SEQ_PAR_094                              IMPT 00000000   3988 
_SEQ_PAR_095                              IMPT 00000000   3989 
_SEQ_PAR_096                              IMPT 00000000   3990 
_SEQ_PAR_097                              IMPT 00000000   3991 
_SEQ_PAR_098                              IMPT 00000000   3992 
_SEQ_PAR_099                              IMPT 00000000   3993 
_SEQ_PAR_100                              IMPT 00000000   3994 
_SEQ_PAR_101                              IMPT 00000000   3995 
_SEQ_PAR_102                              IMPT 00000000   3996 
_SEQ_PAR_103                              IMPT 00000000   3997  7739  7783 
_SEQ_PAR_104                              IMPT 00000000   3998 
_SEQ_PAR_105                              IMPT 00000000   3999 
_SEQ_PAR_106                              IMPT 00000000   4000 
_SEQ_PAR_107                              IMPT 00000000   4001 
_SEQ_PAR_108                              IMPT 00000000   4002 
_SEQ_PAR_109                              IMPT 00000000   4003 
_SEQ_PAR_110                              IMPT 00000000   4004 
_SEQ_PAR_111                              IMPT 00000000   4005 
_SEQ_PAR_112                              IMPT 00000000   4006 
_SEQ_PAR_113                              IMPT 00000000   4007 
_SEQ_PAR_114                              IMPT 00000000   4008 
_SEQ_PAR_115                              IMPT 00000000   4009 
_SEQ_PAR_116                              IMPT 00000000   4010 
_SEQ_PAR_117                              IMPT 00000000   4011 
_SEQ_PAR_118                              IMPT 00000000   4012 
_SEQ_PAR_119                              IMPT 00000000   4013 
_SEQ_PAR_120                              IMPT 00000000   4014 
_SEQ_PAR_121                              IMPT 00000000   4015 
_SEQ_PAR_122                              IMPT 00000000   4016 
_SEQ_PAR_123                              IMPT 00000000   4017 
_SEQ_PAR_124                              IMPT 00000000   4018 
_SEQ_PAR_125                              IMPT 00000000   4019 
_SEQ_PAR_126                              IMPT 00000000   4020 
*** SuperH RISC engine ASSEMBLER V.7.01.02.000 ***    07/04/21 19:29:24                                                  PAGE   171

*** CROSS REFERENCE LIST

NAME                             SECTION  ATTR VALUE             SEQUENCE

_SEQ_PAR_127                              IMPT 00000000   4021 
_SEQ_PAR_128                              IMPT 00000000   4022 
_SEQ_PAR_129                              IMPT 00000000   4023 
_SEQ_PAR_130                              IMPT 00000000   4024 
_SEQ_PAR_131                              IMPT 00000000   4025 
_SEQ_PAR_132                              IMPT 00000000   4026 
_SEQ_PAR_133                              IMPT 00000000   4027 
_SEQ_PAR_134                              IMPT 00000000   4028 
_SEQ_PAR_135                              IMPT 00000000   4029 
_SEQ_PAR_136                              IMPT 00000000   4030 
_SEQ_PAR_137                              IMPT 00000000   4031 
_SEQ_PAR_138                              IMPT 00000000   4032 
_SEQ_PAR_139                              IMPT 00000000   4033 
_SEQ_PAR_140                              IMPT 00000000   4034 
_SEQ_PAR_141                              IMPT 00000000   4035 
_SEQ_PAR_142                              IMPT 00000000   4036 
_SEQ_PAR_143                              IMPT 00000000   4037 
_SEQ_PAR_144                              IMPT 00000000   4038 
_SEQ_PAR_145                              IMPT 00000000   4039 
_SEQ_PAR_146                              IMPT 00000000   4040 
_SEQ_PAR_147                              IMPT 00000000   4041 
_SEQ_PAR_148                              IMPT 00000000   4042 
_SEQ_PAR_149                              IMPT 00000000   4043 
_SEQ_PAR_150                              IMPT 00000000   4044 
_SEQ_PAR_151                              IMPT 00000000   4045 
_SEQ_PAR_152                              IMPT 00000000   4046 
_SEQ_PAR_153                              IMPT 00000000   4047 
_SEQ_PAR_154                              IMPT 00000000   4048 
_SEQ_PAR_155                              IMPT 00000000   4049 
_SEQ_PAR_156                              IMPT 00000000   4050 
_SEQ_PAR_157                              IMPT 00000000   4051 
_SEQ_PAR_158                              IMPT 00000000   4052 
_SEQ_PAR_159                              IMPT 00000000   4053 
_SEQ_PAR_160                              IMPT 00000000   4054 
_SEQ_PAR_161                              IMPT 00000000   4055 
_SEQ_PAR_162                              IMPT 00000000   4056 
_SEQ_PAR_163                              IMPT 00000000   4057 
_SEQ_PAR_164                              IMPT 00000000   4058 
_SEQ_PAR_165                              IMPT 00000000   4059 
_SEQ_PAR_166                              IMPT 00000000   4060 
_SEQ_PAR_167                              IMPT 00000000   4061 
_SEQ_PAR_168                              IMPT 00000000   4062 
_SEQ_PAR_169                              IMPT 00000000   4063 
_SEQ_PAR_170                              IMPT 00000000   4064 
_SEQ_PAR_171                              IMPT 00000000   4065 
_SEQ_PAR_172                              IMPT 00000000   4066 
_SEQ_PAR_173                              IMPT 00000000   4067 
_SEQ_PAR_174                              IMPT 00000000   4068 
_SEQ_PAR_175                              IMPT 00000000   4069 
_SEQ_PAR_176                              IMPT 00000000   4070 
_SEQ_PAR_177                              IMPT 00000000   4071 
_SEQ_PAR_178                              IMPT 00000000   4072 
_SEQ_PAR_179                              IMPT 00000000   4073 
_SEQ_PAR_180                              IMPT 00000000   4074 
*** SuperH RISC engine ASSEMBLER V.7.01.02.000 ***    07/04/21 19:29:24                                                  PAGE   172

*** CROSS REFERENCE LIST

NAME                             SECTION  ATTR VALUE             SEQUENCE

_SEQ_PAR_181                              IMPT 00000000   4075 
_SEQ_PAR_182                              IMPT 00000000   4076 
_SEQ_PAR_183                              IMPT 00000000   4077 
_SEQ_PAR_184                              IMPT 00000000   4078 
_SEQ_PAR_185                              IMPT 00000000   4079 
_SEQ_PAR_186                              IMPT 00000000   4080 
_SEQ_PAR_187                              IMPT 00000000   4081 
_SEQ_PAR_188                              IMPT 00000000   4082 
_SEQ_PAR_189                              IMPT 00000000   4083 
_SEQ_PAR_190                              IMPT 00000000   4084 
_SEQ_PAR_191                              IMPT 00000000   4085 
_SEQ_PAR_192                              IMPT 00000000   4086 
_SEQ_PAR_193                              IMPT 00000000   4087 
_SEQ_PAR_194                              IMPT 00000000   4088 
_SEQ_PAR_195                              IMPT 00000000   4089 
_SEQ_PAR_196                              IMPT 00000000   4090 
_SEQ_PAR_197                              IMPT 00000000   4091 
_SEQ_PAR_198                              IMPT 00000000   4092 
_SEQ_PAR_199                              IMPT 00000000   4093 
_SEQ_PAR_200                              IMPT 00000000   4094 
_SEQ_PAR_201                              IMPT 00000000   4095 
_SEQ_PAR_202                              IMPT 00000000   4096 
_SEQ_PAR_203                              IMPT 00000000   4097 
_SEQ_PAR_204                              IMPT 00000000   4098 
_SEQ_PAR_205                              IMPT 00000000   4099 
_SEQ_PAR_206                              IMPT 00000000   4100 
_SEQ_PAR_207                              IMPT 00000000   4101 
_SEQ_PAR_208                              IMPT 00000000   4102 
_SEQ_PAR_209                              IMPT 00000000   4103 
_SEQ_PAR_210                              IMPT 00000000   4104 
_SEQ_PAR_211                              IMPT 00000000   4105 
_SEQ_PAR_212                              IMPT 00000000   4106 
_SEQ_PAR_213                              IMPT 00000000   4107 
_SEQ_PAR_214                              IMPT 00000000   4108 
_SEQ_PAR_215                              IMPT 00000000   4109 
_SEQ_PAR_216                              IMPT 00000000   4110 
_SEQ_PAR_217                              IMPT 00000000   4111 
_SEQ_PAR_218                              IMPT 00000000   4112 
_SEQ_PAR_219                              IMPT 00000000   4113 
_SEQ_PAR_220                              IMPT 00000000   4114 
_SEQ_PAR_221                              IMPT 00000000   4115 
_SEQ_PAR_222                              IMPT 00000000   4116 
_SEQ_PAR_223                              IMPT 00000000   4117 
_SEQ_PAR_224                              IMPT 00000000   4118 
_SEQ_PAR_225                              IMPT 00000000   4119 
_SEQ_PAR_226                              IMPT 00000000   4120 
_SEQ_PAR_227                              IMPT 00000000   4121 
_SEQ_PAR_228                              IMPT 00000000   4122 
_SEQ_PAR_229                              IMPT 00000000   4123 
_SEQ_PAR_230                              IMPT 00000000   4124 
_SEQ_PAR_231                              IMPT 00000000   4125 
_SEQ_PAR_232                              IMPT 00000000   4126 
_SEQ_PAR_233                              IMPT 00000000   4127 
_SEQ_PAR_234                              IMPT 00000000   4128 
*** SuperH RISC engine ASSEMBLER V.7.01.02.000 ***    07/04/21 19:29:24                                                  PAGE   173

*** CROSS REFERENCE LIST

NAME                             SECTION  ATTR VALUE             SEQUENCE

_SEQ_PAR_235                              IMPT 00000000   4129 
_SEQ_PAR_236                              IMPT 00000000   4130 
_SEQ_PAR_237                              IMPT 00000000   4131 
_SEQ_PAR_238                              IMPT 00000000   4132 
_SEQ_PAR_239                              IMPT 00000000   4133 
_SEQ_PAR_240                              IMPT 00000000   4134 
_SEQ_PAR_241                              IMPT 00000000   4135 
_SEQ_PAR_242                              IMPT 00000000   4136 
_SEQ_PAR_243                              IMPT 00000000   4137 
_SEQ_PAR_244                              IMPT 00000000   4138 
_SEQ_PAR_245                              IMPT 00000000   4139 
_SEQ_PAR_246                              IMPT 00000000   4140 
_SEQ_PAR_247                              IMPT 00000000   4141 
_SEQ_PAR_248                              IMPT 00000000   4142 
_SEQ_PAR_249                              IMPT 00000000   4143 
_SEQ_PAR_250                              IMPT 00000000   4144 
_SEQ_PAR_251                              IMPT 00000000   4145 
_SEQ_PAR_252                              IMPT 00000000   4146 
_SEQ_PAR_253                              IMPT 00000000   4147 
_SEQ_PAR_254                              IMPT 00000000   4148 
_SEQ_PAR_255                              IMPT 00000000   4149 
_SEQ_PAR_256                              IMPT 00000000   4150 
_SEQ_PAR_257                              IMPT 00000000   4151 
_SEQ_PAR_258                              IMPT 00000000   4152 
_SEQ_PAR_259                              IMPT 00000000   4153 
_SEQ_PAR_260                              IMPT 00000000   4154 
_SEQ_PAR_261                              IMPT 00000000   4155 
_SEQ_PAR_262                              IMPT 00000000   4156 
_SEQ_PAR_263                              IMPT 00000000   4157 
_SEQ_PAR_264                              IMPT 00000000   4158 
_SEQ_PAR_265                              IMPT 00000000   4159 
_SEQ_PAR_266                              IMPT 00000000   4160 
_SEQ_PAR_267                              IMPT 00000000   4161 
_SEQ_PAR_268                              IMPT 00000000   4162 
_SEQ_PAR_269                              IMPT 00000000   4163 
_SEQ_PAR_270                              IMPT 00000000   4164 
_SEQ_PAR_271                              IMPT 00000000   4165 
_SEQ_PAR_272                              IMPT 00000000   4166 
_SEQ_PAR_273                              IMPT 00000000   4167 
_SEQ_PAR_274                              IMPT 00000000   4168 
_SEQ_PAR_275                              IMPT 00000000   4169 
_SEQ_PAR_276                              IMPT 00000000   4170 
_SEQ_PAR_277                              IMPT 00000000   4171 
_SEQ_PAR_278                              IMPT 00000000   4172 
_SEQ_PAR_279                              IMPT 00000000   4173 
_SEQ_PAR_280                              IMPT 00000000   4174 
_SEQ_PAR_281                              IMPT 00000000   4175 
_SEQ_PAR_282                              IMPT 00000000   4176 
_SEQ_PAR_283                              IMPT 00000000   4177 
_SEQ_PAR_284                              IMPT 00000000   4178 
_SEQ_PAR_285                              IMPT 00000000   4179 
_SEQ_PAR_286                              IMPT 00000000   4180 
_SEQ_PAR_287                              IMPT 00000000   4181 
_SEQ_PAR_288                              IMPT 00000000   4182 
*** SuperH RISC engine ASSEMBLER V.7.01.02.000 ***    07/04/21 19:29:24                                                  PAGE   174

*** CROSS REFERENCE LIST

NAME                             SECTION  ATTR VALUE             SEQUENCE

_SEQ_PAR_289                              IMPT 00000000   4183 
_SEQ_PAR_290                              IMPT 00000000   4184 
_SEQ_PAR_291                              IMPT 00000000   4185 
_SEQ_PAR_292                              IMPT 00000000   4186 
_SEQ_PAR_293                              IMPT 00000000   4187 
_SEQ_PAR_294                              IMPT 00000000   4188 
_SEQ_PAR_295                              IMPT 00000000   4189 
_SEQ_PAR_296                              IMPT 00000000   4190 
_SEQ_PAR_297                              IMPT 00000000   4191 
_SEQ_PAR_298                              IMPT 00000000   4192 
_SEQ_PAR_299                              IMPT 00000000   4193 
_SEQ_PAR_300                              IMPT 00000000   4194 
_SEQ_PAR_301                              IMPT 00000000   4195 
_SEQ_PAR_302                              IMPT 00000000   4196 
_SEQ_PAR_303                              IMPT 00000000   4197 
_SEQ_PAR_304                              IMPT 00000000   4198 
_SEQ_PAR_305                              IMPT 00000000   4199 
_SEQ_PAR_306                              IMPT 00000000   4200 
_SEQ_PAR_307                              IMPT 00000000   4201 
_SEQ_PAR_308                              IMPT 00000000   4202 
_SEQ_PAR_309                              IMPT 00000000   4203 
_SEQ_PAR_310                              IMPT 00000000   4204 
_SEQ_PAR_311                              IMPT 00000000   4205 
_SEQ_PAR_312                              IMPT 00000000   4206 
_SEQ_PAR_313                              IMPT 00000000   4207 
_SEQ_PAR_314                              IMPT 00000000   4208 
_SEQ_PAR_315                              IMPT 00000000   4209 
_SEQ_PAR_316                              IMPT 00000000   4210 
_SEQ_PAR_317                              IMPT 00000000   4211 
_SEQ_PAR_318                              IMPT 00000000   4212 
_SEQ_PAR_319                              IMPT 00000000   4213 
_SEQ_PAR_320                              IMPT 00000000   4214 
_SEQ_PAR_321                              IMPT 00000000   4215 
_SEQ_PAR_322                              IMPT 00000000   4216 
_SEQ_PAR_323                              IMPT 00000000   4217 
_SEQ_PAR_324                              IMPT 00000000   4218 
_SEQ_PAR_325                              IMPT 00000000   4219 
_SEQ_PAR_326                              IMPT 00000000   4220 
_SEQ_PAR_327                              IMPT 00000000   4221 
_SEQ_PAR_328                              IMPT 00000000   4222 
_SEQ_PAR_329                              IMPT 00000000   4223 
_SEQ_PAR_330                              IMPT 00000000   4224 
_SEQ_PAR_331                              IMPT 00000000   4225 
_SEQ_PAR_332                              IMPT 00000000   4226 
_SEQ_PAR_333                              IMPT 00000000   4227 
_SEQ_PAR_334                              IMPT 00000000   4228 
_SEQ_PAR_335                              IMPT 00000000   4229 
_SEQ_PAR_336                              IMPT 00000000   4230 
_SEQ_PAR_337                              IMPT 00000000   4231 
_SEQ_PAR_338                              IMPT 00000000   4232 
_SEQ_PAR_339                              IMPT 00000000   4233 
_SEQ_PAR_340                              IMPT 00000000   4234 
_SEQ_PAR_341                              IMPT 00000000   4235 
_SEQ_PAR_342                              IMPT 00000000   4236 
*** SuperH RISC engine ASSEMBLER V.7.01.02.000 ***    07/04/21 19:29:24                                                  PAGE   175

*** CROSS REFERENCE LIST

NAME                             SECTION  ATTR VALUE             SEQUENCE

_SEQ_PAR_343                              IMPT 00000000   4237 
_SEQ_PAR_344                              IMPT 00000000   4238 
_SEQ_PAR_345                              IMPT 00000000   4239 
_SEQ_PAR_346                              IMPT 00000000   4240 
_SEQ_PAR_347                              IMPT 00000000   4241 
_SEQ_PAR_348                              IMPT 00000000   4242 
_SEQ_PAR_349                              IMPT 00000000   4243 
_SEQ_PAR_350                              IMPT 00000000   4244 
_SEQ_PAR_351                              IMPT 00000000   4245 
_SEQ_PAR_352                              IMPT 00000000   4246 
_SEQ_PAR_353                              IMPT 00000000   4247 
_SEQ_PAR_354                              IMPT 00000000   4248 
_SEQ_PAR_355                              IMPT 00000000   4249 
_SEQ_PAR_356                              IMPT 00000000   4250 
_SEQ_PAR_357                              IMPT 00000000   4251 
_SEQ_PAR_358                              IMPT 00000000   4252 
_SEQ_PAR_359                              IMPT 00000000   4253 
_SEQ_PAR_360                              IMPT 00000000   4254 
_SEQ_PAR_361                              IMPT 00000000   4255 
_SEQ_PAR_362                              IMPT 00000000   4256 
_SEQ_PAR_363                              IMPT 00000000   4257 
_SEQ_PAR_364                              IMPT 00000000   4258 
_SEQ_PAR_365                              IMPT 00000000   4259 
_SEQ_PAR_366                              IMPT 00000000   4260 
_SEQ_PAR_367                              IMPT 00000000   4261 
_SEQ_PAR_368                              IMPT 00000000   4262 
_SEQ_PAR_369                              IMPT 00000000   4263 
_SEQ_PAR_370                              IMPT 00000000   4264 
_SEQ_PAR_371                              IMPT 00000000   4265 
_SEQ_PAR_372                              IMPT 00000000   4266 
_SEQ_PAR_373                              IMPT 00000000   4267 
_SEQ_PAR_374                              IMPT 00000000   4268 
_SEQ_PAR_375                              IMPT 00000000   4269 
_SEQ_PAR_376                              IMPT 00000000   4270 
_SEQ_PAR_377                              IMPT 00000000   4271 
_SEQ_PAR_378                              IMPT 00000000   4272 
_SEQ_PAR_379                              IMPT 00000000   4273 
_SEQ_PAR_380                              IMPT 00000000   4274 
_SEQ_PAR_381                              IMPT 00000000   4275 
_SEQ_PAR_382                              IMPT 00000000   4276 
_SEQ_PAR_383                              IMPT 00000000   4277 
_SEQ_PAR_384                              IMPT 00000000   4278 
_SEQ_PAR_385                              IMPT 00000000   4279 
_SEQ_PAR_386                              IMPT 00000000   4280 
_SEQ_PAR_387                              IMPT 00000000   4281 
_SEQ_PAR_388                              IMPT 00000000   4282 
_SEQ_PAR_389                              IMPT 00000000   4283 
_SEQ_PAR_390                              IMPT 00000000   4284 
_SEQ_PAR_391                              IMPT 00000000   4285 
_SEQ_PAR_392                              IMPT 00000000   4286 
_SEQ_PAR_393                              IMPT 00000000   4287 
_SEQ_PAR_394                              IMPT 00000000   4288 
_SEQ_PAR_395                              IMPT 00000000   4289 
_SEQ_PAR_396                              IMPT 00000000   4290 
*** SuperH RISC engine ASSEMBLER V.7.01.02.000 ***    07/04/21 19:29:24                                                  PAGE   176

*** CROSS REFERENCE LIST

NAME                             SECTION  ATTR VALUE             SEQUENCE

_SEQ_PAR_397                              IMPT 00000000   4291 
_SEQ_PAR_398                              IMPT 00000000   4292 
_SEQ_PAR_399                              IMPT 00000000   4293 
_SEQ_PAR_400                              IMPT 00000000   4294 
_SEQ_PAR_401                              IMPT 00000000   4295 
_SEQ_PAR_402                              IMPT 00000000   4296 
_SEQ_PAR_403                              IMPT 00000000   4297 
_SEQ_PAR_404                              IMPT 00000000   4298 
_SEQ_PAR_405                              IMPT 00000000   4299 
_SEQ_PAR_406                              IMPT 00000000   4300 
_SEQ_PAR_407                              IMPT 00000000   4301 
_SEQ_PAR_408                              IMPT 00000000   4302 
_SEQ_PAR_409                              IMPT 00000000   4303 
_SEQ_PAR_410                              IMPT 00000000   4304 
_SEQ_PAR_411                              IMPT 00000000   4305 
_SEQ_PAR_412                              IMPT 00000000   4306 
_SEQ_PAR_413                              IMPT 00000000   4307 
_SEQ_PAR_414                              IMPT 00000000   4308 
_SEQ_PAR_415                              IMPT 00000000   4309 
_SEQ_PAR_416                              IMPT 00000000   4310 
_SEQ_PAR_417                              IMPT 00000000   4311 
_SEQ_PAR_418                              IMPT 00000000   4312 
_SEQ_PAR_419                              IMPT 00000000   4313 
_SEQ_PAR_420                              IMPT 00000000   4314 
_SEQ_PAR_421                              IMPT 00000000   4315 
_SEQ_PAR_422                              IMPT 00000000   4316 
_SEQ_PAR_423                              IMPT 00000000   4317 
_SEQ_PAR_424                              IMPT 00000000   4318 
_SEQ_PAR_425                              IMPT 00000000   4319 
_SEQ_PAR_426                              IMPT 00000000   4320 
_SEQ_PAR_427                              IMPT 00000000   4321 
_SEQ_PAR_428                              IMPT 00000000   4322 
_SEQ_PAR_429                              IMPT 00000000   4323 
_SEQ_PAR_430                              IMPT 00000000   4324 
_SEQ_PAR_431                              IMPT 00000000   4325 
_SEQ_PAR_432                              IMPT 00000000   4326 
_SEQ_PAR_433                              IMPT 00000000   4327 
_SEQ_PAR_434                              IMPT 00000000   4328 
_SEQ_PAR_435                              IMPT 00000000   4329 
_SEQ_PAR_436                              IMPT 00000000   4330 
_SEQ_PAR_437                              IMPT 00000000   4331 
_SEQ_PAR_438                              IMPT 00000000   4332 
_SEQ_PAR_439                              IMPT 00000000   4333 
_SEQ_PAR_440                              IMPT 00000000   4334 
_SEQ_PAR_441                              IMPT 00000000   4335 
_SEQ_PAR_442                              IMPT 00000000   4336 
_SEQ_PAR_443                              IMPT 00000000   4337 
_SEQ_PAR_444                              IMPT 00000000   4338 
_SEQ_PAR_445                              IMPT 00000000   4339 
_SEQ_PAR_446                              IMPT 00000000   4340 
_SEQ_PAR_447                              IMPT 00000000   4341 
_SEQ_PAR_448                              IMPT 00000000   4342 
_SEQ_PAR_449                              IMPT 00000000   4343 
_SEQ_PAR_450                              IMPT 00000000   4344 
*** SuperH RISC engine ASSEMBLER V.7.01.02.000 ***    07/04/21 19:29:24                                                  PAGE   177

*** CROSS REFERENCE LIST

NAME                             SECTION  ATTR VALUE             SEQUENCE

_SEQ_PAR_451                              IMPT 00000000   4345 
_SEQ_PAR_452                              IMPT 00000000   4346 
_SEQ_PAR_453                              IMPT 00000000   4347 
_SEQ_PAR_454                              IMPT 00000000   4348 
_SEQ_PAR_455                              IMPT 00000000   4349 
_SEQ_PAR_456                              IMPT 00000000   4350 
_SEQ_PAR_457                              IMPT 00000000   4351 
_SEQ_PAR_458                              IMPT 00000000   4352 
_SEQ_PAR_459                              IMPT 00000000   4353 
_SEQ_PAR_460                              IMPT 00000000   4354 
_SEQ_PAR_461                              IMPT 00000000   4355 
_SEQ_PAR_462                              IMPT 00000000   4356 
_SEQ_PAR_463                              IMPT 00000000   4357 
_SEQ_PAR_464                              IMPT 00000000   4358 
_SEQ_PAR_465                              IMPT 00000000   4359 
_SEQ_PAR_466                              IMPT 00000000   4360 
_SEQ_PAR_467                              IMPT 00000000   4361 
_SEQ_PAR_468                              IMPT 00000000   4362 
_SEQ_PAR_469                              IMPT 00000000   4363 
_SEQ_PAR_470                              IMPT 00000000   4364 
_SEQ_PAR_471                              IMPT 00000000   4365 
_SEQ_PAR_472                              IMPT 00000000   4366 
_SEQ_PAR_473                              IMPT 00000000   4367 
_SEQ_PAR_474                              IMPT 00000000   4368 
_SEQ_PAR_475                              IMPT 00000000   4369 
_SEQ_PAR_476                              IMPT 00000000   4370 
_SEQ_PAR_477                              IMPT 00000000   4371 
_SEQ_PAR_478                              IMPT 00000000   4372 
_SEQ_PAR_479                              IMPT 00000000   4373 
_SEQ_PAR_480                              IMPT 00000000   4374 
_SEQ_PAR_481                              IMPT 00000000   4375 
_SEQ_PAR_482                              IMPT 00000000   4376 
_SEQ_PAR_483                              IMPT 00000000   4377 
_SEQ_PAR_484                              IMPT 00000000   4378 
_SEQ_PAR_485                              IMPT 00000000   4379 
_SEQ_PAR_486                              IMPT 00000000   4380 
_SEQ_PAR_487                              IMPT 00000000   4381 
_SEQ_PAR_488                              IMPT 00000000   4382 
_SEQ_PAR_489                              IMPT 00000000   4383 
_SEQ_PAR_490                              IMPT 00000000   4384 
_SEQ_PAR_491                              IMPT 00000000   4385 
_SEQ_PAR_492                              IMPT 00000000   4386 
_SEQ_PAR_493                              IMPT 00000000   4387 
_SEQ_PAR_494                              IMPT 00000000   4388 
_SEQ_PAR_495                              IMPT 00000000   4389 
_SEQ_PAR_496                              IMPT 00000000   4390 
_SEQ_PAR_497                              IMPT 00000000   4391 
_SEQ_PAR_498                              IMPT 00000000   4392 
_SEQ_PAR_499                              IMPT 00000000   4393 
_SEQ_PAR_500                              IMPT 00000000   4394 
_SEQ_PAR_501                              IMPT 00000000   4395 
_SEQ_PAR_502                              IMPT 00000000   4396 
_SEQ_PAR_503                              IMPT 00000000   4397 
_SEQ_PAR_504                              IMPT 00000000   4398 
*** SuperH RISC engine ASSEMBLER V.7.01.02.000 ***    07/04/21 19:29:24                                                  PAGE   178

*** CROSS REFERENCE LIST

NAME                             SECTION  ATTR VALUE             SEQUENCE

_SEQ_PAR_505                              IMPT 00000000   4399 
_SEQ_PAR_506                              IMPT 00000000   4400 
_SEQ_PAR_507                              IMPT 00000000   4401 
_SEQ_PAR_508                              IMPT 00000000   4402 
_SEQ_PAR_509                              IMPT 00000000   4403 
_SEQ_PAR_510                              IMPT 00000000   4404 
_SEQ_PAR_511                              IMPT 00000000   4405 
_SEQ_PAR_512                              IMPT 00000000   4406 
_SEQ_PAR_513                              IMPT 00000000   4407 
_SEQ_PAR_514                              IMPT 00000000   4408 
_SEQ_PAR_515                              IMPT 00000000   4409 
_SEQ_PAR_516                              IMPT 00000000   4410 
_SEQ_PAR_517                              IMPT 00000000   4411 
_SEQ_PAR_518                              IMPT 00000000   4412 
_SEQ_PAR_519                              IMPT 00000000   4413 
_SEQ_PAR_520                              IMPT 00000000   4414 
_SEQ_PAR_521                              IMPT 00000000   4415 
_SEQ_PAR_522                              IMPT 00000000   4416 
_SEQ_PAR_523                              IMPT 00000000   4417 
_SEQ_PAR_524                              IMPT 00000000   4418 
_SEQ_PAR_525                              IMPT 00000000   4419 
_SEQ_PAR_526                              IMPT 00000000   4420 
_SEQ_PAR_527                              IMPT 00000000   4421 
_SEQ_PAR_528                              IMPT 00000000   4422 
_SEQ_PAR_529                              IMPT 00000000   4423 
_SEQ_PAR_530                              IMPT 00000000   4424 
_SEQ_PAR_531                              IMPT 00000000   4425 
_SEQ_PAR_532                              IMPT 00000000   4426 
_SEQ_PAR_533                              IMPT 00000000   4427 
_SEQ_PAR_534                              IMPT 00000000   4428 
_SEQ_PAR_535                              IMPT 00000000   4429 
_SEQ_PAR_536                              IMPT 00000000   4430 
_SEQ_PAR_537                              IMPT 00000000   4431 
_SEQ_PAR_538                              IMPT 00000000   4432 
_SEQ_PAR_539                              IMPT 00000000   4433 
_SEQ_PAR_540                              IMPT 00000000   4434 
_SEQ_PAR_541                              IMPT 00000000   4435 
_SEQ_PAR_542                              IMPT 00000000   4436 
_SEQ_PAR_543                              IMPT 00000000   4437 
_SEQ_PAR_544                              IMPT 00000000   4438 
_SEQ_PAR_545                              IMPT 00000000   4439 
_SEQ_PAR_546                              IMPT 00000000   4440 
_SEQ_PAR_547                              IMPT 00000000   4441 
_SEQ_PAR_548                              IMPT 00000000   4442 
_SEQ_PAR_549                              IMPT 00000000   4443 
_SEQ_PAR_550                              IMPT 00000000   4444 
_SEQ_PAR_551                              IMPT 00000000   4445 
_SEQ_PAR_552                              IMPT 00000000   4446 
_SEQ_PAR_553                              IMPT 00000000   4447 
_SEQ_PAR_554                              IMPT 00000000   4448 
_SEQ_PAR_555                              IMPT 00000000   4449 
_SEQ_PAR_556                              IMPT 00000000   4450 
_SEQ_PAR_557                              IMPT 00000000   4451 
_SEQ_PAR_558                              IMPT 00000000   4452 
*** SuperH RISC engine ASSEMBLER V.7.01.02.000 ***    07/04/21 19:29:24                                                  PAGE   179

*** CROSS REFERENCE LIST

NAME                             SECTION  ATTR VALUE             SEQUENCE

_SEQ_PAR_559                              IMPT 00000000   4453 
_SEQ_PAR_560                              IMPT 00000000   4454 
_SEQ_PAR_561                              IMPT 00000000   4455 
_SEQ_PAR_562                              IMPT 00000000   4456 
_SEQ_PAR_563                              IMPT 00000000   4457 
_SEQ_PAR_564                              IMPT 00000000   4458 
_SEQ_PAR_565                              IMPT 00000000   4459 
_SEQ_PAR_566                              IMPT 00000000   4460 
_SEQ_PAR_567                              IMPT 00000000   4461 
_SEQ_PAR_568                              IMPT 00000000   4462 
_SEQ_PAR_569                              IMPT 00000000   4463 
_SEQ_PAR_570                              IMPT 00000000   4464 
_SEQ_PAR_571                              IMPT 00000000   4465 
_SEQ_PAR_572                              IMPT 00000000   4466 
_SEQ_PAR_573                              IMPT 00000000   4467 
_SEQ_PAR_574                              IMPT 00000000   4468 
_SEQ_PAR_575                              IMPT 00000000   4469 
_SEQ_PAR_576                              IMPT 00000000   4470 
_SEQ_PAR_577                              IMPT 00000000   4471 
_SEQ_PAR_578                              IMPT 00000000   4472 
_SEQ_PAR_579                              IMPT 00000000   4473 
_SEQ_PAR_580                              IMPT 00000000   4474 
_SEQ_PAR_581                              IMPT 00000000   4475 
_SEQ_PAR_582                              IMPT 00000000   4476 
_SEQ_PAR_583                              IMPT 00000000   4477 
_SEQ_PAR_584                              IMPT 00000000   4478 
_SEQ_PAR_585                              IMPT 00000000   4479 
_SEQ_PAR_586                              IMPT 00000000   4480 
_SEQ_PAR_587                              IMPT 00000000   4481 
_SEQ_PAR_588                              IMPT 00000000   4482 
_SEQ_PAR_589                              IMPT 00000000   4483 
_SEQ_PAR_590                              IMPT 00000000   4484 
_SEQ_PAR_591                              IMPT 00000000   4485 
_SEQ_PAR_592                              IMPT 00000000   4486 
_SEQ_PAR_593                              IMPT 00000000   4487 
_SEQ_PAR_594                              IMPT 00000000   4488 
_SEQ_PAR_595                              IMPT 00000000   4489 
_SEQ_PAR_596                              IMPT 00000000   4490 
_SEQ_PAR_597                              IMPT 00000000   4491 
_SEQ_PAR_598                              IMPT 00000000   4492 
_SEQ_PAR_599                              IMPT 00000000   4493 
_SEQ_PAR_600                              IMPT 00000000   4494 
_SEQ_PAR_601                              IMPT 00000000   4495 
_SEQ_PAR_602                              IMPT 00000000   4496 
_SEQ_PAR_603                              IMPT 00000000   4497 
_SEQ_PAR_604                              IMPT 00000000   4498 
_SEQ_PAR_605                              IMPT 00000000   4499 
_SEQ_PAR_606                              IMPT 00000000   4500 
_SEQ_PAR_607                              IMPT 00000000   4501 
_SEQ_PAR_608                              IMPT 00000000   4502 
_SEQ_PAR_609                              IMPT 00000000   4503 
_SEQ_PAR_610                              IMPT 00000000   4504 
_SEQ_PAR_611                              IMPT 00000000   4505 
_SEQ_PAR_612                              IMPT 00000000   4506 
*** SuperH RISC engine ASSEMBLER V.7.01.02.000 ***    07/04/21 19:29:24                                                  PAGE   180

*** CROSS REFERENCE LIST

NAME                             SECTION  ATTR VALUE             SEQUENCE

_SEQ_PAR_613                              IMPT 00000000   4507 
_SEQ_PAR_614                              IMPT 00000000   4508 
_SEQ_PAR_615                              IMPT 00000000   4509 
_SEQ_PAR_616                              IMPT 00000000   4510 
_SEQ_PAR_617                              IMPT 00000000   4511 
_SEQ_PAR_618                              IMPT 00000000   4512 
_SEQ_PAR_619                              IMPT 00000000   4513 
_SEQ_PAR_620                              IMPT 00000000   4514 
_SEQ_PAR_621                              IMPT 00000000   4515 
_SEQ_PAR_622                              IMPT 00000000   4516 
_SEQ_PAR_623                              IMPT 00000000   4517 
_SEQ_PAR_624                              IMPT 00000000   4518 
_SEQ_PAR_625                              IMPT 00000000   4519 
_SEQ_PAR_626                              IMPT 00000000   4520 
_SEQ_PAR_627                              IMPT 00000000   4521 
_SEQ_PAR_628                              IMPT 00000000   4522 
_SEQ_PAR_629                              IMPT 00000000   4523 
_SEQ_PAR_630                              IMPT 00000000   4524 
_SEQ_PAR_631                              IMPT 00000000   4525 
_SEQ_PAR_632                              IMPT 00000000   4526 
_SEQ_PAR_633                              IMPT 00000000   4527 
_SEQ_PAR_634                              IMPT 00000000   4528 
_SEQ_PAR_635                              IMPT 00000000   4529 
_SEQ_PAR_636                              IMPT 00000000   4530 
_SEQ_PAR_637                              IMPT 00000000   4531 
_SEQ_PAR_638                              IMPT 00000000   4532 
_SEQ_PAR_639                              IMPT 00000000   4533 
_SEQ_PAR_640                              IMPT 00000000   4534 
_SEQ_PAR_641                              IMPT 00000000   4535 
_SEQ_PAR_642                              IMPT 00000000   4536 
_SEQ_PAR_643                              IMPT 00000000   4537 
_SEQ_PAR_644                              IMPT 00000000   4538 
_SEQ_PAR_645                              IMPT 00000000   4539 
_SEQ_PAR_646                              IMPT 00000000   4540 
_SEQ_PAR_647                              IMPT 00000000   4541 
_SEQ_PAR_648                              IMPT 00000000   4542 
_SEQ_PAR_649                              IMPT 00000000   4543 
_SEQ_PAR_650                              IMPT 00000000   4544 
_SEQ_PAR_651                              IMPT 00000000   4545 
_SEQ_PAR_652                              IMPT 00000000   4546 
_SEQ_PAR_653                              IMPT 00000000   4547 
_SEQ_PAR_654                              IMPT 00000000   4548 
_SEQ_PAR_655                              IMPT 00000000   4549 
_SEQ_PAR_656                              IMPT 00000000   4550 
_SEQ_PAR_657                              IMPT 00000000   4551 
_SEQ_PAR_658                              IMPT 00000000   4552 
_SEQ_PAR_659                              IMPT 00000000   4553 
_SEQ_PAR_660                              IMPT 00000000   4554 
_SEQ_PAR_661                              IMPT 00000000   4555 
_SEQ_PAR_662                              IMPT 00000000   4556 
_SEQ_PAR_663                              IMPT 00000000   4557 
_SEQ_PAR_664                              IMPT 00000000   4558 
_SEQ_PAR_665                              IMPT 00000000   4559 
_SEQ_PAR_666                              IMPT 00000000   4560 
*** SuperH RISC engine ASSEMBLER V.7.01.02.000 ***    07/04/21 19:29:24                                                  PAGE   181

*** CROSS REFERENCE LIST

NAME                             SECTION  ATTR VALUE             SEQUENCE

_SEQ_PAR_667                              IMPT 00000000   4561 
_SEQ_PAR_668                              IMPT 00000000   4562 
_SEQ_PAR_669                              IMPT 00000000   4563 
_SEQ_PAR_670                              IMPT 00000000   4564 
_SEQ_PAR_671                              IMPT 00000000   4565 
_SEQ_PAR_672                              IMPT 00000000   4566 
_SEQ_PAR_673                              IMPT 00000000   4567 
_SEQ_PAR_674                              IMPT 00000000   4568 
_SEQ_PAR_675                              IMPT 00000000   4569 
_SEQ_PAR_676                              IMPT 00000000   4570 
_SEQ_PAR_677                              IMPT 00000000   4571 
_SEQ_PAR_678                              IMPT 00000000   4572 
_SEQ_PAR_679                              IMPT 00000000   4573 
_SEQ_PAR_680                              IMPT 00000000   4574 
_SEQ_PAR_681                              IMPT 00000000   4575 
_SEQ_PAR_682                              IMPT 00000000   4576 
_SEQ_PAR_683                              IMPT 00000000   4577 
_SEQ_PAR_684                              IMPT 00000000   4578 
_SEQ_PAR_685                              IMPT 00000000   4579 
_SEQ_PAR_686                              IMPT 00000000   4580 
_SEQ_PAR_687                              IMPT 00000000   4581 
_SEQ_PAR_688                              IMPT 00000000   4582 
_SEQ_PAR_689                              IMPT 00000000   4583 
_SEQ_PAR_690                              IMPT 00000000   4584 
_SEQ_PAR_691                              IMPT 00000000   4585 
_SEQ_PAR_692                              IMPT 00000000   4586 
_SEQ_PAR_693                              IMPT 00000000   4587 
_SEQ_PAR_694                              IMPT 00000000   4588 
_SEQ_PAR_695                              IMPT 00000000   4589 
_SEQ_PAR_696                              IMPT 00000000   4590 
_SEQ_PAR_697                              IMPT 00000000   4591 
_SEQ_PAR_698                              IMPT 00000000   4592 
_SEQ_PAR_699                              IMPT 00000000   4593 
_SEQ_PAR_700                              IMPT 00000000   4594 
_SEQ_PAR_701                              IMPT 00000000   4595 
_SEQ_PAR_702                              IMPT 00000000   4596 
_SEQ_PAR_703                              IMPT 00000000   4597 
_SEQ_PAR_704                              IMPT 00000000   4598 
_SEQ_PAR_705                              IMPT 00000000   4599 
_SEQ_PAR_706                              IMPT 00000000   4600 
_SEQ_PAR_707                              IMPT 00000000   4601 
_SEQ_PAR_708                              IMPT 00000000   4602 
_SEQ_PAR_709                              IMPT 00000000   4603 
_SEQ_PAR_710                              IMPT 00000000   4604 
_SEQ_PAR_711                              IMPT 00000000   4605 
_SEQ_PAR_712                              IMPT 00000000   4606 
_SEQ_PAR_713                              IMPT 00000000   4607 
_SEQ_PAR_714                              IMPT 00000000   4608 
_SEQ_PAR_715                              IMPT 00000000   4609 
_SEQ_PAR_716                              IMPT 00000000   4610 
_SEQ_PAR_717                              IMPT 00000000   4611 
_SEQ_PAR_718                              IMPT 00000000   4612 
_SEQ_PAR_719                              IMPT 00000000   4613 
_SEQ_PAR_720                              IMPT 00000000   4614 
*** SuperH RISC engine ASSEMBLER V.7.01.02.000 ***    07/04/21 19:29:24                                                  PAGE   182

*** CROSS REFERENCE LIST

NAME                             SECTION  ATTR VALUE             SEQUENCE

_SEQ_PAR_721                              IMPT 00000000   4615 
_SEQ_PAR_722                              IMPT 00000000   4616 
_SEQ_PAR_723                              IMPT 00000000   4617 
_SEQ_PAR_724                              IMPT 00000000   4618 
_SEQ_PAR_725                              IMPT 00000000   4619 
_SEQ_PAR_726                              IMPT 00000000   4620 
_SEQ_PAR_727                              IMPT 00000000   4621 
_SEQ_PAR_728                              IMPT 00000000   4622 
_SEQ_PAR_729                              IMPT 00000000   4623 
_SEQ_PAR_730                              IMPT 00000000   4624 
_SEQ_PAR_731                              IMPT 00000000   4625 
_SEQ_PAR_732                              IMPT 00000000   4626 
_SEQ_PAR_733                              IMPT 00000000   4627 
_SEQ_PAR_734                              IMPT 00000000   4628 
_SEQ_PAR_735                              IMPT 00000000   4629 
_SEQ_PAR_736                              IMPT 00000000   4630 
_SEQ_PAR_737                              IMPT 00000000   4631 
_SEQ_PAR_738                              IMPT 00000000   4632 
_SEQ_PAR_739                              IMPT 00000000   4633 
_SEQ_PAR_740                              IMPT 00000000   4634 
_SEQ_PAR_741                              IMPT 00000000   4635 
_SEQ_PAR_742                              IMPT 00000000   4636 
_SEQ_PAR_743                              IMPT 00000000   4637 
_SEQ_PAR_744                              IMPT 00000000   4638 
_SEQ_PAR_745                              IMPT 00000000   4639 
_SEQ_PAR_746                              IMPT 00000000   4640 
_SEQ_PAR_747                              IMPT 00000000   4641 
_SEQ_PAR_748                              IMPT 00000000   4642 
_SEQ_PAR_749                              IMPT 00000000   4643 
_SEQ_PAR_750                              IMPT 00000000   4644 
_SEQ_PAR_751                              IMPT 00000000   4645 
_SEQ_PAR_752                              IMPT 00000000   4646 
_SEQ_PAR_753                              IMPT 00000000   4647 
_SEQ_PAR_754                              IMPT 00000000   4648 
_SEQ_PAR_755                              IMPT 00000000   4649 
_SEQ_PAR_756                              IMPT 00000000   4650 
_SEQ_PAR_757                              IMPT 00000000   4651 
_SEQ_PAR_758                              IMPT 00000000   4652 
_SEQ_PAR_759                              IMPT 00000000   4653 
_SEQ_PAR_760                              IMPT 00000000   4654 
_SEQ_PAR_761                              IMPT 00000000   4655 
_SEQ_PAR_762                              IMPT 00000000   4656 
_SEQ_PAR_763                              IMPT 00000000   4657 
_SEQ_PAR_764                              IMPT 00000000   4658 
_SEQ_PAR_765                              IMPT 00000000   4659 
_SEQ_PAR_766                              IMPT 00000000   4660 
_SEQ_PAR_767                              IMPT 00000000   4661 
_SEQ_PAR_768                              IMPT 00000000   4662 
_SEQ_PAR_769                              IMPT 00000000   4663 
_SEQ_PAR_770                              IMPT 00000000   4664 
_SEQ_PAR_771                              IMPT 00000000   4665 
_SEQ_PAR_772                              IMPT 00000000   4666 
_SEQ_PAR_773                              IMPT 00000000   4667 
_SEQ_PAR_774                              IMPT 00000000   4668 
*** SuperH RISC engine ASSEMBLER V.7.01.02.000 ***    07/04/21 19:29:24                                                  PAGE   183

*** CROSS REFERENCE LIST

NAME                             SECTION  ATTR VALUE             SEQUENCE

_SEQ_PAR_775                              IMPT 00000000   4669 
_SEQ_PAR_776                              IMPT 00000000   4670 
_SEQ_PAR_777                              IMPT 00000000   4671 
_SEQ_PAR_778                              IMPT 00000000   4672 
_SEQ_PAR_779                              IMPT 00000000   4673 
_SEQ_PAR_780                              IMPT 00000000   4674 
_SEQ_PAR_781                              IMPT 00000000   4675 
_SEQ_PAR_782                              IMPT 00000000   4676 
_SEQ_PAR_783                              IMPT 00000000   4677 
_SEQ_PAR_784                              IMPT 00000000   4678 
_SEQ_PAR_785                              IMPT 00000000   4679 
_SEQ_PAR_786                              IMPT 00000000   4680 
_SEQ_PAR_787                              IMPT 00000000   4681 
_SEQ_PAR_788                              IMPT 00000000   4682 
_SEQ_PAR_789                              IMPT 00000000   4683 
_SEQ_PAR_790                              IMPT 00000000   4684 
_SEQ_PAR_791                              IMPT 00000000   4685 
_SEQ_PAR_792                              IMPT 00000000   4686 
_SEQ_PAR_793                              IMPT 00000000   4687 
_SEQ_PAR_794                              IMPT 00000000   4688 
_SEQ_PAR_795                              IMPT 00000000   4689 
_SEQ_PAR_796                              IMPT 00000000   4690 
_SEQ_PAR_797                              IMPT 00000000   4691 
_SEQ_PAR_798                              IMPT 00000000   4692 
_SEQ_PAR_799                              IMPT 00000000   4693 
_SEQ_PAR_800                              IMPT 00000000   4694 
_SEQ_PAR_801                              IMPT 00000000   4695 
_SEQ_PAR_802                              IMPT 00000000   4696 
_SEQ_PAR_803                              IMPT 00000000   4697 
_SEQ_PAR_804                              IMPT 00000000   4698 
_SEQ_PAR_805                              IMPT 00000000   4699 
_SEQ_PAR_806                              IMPT 00000000   4700 
_SEQ_PAR_807                              IMPT 00000000   4701 
_SEQ_PAR_808                              IMPT 00000000   4702 
_SEQ_PAR_809                              IMPT 00000000   4703 
_SEQ_PAR_810                              IMPT 00000000   4704 
_SEQ_PAR_811                              IMPT 00000000   4705 
_SEQ_PAR_812                              IMPT 00000000   4706 
_SEQ_PAR_813                              IMPT 00000000   4707 
_SEQ_PAR_814                              IMPT 00000000   4708 
_SEQ_PAR_815                              IMPT 00000000   4709 
_SEQ_PAR_816                              IMPT 00000000   4710 
_SEQ_PAR_817                              IMPT 00000000   4711 
_SEQ_PAR_818                              IMPT 00000000   4712 
_SEQ_PAR_819                              IMPT 00000000   4713 
_SEQ_PAR_820                              IMPT 00000000   4714 
_SEQ_PAR_821                              IMPT 00000000   4715 
_SEQ_PAR_822                              IMPT 00000000   4716 
_SEQ_PAR_823                              IMPT 00000000   4717 
_SEQ_PAR_824                              IMPT 00000000   4718 
_SEQ_PAR_825                              IMPT 00000000   4719 
_SEQ_PAR_826                              IMPT 00000000   4720 
_SEQ_PAR_827                              IMPT 00000000   4721 
_SEQ_PAR_828                              IMPT 00000000   4722 
*** SuperH RISC engine ASSEMBLER V.7.01.02.000 ***    07/04/21 19:29:24                                                  PAGE   184

*** CROSS REFERENCE LIST

NAME                             SECTION  ATTR VALUE             SEQUENCE

_SEQ_PAR_829                              IMPT 00000000   4723 
_SEQ_PAR_830                              IMPT 00000000   4724 
_SEQ_PAR_831                              IMPT 00000000   4725 
_SEQ_PAR_832                              IMPT 00000000   4726 
_SEQ_PAR_833                              IMPT 00000000   4727 
_SEQ_PAR_834                              IMPT 00000000   4728 
_SEQ_PAR_835                              IMPT 00000000   4729 
_SEQ_PAR_836                              IMPT 00000000   4730 
_SEQ_PAR_837                              IMPT 00000000   4731 
_SEQ_PAR_838                              IMPT 00000000   4732 
_SEQ_PAR_839                              IMPT 00000000   4733 
_SEQ_PAR_840                              IMPT 00000000   4734 
_SEQ_PAR_841                              IMPT 00000000   4735 
_SEQ_PAR_842                              IMPT 00000000   4736 
_SEQ_PAR_843                              IMPT 00000000   4737 
_SEQ_PAR_844                              IMPT 00000000   4738 
_SEQ_PAR_845                              IMPT 00000000   4739 
_SEQ_PAR_846                              IMPT 00000000   4740 
_SEQ_PAR_847                              IMPT 00000000   4741 
_SEQ_PAR_848                              IMPT 00000000   4742 
_SEQ_PAR_849                              IMPT 00000000   4743 
_SEQ_PAR_850                              IMPT 00000000   4744 
_SEQ_PAR_851                              IMPT 00000000   4745 
_SEQ_PAR_852                              IMPT 00000000   4746 
_SEQ_PAR_853                              IMPT 00000000   4747 
_SEQ_PAR_854                              IMPT 00000000   4748 
_SEQ_PAR_855                              IMPT 00000000   4749 
_SEQ_PAR_856                              IMPT 00000000   4750 
_SEQ_PAR_857                              IMPT 00000000   4751 
_SEQ_PAR_858                              IMPT 00000000   4752 
_SEQ_PAR_859                              IMPT 00000000   4753 
_SEQ_PAR_860                              IMPT 00000000   4754 
_SEQ_PAR_861                              IMPT 00000000   4755 
_SEQ_PAR_862                              IMPT 00000000   4756 
_SEQ_PAR_863                              IMPT 00000000   4757 
_SEQ_PAR_864                              IMPT 00000000   4758 
_SEQ_PAR_865                              IMPT 00000000   4759 
_SEQ_PAR_866                              IMPT 00000000   4760 
_SEQ_PAR_867                              IMPT 00000000   4761 
_SEQ_PAR_868                              IMPT 00000000   4762 
_SEQ_PAR_869                              IMPT 00000000   4763 
_SEQ_PAR_870                              IMPT 00000000   4764 
_SEQ_PAR_871                              IMPT 00000000   4765 
_SEQ_PAR_872                              IMPT 00000000   4766 
_SEQ_PAR_873                              IMPT 00000000   4767 
_SEQ_PAR_874                              IMPT 00000000   4768 
_SEQ_PAR_875                              IMPT 00000000   4769 
_SEQ_PAR_876                              IMPT 00000000   4770 
_SEQ_PAR_877                              IMPT 00000000   4771 
_SEQ_PAR_878                              IMPT 00000000   4772 
_SEQ_PAR_879                              IMPT 00000000   4773 
_SEQ_PAR_880                              IMPT 00000000   4774 
_SEQ_PAR_881                              IMPT 00000000   4775 
_SEQ_PAR_882                              IMPT 00000000   4776 
*** SuperH RISC engine ASSEMBLER V.7.01.02.000 ***    07/04/21 19:29:24                                                  PAGE   185

*** CROSS REFERENCE LIST

NAME                             SECTION  ATTR VALUE             SEQUENCE

_SEQ_PAR_883                              IMPT 00000000   4777 
_SEQ_PAR_884                              IMPT 00000000   4778 
_SEQ_PAR_885                              IMPT 00000000   4779 
_SEQ_PAR_886                              IMPT 00000000   4780 
_SEQ_PAR_887                              IMPT 00000000   4781 
_SEQ_PAR_888                              IMPT 00000000   4782 
_SEQ_PAR_889                              IMPT 00000000   4783 
_SEQ_PAR_890                              IMPT 00000000   4784 
_SEQ_PAR_891                              IMPT 00000000   4785 
_SEQ_PAR_892                              IMPT 00000000   4786 
_SEQ_PAR_893                              IMPT 00000000   4787 
_SEQ_PAR_894                              IMPT 00000000   4788 
_SEQ_PAR_895                              IMPT 00000000   4789 
_SEQ_PAR_896                              IMPT 00000000   4790 
_SEQ_PAR_897                              IMPT 00000000   4791 
_SEQ_PAR_898                              IMPT 00000000   4792 
_SEQ_PAR_899                              IMPT 00000000   4793 
_SEQ_PAR_900                              IMPT 00000000   4794 
_SEQ_PAR_901                              IMPT 00000000   4795 
_SEQ_PAR_902                              IMPT 00000000   4796 
_SEQ_PAR_903                              IMPT 00000000   4797 
_SEQ_PAR_904                              IMPT 00000000   4798 
_SEQ_PAR_905                              IMPT 00000000   4799 
_SEQ_PAR_906                              IMPT 00000000   4800 
_SEQ_PAR_907                              IMPT 00000000   4801 
_SEQ_PAR_908                              IMPT 00000000   4802 
_SEQ_PAR_909                              IMPT 00000000   4803 
_SEQ_PAR_910                              IMPT 00000000   4804 
_SEQ_PAR_911                              IMPT 00000000   4805 
_SEQ_PAR_912                              IMPT 00000000   4806 
_SEQ_PAR_913                              IMPT 00000000   4807 
_SEQ_PAR_914                              IMPT 00000000   4808 
_SEQ_PAR_915                              IMPT 00000000   4809 
_SEQ_PAR_916                              IMPT 00000000   4810 
_SEQ_PAR_917                              IMPT 00000000   4811 
_SEQ_PAR_918                              IMPT 00000000   4812 
_SEQ_PAR_919                              IMPT 00000000   4813 
_SEQ_PAR_920                              IMPT 00000000   4814 
_SEQ_PAR_921                              IMPT 00000000   4815 
_SEQ_PAR_922                              IMPT 00000000   4816 
_SEQ_PAR_923                              IMPT 00000000   4817 
_SEQ_PAR_924                              IMPT 00000000   4818 
_SEQ_PAR_925                              IMPT 00000000   4819 
_SEQ_PAR_926                              IMPT 00000000   4820 
_SEQ_PAR_927                              IMPT 00000000   4821 
_SEQ_PAR_928                              IMPT 00000000   4822 
_SEQ_PAR_929                              IMPT 00000000   4823 
_SEQ_PAR_930                              IMPT 00000000   4824 
_SEQ_PAR_931                              IMPT 00000000   4825 
_SEQ_PAR_932                              IMPT 00000000   4826 
_SEQ_PAR_933                              IMPT 00000000   4827 
_SEQ_PAR_934                              IMPT 00000000   4828 
_SEQ_PAR_935                              IMPT 00000000   4829 
_SEQ_PAR_936                              IMPT 00000000   4830 
*** SuperH RISC engine ASSEMBLER V.7.01.02.000 ***    07/04/21 19:29:24                                                  PAGE   186

*** CROSS REFERENCE LIST

NAME                             SECTION  ATTR VALUE             SEQUENCE

_SEQ_PAR_937                              IMPT 00000000   4831 
_SEQ_PAR_938                              IMPT 00000000   4832 
_SEQ_PAR_939                              IMPT 00000000   4833 
_SEQ_PAR_940                              IMPT 00000000   4834 
_SEQ_PAR_941                              IMPT 00000000   4835 
_SEQ_PAR_942                              IMPT 00000000   4836 
_SEQ_PAR_943                              IMPT 00000000   4837 
_SEQ_PAR_944                              IMPT 00000000   4838 
_SEQ_PAR_945                              IMPT 00000000   4839 
_SEQ_PAR_946                              IMPT 00000000   4840 
_SEQ_PAR_947                              IMPT 00000000   4841 
_SEQ_PAR_948                              IMPT 00000000   4842 
_SEQ_PAR_949                              IMPT 00000000   4843 
_SEQ_PAR_950                              IMPT 00000000   4844 
_SEQ_PAR_951                              IMPT 00000000   4845 
_SEQ_PAR_952                              IMPT 00000000   4846 
_SEQ_PAR_953                              IMPT 00000000   4847 
_SEQ_PAR_954                              IMPT 00000000   4848 
_SEQ_PAR_955                              IMPT 00000000   4849 
_SEQ_PAR_956                              IMPT 00000000   4850 
_SEQ_PAR_957                              IMPT 00000000   4851 
_SEQ_PAR_958                              IMPT 00000000   4852 
_SEQ_PAR_959                              IMPT 00000000   4853 
_SEQ_PAR_960                              IMPT 00000000   4854 
_SEQ_PAR_961                              IMPT 00000000   4855 
_SEQ_PAR_962                              IMPT 00000000   4856 
_SEQ_PAR_963                              IMPT 00000000   4857 
_SEQ_PAR_964                              IMPT 00000000   4858 
_SEQ_PAR_965                              IMPT 00000000   4859 
_SEQ_PAR_966                              IMPT 00000000   4860 
_SEQ_PAR_967                              IMPT 00000000   4861 
_SEQ_PAR_968                              IMPT 00000000   4862 
_SEQ_PAR_969                              IMPT 00000000   4863 
_SEQ_PAR_970                              IMPT 00000000   4864 
_SEQ_PAR_971                              IMPT 00000000   4865 
_SEQ_PAR_972                              IMPT 00000000   4866 
_SEQ_PAR_973                              IMPT 00000000   4867 
_SEQ_PAR_974                              IMPT 00000000   4868 
_SEQ_PAR_975                              IMPT 00000000   4869 
_SEQ_PAR_976                              IMPT 00000000   4870 
_SEQ_PAR_977                              IMPT 00000000   4871 
_SEQ_PAR_978                              IMPT 00000000   4872 
_SEQ_PAR_979                              IMPT 00000000   4873 
_SEQ_PAR_980                              IMPT 00000000   4874 
_SEQ_PAR_981                              IMPT 00000000   4875 
_SEQ_PAR_982                              IMPT 00000000   4876 
_SEQ_PAR_983                              IMPT 00000000   4877 
_SEQ_PAR_984                              IMPT 00000000   4878 
_SEQ_PAR_985                              IMPT 00000000   4879 
_SEQ_PAR_986                              IMPT 00000000   4880 
_SEQ_PAR_987                              IMPT 00000000   4881 
_SEQ_PAR_988                              IMPT 00000000   4882 
_SEQ_PAR_989                              IMPT 00000000   4883 
_SEQ_PAR_990                              IMPT 00000000   4884 
*** SuperH RISC engine ASSEMBLER V.7.01.02.000 ***    07/04/21 19:29:24                                                  PAGE   187

*** CROSS REFERENCE LIST

NAME                             SECTION  ATTR VALUE             SEQUENCE

_SEQ_PAR_991                              IMPT 00000000   4885 
_SEQ_PAR_992                              IMPT 00000000   4886 
_SEQ_PAR_993                              IMPT 00000000   4887 
_SEQ_PAR_994                              IMPT 00000000   4888 
_SEQ_PAR_995                              IMPT 00000000   4889 
_SEQ_PAR_996                              IMPT 00000000   4890 
_SEQ_PAR_997                              IMPT 00000000   4891 
_SEQ_PAR_998                              IMPT 00000000   4892 
_SEQ_PAR_999                              IMPT 00000000   4893 
_SEQ_PRO_SIZE                             EQU  00010000   2321* 9581 11369 
_SEQ_PRO_SIZE2                            EQU  00030000   2322* 9588 10104 
_SETUZOKU_IDH                             EQU  00000006   2226* 7828 
_SETUZOKU_IDL                             EQU  00000005   2225* 7821 
_SETUZOKU_PRO                             EQU  00000004   2224*
_SFTSW_ERR_TM                             IMPT 00000000   5145 
_SH2_1STS                                 EQU  00000019   2410* 2411 
_SH2_AD_DATA                              IMPT 00000000   2509 
_SH2_DBG_KAGEN                            IMPT 00000000   2511 
_SH2_MAIN_CLK                             IMPT 00000000   2510 
_SH2_PDOWN_FLG                            IMPT 00000000   2508 
_SH2_SCAN_AVLMAX                          IMPT 00000000   2522 
_SH2_SCAN_AVLPV                           IMPT 00000000   2523 
_SH2_SCAN_REALMAX                         IMPT 00000000   2521 
_SH4_PDOWN_FLG                            IMPT 00000000   2535 
_SH4_SQERRAM                              IMPT 00000000   5138 
_SICDAR                                   IMPT 00000000    603 
_SICTR                                    IMPT 00000000    604 
_SIFCTR                                   IMPT 00000000    605 
_SIFPR                                    IMPT 00000000    613 
_SIIER                                    IMPT 00000000    607 
_SIMDR                                    IMPT 00000000    599 
_SIRCR                                    IMPT 00000000    611 
_SIRDAR                                   IMPT 00000000    602 
_SIRDR                                    IMPT 00000000    609 
_SISCR                                    IMPT 00000000    600 
_SISTR                                    IMPT 00000000    606 
_SITCR                                    IMPT 00000000    610 
_SITDAR                                   IMPT 00000000    601 
_SITDR                                    IMPT 00000000    608 
_SITMR                                    IMPT 00000000    612 
_SMP_KATA_SIZE                            EQU  00010000   2345* 9539 10066 
_SMP_KATA_TOP                             EQU  A03F0000   2343* 9537 10065 
_SMR0                                     IMPT 00000000    739 
_SQ_CBWK_TOP                              IMPT 00000000   5311 
_SRAM_SIZE                                EQU  001FFFFF   4976*
_SRAM_TOP                                 EQU  AC000000   4975*
_SRSTR                                    IMPT 00000000    674 
_SSR0                                     IMPT 00000000    743  7987  8149  8213  8257  8419  8453  8486  8639  8796  8866 
_START_ACK_COD                            EQU  00004321    428*
_START_REQ_COD                            EQU  00009876    427*
_STBCR                                    IMPT 00000000    786 
_STBCR2                                   IMPT 00000000    789 
_STBCR3                                   IMPT 00000000    673 
_STR_CODE                                 EQU  00000000   2220*12418 
*** SuperH RISC engine ASSEMBLER V.7.01.02.000 ***    07/04/21 19:29:24                                                  PAGE   188

*** CROSS REFERENCE LIST

NAME                             SECTION  ATTR VALUE             SEQUENCE

_SUM_CHK                                  IMPT 00000000   5492  6618 
_SVB_ARA1_KAJ_T2                          IMPT 00000000   2607 
_SVB_BAKORG_PLS1                          IMPT 00000000   2598 
_SVB_BAKORG_PLS2                          IMPT 00000000   2599 
_SVB_DYHITO_POS                           IMPT 00000000   2595 
_SVB_RENIA_BUP1                           IMPT 00000000   2601 
_SVB_RENIA_BUP2                           IMPT 00000000   2602 
_SVB_RENIA_BUP3                           IMPT 00000000   2603 
_SVB_RENIA_BUP4                           IMPT 00000000   2604 
_SVB_RNAORG_PLS1                          IMPT 00000000   2593 
_SVB_SLIDE_POS                            IMPT 00000000   2596 
_SVP_ACCLAT_TIM1                          IMPT 00000000   2645 
_SVP_ACCLAT_TIMP                          IMPT 00000000   3068 
_SVP_AMP100P_VLT                          IMPT 00000000   2692 
_SVP_AMPERR_TIM1                          IMPT 00000000   2666 
_SVP_AMPERR_TIM2                          IMPT 00000000   2668 
_SVP_AMPERR_TIM3                          IMPT 00000000   2670 
_SVP_AMPERR_VLT1                          IMPT 00000000   2665 
_SVP_AMPERR_VLT2                          IMPT 00000000   2667 
_SVP_AMPERR_VLT3                          IMPT 00000000   2669 
_SVP_ARACHK_LNG1                          IMPT 00000000   2651 
_SVP_ATCOL_CYC                            IMPT 00000000   2745 
_SVP_ATCOL_SPAG                           IMPT 00000000   2749 
_SVP_ATCOL_SPNO                           IMPT 00000000   2748 
_SVP_ATCOL_STAG                           IMPT 00000000   2747 
_SVP_ATCOL_STNO                           IMPT 00000000   2746 
_SVP_ATSLID_BAKLNG                        IMPT 00000000   2928 
_SVP_ATSLID_COEF1                         IMPT 00000000   2929 
_SVP_ATSLID_DNOBJ1                        IMPT 00000000   2926 
_SVP_ATSLID_OBJ1                          IMPT 00000000   2925 
_SVP_ATSLID_UPOBJ1                        IMPT 00000000   2927 
_SVP_BREAK_DIG                            IMPT 00000000   2675 
_SVP_BREAK_DIG_RAT                        IMPT 00000000   2770 
_SVP_BREAK_TIM1                           IMPT 00000000   2676 
_SVP_BREAK_TIM_RAT                        IMPT 00000000   2771 
_SVP_CAMFUN_SEL00                         IMPT 00000000   2907 
_SVP_CAMFUN_SEL01                         IMPT 00000000   2908 
_SVP_CAMFUN_SEL02                         IMPT 00000000   2909 
_SVP_CAMFUN_SEL03                         IMPT 00000000   2910 
_SVP_CAMFUN_SEL04                         IMPT 00000000   2911 
_SVP_CAMFUN_SEL05                         IMPT 00000000   2912 
_SVP_CAMFUN_SEL06                         IMPT 00000000   2913 
_SVP_CAMFUN_SEL07                         IMPT 00000000   2914 
_SVP_CAMFUN_SEL08                         IMPT 00000000   2915 
_SVP_CAMFUN_SEL09                         IMPT 00000000   2916 
_SVP_CAMFUN_SEL0A                         IMPT 00000000   2917 
_SVP_CAMFUN_SEL0B                         IMPT 00000000   2918 
_SVP_CAMFUN_SEL0C                         IMPT 00000000   2919 
_SVP_CAMFUN_SEL0D                         IMPT 00000000   2920 
_SVP_CAMFUN_SEL0E                         IMPT 00000000   2921 
_SVP_CAMFUN_SEL0F                         IMPT 00000000   2922 
_SVP_CAMFUN_SEL_TOP                       IMPT 00000000   2906 
_SVP_CNT_CNT                              IMPT 00000000   2674 
_SVP_CNT_TIM                              IMPT 00000000   2673 
*** SuperH RISC engine ASSEMBLER V.7.01.02.000 ***    07/04/21 19:29:24                                                  PAGE   189

*** CROSS REFERENCE LIST

NAME                             SECTION  ATTR VALUE             SEQUENCE

_SVP_DAIHAI_LNG1                          IMPT 00000000   2661 
_SVP_DAIHAI_LNG2                          IMPT 00000000   2662 
_SVP_DAIHAI_LNG3                          IMPT 00000000   2663 
_SVP_DAIHAI_ORG0                          IMPT 00000000   2870 
_SVP_DAIHSA_LENG                          IMPT 00000000   2881 
_SVP_DANSAM_LEN                           IMPT 00000000   3011 
_SVP_DEB_ADR0                             IMPT 00000000   3412 
_SVP_DEB_ADR1                             IMPT 00000000   3413 
_SVP_DEB_ADR2                             IMPT 00000000   3414 
_SVP_DEB_ADR3                             IMPT 00000000   3415 
_SVP_DEB_ADR4                             IMPT 00000000   3416 
_SVP_DEB_SEL0                             IMPT 00000000   3418 
_SVP_DEB_SEL1                             IMPT 00000000   3419 
_SVP_DEB_SEL2                             IMPT 00000000   3420 
_SVP_DEB_SEL3                             IMPT 00000000   3421 
_SVP_DEB_SEL4                             IMPT 00000000   3422 
_SVP_DNAREA_INP0                          IMPT 00000000   2879 
_SVP_DNAREA_INP1                          IMPT 00000000   2648 
_SVP_DNAREA_JUDG                          IMPT 00000000   2629 
_SVP_DNDATA_A21                           IMPT 00000000   3663 
_SVP_DNDINC_SPD1                          IMPT 00000000   2633 
_SVP_DND_STOPDIG1                         IMPT 00000000   2953 
_SVP_DNSTOP_A21                           IMPT 00000000   3666 
_SVP_ECOM_BASE                            IMPT 00000000   3065 
_SVP_ECOM_SCAL                            IMPT 00000000   3066 
_SVP_EJECAM_OFR                           IMPT 00000000   3781 
_SVP_EJECAM_ONR                           IMPT 00000000   3780 
_SVP_EP_ADJSIN                            IMPT 00000000   3063 
_SVP_EP_ADJVAL                            IMPT 00000000   3064 
_SVP_EP_K1                                IMPT 00000000   3061 
_SVP_EP_K2                                IMPT 00000000   3062 
_SVP_EP_LTM                               IMPT 00000000   3060 
_SVP_EP_TRQ                               IMPT 00000000   3059 
_SVP_EP_VMX                               IMPT 00000000   3058 
_SVP_EP_VOF                               IMPT 00000000   3057 
_SVP_FCLS_STR_DEG                         IMPT 00000000   3039 
_SVP_FCLS_STR_HENS                        IMPT 00000000   3040 
_SVP_FCLS_ZIKI_SPD1                       IMPT 00000000   3041 
_SVP_FCLS_ZIKI_SPD2                       IMPT 00000000   3042 
_SVP_GENITI_A21                           IMPT 00000000   3664 
_SVP_GMNSEQ_CNT01                         IMPT 00000000   2888 
_SVP_GMNSEQ_CNT02                         IMPT 00000000   2889 
_SVP_GMNSEQ_CNT03                         IMPT 00000000   2890 
_SVP_GMNSEQ_CNT04                         IMPT 00000000   2891 
_SVP_GMNSEQ_CNT05                         IMPT 00000000   2892 
_SVP_GMNSEQ_CNT06                         IMPT 00000000   2893 
_SVP_GMNSEQ_CNT07                         IMPT 00000000   2894 
_SVP_GMNSEQ_CNT08                         IMPT 00000000   2895 
_SVP_GMNSEQ_TIM01                         IMPT 00000000   2897 
_SVP_GMNSEQ_TIM02                         IMPT 00000000   2898 
_SVP_GMNSEQ_TIM03                         IMPT 00000000   2899 
_SVP_GMNSEQ_TIM04                         IMPT 00000000   2900 
_SVP_GMNSEQ_TIM05                         IMPT 00000000   2901 
_SVP_GMNSEQ_TIM06                         IMPT 00000000   2902 
*** SuperH RISC engine ASSEMBLER V.7.01.02.000 ***    07/04/21 19:29:24                                                  PAGE   190

*** CROSS REFERENCE LIST

NAME                             SECTION  ATTR VALUE             SEQUENCE

_SVP_GMNSEQ_TIM07                         IMPT 00000000   2903 
_SVP_GMNSEQ_TIM08                         IMPT 00000000   2904 
_SVP_HOSEI_SPD                            IMPT 00000000   3009 
_SVP_HOSRAG_PLS1                          IMPT 00000000   3007 
_SVP_HOSRAG_PLS2                          IMPT 00000000   3008 
_SVP_INCDIR_SEL1                          IMPT 00000000   2618 
_SVP_INCENC_ELNG                          IMPT 00000000   2655 
_SVP_INCHEN_ELNG                          IMPT 00000000   2654 
_SVP_INCPLS_1REV                          IMPT 00000000   2619 
_SVP_INCPLS_HOSM                          IMPT 00000000   2621 
_SVP_INCPLS_HOSN                          IMPT 00000000   2620 
_SVP_INCPOS_KP01                          IMPT 00000000   2643 
_SVP_INCREV_ELNG                          IMPT 00000000   2659 
_SVP_INCRNA_ELNG                          IMPT 00000000   2656 
_SVP_INCSTP_ELNG                          IMPT 00000000   2657 
_SVP_INPPOS_TIM1                          IMPT 00000000   2650 
_SVP_INTLIM_AGL                           IMPT 00000000   3700 
_SVP_INTLIM_POS                           IMPT 00000000   3701 
_SVP_INTLIM_SNO                           IMPT 00000000   3699 
_SVP_KAJAREA_EAG                          IMPT 00000000   3653 
_SVP_KAJAREA_ENO                          IMPT 00000000   3652 
_SVP_KAJAREA_SAG                          IMPT 00000000   3651 
_SVP_KAJAREA_SEL                          IMPT 00000000   3654 
_SVP_KAJAREA_SNO                          IMPT 00000000   3650 
_SVP_KAJOBJ_HAB                           IMPT 00000000   3696 
_SVP_KAJYUU_OBJP                          IMPT 00000000   2941 
_SVP_KAJYUU_PRS1                          IMPT 00000000   2940 
_SVP_KAJYUU_PV1                           IMPT 00000000   2942 
_SVP_KANDO_A21                            IMPT 00000000   3661 
_SVP_KATTCH_EAG                           IMPT 00000000   3658 
_SVP_KATTCH_SAG                           IMPT 00000000   3657 
_SVP_KATTCH_SPD                           IMPT 00000000   2551 
_SVP_KJEND_DIG1                           IMPT 00000000   2959 
_SVP_KJEND_STEP1                          IMPT 00000000   2958 
_SVP_KJSTR_DIG1                           IMPT 00000000   2957 
_SVP_KJSTR_STEP1                          IMPT 00000000   2956 
_SVP_LSAABN_AGL1                          IMPT 00000000   2695 
_SVP_LSAABN_AGL2                          IMPT 00000000   2696 
_SVP_MACINE_SEL1                          IMPT 00000000   2688 
_SVP_MANSAMER_PLS                         IMPT 00000000   3014 
_SVP_MANSAM_LEN                           IMPT 00000000   3010 
_SVP_MAX_KJYU                             IMPT 00000000   2772 
_SVP_MISCAM_OFR                           IMPT 00000000   3783 
_SVP_MISCAM_ONR                           IMPT 00000000   3782 
_SVP_MOADR0_SQH                           IMPT 00000000   2707 
_SVP_MOADR0_SQL                           IMPT 00000000   2708 
_SVP_MOADR1_SQH                           IMPT 00000000   2709 
_SVP_MOADR1_SQL                           IMPT 00000000   2710 
_SVP_MOADR2_SQH                           IMPT 00000000   2711 
_SVP_MOADR2_SQL                           IMPT 00000000   2712 
_SVP_MOADR3_SQH                           IMPT 00000000   2713 
_SVP_MOADR3_SQL                           IMPT 00000000   2714 
_SVP_MOADR4_SQH                           IMPT 00000000   2715 
_SVP_MOADR4_SQL                           IMPT 00000000   2716 
*** SuperH RISC engine ASSEMBLER V.7.01.02.000 ***    07/04/21 19:29:24                                                  PAGE   191

*** CROSS REFERENCE LIST

NAME                             SECTION  ATTR VALUE             SEQUENCE

_SVP_MOADR5_SQH                           IMPT 00000000   2717 
_SVP_MOADR5_SQL                           IMPT 00000000   2718 
_SVP_MOADR6_SQH                           IMPT 00000000   2719 
_SVP_MOADR6_SQL                           IMPT 00000000   2720 
_SVP_MOADR7_SQH                           IMPT 00000000   2721 
_SVP_MOADR7_SQL                           IMPT 00000000   2722 
_SVP_MOADR8_SQH                           IMPT 00000000   2723 
_SVP_MOADR8_SQL                           IMPT 00000000   2724 
_SVP_MOADR9_SQH                           IMPT 00000000   2725 
_SVP_MOADR9_SQL                           IMPT 00000000   2726 
_SVP_MOADRA_SQH                           IMPT 00000000   2727 
_SVP_MOADRA_SQL                           IMPT 00000000   2728 
_SVP_MOADRB_SQH                           IMPT 00000000   2729 
_SVP_MOADRB_SQL                           IMPT 00000000   2730 
_SVP_MOADRC_SQH                           IMPT 00000000   2731 
_SVP_MOADRC_SQL                           IMPT 00000000   2732 
_SVP_MOADRD_SQH                           IMPT 00000000   2733 
_SVP_MOADRD_SQL                           IMPT 00000000   2734 
_SVP_MOADRE_SQH                           IMPT 00000000   2735 
_SVP_MOADRE_SQL                           IMPT 00000000   2736 
_SVP_MOADRF_SQH                           IMPT 00000000   2737 
_SVP_MOADRF_SQL                           IMPT 00000000   2738 
_SVP_MODORI_A21                           IMPT 00000000   3665 
_SVP_MONALM_S01                           IMPT 00000000   2934 
_SVP_MONALM_S02                           IMPT 00000000   2935 
_SVP_MONALM_S03                           IMPT 00000000   2936 
_SVP_MONALM_S04                           IMPT 00000000   2937 
_SVP_MOTMAX_FREQ                          IMPT 00000000   2624 
_SVP_MOTREP_CNT                           IMPT 00000000   3776 
_SVP_MOTREP_SPD                           IMPT 00000000   3775 
_SVP_MOTREP_STGE                          IMPT 00000000   3774 
_SVP_MOTREP_STGS                          IMPT 00000000   3773 
_SVP_MOTRPM_MAXM                          IMPT 00000000   2622 
_SVP_MOTRPM_MAXP                          IMPT 00000000   3067 
_SVP_MOTWT_TIM                            IMPT 00000000   2680 
_SVP_MOT_FIX                              IMPT 00000000   3785 
_SVP_MRTION_SEL1                          IMPT 00000000   2871 
_SVP_MTSTEP_MAXM                          IMPT 00000000   2872 
_SVP_NEG_OFS_LNG                          IMPT 00000000   2691 
_SVP_OBJARA_INP0                          IMPT 00000000   2880 
_SVP_OBJARA_INP1                          IMPT 00000000   2649 
_SVP_OBJECT_DG01                          IMPT 00000000   2802 
_SVP_OBJECT_DG02                          IMPT 00000000   2803 
_SVP_OBJECT_DG03                          IMPT 00000000   2804 
_SVP_OBJECT_DG04                          IMPT 00000000   2805 
_SVP_OBJECT_DG05                          IMPT 00000000   2806 
_SVP_OBJECT_DG06                          IMPT 00000000   2807 
_SVP_OBJECT_DG07                          IMPT 00000000   2808 
_SVP_OBJECT_DG08                          IMPT 00000000   2809 
_SVP_OBJECT_DG09                          IMPT 00000000   2810 
_SVP_OBJECT_DG10                          IMPT 00000000   2811 
_SVP_OBJECT_DG11                          IMPT 00000000   2812 
_SVP_OBJECT_DG12                          IMPT 00000000   2813 
_SVP_OBJECT_DG13                          IMPT 00000000   2814 
*** SuperH RISC engine ASSEMBLER V.7.01.02.000 ***    07/04/21 19:29:24                                                  PAGE   192

*** CROSS REFERENCE LIST

NAME                             SECTION  ATTR VALUE             SEQUENCE

_SVP_OBJECT_DG14                          IMPT 00000000   2815 
_SVP_OBJECT_DG15                          IMPT 00000000   2816 
_SVP_OBJECT_DG16                          IMPT 00000000   2817 
_SVP_OBJECT_DG17                          IMPT 00000000   2818 
_SVP_OBJECT_DG18                          IMPT 00000000   2819 
_SVP_OBJECT_DG19                          IMPT 00000000   2820 
_SVP_OBJECT_DG20                          IMPT 00000000   2821 
_SVP_OBJECT_DIG_TOP                       IMPT 00000000   2801 
_SVP_OBJECT_POS_TOP                       IMPT 00000000   2779 
_SVP_OBJECT_PRS01                         IMPT 00000000   2758 
_SVP_OBJECT_PRS02                         IMPT 00000000   2759 
_SVP_OBJECT_PRS03                         IMPT 00000000   2760 
_SVP_OBJECT_PRS04                         IMPT 00000000   2761 
_SVP_OBJECT_PRS05                         IMPT 00000000   2762 
_SVP_OBJECT_PRS06                         IMPT 00000000   2763 
_SVP_OBJECT_PRS07                         IMPT 00000000   2764 
_SVP_OBJECT_PRS08                         IMPT 00000000   2765 
_SVP_OBJECT_PRS09                         IMPT 00000000   2766 
_SVP_OBJECT_PRS10                         IMPT 00000000   2767 
_SVP_OBJECT_PRS_TOP                       IMPT 00000000   2757 
_SVP_OBJECT_PS01                          IMPT 00000000   2780 
_SVP_OBJECT_PS02                          IMPT 00000000   2781 
_SVP_OBJECT_PS03                          IMPT 00000000   2782 
_SVP_OBJECT_PS04                          IMPT 00000000   2783 
_SVP_OBJECT_PS05                          IMPT 00000000   2784 
_SVP_OBJECT_PS06                          IMPT 00000000   2785 
_SVP_OBJECT_PS07                          IMPT 00000000   2786 
_SVP_OBJECT_PS08                          IMPT 00000000   2787 
_SVP_OBJECT_PS09                          IMPT 00000000   2788 
_SVP_OBJECT_PS10                          IMPT 00000000   2789 
_SVP_OBJECT_PS11                          IMPT 00000000   2790 
_SVP_OBJECT_PS12                          IMPT 00000000   2791 
_SVP_OBJECT_PS13                          IMPT 00000000   2792 
_SVP_OBJECT_PS14                          IMPT 00000000   2793 
_SVP_OBJECT_PS15                          IMPT 00000000   2794 
_SVP_OBJECT_PS16                          IMPT 00000000   2795 
_SVP_OBJECT_PS17                          IMPT 00000000   2796 
_SVP_OBJECT_PS18                          IMPT 00000000   2797 
_SVP_OBJECT_PS19                          IMPT 00000000   2798 
_SVP_OBJECT_PS20                          IMPT 00000000   2799 
_SVP_OBJECT_SP01                          IMPT 00000000   2824 
_SVP_OBJECT_SP02                          IMPT 00000000   2825 
_SVP_OBJECT_SP03                          IMPT 00000000   2826 
_SVP_OBJECT_SP04                          IMPT 00000000   2827 
_SVP_OBJECT_SP05                          IMPT 00000000   2828 
_SVP_OBJECT_SP06                          IMPT 00000000   2829 
_SVP_OBJECT_SP07                          IMPT 00000000   2830 
_SVP_OBJECT_SP08                          IMPT 00000000   2831 
_SVP_OBJECT_SP09                          IMPT 00000000   2832 
_SVP_OBJECT_SP10                          IMPT 00000000   2833 
_SVP_OBJECT_SP11                          IMPT 00000000   2834 
_SVP_OBJECT_SP12                          IMPT 00000000   2835 
_SVP_OBJECT_SP13                          IMPT 00000000   2836 
_SVP_OBJECT_SP14                          IMPT 00000000   2837 
*** SuperH RISC engine ASSEMBLER V.7.01.02.000 ***    07/04/21 19:29:24                                                  PAGE   193

*** CROSS REFERENCE LIST

NAME                             SECTION  ATTR VALUE             SEQUENCE

_SVP_OBJECT_SP15                          IMPT 00000000   2838 
_SVP_OBJECT_SP16                          IMPT 00000000   2839 
_SVP_OBJECT_SP17                          IMPT 00000000   2840 
_SVP_OBJECT_SP18                          IMPT 00000000   2841 
_SVP_OBJECT_SP19                          IMPT 00000000   2842 
_SVP_OBJECT_SP20                          IMPT 00000000   2843 
_SVP_OBJECT_SPD_TOP                       IMPT 00000000   2823 
_SVP_OBJECT_TIM_TOP                       IMPT 00000000   2845 
_SVP_OBJECT_TM01                          IMPT 00000000   2846 
_SVP_OBJECT_TM02                          IMPT 00000000   2847 
_SVP_OBJECT_TM03                          IMPT 00000000   2848 
_SVP_OBJECT_TM04                          IMPT 00000000   2849 
_SVP_OBJECT_TM05                          IMPT 00000000   2850 
_SVP_OBJECT_TM06                          IMPT 00000000   2851 
_SVP_OBJECT_TM07                          IMPT 00000000   2852 
_SVP_OBJECT_TM08                          IMPT 00000000   2853 
_SVP_OBJECT_TM09                          IMPT 00000000   2854 
_SVP_OBJECT_TM10                          IMPT 00000000   2855 
_SVP_OBJECT_TM11                          IMPT 00000000   2856 
_SVP_OBJECT_TM12                          IMPT 00000000   2857 
_SVP_OBJECT_TM13                          IMPT 00000000   2858 
_SVP_OBJECT_TM14                          IMPT 00000000   2859 
_SVP_OBJECT_TM15                          IMPT 00000000   2860 
_SVP_OBJECT_TM16                          IMPT 00000000   2861 
_SVP_OBJECT_TM17                          IMPT 00000000   2862 
_SVP_OBJECT_TM18                          IMPT 00000000   2863 
_SVP_OBJECT_TM19                          IMPT 00000000   2864 
_SVP_OBJECT_TM20                          IMPT 00000000   2865 
_SVP_ONESTR_SPD2                          IMPT 00000000   3071 
_SVP_ORGCAL_DAT1                          IMPT 00000000   2983 
_SVP_ORGCAL_DAT2                          IMPT 00000000   2984 
_SVP_ORGCAL_DAT3                          IMPT 00000000   2985 
_SVP_ORGCAL_DAT4                          IMPT 00000000   2986 
_SVP_ORGCAL_DAT5                          IMPT 00000000   2987 
_SVP_ORGCAL_DAT6                          IMPT 00000000   2988 
_SVP_ORGFWD_AGL                           IMPT 00000000   3078 
_SVP_ORGLDN_DEG                           IMPT 00000000   3000 
_SVP_ORGLUP_DEG                           IMPT 00000000   2999 
_SVP_ORGMEM_DEG1                          IMPT 00000000   3001 
_SVP_ORGMEM_DEG1A                         IMPT 00000000   3018 
_SVP_ORGMEM_DEG2                          IMPT 00000000   3003 
_SVP_ORGMEM_DEG2A                         IMPT 00000000   3019 
_SVP_ORGMEM_DEGS1                         IMPT 00000000   3002 
_SVP_ORGMEM_DEGS2                         IMPT 00000000   3004 
_SVP_ORGMPL_SEL1                          IMPT 00000000   3005 
_SVP_ORGMPL_SEL2                          IMPT 00000000   3006 
_SVP_ORGRDN_DEG                           IMPT 00000000   2998 
_SVP_ORGREV_AGL                           IMPT 00000000   3077 
_SVP_ORGRUP_DEG                           IMPT 00000000   2997 
_SVP_ORGSOK_PLS                           IMPT 00000000   2982 
_SVP_ORGSTRK_LEN1                         IMPT 00000000   2989 
_SVP_ORGSTRK_LEN2                         IMPT 00000000   2990 
_SVP_OUTPLS_HOSA                          IMPT 00000000   2685 
_SVP_OUTPLS_HOSB                          IMPT 00000000   2686 
*** SuperH RISC engine ASSEMBLER V.7.01.02.000 ***    07/04/21 19:29:24                                                  PAGE   194

*** CROSS REFERENCE LIST

NAME                             SECTION  ATTR VALUE             SEQUENCE

_SVP_OVERE1_A26                           IMPT 00000000   3672 
_SVP_OVERE1_A27                           IMPT 00000000   3680 
_SVP_OVERE1_A28                           IMPT 00000000   3688 
_SVP_OVERE2_A26                           IMPT 00000000   3674 
_SVP_OVERE2_A27                           IMPT 00000000   3682 
_SVP_OVERE2_A28                           IMPT 00000000   3690 
_SVP_OVERE3_A26                           IMPT 00000000   3676 
_SVP_OVERE3_A27                           IMPT 00000000   3684 
_SVP_OVERE3_A28                           IMPT 00000000   3692 
_SVP_OVERLIDE_COF                         IMPT 00000000   2950 
_SVP_PLSAHI_PLS                           IMPT 00000000   2698 
_SVP_PLSALO_PLS                           IMPT 00000000   2697 
_SVP_PSMOD_SEL                            IMPT 00000000   2681 
_SVP_RAD                                  IMPT 00000000   3076 
_SVP_RCAMOF_D000                          IMPT 00000000   3131 
_SVP_RCAMOF_D001                          IMPT 00000000   3135 
_SVP_RCAMOF_D002                          IMPT 00000000   3139 
_SVP_RCAMOF_D003                          IMPT 00000000   3143 
_SVP_RCAMOF_D004                          IMPT 00000000   3147 
_SVP_RCAMOF_D005                          IMPT 00000000   3151 
_SVP_RCAMOF_D006                          IMPT 00000000   3155 
_SVP_RCAMOF_D007                          IMPT 00000000   3159 
_SVP_RCAMOF_D008                          IMPT 00000000   3163 
_SVP_RCAMOF_D009                          IMPT 00000000   3167 
_SVP_RCAMOF_D00A                          IMPT 00000000   3171 
_SVP_RCAMOF_D00B                          IMPT 00000000   3175 
_SVP_RCAMOF_D00C                          IMPT 00000000   3179 
_SVP_RCAMOF_D00D                          IMPT 00000000   3183 
_SVP_RCAMOF_D00E                          IMPT 00000000   3187 
_SVP_RCAMOF_D00F                          IMPT 00000000   3191 
_SVP_RCAMOF_D010                          IMPT 00000000   3195 
_SVP_RCAMOF_D011                          IMPT 00000000   3199 
_SVP_RCAMOF_D012                          IMPT 00000000   3203 
_SVP_RCAMOF_D013                          IMPT 00000000   3207 
_SVP_RCAMOF_D014                          IMPT 00000000   3211 
_SVP_RCAMOF_D015                          IMPT 00000000   3215 
_SVP_RCAMOF_D016                          IMPT 00000000   3219 
_SVP_RCAMOF_D017                          IMPT 00000000   3223 
_SVP_RCAMOF_D018                          IMPT 00000000   3227 
_SVP_RCAMOF_D019                          IMPT 00000000   3231 
_SVP_RCAMOF_D01A                          IMPT 00000000   3235 
_SVP_RCAMOF_D01B                          IMPT 00000000   3239 
_SVP_RCAMOF_D01C                          IMPT 00000000   3243 
_SVP_RCAMOF_D01D                          IMPT 00000000   3247 
_SVP_RCAMOF_D01E                          IMPT 00000000   3251 
_SVP_RCAMOF_D01F                          IMPT 00000000   3255 
_SVP_RCAMOF_D020                          IMPT 00000000   3259 
_SVP_RCAMOF_D021                          IMPT 00000000   3263 
_SVP_RCAMOF_D022                          IMPT 00000000   3267 
_SVP_RCAMOF_D023                          IMPT 00000000   3271 
_SVP_RCAMOF_D024                          IMPT 00000000   3275 
_SVP_RCAMOF_D025                          IMPT 00000000   3279 
_SVP_RCAMOF_D026                          IMPT 00000000   3283 
_SVP_RCAMOF_D027                          IMPT 00000000   3287 
*** SuperH RISC engine ASSEMBLER V.7.01.02.000 ***    07/04/21 19:29:24                                                  PAGE   195

*** CROSS REFERENCE LIST

NAME                             SECTION  ATTR VALUE             SEQUENCE

_SVP_RCAMOF_D028                          IMPT 00000000   3291 
_SVP_RCAMOF_D029                          IMPT 00000000   3295 
_SVP_RCAMOF_D02A                          IMPT 00000000   3299 
_SVP_RCAMOF_D02B                          IMPT 00000000   3303 
_SVP_RCAMOF_D02C                          IMPT 00000000   3307 
_SVP_RCAMOF_D02D                          IMPT 00000000   3311 
_SVP_RCAMOF_D02E                          IMPT 00000000   3315 
_SVP_RCAMOF_D02F                          IMPT 00000000   3319 
_SVP_RCAMOF_D100                          IMPT 00000000   3324 
_SVP_RCAMOF_D101                          IMPT 00000000   3328 
_SVP_RCAMOF_D102                          IMPT 00000000   3332 
_SVP_RCAMOF_D103                          IMPT 00000000   3336 
_SVP_RCAMOF_D104                          IMPT 00000000   3340 
_SVP_RCAMOF_D105                          IMPT 00000000   3344 
_SVP_RCAMOF_D106                          IMPT 00000000   3348 
_SVP_RCAMOF_D107                          IMPT 00000000   3352 
_SVP_RCAMOF_D108                          IMPT 00000000   3356 
_SVP_RCAMOF_D109                          IMPT 00000000   3360 
_SVP_RCAMOF_D10A                          IMPT 00000000   3364 
_SVP_RCAMOF_D10B                          IMPT 00000000   3368 
_SVP_RCAMOF_D10C                          IMPT 00000000   3372 
_SVP_RCAMOF_D10D                          IMPT 00000000   3376 
_SVP_RCAMOF_D10E                          IMPT 00000000   3380 
_SVP_RCAMOF_D10F                          IMPT 00000000   3384 
_SVP_RCAMOF_P000                          IMPT 00000000   3130 
_SVP_RCAMOF_P001                          IMPT 00000000   3134 
_SVP_RCAMOF_P002                          IMPT 00000000   3138 
_SVP_RCAMOF_P003                          IMPT 00000000   3142 
_SVP_RCAMOF_P004                          IMPT 00000000   3146 
_SVP_RCAMOF_P005                          IMPT 00000000   3150 
_SVP_RCAMOF_P006                          IMPT 00000000   3154 
_SVP_RCAMOF_P007                          IMPT 00000000   3158 
_SVP_RCAMOF_P008                          IMPT 00000000   3162 
_SVP_RCAMOF_P009                          IMPT 00000000   3166 
_SVP_RCAMOF_P00A                          IMPT 00000000   3170 
_SVP_RCAMOF_P00B                          IMPT 00000000   3174 
_SVP_RCAMOF_P00C                          IMPT 00000000   3178 
_SVP_RCAMOF_P00D                          IMPT 00000000   3182 
_SVP_RCAMOF_P00E                          IMPT 00000000   3186 
_SVP_RCAMOF_P00F                          IMPT 00000000   3190 
_SVP_RCAMOF_P010                          IMPT 00000000   3194 
_SVP_RCAMOF_P011                          IMPT 00000000   3198 
_SVP_RCAMOF_P012                          IMPT 00000000   3202 
_SVP_RCAMOF_P013                          IMPT 00000000   3206 
_SVP_RCAMOF_P014                          IMPT 00000000   3210 
_SVP_RCAMOF_P015                          IMPT 00000000   3214 
_SVP_RCAMOF_P016                          IMPT 00000000   3218 
_SVP_RCAMOF_P017                          IMPT 00000000   3222 
_SVP_RCAMOF_P018                          IMPT 00000000   3226 
_SVP_RCAMOF_P019                          IMPT 00000000   3230 
_SVP_RCAMOF_P01A                          IMPT 00000000   3234 
_SVP_RCAMOF_P01B                          IMPT 00000000   3238 
_SVP_RCAMOF_P01C                          IMPT 00000000   3242 
_SVP_RCAMOF_P01D                          IMPT 00000000   3246 
*** SuperH RISC engine ASSEMBLER V.7.01.02.000 ***    07/04/21 19:29:24                                                  PAGE   196

*** CROSS REFERENCE LIST

NAME                             SECTION  ATTR VALUE             SEQUENCE

_SVP_RCAMOF_P01E                          IMPT 00000000   3250 
_SVP_RCAMOF_P01F                          IMPT 00000000   3254 
_SVP_RCAMOF_P020                          IMPT 00000000   3258 
_SVP_RCAMOF_P021                          IMPT 00000000   3262 
_SVP_RCAMOF_P022                          IMPT 00000000   3266 
_SVP_RCAMOF_P023                          IMPT 00000000   3270 
_SVP_RCAMOF_P024                          IMPT 00000000   3274 
_SVP_RCAMOF_P025                          IMPT 00000000   3278 
_SVP_RCAMOF_P026                          IMPT 00000000   3282 
_SVP_RCAMOF_P027                          IMPT 00000000   3286 
_SVP_RCAMOF_P028                          IMPT 00000000   3290 
_SVP_RCAMOF_P029                          IMPT 00000000   3294 
_SVP_RCAMOF_P02A                          IMPT 00000000   3298 
_SVP_RCAMOF_P02B                          IMPT 00000000   3302 
_SVP_RCAMOF_P02C                          IMPT 00000000   3306 
_SVP_RCAMOF_P02D                          IMPT 00000000   3310 
_SVP_RCAMOF_P02E                          IMPT 00000000   3314 
_SVP_RCAMOF_P02F                          IMPT 00000000   3318 
_SVP_RCAMOF_P100                          IMPT 00000000   3323 
_SVP_RCAMOF_P101                          IMPT 00000000   3327 
_SVP_RCAMOF_P102                          IMPT 00000000   3331 
_SVP_RCAMOF_P103                          IMPT 00000000   3335 
_SVP_RCAMOF_P104                          IMPT 00000000   3339 
_SVP_RCAMOF_P105                          IMPT 00000000   3343 
_SVP_RCAMOF_P106                          IMPT 00000000   3347 
_SVP_RCAMOF_P107                          IMPT 00000000   3351 
_SVP_RCAMOF_P108                          IMPT 00000000   3355 
_SVP_RCAMOF_P109                          IMPT 00000000   3359 
_SVP_RCAMOF_P10A                          IMPT 00000000   3363 
_SVP_RCAMOF_P10B                          IMPT 00000000   3367 
_SVP_RCAMOF_P10C                          IMPT 00000000   3371 
_SVP_RCAMOF_P10D                          IMPT 00000000   3375 
_SVP_RCAMOF_P10E                          IMPT 00000000   3379 
_SVP_RCAMOF_P10F                          IMPT 00000000   3383 
_SVP_RCAMOF_SA00                          IMPT 00000000   3707 
_SVP_RCAMOF_SA01                          IMPT 00000000   3711 
_SVP_RCAMOF_SA02                          IMPT 00000000   3715 
_SVP_RCAMOF_SA03                          IMPT 00000000   3719 
_SVP_RCAMOF_SA04                          IMPT 00000000   3723 
_SVP_RCAMOF_SA05                          IMPT 00000000   3727 
_SVP_RCAMOF_SA06                          IMPT 00000000   3731 
_SVP_RCAMOF_SA07                          IMPT 00000000   3735 
_SVP_RCAMOF_SA08                          IMPT 00000000   3739 
_SVP_RCAMOF_SA09                          IMPT 00000000   3743 
_SVP_RCAMOF_SA10                          IMPT 00000000   3747 
_SVP_RCAMOF_SA11                          IMPT 00000000   3751 
_SVP_RCAMOF_SA12                          IMPT 00000000   3755 
_SVP_RCAMOF_SA13                          IMPT 00000000   3759 
_SVP_RCAMOF_SA14                          IMPT 00000000   3763 
_SVP_RCAMOF_SA15                          IMPT 00000000   3767 
_SVP_RCAMOF_ST00                          IMPT 00000000   3708 
_SVP_RCAMOF_ST01                          IMPT 00000000   3712 
_SVP_RCAMOF_ST02                          IMPT 00000000   3716 
_SVP_RCAMOF_ST03                          IMPT 00000000   3720 
*** SuperH RISC engine ASSEMBLER V.7.01.02.000 ***    07/04/21 19:29:24                                                  PAGE   197

*** CROSS REFERENCE LIST

NAME                             SECTION  ATTR VALUE             SEQUENCE

_SVP_RCAMOF_ST04                          IMPT 00000000   3724 
_SVP_RCAMOF_ST05                          IMPT 00000000   3728 
_SVP_RCAMOF_ST06                          IMPT 00000000   3732 
_SVP_RCAMOF_ST07                          IMPT 00000000   3736 
_SVP_RCAMOF_ST08                          IMPT 00000000   3740 
_SVP_RCAMOF_ST09                          IMPT 00000000   3744 
_SVP_RCAMOF_ST10                          IMPT 00000000   3748 
_SVP_RCAMOF_ST11                          IMPT 00000000   3752 
_SVP_RCAMOF_ST12                          IMPT 00000000   3756 
_SVP_RCAMOF_ST13                          IMPT 00000000   3760 
_SVP_RCAMOF_ST14                          IMPT 00000000   3764 
_SVP_RCAMOF_ST15                          IMPT 00000000   3768 
_SVP_RCAMON_D000                          IMPT 00000000   3129 
_SVP_RCAMON_D001                          IMPT 00000000   3133 
_SVP_RCAMON_D002                          IMPT 00000000   3137 
_SVP_RCAMON_D003                          IMPT 00000000   3141 
_SVP_RCAMON_D004                          IMPT 00000000   3145 
_SVP_RCAMON_D005                          IMPT 00000000   3149 
_SVP_RCAMON_D006                          IMPT 00000000   3153 
_SVP_RCAMON_D007                          IMPT 00000000   3157 
_SVP_RCAMON_D008                          IMPT 00000000   3161 
_SVP_RCAMON_D009                          IMPT 00000000   3165 
_SVP_RCAMON_D00A                          IMPT 00000000   3169 
_SVP_RCAMON_D00B                          IMPT 00000000   3173 
_SVP_RCAMON_D00C                          IMPT 00000000   3177 
_SVP_RCAMON_D00D                          IMPT 00000000   3181 
_SVP_RCAMON_D00E                          IMPT 00000000   3185 
_SVP_RCAMON_D00F                          IMPT 00000000   3189 
_SVP_RCAMON_D010                          IMPT 00000000   3193 
_SVP_RCAMON_D011                          IMPT 00000000   3197 
_SVP_RCAMON_D012                          IMPT 00000000   3201 
_SVP_RCAMON_D013                          IMPT 00000000   3205 
_SVP_RCAMON_D014                          IMPT 00000000   3209 
_SVP_RCAMON_D015                          IMPT 00000000   3213 
_SVP_RCAMON_D016                          IMPT 00000000   3217 
_SVP_RCAMON_D017                          IMPT 00000000   3221 
_SVP_RCAMON_D018                          IMPT 00000000   3225 
_SVP_RCAMON_D019                          IMPT 00000000   3229 
_SVP_RCAMON_D01A                          IMPT 00000000   3233 
_SVP_RCAMON_D01B                          IMPT 00000000   3237 
_SVP_RCAMON_D01C                          IMPT 00000000   3241 
_SVP_RCAMON_D01D                          IMPT 00000000   3245 
_SVP_RCAMON_D01E                          IMPT 00000000   3249 
_SVP_RCAMON_D01F                          IMPT 00000000   3253 
_SVP_RCAMON_D020                          IMPT 00000000   3257 
_SVP_RCAMON_D021                          IMPT 00000000   3261 
_SVP_RCAMON_D022                          IMPT 00000000   3265 
_SVP_RCAMON_D023                          IMPT 00000000   3269 
_SVP_RCAMON_D024                          IMPT 00000000   3273 
_SVP_RCAMON_D025                          IMPT 00000000   3277 
_SVP_RCAMON_D026                          IMPT 00000000   3281 
_SVP_RCAMON_D027                          IMPT 00000000   3285 
_SVP_RCAMON_D028                          IMPT 00000000   3289 
_SVP_RCAMON_D029                          IMPT 00000000   3293 
*** SuperH RISC engine ASSEMBLER V.7.01.02.000 ***    07/04/21 19:29:24                                                  PAGE   198

*** CROSS REFERENCE LIST

NAME                             SECTION  ATTR VALUE             SEQUENCE

_SVP_RCAMON_D02A                          IMPT 00000000   3297 
_SVP_RCAMON_D02B                          IMPT 00000000   3301 
_SVP_RCAMON_D02C                          IMPT 00000000   3305 
_SVP_RCAMON_D02D                          IMPT 00000000   3309 
_SVP_RCAMON_D02E                          IMPT 00000000   3313 
_SVP_RCAMON_D02F                          IMPT 00000000   3317 
_SVP_RCAMON_D100                          IMPT 00000000   3322 
_SVP_RCAMON_D101                          IMPT 00000000   3326 
_SVP_RCAMON_D102                          IMPT 00000000   3330 
_SVP_RCAMON_D103                          IMPT 00000000   3334 
_SVP_RCAMON_D104                          IMPT 00000000   3338 
_SVP_RCAMON_D105                          IMPT 00000000   3342 
_SVP_RCAMON_D106                          IMPT 00000000   3346 
_SVP_RCAMON_D107                          IMPT 00000000   3350 
_SVP_RCAMON_D108                          IMPT 00000000   3354 
_SVP_RCAMON_D109                          IMPT 00000000   3358 
_SVP_RCAMON_D10A                          IMPT 00000000   3362 
_SVP_RCAMON_D10B                          IMPT 00000000   3366 
_SVP_RCAMON_D10C                          IMPT 00000000   3370 
_SVP_RCAMON_D10D                          IMPT 00000000   3374 
_SVP_RCAMON_D10E                          IMPT 00000000   3378 
_SVP_RCAMON_D10F                          IMPT 00000000   3382 
_SVP_RCAMON_P000                          IMPT 00000000   3128 
_SVP_RCAMON_P001                          IMPT 00000000   3132 
_SVP_RCAMON_P002                          IMPT 00000000   3136 
_SVP_RCAMON_P003                          IMPT 00000000   3140 
_SVP_RCAMON_P004                          IMPT 00000000   3144 
_SVP_RCAMON_P005                          IMPT 00000000   3148 
_SVP_RCAMON_P006                          IMPT 00000000   3152 
_SVP_RCAMON_P007                          IMPT 00000000   3156 
_SVP_RCAMON_P008                          IMPT 00000000   3160 
_SVP_RCAMON_P009                          IMPT 00000000   3164 
_SVP_RCAMON_P00A                          IMPT 00000000   3168 
_SVP_RCAMON_P00B                          IMPT 00000000   3172 
_SVP_RCAMON_P00C                          IMPT 00000000   3176 
_SVP_RCAMON_P00D                          IMPT 00000000   3180 
_SVP_RCAMON_P00E                          IMPT 00000000   3184 
_SVP_RCAMON_P00F                          IMPT 00000000   3188 
_SVP_RCAMON_P010                          IMPT 00000000   3192 
_SVP_RCAMON_P011                          IMPT 00000000   3196 
_SVP_RCAMON_P012                          IMPT 00000000   3200 
_SVP_RCAMON_P013                          IMPT 00000000   3204 
_SVP_RCAMON_P014                          IMPT 00000000   3208 
_SVP_RCAMON_P015                          IMPT 00000000   3212 
_SVP_RCAMON_P016                          IMPT 00000000   3216 
_SVP_RCAMON_P017                          IMPT 00000000   3220 
_SVP_RCAMON_P018                          IMPT 00000000   3224 
_SVP_RCAMON_P019                          IMPT 00000000   3228 
_SVP_RCAMON_P01A                          IMPT 00000000   3232 
_SVP_RCAMON_P01B                          IMPT 00000000   3236 
_SVP_RCAMON_P01C                          IMPT 00000000   3240 
_SVP_RCAMON_P01D                          IMPT 00000000   3244 
_SVP_RCAMON_P01E                          IMPT 00000000   3248 
_SVP_RCAMON_P01F                          IMPT 00000000   3252 
*** SuperH RISC engine ASSEMBLER V.7.01.02.000 ***    07/04/21 19:29:24                                                  PAGE   199

*** CROSS REFERENCE LIST

NAME                             SECTION  ATTR VALUE             SEQUENCE

_SVP_RCAMON_P020                          IMPT 00000000   3256 
_SVP_RCAMON_P021                          IMPT 00000000   3260 
_SVP_RCAMON_P022                          IMPT 00000000   3264 
_SVP_RCAMON_P023                          IMPT 00000000   3268 
_SVP_RCAMON_P024                          IMPT 00000000   3272 
_SVP_RCAMON_P025                          IMPT 00000000   3276 
_SVP_RCAMON_P026                          IMPT 00000000   3280 
_SVP_RCAMON_P027                          IMPT 00000000   3284 
_SVP_RCAMON_P028                          IMPT 00000000   3288 
_SVP_RCAMON_P029                          IMPT 00000000   3292 
_SVP_RCAMON_P02A                          IMPT 00000000   3296 
_SVP_RCAMON_P02B                          IMPT 00000000   3300 
_SVP_RCAMON_P02C                          IMPT 00000000   3304 
_SVP_RCAMON_P02D                          IMPT 00000000   3308 
_SVP_RCAMON_P02E                          IMPT 00000000   3312 
_SVP_RCAMON_P02F                          IMPT 00000000   3316 
_SVP_RCAMON_P100                          IMPT 00000000   3321 
_SVP_RCAMON_P101                          IMPT 00000000   3325 
_SVP_RCAMON_P102                          IMPT 00000000   3329 
_SVP_RCAMON_P103                          IMPT 00000000   3333 
_SVP_RCAMON_P104                          IMPT 00000000   3337 
_SVP_RCAMON_P105                          IMPT 00000000   3341 
_SVP_RCAMON_P106                          IMPT 00000000   3345 
_SVP_RCAMON_P107                          IMPT 00000000   3349 
_SVP_RCAMON_P108                          IMPT 00000000   3353 
_SVP_RCAMON_P109                          IMPT 00000000   3357 
_SVP_RCAMON_P10A                          IMPT 00000000   3361 
_SVP_RCAMON_P10B                          IMPT 00000000   3365 
_SVP_RCAMON_P10C                          IMPT 00000000   3369 
_SVP_RCAMON_P10D                          IMPT 00000000   3373 
_SVP_RCAMON_P10E                          IMPT 00000000   3377 
_SVP_RCAMON_P10F                          IMPT 00000000   3381 
_SVP_RCAMON_POS_TOP                       IMPT 00000000   3127 
_SVP_RCAMON_SA00                          IMPT 00000000   3705 
_SVP_RCAMON_SA01                          IMPT 00000000   3709 
_SVP_RCAMON_SA02                          IMPT 00000000   3713 
_SVP_RCAMON_SA03                          IMPT 00000000   3717 
_SVP_RCAMON_SA04                          IMPT 00000000   3721 
_SVP_RCAMON_SA05                          IMPT 00000000   3725 
_SVP_RCAMON_SA06                          IMPT 00000000   3729 
_SVP_RCAMON_SA07                          IMPT 00000000   3733 
_SVP_RCAMON_SA08                          IMPT 00000000   3737 
_SVP_RCAMON_SA09                          IMPT 00000000   3741 
_SVP_RCAMON_SA10                          IMPT 00000000   3745 
_SVP_RCAMON_SA11                          IMPT 00000000   3749 
_SVP_RCAMON_SA12                          IMPT 00000000   3753 
_SVP_RCAMON_SA13                          IMPT 00000000   3757 
_SVP_RCAMON_SA14                          IMPT 00000000   3761 
_SVP_RCAMON_SA15                          IMPT 00000000   3765 
_SVP_RCAMON_ST00                          IMPT 00000000   3706 
_SVP_RCAMON_ST01                          IMPT 00000000   3710 
_SVP_RCAMON_ST02                          IMPT 00000000   3714 
_SVP_RCAMON_ST03                          IMPT 00000000   3718 
_SVP_RCAMON_ST04                          IMPT 00000000   3722 
*** SuperH RISC engine ASSEMBLER V.7.01.02.000 ***    07/04/21 19:29:24                                                  PAGE   200

*** CROSS REFERENCE LIST

NAME                             SECTION  ATTR VALUE             SEQUENCE

_SVP_RCAMON_ST05                          IMPT 00000000   3726 
_SVP_RCAMON_ST06                          IMPT 00000000   3730 
_SVP_RCAMON_ST07                          IMPT 00000000   3734 
_SVP_RCAMON_ST08                          IMPT 00000000   3738 
_SVP_RCAMON_ST09                          IMPT 00000000   3742 
_SVP_RCAMON_ST10                          IMPT 00000000   3746 
_SVP_RCAMON_ST11                          IMPT 00000000   3750 
_SVP_RCAMON_ST12                          IMPT 00000000   3754 
_SVP_RCAMON_ST13                          IMPT 00000000   3758 
_SVP_RCAMON_ST14                          IMPT 00000000   3762 
_SVP_RCAMON_ST15                          IMPT 00000000   3766 
_SVP_RCAMON_TIM_TOP                       IMPT 00000000   3320 
_SVP_REVDAT_SPD1                          IMPT 00000000   2636 
_SVP_REVDAT_SPD2                          IMPT 00000000   2637 
_SVP_REVDAT_SPD3                          IMPT 00000000   2638 
_SVP_RISE_CMP1                            IMPT 00000000   3082 
_SVP_RISE_CMP2                            IMPT 00000000   3083 
_SVP_RISE_CMP3                            IMPT 00000000   3084 
_SVP_RISE_DLY1                            IMPT 00000000   3085 
_SVP_RISE_DLY2                            IMPT 00000000   3086 
_SVP_RISE_ZWID                            IMPT 00000000   3081 
_SVP_RNADIR_SEL1                          IMPT 00000000   2617 
_SVP_RNADIR_SEL2                          IMPT 00000000   3017 
_SVP_RNAORGMEM_LEG1                       IMPT 00000000   2991 
_SVP_RNAORGMEM_LEG2                       IMPT 00000000   2993 
_SVP_RNAORG_PLS1                          IMPT 00000000   2992 
_SVP_RNAORG_PLS2                          IMPT 00000000   2994 
_SVP_RNAORG_POS1                          IMPT 00000000   2625 
_SVP_RNAORG_SIN1                          IMPT 00000000   2995 
_SVP_RNAORG_SIN2                          IMPT 00000000   2996 
_SVP_RNAPOS_KP01                          IMPT 00000000   2644 
_SVP_RNAPOS_MAXP                          IMPT 00000000   2626 
_SVP_RNAPOS_MINP                          IMPT 00000000   2627 
_SVP_RNAREV_ELNG                          IMPT 00000000   2660 
_SVP_RNASTP_ELNG                          IMPT 00000000   2658 
_SVP_RNA_STLORK                           IMPT 00000000   2684 
_SVP_ROALM1_A26                           IMPT 00000000   3673 
_SVP_ROALM1_A27                           IMPT 00000000   3681 
_SVP_ROALM1_A28                           IMPT 00000000   3689 
_SVP_ROALM2_A26                           IMPT 00000000   3675 
_SVP_ROALM2_A27                           IMPT 00000000   3683 
_SVP_ROALM2_A28                           IMPT 00000000   3691 
_SVP_ROALM3_A26                           IMPT 00000000   3677 
_SVP_ROALM3_A27                           IMPT 00000000   3685 
_SVP_ROALM3_A28                           IMPT 00000000   3693 
_SVP_ROTCAM_OFR                           IMPT 00000000   3779 
_SVP_ROTCAM_ONR                           IMPT 00000000   3778 
_SVP_RPARAM_TOP1                          IMPT 00000000   2612 
_SVP_RUNSAMER_LEN1                        IMPT 00000000   3012 
_SVP_RUNSAMER_LEN2                        IMPT 00000000   3013 
_SVP_RUNSAMER_PLS                         IMPT 00000000   3015 
_SVP_SLIDE_S                              IMPT 00000000   3075 
_SVP_SLID_POS1                            IMPT 00000000   2884 
_SVP_SLID_POS2                            IMPT 00000000   2885 
*** SuperH RISC engine ASSEMBLER V.7.01.02.000 ***    07/04/21 19:29:24                                                  PAGE   201

*** CROSS REFERENCE LIST

NAME                             SECTION  ATTR VALUE             SEQUENCE

_SVP_SLID_POS3                            IMPT 00000000   2886 
_SVP_SLPOS_DIR                            IMPT 00000000   3669 
_SVP_SL_TENPOS                            IMPT 00000000   3668 
_SVP_SMPCYC_TIM                           IMPT 00000000   2706 
_SVP_SMPCYC_TIM2                          IMPT 00000000   3771 
_SVP_SMPMAX_CNT                           IMPT 00000000   2704 
_SVP_SMPMAX_CNT2                          IMPT 00000000   3770 
_SVP_SMPSTR_AGL                           IMPT 00000000   2700 
_SVP_SMPSTR_FUK                           IMPT 00000000   2701 
_SVP_SMPSTR_KAJ                           IMPT 00000000   2699 
_SVP_SMPSTR_SEH                           IMPT 00000000   2702 
_SVP_SMPSTR_SQL                           IMPT 00000000   2703 
_SVP_SMPTRG_CNT                           IMPT 00000000   2705 
_SVP_SMPTRG_CNT1                          IMPT 00000000   2754 
_SVP_SMP_CNT                              IMPT 00000000   2741 
_SVP_SSCURV_TIM1                          IMPT 00000000   2646 
_SVP_STDINC_SPD1                          IMPT 00000000   2635 
_SVP_SYNC_ERR_DEGA                        IMPT 00000000   3043 
_SVP_SYNC_ERR_DEGB                        IMPT 00000000   3044 
_SVP_SYNC_ERR_DEGC                        IMPT 00000000   3045 
_SVP_SYNC_ERR_DEGD                        IMPT 00000000   3046 
_SVP_SYNC_ERR_PGA                         IMPT 00000000   3051 
_SVP_SYNC_ERR_PGB                         IMPT 00000000   3052 
_SVP_SYNC_ERR_PGC                         IMPT 00000000   3053 
_SVP_SYNC_ERR_PGD                         IMPT 00000000   3054 
_SVP_SYNC_ERR_RNAA                        IMPT 00000000   3047 
_SVP_SYNC_ERR_RNAB                        IMPT 00000000   3048 
_SVP_SYNC_ERR_RNAC                        IMPT 00000000   3049 
_SVP_SYNC_ERR_RNAD                        IMPT 00000000   3050 
_SVP_TEPDAT_SPD1                          IMPT 00000000   2639 
_SVP_TEPLAT_DAT1                          IMPT 00000000   2640 
_SVP_TEPLAT_DAT2                          IMPT 00000000   2641 
_SVP_TRDCSR_RNAD                          IMPT 00000000   2753 
_SVP_TRDCSR_RNAU                          IMPT 00000000   2752 
_SVP_TRD_CNT                              IMPT 00000000   2742 
_SVP_UPAREA_DIG0                          IMPT 00000000   2875 
_SVP_UPAREA_DIG1                          IMPT 00000000   2652 
_SVP_UPAREA_INP1                          IMPT 00000000   2647 
_SVP_UPAREA_JUDG                          IMPT 00000000   2628 
_SVP_UPAREA_POS0                          IMPT 00000000   2874 
_SVP_UPAREA_SPD0                          IMPT 00000000   2876 
_SVP_UPAREA_SPD1                          IMPT 00000000   2634 
_SVP_UPAREA_TIM0                          IMPT 00000000   2877 
_SVP_UPDATA_A21                           IMPT 00000000   3662 
_SVP_UPHOLD_DIG                           IMPT 00000000   2687 
_SVP_UPSTOP_A21                           IMPT 00000000   3667 
_SVP_VIB_KJYU_TTL                         IMPT 00000000   2773 
_SVP_VOLST_L                              IMPT 00000000   3074 
_SVP_WTTIM_MAX                            IMPT 00000000   3702 
_SVP_WT_DIG1                              IMPT 00000000   2677 
_SVP_WT_DIG2                              IMPT 00000000   2678 
_SVP_WT_DIG3                              IMPT 00000000   2679 
_SVSW_CHG_FLG                             IMPT 00000000   5493 10875 
_SV_IPS_ADR0                              IMPT 00000000  12744 12848 
*** SuperH RISC engine ASSEMBLER V.7.01.02.000 ***    07/04/21 19:29:24                                                  PAGE   202

*** CROSS REFERENCE LIST

NAME                             SECTION  ATTR VALUE             SEQUENCE

_SV_MACINE_SEL1                           IMPT 00000000   5497 10531 
_SWECLEAR                                 EQU  000000BF   2439*
_SWESET                                   EQU  00000040   2438*
_SYORI_STS                                EQU  00000003   2223*12631 
_TCNT0                                    IMPT 00000000    748 
_TCNT1                                    IMPT 00000000    751 
_TCNT2                                    IMPT 00000000    754 
_TCOR0                                    IMPT 00000000    747 
_TCOR1                                    IMPT 00000000    750 
_TCOR2                                    IMPT 00000000    753 
_TCR0                                     IMPT 00000000    749 
_TCR1                                     IMPT 00000000    752 
_TCR2                                     IMPT 00000000    755 
_TDFP                                     IMPT 00000000    662 
_TDR0                                     IMPT 00000000    742  8439  8835 
_TE0_INT                         PvupsciR EXPT 00001084   5803  8896*
_TE0_M100                        PvupsciR      00000ED0   8523  8536*
_TE0_M150                        PvupsciR      00000EE4   8546  8558*
_TE0_M200                        PvupsciR      00000EEE   8560  8568* 8644 
_TE0_M250                        PvupsciR      00000F54   8642  8651*
_TE0_MAIN                        PvupsciR      00000EAC   5683  8511*
_TEA                                      IMPT 00000000    812 
_TIM100US                                 EQU  000007D0   4966*
_TIM1MS                                   EQU  000009C4   4967*
_TINT3_10MS_CNT                           IMPT 00000000   5249 
_TRA                                      IMPT 00000000    802 
_TSTR                                     IMPT 00000000    746 
_TTB                                      IMPT 00000000    811 
_TX0I_050                        PvupsciR      00001058   8847  8865*
_TX0_INT                         PvupsciR EXPT 00001028   5802  8823*
_TX0_M100                        PvupsciR      00000DBC   8300  8312*
_TX0_M150                        PvupsciR      00000DD0   8322  8334*
_TX0_M200                        PvupsciR      00000DE0   8338  8349* 8424  8459 
_TX0_M300                        PvupsciR      00000E44   8422  8431*
_TX0_M400                        PvupsciR      00000E84   8451  8469*
_TX0_MAIN                        PvupsciR      00000D9A   5679  8288*
_USBDASTS                                 IMPT 00000000    686 
_USBDMA                                   IMPT 00000000    695 
_USBEPDR0I                                IMPT 00000000    680 
_USBEPDR0O                                IMPT 00000000    681 
_USBEPDR0S                                IMPT 00000000    685 
_USBEPDR1                                 IMPT 00000000    692 
_USBEPDR2                                 IMPT 00000000    687 
_USBEPDR3                                 IMPT 00000000    696 
_USBEPSTL                                 IMPT 00000000    689 
_USBEPSZ0O                                IMPT 00000000    684 
_USBEPSZ1                                 IMPT 00000000    693 
_USBFCLR                                  IMPT 00000000    683 
_USBHBCED                                 IMPT 00000000    708 
_USBHBHED                                 IMPT 00000000    707 
_USBHC                                    IMPT 00000000    698 
_USBHCCED                                 IMPT 00000000    706 
_USBHCHED                                 IMPT 00000000    705 
_USBHCS                                   IMPT 00000000    699 
*** SuperH RISC engine ASSEMBLER V.7.01.02.000 ***    07/04/21 19:29:24                                                  PAGE   203

*** CROSS REFERENCE LIST

NAME                             SECTION  ATTR VALUE             SEQUENCE

_USBHDHED                                 IMPT 00000000    709 
_USBHFI                                   IMPT 00000000    710 
_USBHFN                                   IMPT 00000000    712 
_USBHFR                                   IMPT 00000000    711 
_USBHHCCA                                 IMPT 00000000    703 
_USBHID                                   IMPT 00000000    702 
_USBHIE                                   IMPT 00000000    701 
_USBHIS                                   IMPT 00000000    700 
_USBHLST                                  IMPT 00000000    714 
_USBHPCED                                 IMPT 00000000    704 
_USBHPS                                   IMPT 00000000    713 
_USBHR                                    IMPT 00000000    697 
_USBHRDA                                  IMPT 00000000    715 
_USBHRDB                                  IMPT 00000000    716 
_USBHRPS1                                 IMPT 00000000    718 
_USBHRPS2                                 IMPT 00000000    719 
_USBHRS                                   IMPT 00000000    717 
_USBIER0                                  IMPT 00000000    690 
_USBIER1                                  IMPT 00000000    691 
_USBIFR0                                  IMPT 00000000    678 
_USBIFR1                                  IMPT 00000000    679 
_USBISR0                                  IMPT 00000000    688 
_USBISR1                                  IMPT 00000000    694 
_USBTFG                                   IMPT 00000000    682 
_VLVER11_ERR_TM                           IMPT 00000000   5149 
_VLVER12_ERR_TM                           IMPT 00000000   5150 
_VLVER21_ERR_TM                           IMPT 00000000   5151 
_VLVER22_ERR_TM                           IMPT 00000000   5152 
_VLVER31_ERR_TM                           IMPT 00000000   5153 
_VLVER32_ERR_TM                           IMPT 00000000   5154 
_VUPCHECK_EQU                             EQU  11AB3739    313*
_VUP_5MS_INT                     PvupsciR EXPT 000010B0   8937  8944*
_VUP_DATA_ADR_OP1                         IMPT 00000000   2589 11736 11739 
_VUP_DATA_AREA_ADR               Bvupsciw      0000067C  10130 10192 10253 10390 11302*11366 11409 11452 11495 11562 11605 11648 
                                                         11734 11751 11828 
_VUP_DATA_AREA_CPUA                       EQU  AC070000   2315*
_VUP_DATA_AREA_CPUB                       EQU  AC400000   2317* 6139  6508  7143  9469  9488  9504  9521  9538  9580  9610  9626 
                                                          9644  9663  9681 10129 10545 11365 11408 11451 11494 11561 11604 11647 
_VUP_HSAREA_A_TO_B                        IMPT 00000000   2568 11349 11391 11434 11477 11544 11587 11630 
_VUP_HSAREA_B_TO_A                        IMPT 00000000   2561 11348 11390 11433 11476 11543 11586 11629 
_VUP_M000                        PvupsciR      000010F2   9095*
_VUP_M002                        PvupsciR      0000110A   9104  9106  9108  9110*
_VUP_M004                        PvupsciR      00001112   9114  9116*
_VUP_M010                        PvupsciR      00001128   9122  9131*
_VUP_M015                        PvupsciR      00001148   9146  9153*
_VUP_M016                        PvupsciR      00001158   9148  9166*
_VUP_M020                        PvupsciR      00001168   9144  9179*
_VUP_M550                        PvupsciR      00001188   9136  9204*
_VUP_M570                        PvupsciR      000011BC   9219  9237*
_VUP_M999                        PvupsciR      00001228   9207  9211  9221  9318  9324*
_VUP_MAIN                        PvupsciR EXPT 000010C8   5687  9014  9017*
_VUP_MEND                        PvupsciR      00001228   9125  9138  9140  9150  9159  9172  9325*
_VUP_PRG_NG_DAT                  Bvupsciw EXPT 00000686   9119  9969 10355 10651 11298 11306*
_VUP_PRG_RETRY_CNT               Bvupsciw      00000688  10348 11307*
*** SuperH RISC engine ASSEMBLER V.7.01.02.000 ***    07/04/21 19:29:24                                                  PAGE   204

*** CROSS REFERENCE LIST

NAME                             SECTION  ATTR VALUE             SEQUENCE

_VUP_PROG_SUMCHK_010             PvupsciR      0000190C  10535 10544*
_VUP_PROG_SUMCHK_050             PvupsciR      0000191A  10554*10562 10637 
_VUP_PROG_SUMCHK_100             PvupsciR      0000198E  10556 10640*
_VUP_PROG_SUMCHK_150             PvupsciR      000019A4  10646 10648 10654*
_VUP_PROG_SUMCHK_EXT             PvupsciR      000019A4  10537 10655*
_VUP_PROG_SUMCHK_NG              PvupsciR      0000199E  10649*
_VUP_PROG_SUM_CHK                PvupsciR      000018D2  10456*
_WCR1                                     IMPT 00000000    777 
_WCR2                                     IMPT 00000000    778 
_WDT_573u                                 EQU  0000A579   2430*
_WDT_9m                                   EQU  0000A57D   2429*
_WDT_TCSR                                 EQU  FFFF8610   2428*
_WK_RCV_SCFDR2                            IMPT 00000000   5255 
_WK_RCV_SCFSR2                            IMPT 00000000   5254 
_WK_RCV_SCLSR2                            IMPT 00000000   5253 
_WORD_SUUH                                EQU  00000018   2244*
_WORD_SUUL                                EQU  00000017   2243*
_WPAR1_BTNER_TM                           IMPT 00000000   5161 
_WPAR1_CMPER2_TM                          IMPT 00000000   5170 
_WPAR1_FSFTTRER_TM                        IMPT 00000000   5171 
_WPAR1_MODSER_TM1                         IMPT 00000000   5162 
_WPAR1_MODSER_TM2                         IMPT 00000000   5163 
_WPAR1_RSFTTRER_TM                        IMPT 00000000   5172 
_WPAR1_SFTSWER_TM                         IMPT 00000000   5160 
_WPAR1_VLVER11_TM1                        IMPT 00000000   5164 
_WPAR1_VLVER12_TM1                        IMPT 00000000   5165 
_WPAR1_VLVER21_TM1                        IMPT 00000000   5166 
_WPAR1_VLVER22_TM1                        IMPT 00000000   5167 
_WPAR1_VLVER31_TM1                        IMPT 00000000   5168 
_WPAR1_VLVER32_TM1                        IMPT 00000000   5169 
_WTCNT                                    IMPT 00000000    787 
_WTCSR                                    IMPT 00000000    788 
_Wait100u                                 EQU  000003EA   2421*
_Wait10m                                  EQU  000186A2   2424*
_Wait10u                                  EQU  00000066   2417*
_Wait1u                                   EQU  0000000C   2412*
_Wait200u                                 EQU  000007D2   2422*
_Wait20u                                  EQU  000000CA   2418*
_Wait2s                                   EQU  01312D02   2426*
_Wait2u                                   EQU  00000016   2413*
_Wait30u                                  EQU  0000012E   2419*
_Wait4u                                   EQU  0000002A   2414*
_Wait50m                                  EQU  0007A122   2425*
_Wait50u                                  EQU  000001F6   2420*
_Wait5m                                   EQU  0000C352   2423*
_Wait5u                                   EQU  00000034   2415*
_Wait6u                                   EQU  0000003E   2416*
_Wait_STS                                 EQU  00000064   2411* 2412  2413  2414  2415  2416  2417  2418  2419  2420  2421  2422 
                                                          2423  2424  2425  2426 
_dio_top2                                 IMPT 00000000   5479  5627  5640  8112  8125  8382  8395  8601  8614  9270  9283 10290 
                                                         10303 10595 10608 
_dpramB_top                               IMPT 00000000   5485 11543 11544 11586 11587 11629 11630 11739 
_dpram_top                                IMPT 00000000   5484  6177  7187 11543 11544 11586 11587 11629 11630 11739 
_fram_top                                 IMPT 00000000   5483  6162  6223  7171  7233  7684 
*** SuperH RISC engine ASSEMBLER V.7.01.02.000 ***    07/04/21 19:29:24                                                  PAGE   205

*** CROSS REFERENCE LIST

NAME                             SECTION  ATTR VALUE             SEQUENCE

_from_top                                 IMPT 00000000   5482  7157  9730  9746  9768  9782  9804  9818  9841  9855  9877  9891 
                                                          9914  9928 10018 10032 10055 10069 10093 10108 
_kata_adr_ld                              IMPT 00000000  12972 12990 
_kata_adr_sv                              IMPT 00000000  13016 13043 
_kata_no_ld                               IMPT 00000000  12971 12987 
_kata_no_sv                               IMPT 00000000  13015 13040 
_mmon_trans_get                           IMPT 00000000   5495 10817 
_rcv2_data_INcnt                          IMPT 00000000   5111 
_rcv2_data_buf                            IMPT 00000000   5113 
_rcv2_data_cnt                            IMPT 00000000   5112 
_rcv2_err_FRPRErrCnt                      IMPT 00000000   5105 
_rcv2_err_OverRunCnt                      IMPT 00000000   5104 
_rcv2_err_data_flg1                       IMPT 00000000   5099 
_rcv2_err_data_sts1                       IMPT 00000000   5103 
_rcv2_err_elseErrCnt                      IMPT 00000000   5106 
_rcv2_err_hard_INTflg1                    IMPT 00000000   5096 
_rcv2_err_hard_INTflg2                    IMPT 00000000   5097 
_rcv2_err_hard_INTflg3                    IMPT 00000000   5098 
_rcv2_err_hard_sts1                       IMPT 00000000   5100 
_rcv2_err_hard_sts2                       IMPT 00000000   5101 
_rcv2_err_hard_sts3                       IMPT 00000000   5102 
_rcv2_event_flg                           IMPT 00000000   5122 
_sci0_rxd_buf                    Bvupsciw      00000050   5940  6109  6492  6531  6553  6753  7113  7428  7551  7613  7668  7733 
                                                          7777  7821  7828  8169  8237  8707  8775  8973*10984 12418 
_sci0_txd_buf                    Bvupsciw      00000250   6645  6792  6850  6996  7314  7503  8435  8831  8974*11175 11199 12589 
                                                         12590 12591 12631 12659 
_sci0_wkram                      Bvupsciw      00000450   5700  5880  5899  5903  5912  5914  5916  6046  6081  6656  6808  6812 
                                                          6861  7012  7016  7053  7085  7325  7519  7523  7584  7636  7704  7746 
                                                          7790  7837  7841  7878  7883  7898  7976  8162  8432  8445  8653  8700 
                                                          8828  8841  8902  8949  8975* 9180  9214 11207 11210 12363 12546 12550 
                                                         12568 12581 12583 
_send2_data_buf                           IMPT 00000000   5118 
_send2_event_flg                          IMPT 00000000   5123 
_vup_hs_area                     Bvupsciw      00000000   6126  6251  7130  8971* 9092 10736 
*** SuperH RISC engine ASSEMBLER V.7.01.02.000 ***    07/04/21 19:29:24                                                  PAGE   206

*** SECTION DATA LIST

SECTION                          ATTRIBUTE    SIZE             START

PvupsciROM                       REL-CODE    000002660        
BvupsciwkRAM                     REL-DATA    00000168C        
