*** SuperH RISC engine ASSEMBLER V.7.01.02.000 ***    07/04/21 19:29:08                                                  PAGE     1
PROGRAM NAME =

    1                               1     ;       ***************************************************
    2                               2     ;       ***                                             ***
    3                               3     ;       ***     ﾊｰﾄﾞｳｴｱｱｸｾｽｻﾌﾞﾙｰﾁﾝ                      ***
    4                               4     ;       ***                                             ***
    5                               5     ;       ***************************************************
 4408                              18     
 4409                              19             .IMPORT         _REAL_OUT0;
 4410                              20     
 4411                              21     ;★★★★★★★★★★★★★★★★★★★★★★★★★★★★★★★★★★★★★★★★★★★★
                                          ★★★★★★★★★★★
 4412                              22     
 4413 00000000                     23             .SECTION        Phwsetup1,CODE
 4414                              24     
 4415                              25     ;       ***************************************************
 4416                              26     ;       ***                                             ***
 4417                              27     ;       ***             外部SRAMﾁｪｯｸ&ｸﾘｱ                ***
 4418                              28     ;       ***                                             ***
 4419                              29     ;       ***************************************************
 4420                              30             .export         _WORK_MEM_CHK
 4421 00000000                     31     _WORK_MEM_CHK:
 4422                              32             SUB_START
 4423 00000000 4F22                   M           STS.L   PR,@-R15                ;[必要]
 4424                                 M   ;;;;;;; ADD     #-4,R15                 ;[不要?]
 4425 00000002 244A                33             XOR     R4,R4                                   ;
 4426 00000004 299A                34             XOR     R9,R9                                   ;
 4427                              35     
 4428                              36     ;       ********************************************
 4429                              37     ;       ****            ｲﾝｸﾘﾒﾝﾀﾙWRITE           ****
 4430                              38     ;       ********************************************
 4431 00000006 D614                39             MOV.L   #_SRAM_TOP,R6                           ;
 4432 00000008 D114                40             MOV.L   #(_SRAM_SIZE+1)/4,R1                    ;SIZE BYTE-->LONG
 4433 0000000A D215                41             MOV.L   #H'5AA50001,R2                          ;DATA
 4434                              42     
 4435 0000000C                     43     WORK_MEM_CK020:                                         ;
 4436 0000000C 2118                44             TST     R1,R1                                   ;
 4437 0000000E 8934                45             BT      WORK_MEM_CK050                          ;
 4438                              46     
 4439 00000010 2622                47             MOV.L   R2,@R6                                  ;DATA -->MEM
 4440 00000012 7604                48             ADD     #4,R6                                   ;ADRESS +4
 4441 00000014 71FF                49             ADD     #H'FF,R1                                ;-1
 4442 00000016 7201                50             ADD     #1,R2                                   ;DATA +1
 4443                              51             _WDT_CLR
 4444                                 M           PUSH_REG1 R0
 4445 00000018 2F06                   M           MOV.L   R0,@-R15                ;PUSH=SP-4
 4446                                 M                                           ;REG=>[SP]
 4447                                 M                                           ;"-4" FF,FF,FF,FC
 4448                                 M           PUSH_REG1 R10
 4449 0000001A 2FA6                   M           MOV.L   R10,@-R15               ;PUSH=SP-4
 4450                                 M                                           ;REG=>[SP]
 4451                                 M                                           ;"-4" FF,FF,FF,FC
 4452                                 M           PUSH_REG1 R14
 4453 0000001C 2FE6                   M           MOV.L   R14,@-R15               ;PUSH=SP-4
 4454                                 M                                           ;REG=>[SP]
 4455                                 M                                           ;"-4" FF,FF,FF,FC
 4456                                 M   
 4457 0000001E DA11                   M           MOV.L   #_PJDR,R10                              ;
 4458 00000020 60A0                   M           MOV.B   @R10,R0
*** SuperH RISC engine ASSEMBLER V.7.01.02.000 ***    07/04/21 19:29:08                                                  PAGE     2
PROGRAM NAME =

 4459 00000022 CB10                   M           OR      #BIT4,R0
 4460 00000024 2A00                   M           MOV.B   R0,@R10
 4461 00000026 C9EF                   M           AND     #NBIT4,R0
 4462 00000028 2A00                   M           MOV.B   R0,@R10
 4463                                 M   
 4464                                 M           ;====== 2006-10-19 SAITO 追加　WDTﾎﾟｰﾄ変更 ======
 4465 0000002A DA0F                   M           MOV.L   #_IOGA2_CTRL_DAT1+_IOGA_P5,R10          ;
 4466 0000002C 60A1                   M           MOV.W   @R10,R0                                 ;
 4467 0000002E 9E10                   M           MOV.W   #BIT0,R14                               ;
 4468 00000030 20EB                   M           OR      R14,R0                                  ;
 4469 00000032 2A01                   M           MOV.W   R0,@R10                                 ; WORK
 4470                                 M   
 4471                                 M   ;;      MOV.L   #_IOGA2_CTRL_DAT1+_IOGA_P5,R10  ; WORK ADDRESS
 4472                                 M   ;;      MOV.W   @R10,R0                                 ;
 4473 00000034 9E0E                   M           MOV.W   #_IO2B_P5EX,R14                         ;
 4474 00000036 20EA                   M           XOR     R14,R0                                  ;
 4475 00000038 DA0C                   M           MOV.L   #_dio_top2+_IOGA_PDR5,R10               ; IOGA PF ADDRESS
 4476 0000003A 2A01                   M           MOV.W   R0,@R10                                 ; 実出力SET
 4477                                 M   
 4478 0000003C DA0A                   M           MOV.L   #_IOGA2_CTRL_DAT1+_IOGA_P5,R10          ;
 4479 0000003E 60A1                   M           MOV.W   @R10,R0                                 ;
 4480 00000040 9E09                   M           MOV.W   #NBIT0,R14                              ;
 4481 00000042 20E9                   M           AND     R14,R0                                  ;
 4482 00000044 2A01                   M           MOV.W   R0,@R10                                 ; WORK
 4483                                 M   
 4484                                 M   ;;      MOV.L   #_IOGA2_CTRL_DAT1+_IOGA_P5,R10  ; WORK ADDRESS
 4485                                 M   ;;      MOV.W   @R10,R0                                 ;
 4486 00000046 9E05                   M           MOV.W   #_IO2B_P5EX,R14                         ;
 4487 00000048 20EA                   M           XOR     R14,R0                                  ;
 4488 0000004A DA08                   M           MOV.L   #_dio_top2+_IOGA_PDR5,R10               ; IOGA PF ADDRESS
 4489 0000004C 2A01                   M           MOV.W   R0,@R10                                 ; 実出力SET
 4490                                 M   
 4491                                 M           M_BRA   AAA00000
 4492 0000004E A00F                   M           BRA     AAA00000
 4493 00000050 0009                   M           NOP
 4494                                 M   ***** BEGIN-POOL *****
 4495 00000052 0001                   M   DATA FOR SOURCE-LINE 51
 4496 00000054 0000                   M   DATA FOR SOURCE-LINE 51,51
 4497 00000056 00FE                   M   DATA FOR SOURCE-LINE 51
 4498 00000058 AC000000               M   DATA FOR SOURCE-LINE 39
 4499 0000005C 00080000               M   DATA FOR SOURCE-LINE 40
 4500 00000060 5AA50001               M   DATA FOR SOURCE-LINE 41
 4501 00000064 00000000               M   DATA FOR SOURCE-LINE 51
 4502 00000068 00000000               M   DATA FOR SOURCE-LINE 51,51
 4503 0000006C 00000000               M   DATA FOR SOURCE-LINE 51,51
 4504                                 M   ***** END-POOL *****
 4505 00000070                        M   AAA00000:
 4506                                 M           POP_REG1 R14
 4507                                 M                                   ; RE"+4" 00,00,00,04
 4508 00000070 6EF6                   M           MOV.L   @R15+,R14        ;
 4509                                 M           POP_REG1 R10
 4510                                 M                                   ; RE"+4" 00,00,00,04
 4511 00000072 6AF6                   M           MOV.L   @R15+,R10        ;
 4512                                 M           POP_REG1 R0
 4513                                 M                                   ; RE"+4" 00,00,00,04
 4514 00000074 60F6                   M           MOV.L   @R15+,R0        ;
 4515                              52             M_BRA   WORK_MEM_CK020                          ;
*** SuperH RISC engine ASSEMBLER V.7.01.02.000 ***    07/04/21 19:29:08                                                  PAGE     3
PROGRAM NAME =

 4516 00000076 AFC9                   M           BRA     WORK_MEM_CK020
 4517 00000078 0009                   M           NOP
 4518                              53     
 4519 0000007A                     54     WORK_MEM_CK050:
 4520                              55     ;       ********************************************
 4521                              56     ;       ****            ｲﾝｸﾘﾒﾝﾀﾙCHEAK           ****
 4522                              57     ;       ********************************************
 4523 0000007A D616                58             MOV.L   #_SRAM_TOP,R6                           ;
 4524 0000007C D116                59             MOV.L   #(_SRAM_SIZE+1)/4,R1                    ;SIZE BYTE-->LONG
 4525 0000007E D217                60             MOV.L   #H'5AA50001,R2                          ;DATA
 4526                              61     
 4527 00000080                     62     WORK_MEM_CK120:                                         ;
 4528 00000080 2118                63             TST     R1,R1                                   ;
 4529 00000082 893A                64             BT      WORK_MEM_CK150                          ;
 4530 00000084 6362                65             MOV.L   @R6,R3                                  ;
 4531 00000086 3230                66             CMP/EQ  R3,R2                                   ;
 4532 00000088 8900                67             BT      WORK_MEM_CK130                          ;
 4533 0000008A D915                68             MOV.L   #H'FF,R9
 4534 0000008C                     69     WORK_MEM_CK130:                                         ;
 4535 0000008C 7604                70             ADD     #4,R6                                   ;ADRESS +4
 4536 0000008E 71FF                71             ADD     #H'FF,R1                                ;
 4537 00000090 7201                72             ADD     #1,R2                                   ;DATA +1
 4538                              73             _WDT_CLR
 4539                                 M           PUSH_REG1 R0
 4540 00000092 2F06                   M           MOV.L   R0,@-R15                ;PUSH=SP-4
 4541                                 M                                           ;REG=>[SP]
 4542                                 M                                           ;"-4" FF,FF,FF,FC
 4543                                 M           PUSH_REG1 R10
 4544 00000094 2FA6                   M           MOV.L   R10,@-R15               ;PUSH=SP-4
 4545                                 M                                           ;REG=>[SP]
 4546                                 M                                           ;"-4" FF,FF,FF,FC
 4547                                 M           PUSH_REG1 R14
 4548 00000096 2FE6                   M           MOV.L   R14,@-R15               ;PUSH=SP-4
 4549                                 M                                           ;REG=>[SP]
 4550                                 M                                           ;"-4" FF,FF,FF,FC
 4551                                 M   
 4552 00000098 DA12                   M           MOV.L   #_PJDR,R10                              ;
 4553 0000009A 60A0                   M           MOV.B   @R10,R0
 4554 0000009C CB10                   M           OR      #BIT4,R0
 4555 0000009E 2A00                   M           MOV.B   R0,@R10
 4556 000000A0 C9EF                   M           AND     #NBIT4,R0
 4557 000000A2 2A00                   M           MOV.B   R0,@R10
 4558                                 M   
 4559                                 M           ;====== 2006-10-19 SAITO 追加　WDTﾎﾟｰﾄ変更 ======
 4560 000000A4 DA10                   M           MOV.L   #_IOGA2_CTRL_DAT1+_IOGA_P5,R10          ;
 4561 000000A6 60A1                   M           MOV.W   @R10,R0                                 ;
 4562 000000A8 9E10                   M           MOV.W   #BIT0,R14                               ;
 4563 000000AA 20EB                   M           OR      R14,R0                                  ;
 4564 000000AC 2A01                   M           MOV.W   R0,@R10                                 ; WORK
 4565                                 M   
 4566                                 M   ;;      MOV.L   #_IOGA2_CTRL_DAT1+_IOGA_P5,R10  ; WORK ADDRESS
 4567                                 M   ;;      MOV.W   @R10,R0                                 ;
 4568 000000AE 9E0E                   M           MOV.W   #_IO2B_P5EX,R14                         ;
 4569 000000B0 20EA                   M           XOR     R14,R0                                  ;
 4570 000000B2 DA0E                   M           MOV.L   #_dio_top2+_IOGA_PDR5,R10               ; IOGA PF ADDRESS
 4571 000000B4 2A01                   M           MOV.W   R0,@R10                                 ; 実出力SET
 4572                                 M   
*** SuperH RISC engine ASSEMBLER V.7.01.02.000 ***    07/04/21 19:29:08                                                  PAGE     4
PROGRAM NAME =

 4573 000000B6 DA0C                   M           MOV.L   #_IOGA2_CTRL_DAT1+_IOGA_P5,R10          ;
 4574 000000B8 60A1                   M           MOV.W   @R10,R0                                 ;
 4575 000000BA 9E09                   M           MOV.W   #NBIT0,R14                              ;
 4576 000000BC 20E9                   M           AND     R14,R0                                  ;
 4577 000000BE 2A01                   M           MOV.W   R0,@R10                                 ; WORK
 4578                                 M   
 4579                                 M   ;;      MOV.L   #_IOGA2_CTRL_DAT1+_IOGA_P5,R10  ; WORK ADDRESS
 4580                                 M   ;;      MOV.W   @R10,R0                                 ;
 4581 000000C0 9E05                   M           MOV.W   #_IO2B_P5EX,R14                         ;
 4582 000000C2 20EA                   M           XOR     R14,R0                                  ;
 4583 000000C4 DA09                   M           MOV.L   #_dio_top2+_IOGA_PDR5,R10               ; IOGA PF ADDRESS
 4584 000000C6 2A01                   M           MOV.W   R0,@R10                                 ; 実出力SET
 4585                                 M   
 4586                                 M           M_BRA   AAA00001
 4587 000000C8 A012                   M           BRA     AAA00001
 4588 000000CA 0009                   M           NOP
 4589                                 M   ***** BEGIN-POOL *****
 4590 000000CC 0001                   M   DATA FOR SOURCE-LINE 73
 4591 000000CE 0000                   M   DATA FOR SOURCE-LINE 73,73
 4592 000000D0 00FE                   M   DATA FOR SOURCE-LINE 73
 4593 000000D2 0000                   M   ALIGNMENT CODE
 4594 000000D4 AC000000               M   DATA FOR SOURCE-LINE 58
 4595 000000D8 00080000               M   DATA FOR SOURCE-LINE 59
 4596 000000DC 5AA50001               M   DATA FOR SOURCE-LINE 60
 4597 000000E0 000000FF               M   DATA FOR SOURCE-LINE 68
 4598 000000E4 00000000               M   DATA FOR SOURCE-LINE 73
 4599 000000E8 00000000               M   DATA FOR SOURCE-LINE 73,73
 4600 000000EC 00000000               M   DATA FOR SOURCE-LINE 73,73
 4601                                 M   ***** END-POOL *****
 4602 000000F0                        M   AAA00001:
 4603                                 M           POP_REG1 R14
 4604                                 M                                   ; RE"+4" 00,00,00,04
 4605 000000F0 6EF6                   M           MOV.L   @R15+,R14        ;
 4606                                 M           POP_REG1 R10
 4607                                 M                                   ; RE"+4" 00,00,00,04
 4608 000000F2 6AF6                   M           MOV.L   @R15+,R10        ;
 4609                                 M           POP_REG1 R0
 4610                                 M                                   ; RE"+4" 00,00,00,04
 4611 000000F4 60F6                   M           MOV.L   @R15+,R0        ;
 4612                              74             M_BRA   WORK_MEM_CK120                          ;
 4613 000000F6 AFC3                   M           BRA     WORK_MEM_CK120
 4614 000000F8 0009                   M           NOP
 4615                              75     
 4616 000000FA                     76     WORK_MEM_CK150:                                         ;
 4617                              77             M_BRA   WORK_MEM_CK350                          ;
 4618 000000FA A07A                   M           BRA     WORK_MEM_CK350
 4619 000000FC 0009                   M           NOP
 4620                              78     ;       ********************************************
 4621                              79     ;       ****            ﾃﾞｸﾘﾒﾝﾄWRITE            ****
 4622                              80     ;       ********************************************
 4623 000000FE D614                81             MOV.L   #_SRAM_TOP,R6                           ;
 4624 00000100 D114                82             MOV.L   #(_SRAM_SIZE+1)/4,R1                    ;SIZE BYTE-->LONG
 4625 00000102 D215                83             MOV.L   #H'5AA50001,R2                          ;DATA
 4626                              84     
 4627 00000104                     85     WORK_MEM_CK220:                                         ;
 4628 00000104 2118                86             TST     R1,R1                                   ;
 4629 00000106 8934                87             BT      WORK_MEM_CK250                          ;
*** SuperH RISC engine ASSEMBLER V.7.01.02.000 ***    07/04/21 19:29:08                                                  PAGE     5
PROGRAM NAME =

 4630                              88     
 4631 00000108 2622                89             MOV.L   R2,@R6                                  ;DATA -->MEM
 4632 0000010A 7604                90             ADD     #4,R6                                   ;ADRESS +4
 4633 0000010C 71FF                91             ADD     #H'FF,R1                                ;-1
 4634 0000010E 72FF                92             ADD     #H'FF,R2                                ;DATA -1
 4635                              93             _WDT_CLR
 4636                                 M           PUSH_REG1 R0
 4637 00000110 2F06                   M           MOV.L   R0,@-R15                ;PUSH=SP-4
 4638                                 M                                           ;REG=>[SP]
 4639                                 M                                           ;"-4" FF,FF,FF,FC
 4640                                 M           PUSH_REG1 R10
 4641 00000112 2FA6                   M           MOV.L   R10,@-R15               ;PUSH=SP-4
 4642                                 M                                           ;REG=>[SP]
 4643                                 M                                           ;"-4" FF,FF,FF,FC
 4644                                 M           PUSH_REG1 R14
 4645 00000114 2FE6                   M           MOV.L   R14,@-R15               ;PUSH=SP-4
 4646                                 M                                           ;REG=>[SP]
 4647                                 M                                           ;"-4" FF,FF,FF,FC
 4648                                 M   
 4649 00000116 DA11                   M           MOV.L   #_PJDR,R10                              ;
 4650 00000118 60A0                   M           MOV.B   @R10,R0
 4651 0000011A CB10                   M           OR      #BIT4,R0
 4652 0000011C 2A00                   M           MOV.B   R0,@R10
 4653 0000011E C9EF                   M           AND     #NBIT4,R0
 4654 00000120 2A00                   M           MOV.B   R0,@R10
 4655                                 M   
 4656                                 M           ;====== 2006-10-19 SAITO 追加　WDTﾎﾟｰﾄ変更 ======
 4657 00000122 DA0F                   M           MOV.L   #_IOGA2_CTRL_DAT1+_IOGA_P5,R10          ;
 4658 00000124 60A1                   M           MOV.W   @R10,R0                                 ;
 4659 00000126 9E10                   M           MOV.W   #BIT0,R14                               ;
 4660 00000128 20EB                   M           OR      R14,R0                                  ;
 4661 0000012A 2A01                   M           MOV.W   R0,@R10                                 ; WORK
 4662                                 M   
 4663                                 M   ;;      MOV.L   #_IOGA2_CTRL_DAT1+_IOGA_P5,R10  ; WORK ADDRESS
 4664                                 M   ;;      MOV.W   @R10,R0                                 ;
 4665 0000012C 9E0E                   M           MOV.W   #_IO2B_P5EX,R14                         ;
 4666 0000012E 20EA                   M           XOR     R14,R0                                  ;
 4667 00000130 DA0C                   M           MOV.L   #_dio_top2+_IOGA_PDR5,R10               ; IOGA PF ADDRESS
 4668 00000132 2A01                   M           MOV.W   R0,@R10                                 ; 実出力SET
 4669                                 M   
 4670 00000134 DA0A                   M           MOV.L   #_IOGA2_CTRL_DAT1+_IOGA_P5,R10          ;
 4671 00000136 60A1                   M           MOV.W   @R10,R0                                 ;
 4672 00000138 9E09                   M           MOV.W   #NBIT0,R14                              ;
 4673 0000013A 20E9                   M           AND     R14,R0                                  ;
 4674 0000013C 2A01                   M           MOV.W   R0,@R10                                 ; WORK
 4675                                 M   
 4676                                 M   ;;      MOV.L   #_IOGA2_CTRL_DAT1+_IOGA_P5,R10  ; WORK ADDRESS
 4677                                 M   ;;      MOV.W   @R10,R0                                 ;
 4678 0000013E 9E05                   M           MOV.W   #_IO2B_P5EX,R14                         ;
 4679 00000140 20EA                   M           XOR     R14,R0                                  ;
 4680 00000142 DA08                   M           MOV.L   #_dio_top2+_IOGA_PDR5,R10               ; IOGA PF ADDRESS
 4681 00000144 2A01                   M           MOV.W   R0,@R10                                 ; 実出力SET
 4682                                 M   
 4683                                 M           M_BRA   AAA00002
 4684 00000146 A00F                   M           BRA     AAA00002
 4685 00000148 0009                   M           NOP
 4686                                 M   ***** BEGIN-POOL *****
*** SuperH RISC engine ASSEMBLER V.7.01.02.000 ***    07/04/21 19:29:08                                                  PAGE     6
PROGRAM NAME =

 4687 0000014A 0001                   M   DATA FOR SOURCE-LINE 93
 4688 0000014C 0000                   M   DATA FOR SOURCE-LINE 93,93
 4689 0000014E 00FE                   M   DATA FOR SOURCE-LINE 93
 4690 00000150 AC000000               M   DATA FOR SOURCE-LINE 81
 4691 00000154 00080000               M   DATA FOR SOURCE-LINE 82
 4692 00000158 5AA50001               M   DATA FOR SOURCE-LINE 83
 4693 0000015C 00000000               M   DATA FOR SOURCE-LINE 93
 4694 00000160 00000000               M   DATA FOR SOURCE-LINE 93,93
 4695 00000164 00000000               M   DATA FOR SOURCE-LINE 93,93
 4696                                 M   ***** END-POOL *****
 4697 00000168                        M   AAA00002:
 4698                                 M           POP_REG1 R14
 4699                                 M                                   ; RE"+4" 00,00,00,04
 4700 00000168 6EF6                   M           MOV.L   @R15+,R14        ;
 4701                                 M           POP_REG1 R10
 4702                                 M                                   ; RE"+4" 00,00,00,04
 4703 0000016A 6AF6                   M           MOV.L   @R15+,R10        ;
 4704                                 M           POP_REG1 R0
 4705                                 M                                   ; RE"+4" 00,00,00,04
 4706 0000016C 60F6                   M           MOV.L   @R15+,R0        ;
 4707                              94             M_BRA   WORK_MEM_CK220                          ;
 4708 0000016E AFC9                   M           BRA     WORK_MEM_CK220
 4709 00000170 0009                   M           NOP
 4710                              95     
 4711 00000172                     96     WORK_MEM_CK250:
 4712                              97     ;       ********************************************
 4713                              98     ;       ****            ﾃﾞｸﾘﾒﾝﾄCHEAK            ****
 4714                              99     ;       ********************************************
 4715 00000172 D616               100             MOV.L   #_SRAM_TOP,R6                           ;
 4716 00000174 D116               101             MOV.L   #(_SRAM_SIZE+1)/4,R1                    ;SIZE BYTE-->LONG
 4717 00000176 D217               102             MOV.L   #H'5AA50001,R2                          ;DATA
 4718                             103     
 4719 00000178                    104     WORK_MEM_CK320:                                         ;
 4720 00000178 2118               105             TST     R1,R1                                   ;
 4721 0000017A 893A               106             BT      WORK_MEM_CK350                          ;
 4722 0000017C 6362               107             MOV.L   @R6,R3                                  ;
 4723 0000017E 3230               108             CMP/EQ  R3,R2                                   ;
 4724 00000180 8900               109             BT      WORK_MEM_CK330                          ;
 4725 00000182 D915               110             MOV.L   #H'FF,R9
 4726 00000184                    111     WORK_MEM_CK330:                                         ;
 4727 00000184 7604               112             ADD     #4,R6                                   ;ADRESS +4
 4728 00000186 71FF               113             ADD     #H'FF,R1                                ;
 4729 00000188 72FF               114             ADD     #H'FF,R2                                ;DATA -1
 4730                             115             _WDT_CLR
 4731                                 M           PUSH_REG1 R0
 4732 0000018A 2F06                   M           MOV.L   R0,@-R15                ;PUSH=SP-4
 4733                                 M                                           ;REG=>[SP]
 4734                                 M                                           ;"-4" FF,FF,FF,FC
 4735                                 M           PUSH_REG1 R10
 4736 0000018C 2FA6                   M           MOV.L   R10,@-R15               ;PUSH=SP-4
 4737                                 M                                           ;REG=>[SP]
 4738                                 M                                           ;"-4" FF,FF,FF,FC
 4739                                 M           PUSH_REG1 R14
 4740 0000018E 2FE6                   M           MOV.L   R14,@-R15               ;PUSH=SP-4
 4741                                 M                                           ;REG=>[SP]
 4742                                 M                                           ;"-4" FF,FF,FF,FC
 4743                                 M   
*** SuperH RISC engine ASSEMBLER V.7.01.02.000 ***    07/04/21 19:29:08                                                  PAGE     7
PROGRAM NAME =

 4744 00000190 DA12                   M           MOV.L   #_PJDR,R10                              ;
 4745 00000192 60A0                   M           MOV.B   @R10,R0
 4746 00000194 CB10                   M           OR      #BIT4,R0
 4747 00000196 2A00                   M           MOV.B   R0,@R10
 4748 00000198 C9EF                   M           AND     #NBIT4,R0
 4749 0000019A 2A00                   M           MOV.B   R0,@R10
 4750                                 M   
 4751                                 M           ;====== 2006-10-19 SAITO 追加　WDTﾎﾟｰﾄ変更 ======
 4752 0000019C DA10                   M           MOV.L   #_IOGA2_CTRL_DAT1+_IOGA_P5,R10          ;
 4753 0000019E 60A1                   M           MOV.W   @R10,R0                                 ;
 4754 000001A0 9E10                   M           MOV.W   #BIT0,R14                               ;
 4755 000001A2 20EB                   M           OR      R14,R0                                  ;
 4756 000001A4 2A01                   M           MOV.W   R0,@R10                                 ; WORK
 4757                                 M   
 4758                                 M   ;;      MOV.L   #_IOGA2_CTRL_DAT1+_IOGA_P5,R10  ; WORK ADDRESS
 4759                                 M   ;;      MOV.W   @R10,R0                                 ;
 4760 000001A6 9E0E                   M           MOV.W   #_IO2B_P5EX,R14                         ;
 4761 000001A8 20EA                   M           XOR     R14,R0                                  ;
 4762 000001AA DA0E                   M           MOV.L   #_dio_top2+_IOGA_PDR5,R10               ; IOGA PF ADDRESS
 4763 000001AC 2A01                   M           MOV.W   R0,@R10                                 ; 実出力SET
 4764                                 M   
 4765 000001AE DA0C                   M           MOV.L   #_IOGA2_CTRL_DAT1+_IOGA_P5,R10          ;
 4766 000001B0 60A1                   M           MOV.W   @R10,R0                                 ;
 4767 000001B2 9E09                   M           MOV.W   #NBIT0,R14                              ;
 4768 000001B4 20E9                   M           AND     R14,R0                                  ;
 4769 000001B6 2A01                   M           MOV.W   R0,@R10                                 ; WORK
 4770                                 M   
 4771                                 M   ;;      MOV.L   #_IOGA2_CTRL_DAT1+_IOGA_P5,R10  ; WORK ADDRESS
 4772                                 M   ;;      MOV.W   @R10,R0                                 ;
 4773 000001B8 9E05                   M           MOV.W   #_IO2B_P5EX,R14                         ;
 4774 000001BA 20EA                   M           XOR     R14,R0                                  ;
 4775 000001BC DA09                   M           MOV.L   #_dio_top2+_IOGA_PDR5,R10               ; IOGA PF ADDRESS
 4776 000001BE 2A01                   M           MOV.W   R0,@R10                                 ; 実出力SET
 4777                                 M   
 4778                                 M           M_BRA   AAA00003
 4779 000001C0 A012                   M           BRA     AAA00003
 4780 000001C2 0009                   M           NOP
 4781                                 M   ***** BEGIN-POOL *****
 4782 000001C4 0001                   M   DATA FOR SOURCE-LINE 115
 4783 000001C6 0000                   M   DATA FOR SOURCE-LINE 115,115
 4784 000001C8 00FE                   M   DATA FOR SOURCE-LINE 115
 4785 000001CA 0000                   M   ALIGNMENT CODE
 4786 000001CC AC000000               M   DATA FOR SOURCE-LINE 100
 4787 000001D0 00080000               M   DATA FOR SOURCE-LINE 101
 4788 000001D4 5AA50001               M   DATA FOR SOURCE-LINE 102
 4789 000001D8 000000FF               M   DATA FOR SOURCE-LINE 110
 4790 000001DC 00000000               M   DATA FOR SOURCE-LINE 115
 4791 000001E0 00000000               M   DATA FOR SOURCE-LINE 115,115
 4792 000001E4 00000000               M   DATA FOR SOURCE-LINE 115,115
 4793                                 M   ***** END-POOL *****
 4794 000001E8                        M   AAA00003:
 4795                                 M           POP_REG1 R14
 4796                                 M                                   ; RE"+4" 00,00,00,04
 4797 000001E8 6EF6                   M           MOV.L   @R15+,R14        ;
 4798                                 M           POP_REG1 R10
 4799                                 M                                   ; RE"+4" 00,00,00,04
 4800 000001EA 6AF6                   M           MOV.L   @R15+,R10        ;
*** SuperH RISC engine ASSEMBLER V.7.01.02.000 ***    07/04/21 19:29:08                                                  PAGE     8
PROGRAM NAME =

 4801                                 M           POP_REG1 R0
 4802                                 M                                   ; RE"+4" 00,00,00,04
 4803 000001EC 60F6                   M           MOV.L   @R15+,R0        ;
 4804                             116             M_BRA   WORK_MEM_CK320                          ;
 4805 000001EE AFC3                   M           BRA     WORK_MEM_CK320
 4806 000001F0 0009                   M           NOP
 4807                             117     
 4808 000001F2                    118     WORK_MEM_CK350:
 4809                             119     ;       ********************************************
 4810                             120     ;       ****            0WRITE                  ****
 4811                             121     ;       ********************************************
 4812 000001F2 D614               122             MOV.L   #_SRAM_TOP,R6                           ;
 4813 000001F4 D114               123             MOV.L   #(_SRAM_SIZE+1)/4,R1                    ;SIZE BYTE-->LONG
 4814 000001F6 D215               124             MOV.L   #H'0,R2                                 ;DATA
 4815                             125     
 4816 000001F8                    126     WORK_MEM_CK420:                                         ;
 4817 000001F8 2118               127             TST     R1,R1                                   ;
 4818 000001FA 8934               128             BT      WORK_MEM_CK450                          ;
 4819                             129     
 4820 000001FC 2622               130             MOV.L   R2,@R6                                  ;DATA -->MEM
 4821 000001FE 7604               131             ADD     #4,R6                                   ;ADRESS +4
 4822 00000200 71FF               132             ADD     #H'FF,R1                                ;-1
 4823                             133             _WDT_CLR
 4824                                 M           PUSH_REG1 R0
 4825 00000202 2F06                   M           MOV.L   R0,@-R15                ;PUSH=SP-4
 4826                                 M                                           ;REG=>[SP]
 4827                                 M                                           ;"-4" FF,FF,FF,FC
 4828                                 M           PUSH_REG1 R10
 4829 00000204 2FA6                   M           MOV.L   R10,@-R15               ;PUSH=SP-4
 4830                                 M                                           ;REG=>[SP]
 4831                                 M                                           ;"-4" FF,FF,FF,FC
 4832                                 M           PUSH_REG1 R14
 4833 00000206 2FE6                   M           MOV.L   R14,@-R15               ;PUSH=SP-4
 4834                                 M                                           ;REG=>[SP]
 4835                                 M                                           ;"-4" FF,FF,FF,FC
 4836                                 M   
 4837 00000208 DA11                   M           MOV.L   #_PJDR,R10                              ;
 4838 0000020A 60A0                   M           MOV.B   @R10,R0
 4839 0000020C CB10                   M           OR      #BIT4,R0
 4840 0000020E 2A00                   M           MOV.B   R0,@R10
 4841 00000210 C9EF                   M           AND     #NBIT4,R0
 4842 00000212 2A00                   M           MOV.B   R0,@R10
 4843                                 M   
 4844                                 M           ;====== 2006-10-19 SAITO 追加　WDTﾎﾟｰﾄ変更 ======
 4845 00000214 DA0F                   M           MOV.L   #_IOGA2_CTRL_DAT1+_IOGA_P5,R10          ;
 4846 00000216 60A1                   M           MOV.W   @R10,R0                                 ;
 4847 00000218 9E10                   M           MOV.W   #BIT0,R14                               ;
 4848 0000021A 20EB                   M           OR      R14,R0                                  ;
 4849 0000021C 2A01                   M           MOV.W   R0,@R10                                 ; WORK
 4850                                 M   
 4851                                 M   ;;      MOV.L   #_IOGA2_CTRL_DAT1+_IOGA_P5,R10  ; WORK ADDRESS
 4852                                 M   ;;      MOV.W   @R10,R0                                 ;
 4853 0000021E 9E0E                   M           MOV.W   #_IO2B_P5EX,R14                         ;
 4854 00000220 20EA                   M           XOR     R14,R0                                  ;
 4855 00000222 DA0D                   M           MOV.L   #_dio_top2+_IOGA_PDR5,R10               ; IOGA PF ADDRESS
 4856 00000224 2A01                   M           MOV.W   R0,@R10                                 ; 実出力SET
 4857                                 M   
*** SuperH RISC engine ASSEMBLER V.7.01.02.000 ***    07/04/21 19:29:08                                                  PAGE     9
PROGRAM NAME =

 4858 00000226 DA0B                   M           MOV.L   #_IOGA2_CTRL_DAT1+_IOGA_P5,R10          ;
 4859 00000228 60A1                   M           MOV.W   @R10,R0                                 ;
 4860 0000022A 9E09                   M           MOV.W   #NBIT0,R14                              ;
 4861 0000022C 20E9                   M           AND     R14,R0                                  ;
 4862 0000022E 2A01                   M           MOV.W   R0,@R10                                 ; WORK
 4863                                 M   
 4864                                 M   ;;      MOV.L   #_IOGA2_CTRL_DAT1+_IOGA_P5,R10  ; WORK ADDRESS
 4865                                 M   ;;      MOV.W   @R10,R0                                 ;
 4866 00000230 9E05                   M           MOV.W   #_IO2B_P5EX,R14                         ;
 4867 00000232 20EA                   M           XOR     R14,R0                                  ;
 4868 00000234 DA08                   M           MOV.L   #_dio_top2+_IOGA_PDR5,R10               ; IOGA PF ADDRESS
 4869 00000236 2A01                   M           MOV.W   R0,@R10                                 ; 実出力SET
 4870                                 M   
 4871                                 M           M_BRA   AAA00004
 4872 00000238 A010                   M           BRA     AAA00004
 4873 0000023A 0009                   M           NOP
 4874                                 M   ***** BEGIN-POOL *****
 4875 0000023C 0001                   M   DATA FOR SOURCE-LINE 133
 4876 0000023E 0000                   M   DATA FOR SOURCE-LINE 133,133
 4877 00000240 00FE                   M   DATA FOR SOURCE-LINE 133
 4878 00000242 0000                   M   ALIGNMENT CODE
 4879 00000244 AC000000               M   DATA FOR SOURCE-LINE 122
 4880 00000248 00080000               M   DATA FOR SOURCE-LINE 123
 4881 0000024C 00000000               M   DATA FOR SOURCE-LINE 124
 4882 00000250 00000000               M   DATA FOR SOURCE-LINE 133
 4883 00000254 00000000               M   DATA FOR SOURCE-LINE 133,133
 4884 00000258 00000000               M   DATA FOR SOURCE-LINE 133,133
 4885                                 M   ***** END-POOL *****
 4886 0000025C                        M   AAA00004:
 4887                                 M           POP_REG1 R14
 4888                                 M                                   ; RE"+4" 00,00,00,04
 4889 0000025C 6EF6                   M           MOV.L   @R15+,R14        ;
 4890                                 M           POP_REG1 R10
 4891                                 M                                   ; RE"+4" 00,00,00,04
 4892 0000025E 6AF6                   M           MOV.L   @R15+,R10        ;
 4893                                 M           POP_REG1 R0
 4894                                 M                                   ; RE"+4" 00,00,00,04
 4895 00000260 60F6                   M           MOV.L   @R15+,R0        ;
 4896                             134             M_BRA   WORK_MEM_CK420                          ;
 4897 00000262 AFC9                   M           BRA     WORK_MEM_CK420
 4898 00000264 0009                   M           NOP
 4899                             135     
 4900 00000266                    136     WORK_MEM_CK450:
 4901 00000266 2998               137             TST     R9,R9
 4902 00000268 8909               138             BT      WORK_MEM_CKEND
 4903                             139     
 4904 0000026A                    140     WORK_MEM_EREND:
 4905                             141             .AIF    1 EQ 0
 4906                             142             MOV.L   #_PADR,R5
 4907                             143             MOV.W   @R5,R0
 4908                             144             MOV.W   #H'1000,R1                              ; CPUBER
 4909                             145             OR      R1,R0                                   ; ON
 4910                             146             MOV.W   R0,@R5
 4911                             147             .AELSE
 4912 0000026A D106               148 C           MOV.L   #_IOGA1_CTRL_DAT1+_IOGAo_PF,R1          ;
 4913 0000026C 6011               149 C           MOV.W   @R1,R0
 4914 0000026E CB80               150 C           OR      #BIT7,R0                                ; WORK SET
*** SuperH RISC engine ASSEMBLER V.7.01.02.000 ***    07/04/21 19:29:08                                                  PAGE    10
PROGRAM NAME =

 4915 00000270 2101               151 C           MOV.W   R0,@R1                                  ; CPUBER SET
 4916                             152 C           _MC_GA1PF_OUT1  R0,R1,R2                        ; WORK -> PORT
 4917 00000272 D104                   M           MOV.L   #_IOGA1_CTRL_DAT1+_IOGAo_PF,R1          ; WORK ADDRESS
 4918 00000274 6011                   M           MOV.W   @R1,R0                          ;
 4919                                 M   
 4920                                 M           .AIF    3        EQ     0
 4921                                                     MOV.B   #GA1_PFEX,R2                            ;
 4922                                                     XOR     R2,R0                           ;
 4923                                                     MOV.L   #_dio_top1+_IOGAo_PF,R1                 ; IOGA PF ADDRESS
 4924                                                     MOV.W   R0,@R1                          ; 実出力SET
 4925                                             .AELIF  3        EQ     2
 4926                                                     MOV.B   #_IO1A_P5EX,R2                          ;
 4927                                                     XOR     R2,R0                           ;
 4928                                                     MOV.L   #_dio_top1+_IOGA_PDR5,R1                        ; IOGA PF ADDRESS
 4929                                                     MOV.W   R0,@R1                          ; 実出力SET
 4930                                             .AELIF  3        EQ     3
 4931 00000276 E270                   C                   MOV.B   #_IO1B_P5EX,R2                          ;
 4932 00000278 202A                   C                   XOR     R2,R0                           ;
 4933 0000027A D103                   C                   MOV.L   #_dio_top1+_IOGA_PDR5,R1                        ; IOGA PF ADDRESS
 4934 0000027C 2101                   C                   MOV.W   R0,@R1                          ; 実出力SET
 4935                                 M           .AENDI
 4936                             153             .AENDI
 4937                             154     
 4938 0000027E                    155     WORK_MEM_CKEND:
 4939                             156             SUB_END
 4940                                 M   ;;;;;;; ADD     #4,R15                  ;[不要?]
 4941 0000027E 4F26                   M           LDS.L   @R15+,PR                ;[必要]
 4942                             157             M_RTS
 4943 00000280 000B                   M           RTS                             ;RTSの後ろの
 4944 00000282 0009                   M           NOP                             ;@R15+,PRはﾀﾞﾒ
 4945                             158     
 4946                             159     
 4947                             160     ;       ***************************************************
 4948                             161     ;       ***                                             ***
 4949                             162     ;       ***             外部SRAMﾁｪｯｸ&ｸﾘｱ                ***
 4950                             163     ;       ***                                             ***
 4951                             164     ;       ***************************************************
 4952                             165             .export         _WORK_MEM_CHK2
 4953                                     ***** BEGIN-POOL *****
 4954 00000284 00000000                   DATA FOR SOURCE-LINE 148,152
 4955 00000288 00000000                   DATA FOR SOURCE-LINE 152
 4956                                     ***** END-POOL *****
 4957 0000028C                    166     _WORK_MEM_CHK2:
 4958                             167             SUB_START
 4959 0000028C 4F22                   M           STS.L   PR,@-R15                ;[必要]
 4960                                 M   ;;;;;;; ADD     #-4,R15                 ;[不要?]
 4961 0000028E 244A               168             XOR     R4,R4                                   ;
 4962 00000290 299A               169             XOR     R9,R9                                   ;
 4963                             170     
 4964 00000292 D60F               171             MOV.L   #_SRAM_TOP,R6                           ;
 4965 00000294 D10F               172             MOV.L   #(_SRAM_SIZE+1)/4,R1                    ;SIZE BYTE-->LONG
 4966 00000296 D210               173             MOV.L   #H'5A5A5A5A,R2                          ;DATA
 4967 00000298 D310               174             MOV.L   #H'A5A5A5A5,R3                          ;DATA
 4968                             175     
 4969 0000029A                    176     WORK_MEM_CK2020:                                        ;
 4970 0000029A 2118               177             TST     R1,R1                                   ;
 4971 0000029C 8926               178             BT      WORK_MEM_CK2050                         ;
*** SuperH RISC engine ASSEMBLER V.7.01.02.000 ***    07/04/21 19:29:08                                                  PAGE    11
PROGRAM NAME =

 4972                             179     
 4973 0000029E 2622               180             MOV.L   R2,@R6                                  ;DATA -->MEM
 4974 000002A0 0009               181             NOP
 4975 000002A2 6062               182             MOV.L   @R6,R0                                  ;MEM -->
 4976 000002A4 3020               183             CMP/EQ  R2,R0                                   ;同じ？
 4977 000002A6 8900               184             BT      WORK_MEM_CK2030                         ;はい
 4978 000002A8 D90D               185             MOV.L   #H'FF,R9                                ;ｴﾗｰ記憶
 4979 000002AA                    186     WORK_MEM_CK2030:
 4980 000002AA 2632               187             MOV.L   R3,@R6                                  ;DATA -->MEM
 4981 000002AC 0009               188             NOP
 4982 000002AE 6062               189             MOV.L   @R6,R0                                  ;MEM -->
 4983 000002B0 3030               190             CMP/EQ  R3,R0                                   ;同じ？
 4984 000002B2 8900               191             BT      WORK_MEM_CK2040                         ;はい
 4985 000002B4 D90A               192             MOV.L   #H'FF,R9                                ;ｴﾗｰ記憶
 4986 000002B6                    193     WORK_MEM_CK2040:
 4987 000002B6 2642               194             MOV.L   R4,@R6                                  ;0WRITE
 4988 000002B8 7604               195             ADD     #4,R6                                   ;ADRESS +4
 4989 000002BA 71FF               196             ADD     #-1,R1                                  ;-1
 4990                             197             _WDT_CLR_MEMCHK
 4991 000002BC DA09                   M           MOV.L   #_PJDR,R10                              ;
 4992 000002BE 60A0                   M           MOV.B   @R10,R0
 4993 000002C0 CA10                   M           XOR     #BIT4,R0
 4994 000002C2 2A00                   M           MOV.B   R0,@R10
 4995                                 M   
 4996                                 M           ;====== 2006-10-19 SAITO 追加　WDTﾎﾟｰﾄ変更 ======
 4997 000002C4 DA08                   M           MOV.L   #_dio_top2+_IOGA_PDR5,R10               ; IOGA PF ADDRESS
 4998 000002C6 60A1                   M           MOV.W   @R10,R0                                 ;
 4999 000002C8 CA01                   M           XOR     #BIT0,R0                                ;
 5000 000002CA 2A01                   M           MOV.W   R0,@R10                                 ; WORK
 5001                             198             M_BRA   WORK_MEM_CK2020                         ;
 5002 000002CC AFE5                   M           BRA     WORK_MEM_CK2020
 5003 000002CE 0009                   M           NOP
 5004                             199     
 5005                                     ***** BEGIN-POOL *****
 5006 000002D0 AC000000                   DATA FOR SOURCE-LINE 171
 5007 000002D4 00080000                   DATA FOR SOURCE-LINE 172
 5008 000002D8 5A5A5A5A                   DATA FOR SOURCE-LINE 173
 5009 000002DC A5A5A5A5                   DATA FOR SOURCE-LINE 174
 5010 000002E0 000000FF                   DATA FOR SOURCE-LINE 185,192
 5011 000002E4 00000000                   DATA FOR SOURCE-LINE 197
 5012 000002E8 00000000                   DATA FOR SOURCE-LINE 197
 5013                                     ***** END-POOL *****
 5014 000002EC                    200     WORK_MEM_CK2050:
 5015 000002EC 2998               201             TST     R9,R9
 5016 000002EE 8909               202             BT      WORK_MEM_CK2END
 5017                             203     
 5018 000002F0                    204     WORK_MEM_ER2END:
 5019                             205             .AIF    1 EQ 0
 5020                             206             MOV.L   #_PADR,R5
 5021                             207             MOV.W   @R5,R0
 5022                             208             MOV.W   #H'1000,R1                              ; CPUBER
 5023                             209             OR      R1,R0                                   ; ON
 5024                             210             MOV.W   R0,@R5
 5025                             211             .AELSE
 5026 000002F0 D106               212 C           MOV.L   #_IOGA1_CTRL_DAT1+_IOGAo_PF,R1          ;
 5027 000002F2 6011               213 C           MOV.W   @R1,R0
 5028 000002F4 CB80               214 C           OR      #BIT7,R0                                ; WORK SET
*** SuperH RISC engine ASSEMBLER V.7.01.02.000 ***    07/04/21 19:29:08                                                  PAGE    12
PROGRAM NAME =

 5029 000002F6 2101               215 C           MOV.W   R0,@R1                                  ; CPUBER SET
 5030                             216 C           _MC_GA1PF_OUT1  R0,R1,R2                        ; WORK -> PORT
 5031 000002F8 D104                   M           MOV.L   #_IOGA1_CTRL_DAT1+_IOGAo_PF,R1          ; WORK ADDRESS
 5032 000002FA 6011                   M           MOV.W   @R1,R0                          ;
 5033                                 M   
 5034                                 M           .AIF    3        EQ     0
 5035                                                     MOV.B   #GA1_PFEX,R2                            ;
 5036                                                     XOR     R2,R0                           ;
 5037                                                     MOV.L   #_dio_top1+_IOGAo_PF,R1                 ; IOGA PF ADDRESS
 5038                                                     MOV.W   R0,@R1                          ; 実出力SET
 5039                                             .AELIF  3        EQ     2
 5040                                                     MOV.B   #_IO1A_P5EX,R2                          ;
 5041                                                     XOR     R2,R0                           ;
 5042                                                     MOV.L   #_dio_top1+_IOGA_PDR5,R1                        ; IOGA PF ADDRESS
 5043                                                     MOV.W   R0,@R1                          ; 実出力SET
 5044                                             .AELIF  3        EQ     3
 5045 000002FC E270                   C                   MOV.B   #_IO1B_P5EX,R2                          ;
 5046 000002FE 202A                   C                   XOR     R2,R0                           ;
 5047 00000300 D103                   C                   MOV.L   #_dio_top1+_IOGA_PDR5,R1                        ; IOGA PF ADDRESS
 5048 00000302 2101                   C                   MOV.W   R0,@R1                          ; 実出力SET
 5049                                 M           .AENDI
 5050                             217             .AENDI
 5051                             218     
 5052 00000304                    219     WORK_MEM_CK2END:
 5053                             220             SUB_END
 5054                                 M   ;;;;;;; ADD     #4,R15                  ;[不要?]
 5055 00000304 4F26                   M           LDS.L   @R15+,PR                ;[必要]
 5056                             221             M_RTS
 5057 00000306 000B                   M           RTS                             ;RTSの後ろの
 5058 00000308 0009                   M           NOP                             ;@R15+,PRはﾀﾞﾒ
 5059                             222     
 5060                             223     
 5061                             224     ;       ***************************************************
 5062                             225     ;       ***                                             ***
 5063                             226     ;       ***             内蔵SRAMｸﾘｱ                     ***
 5064                             227     ;       ***                                             ***
 5065                             228     ;       ***************************************************
 5066                             229             .export         _IRAM_CLEAR
 5067                                     ***** BEGIN-POOL *****
 5068 0000030A 0000                       ALIGNMENT CODE
 5069 0000030C 00000000                   DATA FOR SOURCE-LINE 212,216
 5070 00000310 00000000                   DATA FOR SOURCE-LINE 216
 5071                                     ***** END-POOL *****
 5072 00000314                    230     _IRAM_CLEAR:
 5073                             231             SUB_START
 5074 00000314 4F22                   M           STS.L   PR,@-R15                ;[必要]
 5075                                 M   ;;;;;;; ADD     #-4,R15                 ;[不要?]
 5076                             232     
 5077                             233     ;///////        MOV.L   #_IRAM_TOP,R6                           ;
 5078                             234     ;///////        MOV.L   #(_IRAM_SIZE+1)/4-H'40,R1               ;SIZE BYTE-->LONG
 5079 00000316 D614               235             MOV.L   #H'A5017000,R6                          ;V05
 5080 00000318 D114               236             MOV.L   #(H'2000-H'40)/4,R1                     ;SIZE BYTE-->LONG
 5081 0000031A D215               237             MOV.L   #H'0,R2                                 ;DATA------17000〜18FA0までやって
                                          いるがSTCAKが187F0~18FEF
 5082                             238                                                             ;この時点であれば大してｽﾀｯｸを使用
                                          していないから問題ないが。
 5083                             239     
*** SuperH RISC engine ASSEMBLER V.7.01.02.000 ***    07/04/21 19:29:08                                                  PAGE    13
PROGRAM NAME =

 5084 0000031C                    240     _IRAM_CR020:                                            ;
 5085 0000031C 2118               241             TST     R1,R1                                   ;
 5086 0000031E 8934               242             BT      _IRAM_CR050                             ;
 5087                             243     
 5088 00000320 2622               244             MOV.L   R2,@R6                                  ;DATA -->MEM
 5089 00000322 7604               245             ADD     #4,R6                                   ;ADRESS +4
 5090 00000324 71FF               246             ADD     #-1,R1                          ;-1
 5091                             247             _WDT_CLR
 5092                                 M           PUSH_REG1 R0
 5093 00000326 2F06                   M           MOV.L   R0,@-R15                ;PUSH=SP-4
 5094                                 M                                           ;REG=>[SP]
 5095                                 M                                           ;"-4" FF,FF,FF,FC
 5096                                 M           PUSH_REG1 R10
 5097 00000328 2FA6                   M           MOV.L   R10,@-R15               ;PUSH=SP-4
 5098                                 M                                           ;REG=>[SP]
 5099                                 M                                           ;"-4" FF,FF,FF,FC
 5100                                 M           PUSH_REG1 R14
 5101 0000032A 2FE6                   M           MOV.L   R14,@-R15               ;PUSH=SP-4
 5102                                 M                                           ;REG=>[SP]
 5103                                 M                                           ;"-4" FF,FF,FF,FC
 5104                                 M   
 5105 0000032C DA11                   M           MOV.L   #_PJDR,R10                              ;
 5106 0000032E 60A0                   M           MOV.B   @R10,R0
 5107 00000330 CB10                   M           OR      #BIT4,R0
 5108 00000332 2A00                   M           MOV.B   R0,@R10
 5109 00000334 C9EF                   M           AND     #NBIT4,R0
 5110 00000336 2A00                   M           MOV.B   R0,@R10
 5111                                 M   
 5112                                 M           ;====== 2006-10-19 SAITO 追加　WDTﾎﾟｰﾄ変更 ======
 5113 00000338 DA0F                   M           MOV.L   #_IOGA2_CTRL_DAT1+_IOGA_P5,R10          ;
 5114 0000033A 60A1                   M           MOV.W   @R10,R0                                 ;
 5115 0000033C 9E10                   M           MOV.W   #BIT0,R14                               ;
 5116 0000033E 20EB                   M           OR      R14,R0                                  ;
 5117 00000340 2A01                   M           MOV.W   R0,@R10                                 ; WORK
 5118                                 M   
 5119                                 M   ;;      MOV.L   #_IOGA2_CTRL_DAT1+_IOGA_P5,R10  ; WORK ADDRESS
 5120                                 M   ;;      MOV.W   @R10,R0                                 ;
 5121 00000342 9E0E                   M           MOV.W   #_IO2B_P5EX,R14                         ;
 5122 00000344 20EA                   M           XOR     R14,R0                                  ;
 5123 00000346 DA0D                   M           MOV.L   #_dio_top2+_IOGA_PDR5,R10               ; IOGA PF ADDRESS
 5124 00000348 2A01                   M           MOV.W   R0,@R10                                 ; 実出力SET
 5125                                 M   
 5126 0000034A DA0B                   M           MOV.L   #_IOGA2_CTRL_DAT1+_IOGA_P5,R10          ;
 5127 0000034C 60A1                   M           MOV.W   @R10,R0                                 ;
 5128 0000034E 9E09                   M           MOV.W   #NBIT0,R14                              ;
 5129 00000350 20E9                   M           AND     R14,R0                                  ;
 5130 00000352 2A01                   M           MOV.W   R0,@R10                                 ; WORK
 5131                                 M   
 5132                                 M   ;;      MOV.L   #_IOGA2_CTRL_DAT1+_IOGA_P5,R10  ; WORK ADDRESS
 5133                                 M   ;;      MOV.W   @R10,R0                                 ;
 5134 00000354 9E05                   M           MOV.W   #_IO2B_P5EX,R14                         ;
 5135 00000356 20EA                   M           XOR     R14,R0                                  ;
 5136 00000358 DA08                   M           MOV.L   #_dio_top2+_IOGA_PDR5,R10               ; IOGA PF ADDRESS
 5137 0000035A 2A01                   M           MOV.W   R0,@R10                                 ; 実出力SET
 5138                                 M   
 5139                                 M           M_BRA   AAA00005
 5140 0000035C A010                   M           BRA     AAA00005
*** SuperH RISC engine ASSEMBLER V.7.01.02.000 ***    07/04/21 19:29:08                                                  PAGE    14
PROGRAM NAME =

 5141 0000035E 0009                   M           NOP
 5142                                 M   ***** BEGIN-POOL *****
 5143 00000360 0001                   M   DATA FOR SOURCE-LINE 247
 5144 00000362 0000                   M   DATA FOR SOURCE-LINE 247,247
 5145 00000364 00FE                   M   DATA FOR SOURCE-LINE 247
 5146 00000366 0000                   M   ALIGNMENT CODE
 5147 00000368 A5017000               M   DATA FOR SOURCE-LINE 235
 5148 0000036C 000007F0               M   DATA FOR SOURCE-LINE 236
 5149 00000370 00000000               M   DATA FOR SOURCE-LINE 237
 5150 00000374 00000000               M   DATA FOR SOURCE-LINE 247
 5151 00000378 00000000               M   DATA FOR SOURCE-LINE 247,247
 5152 0000037C 00000000               M   DATA FOR SOURCE-LINE 247,247
 5153                                 M   ***** END-POOL *****
 5154 00000380                        M   AAA00005:
 5155                                 M           POP_REG1 R14
 5156                                 M                                   ; RE"+4" 00,00,00,04
 5157 00000380 6EF6                   M           MOV.L   @R15+,R14        ;
 5158                                 M           POP_REG1 R10
 5159                                 M                                   ; RE"+4" 00,00,00,04
 5160 00000382 6AF6                   M           MOV.L   @R15+,R10        ;
 5161                                 M           POP_REG1 R0
 5162                                 M                                   ; RE"+4" 00,00,00,04
 5163 00000384 60F6                   M           MOV.L   @R15+,R0        ;
 5164                             248             M_BRA   _IRAM_CR020                             ;
 5165 00000386 AFC9                   M           BRA     _IRAM_CR020
 5166 00000388 0009                   M           NOP
 5167                             249     
 5168 0000038A                    250     _IRAM_CR050:
 5169                             251             SUB_END
 5170                                 M   ;;;;;;; ADD     #4,R15                  ;[不要?]
 5171 0000038A 4F26                   M           LDS.L   @R15+,PR                ;[必要]
 5172                             252             M_RTS
 5173 0000038C 000B                   M           RTS                             ;RTSの後ろの
 5174 0000038E 0009                   M           NOP                             ;@R15+,PRはﾀﾞﾒ
 5175                             253     
 5176                             254     
 5177                             255     ;       ***************************************************
 5178                             256     ;       ***                                             ***
 5179                             257     ;       ***             DPRAMﾁｪｯｸ&ｸﾘｱ                   ***
 5180                             258     ;       ***                                             ***
 5181                             259     ;       ***************************************************
 5182                             260             .import         _dpram_top                              ;
 5183                             261             .export         _DP_MEM_CHK
 5184 00000390                    262     _DP_MEM_CHK:
 5185                             263             SUB_START
 5186 00000390 4F22                   M           STS.L   PR,@-R15                ;[必要]
 5187                                 M   ;;;;;;; ADD     #-4,R15                 ;[不要?]
 5188                             264     
 5189 00000392 D515               265             MOV.L   #_dpram_top,R5                          ;
 5190 00000394 D615               266             MOV.L   #(_DPRAM_SIZE+1-4)/2,R6                 ;SIZE BYTE-->WORD
 5191 00000396 9121               267             MOV.W   #H'5AA5,R1
 5192 00000398 9221               268             MOV.W   #H'A55A,R2                              ;
 5193 0000039A 9321               269             MOV.W   #H'0000,R3
 5194 0000039C 299A               270             XOR     R9,R9
 5195                             271     
 5196 0000039E                    272     _DP_MEM_CK_LOOP:
 5197 0000039E 2668               273             TST     R6,R6
*** SuperH RISC engine ASSEMBLER V.7.01.02.000 ***    07/04/21 19:29:08                                                  PAGE    15
PROGRAM NAME =

 5198 000003A0 894A               274             BT      _DP_MEM_CK400
 5199                             275     
 5200                             276             _WDT_CLR
 5201                                 M           PUSH_REG1 R0
 5202 000003A2 2F06                   M           MOV.L   R0,@-R15                ;PUSH=SP-4
 5203                                 M                                           ;REG=>[SP]
 5204                                 M                                           ;"-4" FF,FF,FF,FC
 5205                                 M           PUSH_REG1 R10
 5206 000003A4 2FA6                   M           MOV.L   R10,@-R15               ;PUSH=SP-4
 5207                                 M                                           ;REG=>[SP]
 5208                                 M                                           ;"-4" FF,FF,FF,FC
 5209                                 M           PUSH_REG1 R14
 5210 000003A6 2FE6                   M           MOV.L   R14,@-R15               ;PUSH=SP-4
 5211                                 M                                           ;REG=>[SP]
 5212                                 M                                           ;"-4" FF,FF,FF,FC
 5213                                 M   
 5214 000003A8 DA11                   M           MOV.L   #_PJDR,R10                              ;
 5215 000003AA 60A0                   M           MOV.B   @R10,R0
 5216 000003AC CB10                   M           OR      #BIT4,R0
 5217 000003AE 2A00                   M           MOV.B   R0,@R10
 5218 000003B0 C9EF                   M           AND     #NBIT4,R0
 5219 000003B2 2A00                   M           MOV.B   R0,@R10
 5220                                 M   
 5221                                 M           ;====== 2006-10-19 SAITO 追加　WDTﾎﾟｰﾄ変更 ======
 5222 000003B4 DA0F                   M           MOV.L   #_IOGA2_CTRL_DAT1+_IOGA_P5,R10          ;
 5223 000003B6 60A1                   M           MOV.W   @R10,R0                                 ;
 5224 000003B8 9E13                   M           MOV.W   #BIT0,R14                               ;
 5225 000003BA 20EB                   M           OR      R14,R0                                  ;
 5226 000003BC 2A01                   M           MOV.W   R0,@R10                                 ; WORK
 5227                                 M   
 5228                                 M   ;;      MOV.L   #_IOGA2_CTRL_DAT1+_IOGA_P5,R10  ; WORK ADDRESS
 5229                                 M   ;;      MOV.W   @R10,R0                                 ;
 5230 000003BE 9E0F                   M           MOV.W   #_IO2B_P5EX,R14                         ;
 5231 000003C0 20EA                   M           XOR     R14,R0                                  ;
 5232 000003C2 DA0D                   M           MOV.L   #_dio_top2+_IOGA_PDR5,R10               ; IOGA PF ADDRESS
 5233 000003C4 2A01                   M           MOV.W   R0,@R10                                 ; 実出力SET
 5234                                 M   
 5235 000003C6 DA0B                   M           MOV.L   #_IOGA2_CTRL_DAT1+_IOGA_P5,R10          ;
 5236 000003C8 60A1                   M           MOV.W   @R10,R0                                 ;
 5237 000003CA 9E0B                   M           MOV.W   #NBIT0,R14                              ;
 5238 000003CC 20E9                   M           AND     R14,R0                                  ;
 5239 000003CE 2A01                   M           MOV.W   R0,@R10                                 ; WORK
 5240                                 M   
 5241                                 M   ;;      MOV.L   #_IOGA2_CTRL_DAT1+_IOGA_P5,R10  ; WORK ADDRESS
 5242                                 M   ;;      MOV.W   @R10,R0                                 ;
 5243 000003D0 9E06                   M           MOV.W   #_IO2B_P5EX,R14                         ;
 5244 000003D2 20EA                   M           XOR     R14,R0                                  ;
 5245 000003D4 DA08                   M           MOV.L   #_dio_top2+_IOGA_PDR5,R10               ; IOGA PF ADDRESS
 5246 000003D6 2A01                   M           MOV.W   R0,@R10                                 ; 実出力SET
 5247                                 M   
 5248                                 M           M_BRA   AAA00006
 5249 000003D8 A010                   M           BRA     AAA00006
 5250 000003DA 0009                   M           NOP
 5251                                 M   ***** BEGIN-POOL *****
 5252 000003DC 5AA5                   M   DATA FOR SOURCE-LINE 267
 5253 000003DE A55A                   M   DATA FOR SOURCE-LINE 268
 5254 000003E0 0000                   M   DATA FOR SOURCE-LINE 269,276,276
*** SuperH RISC engine ASSEMBLER V.7.01.02.000 ***    07/04/21 19:29:08                                                  PAGE    16
PROGRAM NAME =

 5255 000003E2 0001                   M   DATA FOR SOURCE-LINE 276
 5256 000003E4 00FE                   M   DATA FOR SOURCE-LINE 276
 5257 000003E6 0000                   M   ALIGNMENT CODE
 5258 000003E8 00000000               M   DATA FOR SOURCE-LINE 265
 5259 000003EC 00001FFE               M   DATA FOR SOURCE-LINE 266
 5260 000003F0 00000000               M   DATA FOR SOURCE-LINE 276
 5261 000003F4 00000000               M   DATA FOR SOURCE-LINE 276,276
 5262 000003F8 00000000               M   DATA FOR SOURCE-LINE 276,276
 5263                                 M   ***** END-POOL *****
 5264 000003FC                        M   AAA00006:
 5265                                 M           POP_REG1 R14
 5266                                 M                                   ; RE"+4" 00,00,00,04
 5267 000003FC 6EF6                   M           MOV.L   @R15+,R14        ;
 5268                                 M           POP_REG1 R10
 5269                                 M                                   ; RE"+4" 00,00,00,04
 5270 000003FE 6AF6                   M           MOV.L   @R15+,R10        ;
 5271                                 M           POP_REG1 R0
 5272                                 M                                   ; RE"+4" 00,00,00,04
 5273 00000400 60F6                   M           MOV.L   @R15+,R0        ;
 5274                             277     
 5275 00000402 2511               278             MOV.W   R1,@R5                                  ;
 5276 00000404 0009               279             nop
 5277 00000406 0009               280             nop
 5278 00000408 6451               281             MOV.W   @R5,R4                                  ;
 5279 0000040A 3410               282             CMP/EQ  R1,R4                                   ;
 5280 0000040C 8900               283             BT      _DP_MEM_CK100                           ;5A WR NO ERR
 5281 0000040E D909               284             MOV.L   #H'FF,R9
 5282 00000410                    285     _DP_MEM_CK100:
 5283 00000410 2521               286             MOV.W   R2,@R5                                  ;
 5284 00000412 0009               287             nop
 5285 00000414 0009               288             nop
 5286 00000416 6451               289             MOV.W   @R5,R4                                  ;
 5287 00000418 3420               290             CMP/EQ  R2,R4                                   ;
 5288 0000041A 8900               291             BT      _DP_MEM_CK200                           ;A5 WR NO ERR
 5289 0000041C D905               292             MOV.L   #H'FF,R9
 5290 0000041E                    293     _DP_MEM_CK200:
 5291 0000041E 2531               294             MOV.W   R3,@R5                                  ;
 5292 00000420 0009               295             nop
 5293 00000422 0009               296             nop
 5294 00000424 6451               297             MOV.W   @R5,R4                                  ;
 5295 00000426 3430               298             CMP/EQ  R3,R4                                   ;
 5296 00000428 8900               299             BT      _DP_MEM_CK300                           ;00 WR NO ERR
 5297 0000042A D902               300             MOV.L   #H'FF,R9
 5298 0000042C                    301     _DP_MEM_CK300:
 5299                             302     
 5300 0000042C 7502               303             ADD     #2,R5                                   ;
 5301 0000042E 76FF               304             ADD     #H'FF,R6                                ;
 5302                             305             M_BRA   _DP_MEM_CK_LOOP                 ;
 5303 00000430 AFB5                   M           BRA     _DP_MEM_CK_LOOP
 5304 00000432 0009                   M           NOP
 5305                             306     
 5306                                     ***** BEGIN-POOL *****
 5307 00000434 000000FF                   DATA FOR SOURCE-LINE 284,292,300
 5308                                     ***** END-POOL *****
 5309 00000438                    307     _DP_MEM_CK400:
 5310 00000438 2998               308             TST     R9,R9
 5311 0000043A 8909               309             BT      _DP_MEM_CKEND
*** SuperH RISC engine ASSEMBLER V.7.01.02.000 ***    07/04/21 19:29:08                                                  PAGE    17
PROGRAM NAME =

 5312                             310     
 5313 0000043C                    311     _DP_MEM_EREND:
 5314                             312             .AIF    1 EQ 0
 5315                             313             MOV.L   #_PADR,R5
 5316                             314             MOV.W   @R5,R0
 5317                             315             MOV.W   #H'1000,R1                              ; CPUBER
 5318                             316             OR      R1,R0                                   ; ON
 5319                             317             MOV.W   R0,@R5
 5320                             318             .AELSE
 5321 0000043C D106               319 C           MOV.L   #_IOGA1_CTRL_DAT1+_IOGAo_PF,R1          ;
 5322 0000043E 6011               320 C           MOV.W   @R1,R0
 5323 00000440 CB80               321 C           OR      #BIT7,R0                                ; WORK SET
 5324 00000442 2101               322 C           MOV.W   R0,@R1                                  ; CPUBER SET
 5325                             323 C           _MC_GA1PF_OUT1  R0,R1,R2                        ; WORK -> PORT
 5326 00000444 D104                   M           MOV.L   #_IOGA1_CTRL_DAT1+_IOGAo_PF,R1          ; WORK ADDRESS
 5327 00000446 6011                   M           MOV.W   @R1,R0                          ;
 5328                                 M   
 5329                                 M           .AIF    3        EQ     0
 5330                                                     MOV.B   #GA1_PFEX,R2                            ;
 5331                                                     XOR     R2,R0                           ;
 5332                                                     MOV.L   #_dio_top1+_IOGAo_PF,R1                 ; IOGA PF ADDRESS
 5333                                                     MOV.W   R0,@R1                          ; 実出力SET
 5334                                             .AELIF  3        EQ     2
 5335                                                     MOV.B   #_IO1A_P5EX,R2                          ;
 5336                                                     XOR     R2,R0                           ;
 5337                                                     MOV.L   #_dio_top1+_IOGA_PDR5,R1                        ; IOGA PF ADDRESS
 5338                                                     MOV.W   R0,@R1                          ; 実出力SET
 5339                                             .AELIF  3        EQ     3
 5340 00000448 E270                   C                   MOV.B   #_IO1B_P5EX,R2                          ;
 5341 0000044A 202A                   C                   XOR     R2,R0                           ;
 5342 0000044C D103                   C                   MOV.L   #_dio_top1+_IOGA_PDR5,R1                        ; IOGA PF ADDRESS
 5343 0000044E 2101                   C                   MOV.W   R0,@R1                          ; 実出力SET
 5344                                 M           .AENDI
 5345                             324             .AENDI
 5346                             325     
 5347 00000450                    326     _DP_MEM_CKEND
 5348                             327             SUB_END
 5349                                 M   ;;;;;;; ADD     #4,R15                  ;[不要?]
 5350 00000450 4F26                   M           LDS.L   @R15+,PR                ;[必要]
 5351                             328             M_RTS
 5352 00000452 000B                   M           RTS                             ;RTSの後ろの
 5353 00000454 0009                   M           NOP                             ;@R15+,PRはﾀﾞﾒ
 5354                             329     
 5355                             330     
 5356                             331     
 5357                             332     
 5358                             333     
 5359                             334     
 5360                             335     
 5361                             336     
 5362                             337     
 5363                             338     
 5364                             339     
 5365                             340     
 5366                             341     
 5367                             342     
 5368                             343     
*** SuperH RISC engine ASSEMBLER V.7.01.02.000 ***    07/04/21 19:29:08                                                  PAGE    18
PROGRAM NAME =

 5369                             344     
 5370                             345     ;       ***************************************************
 5371                             346     ;       ***                                             ***
 5372                             347     ;       ***             DPRAMﾁｪｯｸ&ｸﾘｱ                   ***
 5373                             348     ;       ***             mc 2013-12-02                   ***
 5374                             349     ;       ***************************************************
 5375                             350             .import         _dpramB_top
 5376                             351             .export         _DP2_MEM_CHK
 5377                                     ***** BEGIN-POOL *****
 5378 00000456 0000                       ALIGNMENT CODE
 5379 00000458 00000000                   DATA FOR SOURCE-LINE 319,323
 5380 0000045C 00000000                   DATA FOR SOURCE-LINE 323
 5381                                     ***** END-POOL *****
 5382 00000460                    352     _DP2_MEM_CHK:
 5383                             353             SUB_START
 5384 00000460 4F22                   M           STS.L   PR,@-R15                ;[必要]
 5385                                 M   ;;;;;;; ADD     #-4,R15                 ;[不要?]
 5386                             354     
 5387 00000462 D515               355             MOV.L   #_dpramB_top,R5                         ;
 5388 00000464 D615               356             MOV.L   #(_DPRAM_SIZE+1-4)/2,R6                 ;SIZE BYTE-->WORD
 5389 00000466 9121               357             MOV.W   #H'5AA5,R1
 5390 00000468 9221               358             MOV.W   #H'A55A,R2                              ;
 5391 0000046A 9321               359             MOV.W   #H'0000,R3
 5392 0000046C 299A               360             XOR     R9,R9
 5393                             361     
 5394 0000046E                    362     _DP2_MEM_CK_LOOP:
 5395 0000046E 2668               363             TST     R6,R6
 5396 00000470 894A               364             BT      _DP2_MEM_CK400
 5397                             365     
 5398                             366             _WDT_CLR
 5399                                 M           PUSH_REG1 R0
 5400 00000472 2F06                   M           MOV.L   R0,@-R15                ;PUSH=SP-4
 5401                                 M                                           ;REG=>[SP]
 5402                                 M                                           ;"-4" FF,FF,FF,FC
 5403                                 M           PUSH_REG1 R10
 5404 00000474 2FA6                   M           MOV.L   R10,@-R15               ;PUSH=SP-4
 5405                                 M                                           ;REG=>[SP]
 5406                                 M                                           ;"-4" FF,FF,FF,FC
 5407                                 M           PUSH_REG1 R14
 5408 00000476 2FE6                   M           MOV.L   R14,@-R15               ;PUSH=SP-4
 5409                                 M                                           ;REG=>[SP]
 5410                                 M                                           ;"-4" FF,FF,FF,FC
 5411                                 M   
 5412 00000478 DA11                   M           MOV.L   #_PJDR,R10                              ;
 5413 0000047A 60A0                   M           MOV.B   @R10,R0
 5414 0000047C CB10                   M           OR      #BIT4,R0
 5415 0000047E 2A00                   M           MOV.B   R0,@R10
 5416 00000480 C9EF                   M           AND     #NBIT4,R0
 5417 00000482 2A00                   M           MOV.B   R0,@R10
 5418                                 M   
 5419                                 M           ;====== 2006-10-19 SAITO 追加　WDTﾎﾟｰﾄ変更 ======
 5420 00000484 DA0F                   M           MOV.L   #_IOGA2_CTRL_DAT1+_IOGA_P5,R10          ;
 5421 00000486 60A1                   M           MOV.W   @R10,R0                                 ;
 5422 00000488 9E13                   M           MOV.W   #BIT0,R14                               ;
 5423 0000048A 20EB                   M           OR      R14,R0                                  ;
 5424 0000048C 2A01                   M           MOV.W   R0,@R10                                 ; WORK
 5425                                 M   
*** SuperH RISC engine ASSEMBLER V.7.01.02.000 ***    07/04/21 19:29:08                                                  PAGE    19
PROGRAM NAME =

 5426                                 M   ;;      MOV.L   #_IOGA2_CTRL_DAT1+_IOGA_P5,R10  ; WORK ADDRESS
 5427                                 M   ;;      MOV.W   @R10,R0                                 ;
 5428 0000048E 9E0F                   M           MOV.W   #_IO2B_P5EX,R14                         ;
 5429 00000490 20EA                   M           XOR     R14,R0                                  ;
 5430 00000492 DA0D                   M           MOV.L   #_dio_top2+_IOGA_PDR5,R10               ; IOGA PF ADDRESS
 5431 00000494 2A01                   M           MOV.W   R0,@R10                                 ; 実出力SET
 5432                                 M   
 5433 00000496 DA0B                   M           MOV.L   #_IOGA2_CTRL_DAT1+_IOGA_P5,R10          ;
 5434 00000498 60A1                   M           MOV.W   @R10,R0                                 ;
 5435 0000049A 9E0B                   M           MOV.W   #NBIT0,R14                              ;
 5436 0000049C 20E9                   M           AND     R14,R0                                  ;
 5437 0000049E 2A01                   M           MOV.W   R0,@R10                                 ; WORK
 5438                                 M   
 5439                                 M   ;;      MOV.L   #_IOGA2_CTRL_DAT1+_IOGA_P5,R10  ; WORK ADDRESS
 5440                                 M   ;;      MOV.W   @R10,R0                                 ;
 5441 000004A0 9E06                   M           MOV.W   #_IO2B_P5EX,R14                         ;
 5442 000004A2 20EA                   M           XOR     R14,R0                                  ;
 5443 000004A4 DA08                   M           MOV.L   #_dio_top2+_IOGA_PDR5,R10               ; IOGA PF ADDRESS
 5444 000004A6 2A01                   M           MOV.W   R0,@R10                                 ; 実出力SET
 5445                                 M   
 5446                                 M           M_BRA   AAA00007
 5447 000004A8 A010                   M           BRA     AAA00007
 5448 000004AA 0009                   M           NOP
 5449                                 M   ***** BEGIN-POOL *****
 5450 000004AC 5AA5                   M   DATA FOR SOURCE-LINE 357
 5451 000004AE A55A                   M   DATA FOR SOURCE-LINE 358
 5452 000004B0 0000                   M   DATA FOR SOURCE-LINE 359,366,366
 5453 000004B2 0001                   M   DATA FOR SOURCE-LINE 366
 5454 000004B4 00FE                   M   DATA FOR SOURCE-LINE 366
 5455 000004B6 0000                   M   ALIGNMENT CODE
 5456 000004B8 00000000               M   DATA FOR SOURCE-LINE 355
 5457 000004BC 00001FFE               M   DATA FOR SOURCE-LINE 356
 5458 000004C0 00000000               M   DATA FOR SOURCE-LINE 366
 5459 000004C4 00000000               M   DATA FOR SOURCE-LINE 366,366
 5460 000004C8 00000000               M   DATA FOR SOURCE-LINE 366,366
 5461                                 M   ***** END-POOL *****
 5462 000004CC                        M   AAA00007:
 5463                                 M           POP_REG1 R14
 5464                                 M                                   ; RE"+4" 00,00,00,04
 5465 000004CC 6EF6                   M           MOV.L   @R15+,R14        ;
 5466                                 M           POP_REG1 R10
 5467                                 M                                   ; RE"+4" 00,00,00,04
 5468 000004CE 6AF6                   M           MOV.L   @R15+,R10        ;
 5469                                 M           POP_REG1 R0
 5470                                 M                                   ; RE"+4" 00,00,00,04
 5471 000004D0 60F6                   M           MOV.L   @R15+,R0        ;
 5472                             367     
 5473 000004D2 2511               368             MOV.W   R1,@R5                                  ;
 5474 000004D4 0009               369             nop
 5475 000004D6 0009               370             nop
 5476 000004D8 6451               371             MOV.W   @R5,R4                                  ;
 5477 000004DA 3410               372             CMP/EQ  R1,R4                                   ;
 5478 000004DC 8900               373             BT      _DP2_MEM_CK100                          ;5A WR NO ERR
 5479 000004DE D909               374             MOV.L   #H'FF,R9
 5480 000004E0                    375     _DP2_MEM_CK100:
 5481 000004E0 2521               376             MOV.W   R2,@R5                                  ;
 5482 000004E2 0009               377             nop
*** SuperH RISC engine ASSEMBLER V.7.01.02.000 ***    07/04/21 19:29:08                                                  PAGE    20
PROGRAM NAME =

 5483 000004E4 0009               378             nop
 5484 000004E6 6451               379             MOV.W   @R5,R4                                  ;
 5485 000004E8 3420               380             CMP/EQ  R2,R4                                   ;
 5486 000004EA 8900               381             BT      _DP2_MEM_CK200                          ;A5 WR NO ERR
 5487 000004EC D905               382             MOV.L   #H'FF,R9
 5488 000004EE                    383     _DP2_MEM_CK200:
 5489 000004EE 2531               384             MOV.W   R3,@R5                                  ;
 5490 000004F0 0009               385             nop
 5491 000004F2 0009               386             nop
 5492 000004F4 6451               387             MOV.W   @R5,R4                                  ;
 5493 000004F6 3430               388             CMP/EQ  R3,R4                                   ;
 5494 000004F8 8900               389             BT      _DP2_MEM_CK300                          ;00 WR NO ERR
 5495 000004FA D902               390             MOV.L   #H'FF,R9
 5496 000004FC                    391     _DP2_MEM_CK300:
 5497                             392     
 5498 000004FC 7502               393             ADD     #2,R5                                   ;
 5499 000004FE 76FF               394             ADD     #H'FF,R6                                ;
 5500                             395             M_BRA   _DP2_MEM_CK_LOOP                        ;
 5501 00000500 AFB5                   M           BRA     _DP2_MEM_CK_LOOP
 5502 00000502 0009                   M           NOP
 5503                             396     
 5504                                     ***** BEGIN-POOL *****
 5505 00000504 000000FF                   DATA FOR SOURCE-LINE 374,382,390
 5506                                     ***** END-POOL *****
 5507 00000508                    397     _DP2_MEM_CK400:
 5508 00000508 2998               398             TST     R9,R9
 5509 0000050A 89A1               399             BT      _DP_MEM_CKEND
 5510                             400     
 5511 0000050C                    401     _DP2_MEM_EREND:
 5512                             402             .AIF    1 EQ 0
 5513                             403             MOV.L   #_PADR,R5
 5514                             404             MOV.W   @R5,R0
 5515                             405             MOV.W   #H'1000,R1                              ; CPUBER
 5516                             406             OR      R1,R0                                   ; ON
 5517                             407             MOV.W   R0,@R5
 5518                             408             .AELSE
 5519 0000050C D106               409 C           MOV.L   #_IOGA1_CTRL_DAT1+_IOGAo_PF,R1          ;
 5520 0000050E 6011               410 C           MOV.W   @R1,R0
 5521 00000510 CB80               411 C           OR      #BIT7,R0                                ; WORK SET
 5522 00000512 2101               412 C           MOV.W   R0,@R1                                  ; CPUBER SET
 5523                             413 C           _MC_GA1PF_OUT1  R0,R1,R2                        ; WORK -> PORT
 5524 00000514 D104                   M           MOV.L   #_IOGA1_CTRL_DAT1+_IOGAo_PF,R1          ; WORK ADDRESS
 5525 00000516 6011                   M           MOV.W   @R1,R0                          ;
 5526                                 M   
 5527                                 M           .AIF    3        EQ     0
 5528                                                     MOV.B   #GA1_PFEX,R2                            ;
 5529                                                     XOR     R2,R0                           ;
 5530                                                     MOV.L   #_dio_top1+_IOGAo_PF,R1                 ; IOGA PF ADDRESS
 5531                                                     MOV.W   R0,@R1                          ; 実出力SET
 5532                                             .AELIF  3        EQ     2
 5533                                                     MOV.B   #_IO1A_P5EX,R2                          ;
 5534                                                     XOR     R2,R0                           ;
 5535                                                     MOV.L   #_dio_top1+_IOGA_PDR5,R1                        ; IOGA PF ADDRESS
 5536                                                     MOV.W   R0,@R1                          ; 実出力SET
 5537                                             .AELIF  3        EQ     3
 5538 00000518 E270                   C                   MOV.B   #_IO1B_P5EX,R2                          ;
 5539 0000051A 202A                   C                   XOR     R2,R0                           ;
*** SuperH RISC engine ASSEMBLER V.7.01.02.000 ***    07/04/21 19:29:08                                                  PAGE    21
PROGRAM NAME =

 5540 0000051C D103                   C                   MOV.L   #_dio_top1+_IOGA_PDR5,R1                        ; IOGA PF ADDRESS
 5541 0000051E 2101                   C                   MOV.W   R0,@R1                          ; 実出力SET
 5542                                 M           .AENDI
 5543                             414             .AENDI
 5544                             415     
 5545 00000520                    416     _DP2_MEM_CKEND
 5546                             417             SUB_END
 5547                                 M   ;;;;;;; ADD     #4,R15                  ;[不要?]
 5548 00000520 4F26                   M           LDS.L   @R15+,PR                ;[必要]
 5549                             418             M_RTS
 5550 00000522 000B                   M           RTS                             ;RTSの後ろの
 5551 00000524 0009                   M           NOP                             ;@R15+,PRはﾀﾞﾒ
 5552                             419     
 5553                             420     
 5554                             421     ;       ***************************************************
 5555                             422     ;       ***                                             ***
 5556                             423     ;       ***     SCI ﾌﾟﾛｸﾞﾗﾑ COPY                        ***
 5557                             424     ;       ***     ROM -> RAM                              ***
 5558                             425     ;       ***                                             ***
 5559                             426     ;       ***************************************************
 5560                             427             .IMPORT         __PvupsciROM_BGN
 5561                             428             .IMPORT         __PvupsciRAM_BGN
 5562                             429             .IMPORT         __PvupsciROM_END
 5563                             430             .EXPORT         _SCI0_PRO_ROM_TO_RAM
 5564                                     ***** BEGIN-POOL *****
 5565 00000526 0000                       ALIGNMENT CODE
 5566 00000528 00000000                   DATA FOR SOURCE-LINE 409,413
 5567 0000052C 00000000                   DATA FOR SOURCE-LINE 413
 5568                                     ***** END-POOL *****
 5569 00000530                    431     _SCI0_PRO_ROM_TO_RAM:
 5570                             432             SUB_START
 5571 00000530 4F22                   M           STS.L   PR,@-R15                ;[必要]
 5572                                 M   ;;;;;;; ADD     #-4,R15                 ;[不要?]
 5573                             433     
 5574 00000532 D017               434             MOV.L   #__PvupsciROM_BGN,R0
 5575 00000534 6502               435             MOV.L   @R0,R5                                  ;DATA SORCE
 5576 00000536 D017               436             MOV.L   #__PvupsciRAM_BGN,R0
 5577 00000538 6602               437             MOV.L   @R0,R6                                  ;DATA DIST
 5578 0000053A D017               438             MOV.L   #__PvupsciROM_END,R0
 5579 0000053C 6402               439             MOV.L   @R0,R4                                  ;
 5580 0000053E 3458               440             SUB     R5,R4                                   ;
 5581 00000540 4401               441             SHLR    R4                                      ;
 5582                             442     
 5583 00000542                    443     _VPC_LOOP:
 5584 00000542 4415               444             CMP/PL  R4
 5585 00000544 8B35               445             BF      _VPC_LOOP_END                           ;ZERO or MINS THEN EXIT
 5586                             446     
 5587 00000546 6055               447             MOV.W   @R5+,R0                                 ;
 5588 00000548 2601               448             MOV.W   R0,@R6                                  ;
 5589 0000054A 7602               449             ADD     #2,R6                                   ;
 5590 0000054C 74FF               450             ADD     #H'FF,R4                                ;
 5591                             451             _WDT_CLR
 5592                                 M           PUSH_REG1 R0
 5593 0000054E 2F06                   M           MOV.L   R0,@-R15                ;PUSH=SP-4
 5594                                 M                                           ;REG=>[SP]
 5595                                 M                                           ;"-4" FF,FF,FF,FC
 5596                                 M           PUSH_REG1 R10
*** SuperH RISC engine ASSEMBLER V.7.01.02.000 ***    07/04/21 19:29:08                                                  PAGE    22
PROGRAM NAME =

 5597 00000550 2FA6                   M           MOV.L   R10,@-R15               ;PUSH=SP-4
 5598                                 M                                           ;REG=>[SP]
 5599                                 M                                           ;"-4" FF,FF,FF,FC
 5600                                 M           PUSH_REG1 R14
 5601 00000552 2FE6                   M           MOV.L   R14,@-R15               ;PUSH=SP-4
 5602                                 M                                           ;REG=>[SP]
 5603                                 M                                           ;"-4" FF,FF,FF,FC
 5604                                 M   
 5605 00000554 DA11                   M           MOV.L   #_PJDR,R10                              ;
 5606 00000556 60A0                   M           MOV.B   @R10,R0
 5607 00000558 CB10                   M           OR      #BIT4,R0
 5608 0000055A 2A00                   M           MOV.B   R0,@R10
 5609 0000055C C9EF                   M           AND     #NBIT4,R0
 5610 0000055E 2A00                   M           MOV.B   R0,@R10
 5611                                 M   
 5612                                 M           ;====== 2006-10-19 SAITO 追加　WDTﾎﾟｰﾄ変更 ======
 5613 00000560 DA0F                   M           MOV.L   #_IOGA2_CTRL_DAT1+_IOGA_P5,R10          ;
 5614 00000562 60A1                   M           MOV.W   @R10,R0                                 ;
 5615 00000564 9E10                   M           MOV.W   #BIT0,R14                               ;
 5616 00000566 20EB                   M           OR      R14,R0                                  ;
 5617 00000568 2A01                   M           MOV.W   R0,@R10                                 ; WORK
 5618                                 M   
 5619                                 M   ;;      MOV.L   #_IOGA2_CTRL_DAT1+_IOGA_P5,R10  ; WORK ADDRESS
 5620                                 M   ;;      MOV.W   @R10,R0                                 ;
 5621 0000056A 9E0E                   M           MOV.W   #_IO2B_P5EX,R14                         ;
 5622 0000056C 20EA                   M           XOR     R14,R0                                  ;
 5623 0000056E DA0D                   M           MOV.L   #_dio_top2+_IOGA_PDR5,R10               ; IOGA PF ADDRESS
 5624 00000570 2A01                   M           MOV.W   R0,@R10                                 ; 実出力SET
 5625                                 M   
 5626 00000572 DA0B                   M           MOV.L   #_IOGA2_CTRL_DAT1+_IOGA_P5,R10          ;
 5627 00000574 60A1                   M           MOV.W   @R10,R0                                 ;
 5628 00000576 9E09                   M           MOV.W   #NBIT0,R14                              ;
 5629 00000578 20E9                   M           AND     R14,R0                                  ;
 5630 0000057A 2A01                   M           MOV.W   R0,@R10                                 ; WORK
 5631                                 M   
 5632                                 M   ;;      MOV.L   #_IOGA2_CTRL_DAT1+_IOGA_P5,R10  ; WORK ADDRESS
 5633                                 M   ;;      MOV.W   @R10,R0                                 ;
 5634 0000057C 9E05                   M           MOV.W   #_IO2B_P5EX,R14                         ;
 5635 0000057E 20EA                   M           XOR     R14,R0                                  ;
 5636 00000580 DA08                   M           MOV.L   #_dio_top2+_IOGA_PDR5,R10               ; IOGA PF ADDRESS
 5637 00000582 2A01                   M           MOV.W   R0,@R10                                 ; 実出力SET
 5638                                 M   
 5639                                 M           M_BRA   AAA00008
 5640 00000584 A010                   M           BRA     AAA00008
 5641 00000586 0009                   M           NOP
 5642                                 M   ***** BEGIN-POOL *****
 5643 00000588 0001                   M   DATA FOR SOURCE-LINE 451
 5644 0000058A 0000                   M   DATA FOR SOURCE-LINE 451,451
 5645 0000058C 00FE                   M   DATA FOR SOURCE-LINE 451
 5646 0000058E 0000                   M   ALIGNMENT CODE
 5647 00000590 00000000               M   DATA FOR SOURCE-LINE 434
 5648 00000594 00000000               M   DATA FOR SOURCE-LINE 436
 5649 00000598 00000000               M   DATA FOR SOURCE-LINE 438
 5650 0000059C 00000000               M   DATA FOR SOURCE-LINE 451
 5651 000005A0 00000000               M   DATA FOR SOURCE-LINE 451,451
 5652 000005A4 00000000               M   DATA FOR SOURCE-LINE 451,451
 5653                                 M   ***** END-POOL *****
*** SuperH RISC engine ASSEMBLER V.7.01.02.000 ***    07/04/21 19:29:08                                                  PAGE    23
PROGRAM NAME =

 5654 000005A8                        M   AAA00008:
 5655                                 M           POP_REG1 R14
 5656                                 M                                   ; RE"+4" 00,00,00,04
 5657 000005A8 6EF6                   M           MOV.L   @R15+,R14        ;
 5658                                 M           POP_REG1 R10
 5659                                 M                                   ; RE"+4" 00,00,00,04
 5660 000005AA 6AF6                   M           MOV.L   @R15+,R10        ;
 5661                                 M           POP_REG1 R0
 5662                                 M                                   ; RE"+4" 00,00,00,04
 5663 000005AC 60F6                   M           MOV.L   @R15+,R0        ;
 5664                             452             M_BRA   _VPC_LOOP       ;
 5665 000005AE AFC8                   M           BRA     _VPC_LOOP
 5666 000005B0 0009                   M           NOP
 5667                             453     
 5668 000005B2                    454     _VPC_LOOP_END:
 5669                             455             SUB_END
 5670                                 M   ;;;;;;; ADD     #4,R15                  ;[不要?]
 5671 000005B2 4F26                   M           LDS.L   @R15+,PR                ;[必要]
 5672                             456             M_RTS
 5673 000005B4 000B                   M           RTS                             ;RTSの後ろの
 5674 000005B6 0009                   M           NOP                             ;@R15+,PRはﾀﾞﾒ
 5675                             457     
 5676                             458     
 5677                             459     ;       ***************************************************
 5678                             460     ;       ***                                             ***
 5679                             461     ;       ***     SCI ﾌﾟﾛｸﾞﾗﾑ COPY                        ***
 5680                             462     ;       ***     ROM -> RAM                              ***
 5681                             463     ;       ***                                             ***
 5682                             464     ;       ***************************************************
 5683                             465             .IMPORT __INTHandler_BGN
 5684                             466             .IMPORT __INTHdlrRAM_BGN
 5685                             467             .IMPORT __INTHnadler_END
 5686                             468             .EXPORT         _INTHdlr_TO_RAM
 5687 000005B8                    469     _INTHdlr_TO_RAM:
 5688                             470             SUB_START
 5689 000005B8 4F22                   M           STS.L   PR,@-R15                ;[必要]
 5690                                 M   ;;;;;;; ADD     #-4,R15                 ;[不要?]
 5691                             471     
 5692 000005BA D017               472             MOV.L   #__INTHandler_BGN,R0
 5693 000005BC 6502               473             MOV.L   @R0,R5                                  ;DATA SORCE
 5694 000005BE D017               474             MOV.L   #__INTHdlrRAM_BGN,R0
 5695 000005C0 6602               475             MOV.L   @R0,R6                                  ;DATA DIST
 5696 000005C2 D017               476             MOV.L   #__INTHnadler_END,R0
 5697 000005C4 6402               477             MOV.L   @R0,R4                                  ;
 5698 000005C6 3458               478             SUB     R5,R4                                   ;
 5699 000005C8 4401               479             SHLR    R4                                      ;
 5700                             480     
 5701 000005CA                    481     _IHC_LOOP:
 5702 000005CA 4415               482             CMP/PL  R4
 5703 000005CC 8B35               483             BF      _IHC_LOOP_END                           ;ZERO or MINS THEN EXIT
 5704                             484     
 5705 000005CE 6055               485             MOV.W   @R5+,R0                                 ;
 5706 000005D0 2601               486             MOV.W   R0,@R6                                  ;
 5707 000005D2 7602               487             ADD     #2,R6                                   ;
 5708 000005D4 74FF               488             ADD     #H'FF,R4                                ;
 5709                             489             _WDT_CLR
 5710                                 M           PUSH_REG1 R0
*** SuperH RISC engine ASSEMBLER V.7.01.02.000 ***    07/04/21 19:29:08                                                  PAGE    24
PROGRAM NAME =

 5711 000005D6 2F06                   M           MOV.L   R0,@-R15                ;PUSH=SP-4
 5712                                 M                                           ;REG=>[SP]
 5713                                 M                                           ;"-4" FF,FF,FF,FC
 5714                                 M           PUSH_REG1 R10
 5715 000005D8 2FA6                   M           MOV.L   R10,@-R15               ;PUSH=SP-4
 5716                                 M                                           ;REG=>[SP]
 5717                                 M                                           ;"-4" FF,FF,FF,FC
 5718                                 M           PUSH_REG1 R14
 5719 000005DA 2FE6                   M           MOV.L   R14,@-R15               ;PUSH=SP-4
 5720                                 M                                           ;REG=>[SP]
 5721                                 M                                           ;"-4" FF,FF,FF,FC
 5722                                 M   
 5723 000005DC DA11                   M           MOV.L   #_PJDR,R10                              ;
 5724 000005DE 60A0                   M           MOV.B   @R10,R0
 5725 000005E0 CB10                   M           OR      #BIT4,R0
 5726 000005E2 2A00                   M           MOV.B   R0,@R10
 5727 000005E4 C9EF                   M           AND     #NBIT4,R0
 5728 000005E6 2A00                   M           MOV.B   R0,@R10
 5729                                 M   
 5730                                 M           ;====== 2006-10-19 SAITO 追加　WDTﾎﾟｰﾄ変更 ======
 5731 000005E8 DA0F                   M           MOV.L   #_IOGA2_CTRL_DAT1+_IOGA_P5,R10          ;
 5732 000005EA 60A1                   M           MOV.W   @R10,R0                                 ;
 5733 000005EC 9E10                   M           MOV.W   #BIT0,R14                               ;
 5734 000005EE 20EB                   M           OR      R14,R0                                  ;
 5735 000005F0 2A01                   M           MOV.W   R0,@R10                                 ; WORK
 5736                                 M   
 5737                                 M   ;;      MOV.L   #_IOGA2_CTRL_DAT1+_IOGA_P5,R10  ; WORK ADDRESS
 5738                                 M   ;;      MOV.W   @R10,R0                                 ;
 5739 000005F2 9E0E                   M           MOV.W   #_IO2B_P5EX,R14                         ;
 5740 000005F4 20EA                   M           XOR     R14,R0                                  ;
 5741 000005F6 DA0D                   M           MOV.L   #_dio_top2+_IOGA_PDR5,R10               ; IOGA PF ADDRESS
 5742 000005F8 2A01                   M           MOV.W   R0,@R10                                 ; 実出力SET
 5743                                 M   
 5744 000005FA DA0B                   M           MOV.L   #_IOGA2_CTRL_DAT1+_IOGA_P5,R10          ;
 5745 000005FC 60A1                   M           MOV.W   @R10,R0                                 ;
 5746 000005FE 9E09                   M           MOV.W   #NBIT0,R14                              ;
 5747 00000600 20E9                   M           AND     R14,R0                                  ;
 5748 00000602 2A01                   M           MOV.W   R0,@R10                                 ; WORK
 5749                                 M   
 5750                                 M   ;;      MOV.L   #_IOGA2_CTRL_DAT1+_IOGA_P5,R10  ; WORK ADDRESS
 5751                                 M   ;;      MOV.W   @R10,R0                                 ;
 5752 00000604 9E05                   M           MOV.W   #_IO2B_P5EX,R14                         ;
 5753 00000606 20EA                   M           XOR     R14,R0                                  ;
 5754 00000608 DA08                   M           MOV.L   #_dio_top2+_IOGA_PDR5,R10               ; IOGA PF ADDRESS
 5755 0000060A 2A01                   M           MOV.W   R0,@R10                                 ; 実出力SET
 5756                                 M   
 5757                                 M           M_BRA   AAA00009
 5758 0000060C A010                   M           BRA     AAA00009
 5759 0000060E 0009                   M           NOP
 5760                                 M   ***** BEGIN-POOL *****
 5761 00000610 0001                   M   DATA FOR SOURCE-LINE 489
 5762 00000612 0000                   M   DATA FOR SOURCE-LINE 489,489
 5763 00000614 00FE                   M   DATA FOR SOURCE-LINE 489
 5764 00000616 0000                   M   ALIGNMENT CODE
 5765 00000618 00000000               M   DATA FOR SOURCE-LINE 472
 5766 0000061C 00000000               M   DATA FOR SOURCE-LINE 474
 5767 00000620 00000000               M   DATA FOR SOURCE-LINE 476
*** SuperH RISC engine ASSEMBLER V.7.01.02.000 ***    07/04/21 19:29:08                                                  PAGE    25
PROGRAM NAME =

 5768 00000624 00000000               M   DATA FOR SOURCE-LINE 489
 5769 00000628 00000000               M   DATA FOR SOURCE-LINE 489,489
 5770 0000062C 00000000               M   DATA FOR SOURCE-LINE 489,489
 5771                                 M   ***** END-POOL *****
 5772 00000630                        M   AAA00009:
 5773                                 M           POP_REG1 R14
 5774                                 M                                   ; RE"+4" 00,00,00,04
 5775 00000630 6EF6                   M           MOV.L   @R15+,R14        ;
 5776                                 M           POP_REG1 R10
 5777                                 M                                   ; RE"+4" 00,00,00,04
 5778 00000632 6AF6                   M           MOV.L   @R15+,R10        ;
 5779                                 M           POP_REG1 R0
 5780                                 M                                   ; RE"+4" 00,00,00,04
 5781 00000634 60F6                   M           MOV.L   @R15+,R0        ;
 5782                             490             M_BRA   _IHC_LOOP       ;
 5783 00000636 AFC8                   M           BRA     _IHC_LOOP
 5784 00000638 0009                   M           NOP
 5785                             491     
 5786 0000063A                    492     _IHC_LOOP_END:
 5787                             493             SUB_END
 5788                                 M   ;;;;;;; ADD     #4,R15                  ;[不要?]
 5789 0000063A 4F26                   M           LDS.L   @R15+,PR                ;[必要]
 5790                             494             M_RTS
 5791 0000063C 000B                   M           RTS                             ;RTSの後ろの
 5792 0000063E 0009                   M           NOP                             ;@R15+,PRはﾀﾞﾒ
 5793                             495     
 5794                             496     
 5795                             497     ;       ***************************************************
 5796                             498     ;       ***                                             ***
 5797                             499     ;       ***             ROM SUM CHECK                   ***
 5798                             500     ;       ***                                             ***
 5799                             501     ;       ***************************************************
 5800                             502             .IMPORT         _ROM_SUM_CODE;
 5801                             503             .IMPORT         _SEQ_DP_TOP;
 5802                             504             .EXPORT         _ROM_SUM_CHK
 5803 00000640                    505     _ROM_SUM_CHK:
 5804                             506             SUB_START
 5805 00000640 4F22                   M           STS.L   PR,@-R15                ;[必要]
 5806                                 M   ;;;;;;; ADD     #-4,R15                 ;[不要?]
 5807                             507     
 5808 00000642 211A               508             XOR     R1,R1                                   ; SUM MAKE REG CLEAR
 5809                             509     ;;;;;;;;        MOV.L   #H'00000000,R3                          ; SUM MAKE TOP ADR
 5810 00000644 D310               510             MOV.L   #H'A0000000,R3                          ; SUM MAKE TOP ADR              20
                                          06/12/26 V05
 5811 00000646 D411               511             MOV.L   #_ROM_SUM_CODE,R4                       ; SUM_MAKE END ADR
 5812                             512     
 5813 00000648                    513     _ROM_SUMCHK_LOOP:
 5814                             514             _WDT_CLR
 5815                                 M           PUSH_REG1 R0
 5816 00000648 2F06                   M           MOV.L   R0,@-R15                ;PUSH=SP-4
 5817                                 M                                           ;REG=>[SP]
 5818                                 M                                           ;"-4" FF,FF,FF,FC
 5819                                 M           PUSH_REG1 R10
 5820 0000064A 2FA6                   M           MOV.L   R10,@-R15               ;PUSH=SP-4
 5821                                 M                                           ;REG=>[SP]
 5822                                 M                                           ;"-4" FF,FF,FF,FC
 5823                                 M           PUSH_REG1 R14
*** SuperH RISC engine ASSEMBLER V.7.01.02.000 ***    07/04/21 19:29:08                                                  PAGE    26
PROGRAM NAME =

 5824 0000064C 2FE6                   M           MOV.L   R14,@-R15               ;PUSH=SP-4
 5825                                 M                                           ;REG=>[SP]
 5826                                 M                                           ;"-4" FF,FF,FF,FC
 5827                                 M   
 5828 0000064E DA10                   M           MOV.L   #_PJDR,R10                              ;
 5829 00000650 60A0                   M           MOV.B   @R10,R0
 5830 00000652 CB10                   M           OR      #BIT4,R0
 5831 00000654 2A00                   M           MOV.B   R0,@R10
 5832 00000656 C9EF                   M           AND     #NBIT4,R0
 5833 00000658 2A00                   M           MOV.B   R0,@R10
 5834                                 M   
 5835                                 M           ;====== 2006-10-19 SAITO 追加　WDTﾎﾟｰﾄ変更 ======
 5836 0000065A DA0E                   M           MOV.L   #_IOGA2_CTRL_DAT1+_IOGA_P5,R10          ;
 5837 0000065C 60A1                   M           MOV.W   @R10,R0                                 ;
 5838 0000065E 9E10                   M           MOV.W   #BIT0,R14                               ;
 5839 00000660 20EB                   M           OR      R14,R0                                  ;
 5840 00000662 2A01                   M           MOV.W   R0,@R10                                 ; WORK
 5841                                 M   
 5842                                 M   ;;      MOV.L   #_IOGA2_CTRL_DAT1+_IOGA_P5,R10  ; WORK ADDRESS
 5843                                 M   ;;      MOV.W   @R10,R0                                 ;
 5844 00000664 9E0E                   M           MOV.W   #_IO2B_P5EX,R14                         ;
 5845 00000666 20EA                   M           XOR     R14,R0                                  ;
 5846 00000668 DA0B                   M           MOV.L   #_dio_top2+_IOGA_PDR5,R10               ; IOGA PF ADDRESS
 5847 0000066A 2A01                   M           MOV.W   R0,@R10                                 ; 実出力SET
 5848                                 M   
 5849 0000066C DA09                   M           MOV.L   #_IOGA2_CTRL_DAT1+_IOGA_P5,R10          ;
 5850 0000066E 60A1                   M           MOV.W   @R10,R0                                 ;
 5851 00000670 9E09                   M           MOV.W   #NBIT0,R14                              ;
 5852 00000672 20E9                   M           AND     R14,R0                                  ;
 5853 00000674 2A01                   M           MOV.W   R0,@R10                                 ; WORK
 5854                                 M   
 5855                                 M   ;;      MOV.L   #_IOGA2_CTRL_DAT1+_IOGA_P5,R10  ; WORK ADDRESS
 5856                                 M   ;;      MOV.W   @R10,R0                                 ;
 5857 00000676 9E05                   M           MOV.W   #_IO2B_P5EX,R14                         ;
 5858 00000678 20EA                   M           XOR     R14,R0                                  ;
 5859 0000067A DA07                   M           MOV.L   #_dio_top2+_IOGA_PDR5,R10               ; IOGA PF ADDRESS
 5860 0000067C 2A01                   M           MOV.W   R0,@R10                                 ; 実出力SET
 5861                                 M   
 5862                                 M           M_BRA   AAA00010
 5863 0000067E A00D                   M           BRA     AAA00010
 5864 00000680 0009                   M           NOP
 5865                                 M   ***** BEGIN-POOL *****
 5866 00000682 0001                   M   DATA FOR SOURCE-LINE 514
 5867 00000684 0000                   M   DATA FOR SOURCE-LINE 514,514
 5868 00000686 00FE                   M   DATA FOR SOURCE-LINE 514
 5869 00000688 A0000000               M   DATA FOR SOURCE-LINE 510
 5870 0000068C 00000000               M   DATA FOR SOURCE-LINE 511
 5871 00000690 00000000               M   DATA FOR SOURCE-LINE 514
 5872 00000694 00000000               M   DATA FOR SOURCE-LINE 514,514
 5873 00000698 00000000               M   DATA FOR SOURCE-LINE 514,514
 5874                                 M   ***** END-POOL *****
 5875 0000069C                        M   AAA00010:
 5876                                 M           POP_REG1 R14
 5877                                 M                                   ; RE"+4" 00,00,00,04
 5878 0000069C 6EF6                   M           MOV.L   @R15+,R14        ;
 5879                                 M           POP_REG1 R10
 5880                                 M                                   ; RE"+4" 00,00,00,04
*** SuperH RISC engine ASSEMBLER V.7.01.02.000 ***    07/04/21 19:29:08                                                  PAGE    27
PROGRAM NAME =

 5881 0000069E 6AF6                   M           MOV.L   @R15+,R10        ;
 5882                                 M           POP_REG1 R0
 5883                                 M                                   ; RE"+4" 00,00,00,04
 5884 000006A0 60F6                   M           MOV.L   @R15+,R0        ;
 5885 000006A2 6236               515             MOV.L   @R3+,R2
 5886 000006A4 0009               516             NOP
 5887 000006A6 312C               517             ADD     R2,R1                                   ; SUM MAKE
 5888 000006A8 3342               518             CMP/HS  R4,R3
 5889 000006AA 8BCD               519             BF      _ROM_SUMCHK_LOOP
 5890                             520     
 5891                             521     ;//SHIMA        MOV.L   #_SEQ_DP_TOP+338*2,R5
 5892                             522     
 5893                             523     ;;;このｽﾀﾝｽはだめ       MOV.L   #_SQ_CBWK_TOP+_SQCB268,R5               ;
 5894                             524     ;;;                     MOV.L   R1,@R5                                  ; SUM TO SEQ 上位W
                                          ORD
 5895                             525     
 5896                             526             PUSH_REG1 R1
 5897 000006AC 2F16                   M           MOV.L   R1,@-R15                ;PUSH=SP-4
 5898                                 M                                           ;REG=>[SP]
 5899                                 M                                           ;"-4" FF,FF,FF,FC
 5900 000006AE 6119               527             SWAP.W  R1,R1                                   ;
 5901 000006B0 D50E               528             MOV.L   #_SQ_CBWK_TOP+_SQCB268,R5               ;
 5902 000006B2 2511               529             MOV.W   R1,@R5                                  ; SUM TO SEQ 上位WORD
 5903 000006B4 6119               530             SWAP.W  R1,R1                                   ;
 5904 000006B6 7502               531             ADD     #2,R5                                   ;
 5905 000006B8 2511               532             MOV.W   R1,@R5                                  ; SUM TO SEQ 下位WORD
 5906                             533             POP_REG1 R1                                     ;
 5907                                 M                                   ; RE"+4" 00,00,00,04
 5908 000006BA 61F6                   M           MOV.L   @R15+,R1        ;
 5909                             534     
 5910 000006BC 6042               535             MOV.L   @R4,R0
 5911 000006BE 3100               536             CMP/EQ  R0,R1                                   ; SUM OK ?
 5912 000006C0 8910               537             BT      _ROM_SUMCHK_END                         ; はい
 5913                             538     
 5914 000006C2 D20B               539             MOV.L   #_DUMMY_SUM_CODE,R2
 5915 000006C4 3200               540             CMP/EQ  R0,R2                                   ; SUMﾁｪｯｸ無し ?
 5916 000006C6 890D               541             BT      _ROM_SUMCHK_END                         ; はい
 5917                             542     
 5918 000006C8 D50A               543             MOV.L   #_SQ_CBWK_TOP+_SQCB241,R5
 5919 000006CA 6051               544             MOV.W   @R5,R0
 5920 000006CC CB01               545             OR      #BIT0,R0
 5921 000006CE 2501               546             MOV.W   R0,@R5
 5922                             547     
 5923                             548             .AIF    1 EQ 0
 5924                             549             MOV.L   #_PADR,R5
 5925                             550             MOV.W   @R5,R0
 5926                             551             MOV.W   #H'1000,R1                              ; CPUBER
 5927                             552             OR      R1,R0                                   ; ON
 5928                             553             MOV.W   R0,@R5
 5929                             554     
 5930                             555             .AELSE
 5931 000006D0 D109               556 C           MOV.L   #_IOGA1_CTRL_DAT1+_IOGAo_PF,R1          ;
 5932 000006D2 6011               557 C           MOV.W   @R1,R0
 5933 000006D4 CB80               558 C           OR      #BIT7,R0                                ; WORK SET
 5934 000006D6 2101               559 C           MOV.W   R0,@R1                                  ; CPUBER SET
 5935                             560 C           _MC_GA1PF_OUT1  R0,R1,R2                        ; WORK -> PORT
 5936 000006D8 D107                   M           MOV.L   #_IOGA1_CTRL_DAT1+_IOGAo_PF,R1          ; WORK ADDRESS
*** SuperH RISC engine ASSEMBLER V.7.01.02.000 ***    07/04/21 19:29:08                                                  PAGE    28
PROGRAM NAME =

 5937 000006DA 6011                   M           MOV.W   @R1,R0                          ;
 5938                                 M   
 5939                                 M           .AIF    3        EQ     0
 5940                                                     MOV.B   #GA1_PFEX,R2                            ;
 5941                                                     XOR     R2,R0                           ;
 5942                                                     MOV.L   #_dio_top1+_IOGAo_PF,R1                 ; IOGA PF ADDRESS
 5943                                                     MOV.W   R0,@R1                          ; 実出力SET
 5944                                             .AELIF  3        EQ     2
 5945                                                     MOV.B   #_IO1A_P5EX,R2                          ;
 5946                                                     XOR     R2,R0                           ;
 5947                                                     MOV.L   #_dio_top1+_IOGA_PDR5,R1                        ; IOGA PF ADDRESS
 5948                                                     MOV.W   R0,@R1                          ; 実出力SET
 5949                                             .AELIF  3        EQ     3
 5950 000006DC E270                   C                   MOV.B   #_IO1B_P5EX,R2                          ;
 5951 000006DE 202A                   C                   XOR     R2,R0                           ;
 5952 000006E0 D106                   C                   MOV.L   #_dio_top1+_IOGA_PDR5,R1                        ; IOGA PF ADDRESS
 5953 000006E2 2101                   C                   MOV.W   R0,@R1                          ; 実出力SET
 5954                                 M           .AENDI
 5955                             561             .AENDI
 5956                             562     
 5957 000006E4                    563     _ROM_SUMCHK_END:
 5958                             564             SUB_END
 5959                                 M   ;;;;;;; ADD     #4,R15                  ;[不要?]
 5960 000006E4 4F26                   M           LDS.L   @R15+,PR                ;[必要]
 5961                             565             M_RTS
 5962 000006E6 000B                   M           RTS                             ;RTSの後ろの
 5963 000006E8 0009                   M           NOP                             ;@R15+,PRはﾀﾞﾒ
 5964                             566     
 5965                             567     
 5966                             568     ;★★★★★★★★★★★★★★★★★★★★★★★★★★★★★★★★★★★★★★★★★★★★
                                          ★★★★★★★★★★★
 5967                             569     
 5968                             570     
 5969                                     ***** BEGIN-POOL *****
 5970 000006EA 0000                       ALIGNMENT CODE
 5971 000006EC 00000000                   DATA FOR SOURCE-LINE 528
 5972 000006F0 5AA53CC3                   DATA FOR SOURCE-LINE 539
 5973 000006F4 00000000                   DATA FOR SOURCE-LINE 543
 5974 000006F8 00000000                   DATA FOR SOURCE-LINE 556,560
 5975 000006FC 00000000                   DATA FOR SOURCE-LINE 560
 5976                                     ***** END-POOL *****
 5977 00000000                    571             .SECTION        P,CODE
 5978                             572     ;       ***************************************************
 5979                             573     ;       ***                                             ***
 5980                             574     ;       ***             WDTﾘﾌﾚｯｼｭ                       ***
 5981                             575     ;       ***                                             ***
 5982                             576     ;       ***************************************************
 5983                             577             .export         _WDT_Rifresh
 5984 00000000                    578     _WDT_Rifresh:
 5985                             579             SUB_START
 5986 00000000 4F22                   M           STS.L   PR,@-R15                ;[必要]
 5987                                 M   ;;;;;;; ADD     #-4,R15                 ;[不要?]
 5988                             580             PUSH_ALL
 5989                                 M           PUSH_REG1       R0      ;
 5990 00000002 2F06                   M           MOV.L   R0,@-R15                ;PUSH=SP-4
 5991                                 M                                           ;REG=>[SP]
 5992                                 M                                           ;"-4" FF,FF,FF,FC
*** SuperH RISC engine ASSEMBLER V.7.01.02.000 ***    07/04/21 19:29:08                                                  PAGE    29
PROGRAM NAME =

 5993                                 M           PUSH_REG1       R1      ;
 5994 00000004 2F16                   M           MOV.L   R1,@-R15                ;PUSH=SP-4
 5995                                 M                                           ;REG=>[SP]
 5996                                 M                                           ;"-4" FF,FF,FF,FC
 5997                                 M           PUSH_REG1       R2      ;
 5998 00000006 2F26                   M           MOV.L   R2,@-R15                ;PUSH=SP-4
 5999                                 M                                           ;REG=>[SP]
 6000                                 M                                           ;"-4" FF,FF,FF,FC
 6001                                 M           PUSH_REG1       R3      ;
 6002 00000008 2F36                   M           MOV.L   R3,@-R15                ;PUSH=SP-4
 6003                                 M                                           ;REG=>[SP]
 6004                                 M                                           ;"-4" FF,FF,FF,FC
 6005                                 M           PUSH_REG1       R4      ;
 6006 0000000A 2F46                   M           MOV.L   R4,@-R15                ;PUSH=SP-4
 6007                                 M                                           ;REG=>[SP]
 6008                                 M                                           ;"-4" FF,FF,FF,FC
 6009                                 M           PUSH_REG1       R5      ;
 6010 0000000C 2F56                   M           MOV.L   R5,@-R15                ;PUSH=SP-4
 6011                                 M                                           ;REG=>[SP]
 6012                                 M                                           ;"-4" FF,FF,FF,FC
 6013                                 M           PUSH_REG1       R6      ;
 6014 0000000E 2F66                   M           MOV.L   R6,@-R15                ;PUSH=SP-4
 6015                                 M                                           ;REG=>[SP]
 6016                                 M                                           ;"-4" FF,FF,FF,FC
 6017                                 M           PUSH_REG1       R7      ;
 6018 00000010 2F76                   M           MOV.L   R7,@-R15                ;PUSH=SP-4
 6019                                 M                                           ;REG=>[SP]
 6020                                 M                                           ;"-4" FF,FF,FF,FC
 6021                                 M           PUSH_REG1       R8      ;
 6022 00000012 2F86                   M           MOV.L   R8,@-R15                ;PUSH=SP-4
 6023                                 M                                           ;REG=>[SP]
 6024                                 M                                           ;"-4" FF,FF,FF,FC
 6025                                 M           PUSH_REG1       R9      ;
 6026 00000014 2F96                   M           MOV.L   R9,@-R15                ;PUSH=SP-4
 6027                                 M                                           ;REG=>[SP]
 6028                                 M                                           ;"-4" FF,FF,FF,FC
 6029                                 M           PUSH_REG1       R10     ;
 6030 00000016 2FA6                   M           MOV.L   R10,@-R15               ;PUSH=SP-4
 6031                                 M                                           ;REG=>[SP]
 6032                                 M                                           ;"-4" FF,FF,FF,FC
 6033                                 M           PUSH_REG1       R11     ;
 6034 00000018 2FB6                   M           MOV.L   R11,@-R15               ;PUSH=SP-4
 6035                                 M                                           ;REG=>[SP]
 6036                                 M                                           ;"-4" FF,FF,FF,FC
 6037                                 M           PUSH_REG1       R12     ;
 6038 0000001A 2FC6                   M           MOV.L   R12,@-R15               ;PUSH=SP-4
 6039                                 M                                           ;REG=>[SP]
 6040                                 M                                           ;"-4" FF,FF,FF,FC
 6041                                 M           PUSH_REG1       R13     ;
 6042 0000001C 2FD6                   M           MOV.L   R13,@-R15               ;PUSH=SP-4
 6043                                 M                                           ;REG=>[SP]
 6044                                 M                                           ;"-4" FF,FF,FF,FC
 6045                                 M           PUSH_REG1       R14     ;
 6046 0000001E 2FE6                   M           MOV.L   R14,@-R15               ;PUSH=SP-4
 6047                                 M                                           ;REG=>[SP]
 6048                                 M                                           ;"-4" FF,FF,FF,FC
 6049                                 M           PUSH_MACHL              ;
*** SuperH RISC engine ASSEMBLER V.7.01.02.000 ***    07/04/21 19:29:08                                                  PAGE    30
PROGRAM NAME =

 6050 00000020 4F02                   M           STS.L   MACH,@-R15
 6051 00000022 4F12                   M           STS.L   MACL,@-R15
 6052                                 M           PUSH_SYS_REG    GBR     ;
 6053 00000024 4F13                   M           STC.L   GBR,@-R15
 6054                                 M           .AIF    3 EQ 3
 6055                                             .AELSE
 6056                                             PUSH_FPU_ALL            ;2001-07-08
 6057                                             .AENDI
 6058                             581             _WDT_CLR
 6059                                 M           PUSH_REG1 R0
 6060 00000026 2F06                   M           MOV.L   R0,@-R15                ;PUSH=SP-4
 6061                                 M                                           ;REG=>[SP]
 6062                                 M                                           ;"-4" FF,FF,FF,FC
 6063                                 M           PUSH_REG1 R10
 6064 00000028 2FA6                   M           MOV.L   R10,@-R15               ;PUSH=SP-4
 6065                                 M                                           ;REG=>[SP]
 6066                                 M                                           ;"-4" FF,FF,FF,FC
 6067                                 M           PUSH_REG1 R14
 6068 0000002A 2FE6                   M           MOV.L   R14,@-R15               ;PUSH=SP-4
 6069                                 M                                           ;REG=>[SP]
 6070                                 M                                           ;"-4" FF,FF,FF,FC
 6071                                 M   
 6072 0000002C DA0E                   M           MOV.L   #_PJDR,R10                              ;
 6073 0000002E 60A0                   M           MOV.B   @R10,R0
 6074 00000030 CB10                   M           OR      #BIT4,R0
 6075 00000032 2A00                   M           MOV.B   R0,@R10
 6076 00000034 C9EF                   M           AND     #NBIT4,R0
 6077 00000036 2A00                   M           MOV.B   R0,@R10
 6078                                 M   
 6079                                 M           ;====== 2006-10-19 SAITO 追加　WDTﾎﾟｰﾄ変更 ======
 6080 00000038 DA0C                   M           MOV.L   #_IOGA2_CTRL_DAT1+_IOGA_P5,R10          ;
 6081 0000003A 60A1                   M           MOV.W   @R10,R0                                 ;
 6082 0000003C 9E10                   M           MOV.W   #BIT0,R14                               ;
 6083 0000003E 20EB                   M           OR      R14,R0                                  ;
 6084 00000040 2A01                   M           MOV.W   R0,@R10                                 ; WORK
 6085                                 M   
 6086                                 M   ;;      MOV.L   #_IOGA2_CTRL_DAT1+_IOGA_P5,R10  ; WORK ADDRESS
 6087                                 M   ;;      MOV.W   @R10,R0                                 ;
 6088 00000042 9E0E                   M           MOV.W   #_IO2B_P5EX,R14                         ;
 6089 00000044 20EA                   M           XOR     R14,R0                                  ;
 6090 00000046 DA0A                   M           MOV.L   #_dio_top2+_IOGA_PDR5,R10               ; IOGA PF ADDRESS
 6091 00000048 2A01                   M           MOV.W   R0,@R10                                 ; 実出力SET
 6092                                 M   
 6093 0000004A DA08                   M           MOV.L   #_IOGA2_CTRL_DAT1+_IOGA_P5,R10          ;
 6094 0000004C 60A1                   M           MOV.W   @R10,R0                                 ;
 6095 0000004E 9E09                   M           MOV.W   #NBIT0,R14                              ;
 6096 00000050 20E9                   M           AND     R14,R0                                  ;
 6097 00000052 2A01                   M           MOV.W   R0,@R10                                 ; WORK
 6098                                 M   
 6099                                 M   ;;      MOV.L   #_IOGA2_CTRL_DAT1+_IOGA_P5,R10  ; WORK ADDRESS
 6100                                 M   ;;      MOV.W   @R10,R0                                 ;
 6101 00000054 9E05                   M           MOV.W   #_IO2B_P5EX,R14                         ;
 6102 00000056 20EA                   M           XOR     R14,R0                                  ;
 6103 00000058 DA05                   M           MOV.L   #_dio_top2+_IOGA_PDR5,R10               ; IOGA PF ADDRESS
 6104 0000005A 2A01                   M           MOV.W   R0,@R10                                 ; 実出力SET
 6105                                 M   
 6106                                 M           M_BRA   AAA00011
*** SuperH RISC engine ASSEMBLER V.7.01.02.000 ***    07/04/21 19:29:08                                                  PAGE    31
PROGRAM NAME =

 6107 0000005C A00A                   M           BRA     AAA00011
 6108 0000005E 0009                   M           NOP
 6109                                 M   ***** BEGIN-POOL *****
 6110 00000060 0001                   M   DATA FOR SOURCE-LINE 581
 6111 00000062 0000                   M   DATA FOR SOURCE-LINE 581,581
 6112 00000064 00FE                   M   DATA FOR SOURCE-LINE 581
 6113 00000066 0000                   M   ALIGNMENT CODE
 6114 00000068 00000000               M   DATA FOR SOURCE-LINE 581
 6115 0000006C 00000000               M   DATA FOR SOURCE-LINE 581,581
 6116 00000070 00000000               M   DATA FOR SOURCE-LINE 581,581
 6117                                 M   ***** END-POOL *****
 6118 00000074                        M   AAA00011:
 6119                                 M           POP_REG1 R14
 6120                                 M                                   ; RE"+4" 00,00,00,04
 6121 00000074 6EF6                   M           MOV.L   @R15+,R14        ;
 6122                                 M           POP_REG1 R10
 6123                                 M                                   ; RE"+4" 00,00,00,04
 6124 00000076 6AF6                   M           MOV.L   @R15+,R10        ;
 6125                                 M           POP_REG1 R0
 6126                                 M                                   ; RE"+4" 00,00,00,04
 6127 00000078 60F6                   M           MOV.L   @R15+,R0        ;
 6128                             582             POP_ALL
 6129                                 M           .AIF    3 EQ 3
 6130                                             .AELSE
 6131                                             POP_FPU_ALL             ;2001-07-08
 6132                                             .AENDI
 6133                                 M           POP_SYS_REG     GBR     ;
 6134 0000007A 4F17                   M           LDC.L   @R15+,GBR
 6135                                 M           POP_MACHL               ;
 6136 0000007C 4F16                   M           LDS.L   @R15+,MACL
 6137 0000007E 4F06                   M           LDS.L   @R15+,MACH
 6138                                 M           POP_REG1        R14     ;
 6139                                 M                                   ; RE"+4" 00,00,00,04
 6140 00000080 6EF6                   M           MOV.L   @R15+,R14        ;
 6141                                 M           POP_REG1        R13     ;
 6142                                 M                                   ; RE"+4" 00,00,00,04
 6143 00000082 6DF6                   M           MOV.L   @R15+,R13        ;
 6144                                 M           POP_REG1        R12     ;
 6145                                 M                                   ; RE"+4" 00,00,00,04
 6146 00000084 6CF6                   M           MOV.L   @R15+,R12        ;
 6147                                 M           POP_REG1        R11     ;
 6148                                 M                                   ; RE"+4" 00,00,00,04
 6149 00000086 6BF6                   M           MOV.L   @R15+,R11        ;
 6150                                 M           POP_REG1        R10     ;
 6151                                 M                                   ; RE"+4" 00,00,00,04
 6152 00000088 6AF6                   M           MOV.L   @R15+,R10        ;
 6153                                 M           POP_REG1        R9      ;
 6154                                 M                                   ; RE"+4" 00,00,00,04
 6155 0000008A 69F6                   M           MOV.L   @R15+,R9        ;
 6156                                 M           POP_REG1        R8      ;
 6157                                 M                                   ; RE"+4" 00,00,00,04
 6158 0000008C 68F6                   M           MOV.L   @R15+,R8        ;
 6159                                 M           POP_REG1        R7      ;
 6160                                 M                                   ; RE"+4" 00,00,00,04
 6161 0000008E 67F6                   M           MOV.L   @R15+,R7        ;
 6162                                 M           POP_REG1        R6      ;
 6163                                 M                                   ; RE"+4" 00,00,00,04
*** SuperH RISC engine ASSEMBLER V.7.01.02.000 ***    07/04/21 19:29:08                                                  PAGE    32
PROGRAM NAME =

 6164 00000090 66F6                   M           MOV.L   @R15+,R6        ;
 6165                                 M           POP_REG1        R5      ;
 6166                                 M                                   ; RE"+4" 00,00,00,04
 6167 00000092 65F6                   M           MOV.L   @R15+,R5        ;
 6168                                 M           POP_REG1        R4      ;
 6169                                 M                                   ; RE"+4" 00,00,00,04
 6170 00000094 64F6                   M           MOV.L   @R15+,R4        ;
 6171                                 M           POP_REG1        R3      ;
 6172                                 M                                   ; RE"+4" 00,00,00,04
 6173 00000096 63F6                   M           MOV.L   @R15+,R3        ;
 6174                                 M           POP_REG1        R2      ;
 6175                                 M                                   ; RE"+4" 00,00,00,04
 6176 00000098 62F6                   M           MOV.L   @R15+,R2        ;
 6177                                 M           POP_REG1        R1      ;
 6178                                 M                                   ; RE"+4" 00,00,00,04
 6179 0000009A 61F6                   M           MOV.L   @R15+,R1        ;
 6180                                 M           POP_REG1        R0      ;
 6181                                 M                                   ; RE"+4" 00,00,00,04
 6182 0000009C 60F6                   M           MOV.L   @R15+,R0        ;
 6183                             583             SUB_END
 6184                                 M   ;;;;;;; ADD     #4,R15                  ;[不要?]
 6185 0000009E 4F26                   M           LDS.L   @R15+,PR                ;[必要]
 6186                             584             M_RTS
 6187 000000A0 000B                   M           RTS                             ;RTSの後ろの
 6188 000000A2 0009                   M           NOP                             ;@R15+,PRはﾀﾞﾒ
 6189                             585     
 6190                             586     
 6191                             587     ;       ***************************************************
 6192                             588     ;       ***                                             ***
 6193                             589     ;       ***             ＤＯﾘﾌﾚｯｼｭ                      ***
 6194                             590     ;       ***                                             ***
 6195                             591     ;       ***************************************************
 6196                             592             .export         _DO_Rifresh
 6197 000000A4                    593     _DO_Rifresh:
 6198                             594             SUB_START
 6199 000000A4 4F22                   M           STS.L   PR,@-R15                ;[必要]
 6200                                 M   ;;;;;;; ADD     #-4,R15                 ;[不要?]
 6201                             595             PUSH_ALL
 6202                                 M           PUSH_REG1       R0      ;
 6203 000000A6 2F06                   M           MOV.L   R0,@-R15                ;PUSH=SP-4
 6204                                 M                                           ;REG=>[SP]
 6205                                 M                                           ;"-4" FF,FF,FF,FC
 6206                                 M           PUSH_REG1       R1      ;
 6207 000000A8 2F16                   M           MOV.L   R1,@-R15                ;PUSH=SP-4
 6208                                 M                                           ;REG=>[SP]
 6209                                 M                                           ;"-4" FF,FF,FF,FC
 6210                                 M           PUSH_REG1       R2      ;
 6211 000000AA 2F26                   M           MOV.L   R2,@-R15                ;PUSH=SP-4
 6212                                 M                                           ;REG=>[SP]
 6213                                 M                                           ;"-4" FF,FF,FF,FC
 6214                                 M           PUSH_REG1       R3      ;
 6215 000000AC 2F36                   M           MOV.L   R3,@-R15                ;PUSH=SP-4
 6216                                 M                                           ;REG=>[SP]
 6217                                 M                                           ;"-4" FF,FF,FF,FC
 6218                                 M           PUSH_REG1       R4      ;
 6219 000000AE 2F46                   M           MOV.L   R4,@-R15                ;PUSH=SP-4
 6220                                 M                                           ;REG=>[SP]
*** SuperH RISC engine ASSEMBLER V.7.01.02.000 ***    07/04/21 19:29:08                                                  PAGE    33
PROGRAM NAME =

 6221                                 M                                           ;"-4" FF,FF,FF,FC
 6222                                 M           PUSH_REG1       R5      ;
 6223 000000B0 2F56                   M           MOV.L   R5,@-R15                ;PUSH=SP-4
 6224                                 M                                           ;REG=>[SP]
 6225                                 M                                           ;"-4" FF,FF,FF,FC
 6226                                 M           PUSH_REG1       R6      ;
 6227 000000B2 2F66                   M           MOV.L   R6,@-R15                ;PUSH=SP-4
 6228                                 M                                           ;REG=>[SP]
 6229                                 M                                           ;"-4" FF,FF,FF,FC
 6230                                 M           PUSH_REG1       R7      ;
 6231 000000B4 2F76                   M           MOV.L   R7,@-R15                ;PUSH=SP-4
 6232                                 M                                           ;REG=>[SP]
 6233                                 M                                           ;"-4" FF,FF,FF,FC
 6234                                 M           PUSH_REG1       R8      ;
 6235 000000B6 2F86                   M           MOV.L   R8,@-R15                ;PUSH=SP-4
 6236                                 M                                           ;REG=>[SP]
 6237                                 M                                           ;"-4" FF,FF,FF,FC
 6238                                 M           PUSH_REG1       R9      ;
 6239 000000B8 2F96                   M           MOV.L   R9,@-R15                ;PUSH=SP-4
 6240                                 M                                           ;REG=>[SP]
 6241                                 M                                           ;"-4" FF,FF,FF,FC
 6242                                 M           PUSH_REG1       R10     ;
 6243 000000BA 2FA6                   M           MOV.L   R10,@-R15               ;PUSH=SP-4
 6244                                 M                                           ;REG=>[SP]
 6245                                 M                                           ;"-4" FF,FF,FF,FC
 6246                                 M           PUSH_REG1       R11     ;
 6247 000000BC 2FB6                   M           MOV.L   R11,@-R15               ;PUSH=SP-4
 6248                                 M                                           ;REG=>[SP]
 6249                                 M                                           ;"-4" FF,FF,FF,FC
 6250                                 M           PUSH_REG1       R12     ;
 6251 000000BE 2FC6                   M           MOV.L   R12,@-R15               ;PUSH=SP-4
 6252                                 M                                           ;REG=>[SP]
 6253                                 M                                           ;"-4" FF,FF,FF,FC
 6254                                 M           PUSH_REG1       R13     ;
 6255 000000C0 2FD6                   M           MOV.L   R13,@-R15               ;PUSH=SP-4
 6256                                 M                                           ;REG=>[SP]
 6257                                 M                                           ;"-4" FF,FF,FF,FC
 6258                                 M           PUSH_REG1       R14     ;
 6259 000000C2 2FE6                   M           MOV.L   R14,@-R15               ;PUSH=SP-4
 6260                                 M                                           ;REG=>[SP]
 6261                                 M                                           ;"-4" FF,FF,FF,FC
 6262                                 M           PUSH_MACHL              ;
 6263 000000C4 4F02                   M           STS.L   MACH,@-R15
 6264 000000C6 4F12                   M           STS.L   MACL,@-R15
 6265                                 M           PUSH_SYS_REG    GBR     ;
 6266 000000C8 4F13                   M           STC.L   GBR,@-R15
 6267                                 M           .AIF    3 EQ 3
 6268                                             .AELSE
 6269                                             PUSH_FPU_ALL            ;2001-07-08
 6270                                             .AENDI
 6271                             596     
 6272                             597     ;;2013-12-25[MCでは不要]        MOV.L   #_cpuab_hs_out0,R1
 6273                             598     ;;2013-12-25[MCでは不要]        MOV.W   @R1,R0
 6274                             599     ;;2013-12-25[MCでは不要]
 6275                             600     ;;2013-12-25[MCでは不要];       ********** SIT3_CPUB PROGRAM **********
 6276                             601     ;;2013-12-25[MCでは不要]        .AIF    3       EQ      1
 6277                             602     ;;2013-12-25[MCでは不要]        MOV.L   #_REAL_OUT0,R1
*** SuperH RISC engine ASSEMBLER V.7.01.02.000 ***    07/04/21 19:29:08                                                  PAGE    34
PROGRAM NAME =

 6278                             603     ;;2013-12-25[MCでは不要];       ********** SIT4_CPUB PROGRAM **********
 6279                             604     ;;2013-12-25[MCでは不要]        .AELIF  3       EQ      3
 6280                             605     ;;2013-12-25[MCでは不要]        MOV.L   #_PADR,R1
 6281                             606     ;;2013-12-25[MCでは不要]        .AENDI
 6282                             607     ;;2013-12-25[MCでは不要]
 6283                             608     ;;2013-12-25[MCでは不要]        MOV.B   R0,@R1
 6284                             609     
 6285                             610             POP_ALL
 6286                                 M           .AIF    3 EQ 3
 6287                                             .AELSE
 6288                                             POP_FPU_ALL             ;2001-07-08
 6289                                             .AENDI
 6290                                 M           POP_SYS_REG     GBR     ;
 6291 000000CA 4F17                   M           LDC.L   @R15+,GBR
 6292                                 M           POP_MACHL               ;
 6293 000000CC 4F16                   M           LDS.L   @R15+,MACL
 6294 000000CE 4F06                   M           LDS.L   @R15+,MACH
 6295                                 M           POP_REG1        R14     ;
 6296                                 M                                   ; RE"+4" 00,00,00,04
 6297 000000D0 6EF6                   M           MOV.L   @R15+,R14        ;
 6298                                 M           POP_REG1        R13     ;
 6299                                 M                                   ; RE"+4" 00,00,00,04
 6300 000000D2 6DF6                   M           MOV.L   @R15+,R13        ;
 6301                                 M           POP_REG1        R12     ;
 6302                                 M                                   ; RE"+4" 00,00,00,04
 6303 000000D4 6CF6                   M           MOV.L   @R15+,R12        ;
 6304                                 M           POP_REG1        R11     ;
 6305                                 M                                   ; RE"+4" 00,00,00,04
 6306 000000D6 6BF6                   M           MOV.L   @R15+,R11        ;
 6307                                 M           POP_REG1        R10     ;
 6308                                 M                                   ; RE"+4" 00,00,00,04
 6309 000000D8 6AF6                   M           MOV.L   @R15+,R10        ;
 6310                                 M           POP_REG1        R9      ;
 6311                                 M                                   ; RE"+4" 00,00,00,04
 6312 000000DA 69F6                   M           MOV.L   @R15+,R9        ;
 6313                                 M           POP_REG1        R8      ;
 6314                                 M                                   ; RE"+4" 00,00,00,04
 6315 000000DC 68F6                   M           MOV.L   @R15+,R8        ;
 6316                                 M           POP_REG1        R7      ;
 6317                                 M                                   ; RE"+4" 00,00,00,04
 6318 000000DE 67F6                   M           MOV.L   @R15+,R7        ;
 6319                                 M           POP_REG1        R6      ;
 6320                                 M                                   ; RE"+4" 00,00,00,04
 6321 000000E0 66F6                   M           MOV.L   @R15+,R6        ;
 6322                                 M           POP_REG1        R5      ;
 6323                                 M                                   ; RE"+4" 00,00,00,04
 6324 000000E2 65F6                   M           MOV.L   @R15+,R5        ;
 6325                                 M           POP_REG1        R4      ;
 6326                                 M                                   ; RE"+4" 00,00,00,04
 6327 000000E4 64F6                   M           MOV.L   @R15+,R4        ;
 6328                                 M           POP_REG1        R3      ;
 6329                                 M                                   ; RE"+4" 00,00,00,04
 6330 000000E6 63F6                   M           MOV.L   @R15+,R3        ;
 6331                                 M           POP_REG1        R2      ;
 6332                                 M                                   ; RE"+4" 00,00,00,04
 6333 000000E8 62F6                   M           MOV.L   @R15+,R2        ;
 6334                                 M           POP_REG1        R1      ;
*** SuperH RISC engine ASSEMBLER V.7.01.02.000 ***    07/04/21 19:29:08                                                  PAGE    35
PROGRAM NAME =

 6335                                 M                                   ; RE"+4" 00,00,00,04
 6336 000000EA 61F6                   M           MOV.L   @R15+,R1        ;
 6337                                 M           POP_REG1        R0      ;
 6338                                 M                                   ; RE"+4" 00,00,00,04
 6339 000000EC 60F6                   M           MOV.L   @R15+,R0        ;
 6340                             611             SUB_END
 6341                                 M   ;;;;;;; ADD     #4,R15                  ;[不要?]
 6342 000000EE 4F26                   M           LDS.L   @R15+,PR                ;[必要]
 6343                             612             M_RTS
 6344 000000F0 000B                   M           RTS                             ;RTSの後ろの
 6345 000000F2 0009                   M           NOP                             ;@R15+,PRはﾀﾞﾒ
 6346                             613     
 6347                             614     
 6348                             615             .import         _dio_top1
 6349                             616             .import         _dio_top2
 6350                             617     
 6351                             618     ;       ***************************************************
 6352                             619     ;       ***                                             ***
 6353                             620     ;       ***             ＫＥＹ読込み                    ***
 6354                             621     ;       ***                                             ***
 6355                             622     ;       ***************************************************
 6356                             623     ;;;     .import         _dpramB_top
 6357                             624             .import         _KEY_DT_CPUB
 6358                             625             .export         _KEY_READ
 6359 000000F4                    626     _KEY_READ:
 6360                             627             SUB_START
 6361 000000F4 4F22                   M           STS.L   PR,@-R15                ;[必要]
 6362                                 M   ;;;;;;; ADD     #-4,R15                 ;[不要?]
 6363                             628     
 6364                             629     ;-------------------------------------------------------------------------------
 6365                             630     ;       << SIT4-MC >>
 6366                             631     
 6367 000000F6 D106               632             MOV.L   #_KEY_DT_CPUB,R1
 6368 000000F8 D306               633             MOV.L   #_Key_Data_No,R3
 6369 000000FA D007               634             MOV.L   #4,R0
 6370 000000FC                    635     _KEY_RDMC_020:
 6371 000000FC 8800               636             CMP/EQ  #0,R0
 6372 000000FE 890D               637             BT      _KEY_RDMC_040
 6373 00000100 6211               638             MOV.W   @R1,R2
 6374 00000102 2321               639             MOV.W   R2,@R3
 6375 00000104 7102               640             ADD     #2,R1
 6376 00000106 7302               641             ADD     #2,R3
 6377 00000108 70FF               642             ADD     #-1,R0
 6378                             643             M_BRA   _KEY_RDMC_020
 6379 0000010A AFF7                   M           BRA     _KEY_RDMC_020
 6380 0000010C 0009                   M           NOP
 6381                                     ***** BEGIN-POOL *****
 6382 0000010E 0000                       ALIGNMENT CODE
 6383 00000110 00000000                   DATA FOR SOURCE-LINE 632
 6384 00000114 00000000                   DATA FOR SOURCE-LINE 633
 6385 00000118 00000004                   DATA FOR SOURCE-LINE 634
 6386                                     ***** END-POOL *****
 6387 0000011C                    644     _KEY_RDMC_040:
 6388                             645     
 6389 0000011C 9003               646             MOV.W   #H'FF,R0
 6390 0000011E D302               647             MOV.L   #_Key_Data_Flg,R3
 6391 00000120 2301               648             MOV.W   R0,@R3                                  ; KEYﾃﾞｰﾀ確定
*** SuperH RISC engine ASSEMBLER V.7.01.02.000 ***    07/04/21 19:29:08                                                  PAGE    36
PROGRAM NAME =

 6392                             649     
 6393                             650             M_BRA   _KEY_READ_EXT
 6394 00000122 A02E                   M           BRA     _KEY_READ_EXT
 6395 00000124 0009                   M           NOP
 6396                             651     
 6397                             652     ;-------------------------------------------------------------------------------
 6398                             653     
 6399                                     ***** BEGIN-POOL *****
 6400 00000126 00FF                       DATA FOR SOURCE-LINE 646
 6401 00000128 00000000                   DATA FOR SOURCE-LINE 647
 6402                                     ***** END-POOL *****
 6403 0000012C D217               654             MOV.L   #_KEY_SCAN,R2
 6404 0000012E D318               655             MOV.L   #_Key_Data_No,R3
 6405 00000130 6421               656             MOV.W   @R2,R4                                  ; 0~3
 6406 00000132 6643               657             MOV     R4,R6
 6407 00000134 4600               658             SHLL    R6
 6408 00000136 336C               659             ADD     R6,R3                                   ; R3=KEYﾃﾞｰﾀ格納ｱﾄﾞﾚｽ
 6409                             660     
 6410                             661     ;       ********** SIT3_CPUB PROGRAM **********
 6411                             662             .AIF    3       EQ      1
 6412                             663     
 6413                             664             MOV.L   #_PBDR,R1                               ;
 6414                             665             MOV.W   @R1,R0                                  ; KEYﾃﾞｰﾀ読込み1回目
 6415                             666             AND     #H'3F,R0                                ;
 6416                             667             MOV     R0,R5                                   ;
 6417                             668     
 6418                             669     ;       ********** SIT4_CPUB PROGRAM **********
 6419                             670             .AELIF  3       EQ      3
 6420                             671 C   
 6421 00000138 D116               672 C           MOV.L   #_dio_top1+_IOGA_PDR0,R1                ; 今回値 １回目
 6422 0000013A 6011               673 C           MOV.W   @R1,R0                                  ;
 6423 0000013C C93F               674 C           AND     #H'3F,R0                                ;
 6424 0000013E 6503               675 C           MOV     R0,R5                                   ;
 6425                             676 C   
 6426                             677             .AELSE
 6427                             678             .AENDI
 6428                             679     
 6429 00000140 7401               680             ADD     #1,R4                                   ; KEY_SCAN +1
 6430 00000142 D615               681             MOV.L   #D'3,R6                                 ; KEY_SCAN最大値
 6431 00000144 3466               682             CMP/HI  R6,R4                                   ; 最大値超えた?
 6432 00000146 8B00               683             BF      _KEY_SCAN_020                           ; いいえ
 6433 00000148 244A               684             XOR     R4,R4
 6434 0000014A                    685     _KEY_SCAN_020:
 6435 0000014A 2241               686             MOV.W   R4,@R2                                  ; 次のKEY_SCAN格納
 6436                             687     
 6437                             688     ;       ********** SIT3_CPUB PROGRAM **********
 6438                             689             .AIF    3       EQ      1
 6439                             690     
 6440                             691             MOV.L   #_PBDR,R1                               ;
 6441                             692             MOV.W   @R1,R0                                  ; KEYﾃﾞｰﾀ読込み1回目
 6442                             693             AND     #H'3F,R0                                ;
 6443                             694             MOV     R0,R5                                   ;
 6444                             695     
 6445                             696     ;       ********** SIT4_CPUB PROGRAM **********
 6446                             697             .AELIF  3       EQ      3
 6447                             698 C   
 6448 0000014C D111               699 C           MOV.L   #_dio_top1+_IOGA_PDR0,R1                ; 今回値 １回目
*** SuperH RISC engine ASSEMBLER V.7.01.02.000 ***    07/04/21 19:29:08                                                  PAGE    37
PROGRAM NAME =

 6449 0000014E 6011               700 C           MOV.W   @R1,R0                                  ;
 6450 00000150 C93F               701 C           AND     #H'3F,R0                                ;
 6451 00000152 6503               702 C           MOV     R0,R5                                   ;
 6452                             703 C   
 6453                             704             .AELSE
 6454                             705             .AENDI
 6455                             706     
 6456 00000154 3050               707             CMP/EQ  R5,R0                                   ; 1回目=2回目?
 6457 00000156 8903               708             BT      _KEY_SCAN_040                           ; はい
 6458                             709     
 6459                             710     ;       ********** SIT3_CPUB PROGRAM **********
 6460                             711             .AIF    3       EQ      1
 6461                             712     
 6462                             713             MOV.L   #_PBDR,R1                               ;
 6463                             714             MOV.W   @R1,R0                                  ; KEYﾃﾞｰﾀ読込み1回目
 6464                             715             AND     #H'3F,R0                                ;
 6465                             716             MOV     R0,R5                                   ;
 6466                             717     
 6467                             718     ;       ********** SIT4_CPUB PROGRAM **********
 6468                             719             .AELIF  3       EQ      3
 6469                             720 C   
 6470 00000158 D10E               721 C           MOV.L   #_dio_top1+_IOGA_PDR0,R1                ; 今回値 １回目
 6471 0000015A 6011               722 C           MOV.W   @R1,R0                                  ;
 6472 0000015C C93F               723 C           AND     #H'3F,R0                                ;
 6473 0000015E 6503               724 C           MOV     R0,R5                                   ;
 6474                             725 C   
 6475                             726             .AELSE
 6476                             727             .AENDI
 6477                             728     
 6478 00000160                    729     _KEY_SCAN_040:
 6479 00000160 6007               730             NOT     R0,R0
 6480 00000162 C93F               731             AND     #H'3F,R0                                ;
 6481 00000164 2301               732             MOV.W   R0,@R3                                  ; KEYﾃﾞｰﾀ格納
 6482                             733     
 6483 00000166 900F               734             MOV.W   #H'FF,R0
 6484 00000168 D30C               735             MOV.L   #_Key_Data_Flg,R3
 6485 0000016A 2301               736             MOV.W   R0,@R3                                  ; KEYﾃﾞｰﾀ確定
 6486                             737     
 6487 0000016C 4400               738             SHLL    R4
 6488 0000016E D20C               739             MOV.L   #_KEY_SCAN_OUT_TBL,R2
 6489 00000170 324C               740             ADD     R4,R2
 6490 00000172 6321               741             MOV.W   @R2,R3                                  ; KEY SCAN 出力bit
 6491                             742     
 6492                             743     ;       ********** SIT3_CPUB PROGRAM **********
 6493                             744             .AIF    3       EQ      1
 6494                             745             MOV.L   #_PADR,R1
 6495                             746             MOV.W   @R1,R0
 6496                             747             MOV.W   #H'FFF0,R4
 6497                             748             AND     R4,R0
 6498                             749             OR      R3,R0
 6499                             750             MOV.W   R0,@R1                                  ; 次回KEY SCAN 出力
 6500                             751     
 6501                             752     ;       -------------------------------------------------
 6502                             753     
 6503                             754     ;       ********** SIT4_CPUB PROGRAM **********
 6504                             755             .AELIF  3       EQ      3
 6505                             756 C   
*** SuperH RISC engine ASSEMBLER V.7.01.02.000 ***    07/04/21 19:29:08                                                  PAGE    38
PROGRAM NAME =

 6506 00000174 D10B               757 C           MOV.L   #_IOGA1_CTRL_DAT1+_IOGA_P4,R1           ;
 6507 00000176 6011               758 C           MOV.W   @R1,R0
 6508 00000178 C90F               759 C           AND     #H'0F,R0
 6509 0000017A 203B               760 C           OR      R3,R0
 6510 0000017C 2101               761 C           MOV.W   R0,@R1                                  ; SCAN SIGNAL OUT
 6511                             762 C   
 6512 0000017E D10A               763 C           MOV.L   #_dio_top1+_IOGA_PDR4,R1                ; WORK SET
 6513 00000180 2101               764 C           MOV.W   R0,@R1                                  ; SCAN SIGNAL OUT
 6514                             765 C   
 6515                             766             .AELSE
 6516                             767             .AENDI
 6517                             768     
 6518 00000182                    769     _KEY_READ_EXT:
 6519                             770             SUB_END
 6520                                 M   ;;;;;;; ADD     #4,R15                  ;[不要?]
 6521 00000182 4F26                   M           LDS.L   @R15+,PR                ;[必要]
 6522                             771             M_RTS
 6523 00000184 000B                   M           RTS                             ;RTSの後ろの
 6524 00000186 0009                   M           NOP                             ;@R15+,PRはﾀﾞﾒ
 6525                             772     
 6526                             773     
 6527                                     ***** BEGIN-POOL *****
 6528 00000188 00FF                       DATA FOR SOURCE-LINE 734
 6529 0000018A 0000                       ALIGNMENT CODE
 6530 0000018C 00000000                   DATA FOR SOURCE-LINE 654
 6531 00000190 00000000                   DATA FOR SOURCE-LINE 655
 6532 00000194 00000000                   DATA FOR SOURCE-LINE 672,699,721
 6533 00000198 00000003                   DATA FOR SOURCE-LINE 681
 6534 0000019C 00000000                   DATA FOR SOURCE-LINE 735
 6535 000001A0 00000000                   DATA FOR SOURCE-LINE 739
 6536 000001A4 00000000                   DATA FOR SOURCE-LINE 757
 6537 000001A8 00000000                   DATA FOR SOURCE-LINE 763
 6538                                     ***** END-POOL *****
 6539 000001AC                    774     _KEY_SCAN_OUT_TBL:
 6540                             775     ;       ********** SIT3_CPUB PROGRAM **********
 6541                             776             .AIF    3       EQ      1
 6542                             777             .DATA.W         B'00001110                      ; 0
 6543                             778             .DATA.W         B'00001101                      ; 1
 6544                             779             .DATA.W         B'00001011                      ; 2
 6545                             780             .DATA.W         B'00000111                      ; 3
 6546                             781     
 6547                             782     ;       ********** SIT4_CPUB PROGRAM **********
 6548                             783             .AELIF  3       EQ      3
 6549 000001AC 00E0               784 C           .DATA.W         B'11100000                      ; 0
 6550 000001AE 00D0               785 C           .DATA.W         B'11010000                      ; 1
 6551 000001B0 00B0               786 C           .DATA.W         B'10110000                      ; 2
 6552 000001B2 0070               787 C           .DATA.W         B'01110000                      ; 3
 6553                             788 C   
 6554                             789             .AELSE
 6555                             790             .AENDI
 6556                             791     
 6557                             792     
 6558                             793             .END
  *****TOTAL ERRORS       0
  *****TOTAL WARNINGS     0
*** SuperH RISC engine ASSEMBLER V.7.01.02.000 ***    07/04/21 19:29:08                                                  PAGE    39

*** CROSS REFERENCE LIST

NAME                             SECTION  ATTR VALUE             SEQUENCE

AAA00000                         Phwsetup      00000070   4492  4505*
AAA00001                         Phwsetup      000000F0   4587  4602*
AAA00002                         Phwsetup      00000168   4684  4697*
AAA00003                         Phwsetup      000001E8   4779  4794*
AAA00004                         Phwsetup      0000025C   4872  4886*
AAA00005                         Phwsetup      00000380   5140  5154*
AAA00006                         Phwsetup      000003FC   5249  5264*
AAA00007                         Phwsetup      000004CC   5447  5462*
AAA00008                         Phwsetup      000005A8   5640  5654*
AAA00009                         Phwsetup      00000630   5758  5772*
AAA00010                         Phwsetup      0000069C   5863  5875*
AAA00011                         P             00000074   6107  6118*
BIT0                                      EQU  00000001    282* 4467  4562  4659  4754  4847  4999  5115  5224  5422  5615  5733 
                                                          5838  5920  6082 
BIT1                                      EQU  00000002    283*
BIT10                                     EQU  00000400    292*
BIT11                                     EQU  00000800    293*
BIT12                                     EQU  00001000    294*
BIT13                                     EQU  00002000    295*
BIT14                                     EQU  00004000    296*
BIT15                                     EQU  00008000    297*
BIT16                                     EQU  00010000    298*
BIT17                                     EQU  00020000    299*
BIT18                                     EQU  00040000    300*
BIT19                                     EQU  00080000    301*
BIT2                                      EQU  00000004    284*
BIT20                                     EQU  00100000    302*
BIT21                                     EQU  00200000    303*
BIT22                                     EQU  00400000    304*
BIT23                                     EQU  00800000    305*
BIT24                                     EQU  01000000    306*
BIT25                                     EQU  02000000    307*
BIT26                                     EQU  04000000    308*
BIT27                                     EQU  08000000    309*
BIT28                                     EQU  10000000    310*
BIT29                                     EQU  20000000    311*
BIT3                                      EQU  00000008    285*
BIT30                                     EQU  40000000    312*
BIT31                                     EQU  80000000    313*
BIT4                                      EQU  00000010    286* 4459  4554  4651  4746  4839  4993  5107  5216  5414  5607  5725 
                                                          5830  6074 
BIT5                                      EQU  00000020    287*
BIT6                                      EQU  00000040    288*
BIT7                                      EQU  00000080    289* 4914  5028  5323  5521  5933 
BIT8                                      EQU  00000100    290*
BIT9                                      EQU  00000200    291*
DREG                                      EQU  00000000   3115*
GA1_PFEX                                  EQU  00000084   2328*
GA1_PGEX                                  EQU  00000000   2353*
GA1_PHEX                                  EQU  00000000   2377*
GA2_PFEX                                  EQU  000000D0   2841*
GA2_PGEX                                  EQU  00000061   2867*
GA2_PHEX                                  EQU  00000000   2891*
H_BYTE                                    EQU  00000000    349*
*** SuperH RISC engine ASSEMBLER V.7.01.02.000 ***    07/04/21 19:29:08                                                  PAGE    40

*** CROSS REFERENCE LIST

NAME                             SECTION  ATTR VALUE             SEQUENCE

L_BYTE                                    EQU  00000001    348*
NBIT0                                     EQU  000000FE    316* 4480  4575  4672  4767  4860  5128  5237  5435  5628  5746  5851 
                                                          6095 
NBIT1                                     EQU  000000FD    317*
NBIT10                                    EQU  0000FBFF    327*
NBIT11                                    EQU  0000F7FF    328*
NBIT12                                    EQU  0000EFFF    329*
NBIT13                                    EQU  0000DFFF    330*
NBIT14                                    EQU  0000BFFF    331*
NBIT15                                    EQU  00007FFF    332*
NBIT2                                     EQU  000000FB    318*
NBIT3                                     EQU  000000F7    319*
NBIT4                                     EQU  000000EF    320* 4461  4556  4653  4748  4841  5109  5218  5416  5609  5727  5832 
                                                          6076 
NBIT5                                     EQU  000000DF    321*
NBIT6                                     EQU  000000BF    322*
NBIT7                                     EQU  0000007F    323*
NBIT8                                     EQU  0000FEFF    325*
NBIT9                                     EQU  0000FDFF    326*
P                                P        SCT  00000000   5977*
Phwsetup1                        Phwsetup SCT  00000000   4413*
WORK_MEM_CK020                   Phwsetup      0000000C   4435* 4516 
WORK_MEM_CK050                   Phwsetup      0000007A   4437  4519*
WORK_MEM_CK120                   Phwsetup      00000080   4527* 4613 
WORK_MEM_CK130                   Phwsetup      0000008C   4532  4534*
WORK_MEM_CK150                   Phwsetup      000000FA   4529  4616*
WORK_MEM_CK2020                  Phwsetup      0000029A   4969* 5002 
WORK_MEM_CK2030                  Phwsetup      000002AA   4977  4979*
WORK_MEM_CK2040                  Phwsetup      000002B6   4984  4986*
WORK_MEM_CK2050                  Phwsetup      000002EC   4971  5014*
WORK_MEM_CK220                   Phwsetup      00000104   4627* 4708 
WORK_MEM_CK250                   Phwsetup      00000172   4629  4711*
WORK_MEM_CK2END                  Phwsetup      00000304   5016  5052*
WORK_MEM_CK320                   Phwsetup      00000178   4719* 4805 
WORK_MEM_CK330                   Phwsetup      00000184   4724  4726*
WORK_MEM_CK350                   Phwsetup      000001F2   4618  4721  4808*
WORK_MEM_CK420                   Phwsetup      000001F8   4816* 4897 
WORK_MEM_CK450                   Phwsetup      00000266   4818  4900*
WORK_MEM_CKEND                   Phwsetup      0000027E   4902  4938*
WORK_MEM_ER2END                  Phwsetup      000002F0   5018*
WORK_MEM_EREND                   Phwsetup      0000026A   4904*
XBIT0                                     EQU  00000000    335*
XBIT1                                     EQU  00000001    336*
XBIT2                                     EQU  00000002    337*
XBIT3                                     EQU  00000003    338*
XBIT4                                     EQU  00000004    339*
XBIT5                                     EQU  00000005    340*
XBIT6                                     EQU  00000006    341*
XBIT7                                     EQU  00000007    342*
_ACDR                                     IMPT 00000000    122 
_ACTR1                                    IMPT 00000000    114 
_ACTR2                                    IMPT 00000000    115 
_AD2CNV_IN_DATA                           IMPT 00000000   4137 
_AD2_AVG_BUF                              IMPT 00000000   4134 
*** SuperH RISC engine ASSEMBLER V.7.01.02.000 ***    07/04/21 19:29:08                                                  PAGE    41

*** CROSS REFERENCE LIST

NAME                             SECTION  ATTR VALUE             SEQUENCE

_AD2_AVG_TOTAL                            IMPT 00000000   4135 
_AD2_BUFCNT                               IMPT 00000000   4133 
_AD3CNV_IN_DATA                           IMPT 00000000   4143 
_AD3_AVG_BUF                              IMPT 00000000   4140 
_AD3_AVG_TOTAL                            IMPT 00000000   4141 
_AD3_BUFCNT                               IMPT 00000000   4139 
_AD4CNV_IN_DATA                           IMPT 00000000   4149 
_AD4_AVG_BUF                              IMPT 00000000   4146 
_AD4_AVG_TOTAL                            IMPT 00000000   4147 
_AD4_BUFCNT                               IMPT 00000000   4145 
_ADCNV_SEL                                IMPT 00000000   4151 
_ADCR                                     IMPT 00000000     56 
_ADCSR                                    IMPT 00000000     55 
_ADDRAH                                   IMPT 00000000     47 
_ADDRAL                                   IMPT 00000000     48 
_ADDRBH                                   IMPT 00000000     49 
_ADDRBL                                   IMPT 00000000     50 
_ADDRCH                                   IMPT 00000000     51 
_ADDRCL                                   IMPT 00000000     52 
_ADDRDH                                   IMPT 00000000     53 
_ADDRDL                                   IMPT 00000000     54 
_ADD_CMD                                  EQU  00000044   3134*
_AD_AVG_BUF                               IMPT 00000000   4128 
_AD_AVG_TOTAL                             IMPT 00000000   4129 
_AD_BUFCNT                                IMPT 00000000   4127 
_AD_CNV_DT0                               IMPT 00000000   4125 
_ANDW_CMD                                 EQU  00000038   3131*
_ASDR                                     IMPT 00000000    123 
_ASTR1                                    IMPT 00000000    116 
_ASTR2                                    IMPT 00000000    117 
_BAMRA                                    IMPT 00000000    261 
_BAMRB                                    IMPT 00000000    257 
_BARA                                     IMPT 00000000    260 
_BARB                                     IMPT 00000000    256 
_BASRA                                    IMPT 00000000    268 
_BASRB                                    IMPT 00000000    269 
_BBRA                                     IMPT 00000000    262 
_BBRB                                     IMPT 00000000    258 
_BCR1                                     IMPT 00000000    237 
_BCR2                                     IMPT 00000000    238 
_BDMRB                                    IMPT 00000000    253 
_BDRB                                     IMPT 00000000    252 
_BETR                                     IMPT 00000000    255 
_BRCR                                     IMPT 00000000    254 
_BRDR                                     IMPT 00000000    263 
_BRR0                                     IMPT 00000000    202 
_BRSR                                     IMPT 00000000    259 
_BTNER_ERR_TM                             IMPT 00000000   4074 
_CB_BAKUP_CMD1                            EQU  00005678    381*
_CB_BAKUP_CMD2                            EQU  00001234    382*
_CB_BAK_SUM_COD1                          EQU  5AA51234    379*
_CB_BAK_SUM_COD2                          EQU  A55A4321    380*
_CB_ERR_INFO_MEM                          EQU  00000080    405*
_CB_ERR_INFO_PSIZE                        EQU  00000008    406*
*** SuperH RISC engine ASSEMBLER V.7.01.02.000 ***    07/04/21 19:29:08                                                  PAGE    42

*** CROSS REFERENCE LIST

NAME                             SECTION  ATTR VALUE             SEQUENCE

_CB_STS_BUF_1BLK                          EQU  00000040    384*  386 
_CB_STS_BUF_BLKMAX                        EQU  00000008    385*  386 
_CB_STS_BUF_MAX                           EQU  00000200    386*
_CB_TRD_BEFORE                            EQU  00000060    394*
_CB_TRD_BUF_DP_MAX                        EQU  00000080    398*
_CB_TRD_BUF_MAX                           EQU  00000800    395*
_CB_TRD_DP_1CNT                           EQU  00000008    397*
_CB_TRD_DP_CH                             EQU  00000004    390*
_CB_TRD_SMP_CNT                           EQU  00000080    393*
_CCR                                      IMPT 00000000    270 
_CCR2                                     IMPT 00000000     60 
_CHCR0                                    IMPT 00000000     29 
_CHCR1                                    IMPT 00000000     33 
_CHCR2                                    IMPT 00000000     37 
_CHCR3                                    IMPT 00000000     41 
_CHRAR                                    IMPT 00000000    134 
_CKIO2CR                                  IMPT 00000000    139 
_CLR_CMD                                  EQU  0000000C   3120*
_CMCNT                                    IMPT 00000000     45 
_CMCOR                                    IMPT 00000000     46 
_CMCSR                                    IMPT 00000000     44 
_CMP2_ERR_FIRST                           IMPT 00000000   4159 
_CMP2_ERR_TM2                             IMPT 00000000   4083 
_CMSTR                                    IMPT 00000000     43 
_CPUA_EMG_IN_FLG                          IMPT 00000000   4240 
_CPUN_2CMP_DATA                           IMPT 00000000   4158 
_CPUN_2CMP_LATCH1                         IMPT 00000000   4162 
_CPUN_2CMP_LATCH2                         IMPT 00000000   4161 
_CTR_CMD                                  EQU  00000014   3122*
_DACR1                                    IMPT 00000000     59 
_DADR0                                    IMPT 00000000     57 
_DADR1                                    IMPT 00000000     58 
_DAR0                                     IMPT 00000000     27 
_DAR1                                     IMPT 00000000     31 
_DAR2                                     IMPT 00000000     35 
_DAR3                                     IMPT 00000000     39 
_DBG_ERRCHK_NASI                          IMPT 00000000   4067 
_DMAOR                                    IMPT 00000000     42 
_DMATCR0                                  IMPT 00000000     28 
_DMATCR1                                  IMPT 00000000     32 
_DMATCR2                                  IMPT 00000000     36 
_DMATCR3                                  IMPT 00000000     40 
_DO_Rifresh                      P        EXPT 000000A4   6196  6197*
_DP2_MEM_CHK                     Phwsetup EXPT 00000460   5376  5382*
_DP2_MEM_CK100                   Phwsetup      000004E0   5478  5480*
_DP2_MEM_CK200                   Phwsetup      000004EE   5486  5488*
_DP2_MEM_CK300                   Phwsetup      000004FC   5494  5496*
_DP2_MEM_CK400                   Phwsetup      00000508   5396  5507*
_DP2_MEM_CKEND                   Phwsetup      00000520   5545*
_DP2_MEM_CK_LOOP                 Phwsetup      0000046E   5394* 5501 
_DP2_MEM_EREND                   Phwsetup      0000050C   5511*
_DPNQ                                     IMPT 00000000    120 
_DPRAM_SIZE                               EQU  00003FFF   2981* 5190  5388 
_DP_MEM_CHK                      Phwsetup EXPT 00000390   5183  5184*
*** SuperH RISC engine ASSEMBLER V.7.01.02.000 ***    07/04/21 19:29:08                                                  PAGE    43

*** CROSS REFERENCE LIST

NAME                             SECTION  ATTR VALUE             SEQUENCE

_DP_MEM_CK100                    Phwsetup      00000410   5280  5282*
_DP_MEM_CK200                    Phwsetup      0000041E   5288  5290*
_DP_MEM_CK300                    Phwsetup      0000042C   5296  5298*
_DP_MEM_CK400                    Phwsetup      00000438   5198  5309*
_DP_MEM_CKEND                    Phwsetup      00000450   5311  5347* 5509 
_DP_MEM_CK_LOOP                  Phwsetup      0000039E   5196* 5303 
_DP_MEM_EREND                    Phwsetup      0000043C   5313*
_DSET_SW_FLG                              IMPT 00000000   4214 
_DUMMY_SUM_CODE                           EQU  5AA53CC3    372* 5914 
_END_CMD                                  EQU  0000004C   3136*
_EQ_CMD                                   EQU  00000028   3127*
_ERR_CHK_OK_FLG                           IMPT 00000000   4062 
_ER_SFTSW_CHG_OLD                         IMPT 00000000   4069 
_ER_SQRAM_WK1                             IMPT 00000000   4064 
_ER_SQRAM_WK2                             IMPT 00000000   4065 
_EXCPGCR                                  IMPT 00000000    138 
_EXPEVT                                   IMPT 00000000    265 
_EXPFC                                    IMPT 00000000    137 
_FACT_IN_DATA                             IMPT 00000000   4167 
_FDEV_IN_DATA                             IMPT 00000000   4169 
_FROM_SUMCHK_CODE                         IMPT 00000000   4071 
_FRQCR                                    IMPT 00000000    247 
_FSFT_TRERR_TM                            IMPT 00000000   4084 
_GAMEN_ON_FLG                             IMPT 00000000   3957 
_GT_CMD                                   EQU  00000030   3129*
_ICR0                                     IMPT 00000000    234 
_ICR1                                     IMPT 00000000     20 
_ICR2                                     IMPT 00000000     21 
_ICR3                                     IMPT 00000000    133 
_IHC_LOOP                        Phwsetup      000005CA   5701* 5783 
_IHC_LOOP_END                    Phwsetup      0000063A   5703  5786*
_INTEVT                                   IMPT 00000000    266 
_INTEVT2                                  IMPT 00000000     16 
_INTHdlr_TO_RAM                  Phwsetup EXPT 000005B8   5686  5687*
_IN_RNA_REF_ERR_FLG1                      IMPT 00000000   4189 
_IN_RNA_REF_ERR_FLG2                      IMPT 00000000   4190 
_IO1A_P4EX                                EQU  00000000   3039*
_IO1A_P5EX                                EQU  0000007B   3040*
_IO1A_P6EX                                EQU  00000000   3041*
_IO1A_P7EX                                EQU  00000000   3042*
_IO1B_P4EX                                EQU  000000FF   3049*
_IO1B_P5EX                                EQU  00000070   3050* 4931  5045  5340  5538  5950 
_IO1B_P6EX                                EQU  00000000   3051*
_IO1B_P7EX                                EQU  00000000   3052*
_IO2A_P5EX                                EQU  0000002F   3044*
_IO2A_P6EX                                EQU  0000009C   3045*
_IO2A_P7EX                                EQU  00000000   3046*
_IO2B_P5EX                                EQU  00000000   3055* 4473  4486  4568  4581  4665  4678  4760  4773  4853  4866  5121 
                                                          5134  5230  5243  5428  5441  5621  5634  5739  5752  5844  5857  6088 
                                                          6101 
_IO2B_P6EX                                EQU  0000009C   3056*
_IO2B_P7EX                                EQU  00000000   3057*
_IOGA1_CTRL_DAT1                          IMPT 00000000   4361  4912  4917  5026  5031  5321  5326  5519  5524  5931  5936  6506 
_IOGA1_PA_DT_OLD1                         IMPT 00000000   4366 
*** SuperH RISC engine ASSEMBLER V.7.01.02.000 ***    07/04/21 19:29:08                                                  PAGE    44

*** CROSS REFERENCE LIST

NAME                             SECTION  ATTR VALUE             SEQUENCE

_IOGA1_PA_DT_OLD2                         IMPT 00000000   4372 
_IOGA1_PB_DT_OLD1                         IMPT 00000000   4367 
_IOGA1_PB_DT_OLD2                         IMPT 00000000   4373 
_IOGA1_PC_DT_OLD1                         IMPT 00000000   4368 
_IOGA1_PC_DT_OLD2                         IMPT 00000000   4374 
_IOGA1_PD_DT_OLD1                         IMPT 00000000   4369 
_IOGA1_PD_DT_OLD2                         IMPT 00000000   4375 
_IOGA1_PE_DT_OLD1                         IMPT 00000000   4370 
_IOGA1_PE_DT_OLD2                         IMPT 00000000   4376 
_IOGA2_CTRL_DAT1                          IMPT 00000000   4363  4465  4478  4560  4573  4657  4670  4752  4765  4845  4858  5113 
                                                          5126  5222  5235  5420  5433  5613  5626  5731  5744  5836  5849  6080 
                                                          6093 
_IOGA2_PA_DT_OLD1                         IMPT 00000000   4378 
_IOGA2_PA_DT_OLD2                         IMPT 00000000   4384 
_IOGA2_PB_DT_OLD1                         IMPT 00000000   4379 
_IOGA2_PB_DT_OLD2                         IMPT 00000000   4385 
_IOGA2_PC_DT_OLD1                         IMPT 00000000   4380 
_IOGA2_PC_DT_OLD2                         IMPT 00000000   4386 
_IOGA2_PD_DT_OLD1                         IMPT 00000000   4381 
_IOGA2_PD_DT_OLD2                         IMPT 00000000   4387 
_IOGA2_PE_DT_OLD1                         IMPT 00000000   4382 
_IOGA2_PE_DT_OLD2                         IMPT 00000000   4388 
_IOGA_P0                                  EQU  00000000   2998*
_IOGA_P1                                  EQU  00000002   2999*
_IOGA_P2                                  EQU  00000004   3000*
_IOGA_P3                                  EQU  00000006   3001*
_IOGA_P4                                  EQU  00000008   3002* 6506 
_IOGA_P5                                  EQU  0000000A   3003* 4465  4478  4560  4573  4657  4670  4752  4765  4845  4858  5113 
                                                          5126  5222  5235  5420  5433  5613  5626  5731  5744  5836  5849  6080 
                                                          6093 
_IOGA_P6                                  EQU  0000000C   3004*
_IOGA_P7                                  EQU  0000000E   3005*
_IOGA_PDIR0                               EQU  00000002   3023*
_IOGA_PDIR1                               EQU  00000006   3024*
_IOGA_PDIR2                               EQU  0000000A   3025*
_IOGA_PDIR3                               EQU  0000000E   3026*
_IOGA_PDIR4                               EQU  00000012   3027*
_IOGA_PDIR5                               EQU  00000016   3028*
_IOGA_PDIR6                               EQU  0000001A   3029*
_IOGA_PDIR7                               EQU  0000001C   3030*
_IOGA_PDR0                                EQU  00000000   3013* 6421  6448  6470 
_IOGA_PDR1                                EQU  00000004   3014*
_IOGA_PDR2                                EQU  00000008   3015*
_IOGA_PDR3                                EQU  0000000C   3016*
_IOGA_PDR4                                EQU  00000010   3017* 6512 
_IOGA_PDR5                                EQU  00000014   3018* 4475  4488  4570  4583  4667  4680  4762  4775  4855  4868  4933 
                                                          4997  5047  5123  5136  5232  5245  5342  5430  5443  5540  5623  5636 
                                                          5741  5754  5846  5859  5952  6090  6103 
_IOGA_PDR6                                EQU  00000018   3019*
_IOGA_PDR7                                EQU  0000001C   3020*
_IOGAi_PA                                 EQU  00000000   2989*
_IOGAi_PB                                 EQU  00000002   2990*
_IOGAi_PC                                 EQU  00000004   2991*
_IOGAi_PD                                 EQU  00000006   2992*
*** SuperH RISC engine ASSEMBLER V.7.01.02.000 ***    07/04/21 19:29:08                                                  PAGE    45

*** CROSS REFERENCE LIST

NAME                             SECTION  ATTR VALUE             SEQUENCE

_IOGAo_PE                                 EQU  00000008   2993*
_IOGAo_PF                                 EQU  0000000A   2994* 4912  4917  5026  5031  5321  5326  5519  5524  5931  5936 
_IOGAo_PG                                 EQU  0000000C   2995*
_IOGAo_PH                                 EQU  0000000E   2996*
_IPR3                                     IMPT 00000000    131 
_IPR4                                     IMPT 00000000    132 
_IPRA                                     IMPT 00000000    235 
_IPRB                                     IMPT 00000000    236 
_IPRC                                     IMPT 00000000     23 
_IPRD                                     IMPT 00000000     24 
_IPRE                                     IMPT 00000000     25 
_IPRF                                     IMPT 00000000    129 
_IPRG                                     IMPT 00000000    130 
_IRAM_CLEAR                      Phwsetup EXPT 00000314   5066  5072*
_IRAM_CR020                      Phwsetup      0000031C   5084* 5165 
_IRAM_CR050                      Phwsetup      0000038A   5086  5168*
_IRAM_SIZE                                EQU  00007FFF   2980*
_IRAM_TOP                                 EQU  FFFF6000   2979*
_IRR0                                     IMPT 00000000     17 
_IRR1                                     IMPT 00000000     18 
_IRR2                                     IMPT 00000000     19 
_KEEPRY_BKUP_ERR                          IMPT 00000000   4310 
_KEY_DT_CPUB                              IMPT 00000000   6357  6367 
_KEY_INF_2_SEQ                            IMPT 00000000   4006 
_KEY_RDMC_020                    P             000000FC   6370* 6379 
_KEY_RDMC_040                    P             0000011C   6372  6387*
_KEY_READ                        P        EXPT 000000F4   6358  6359*
_KEY_READ_EXT                    P             00000182   6394  6518*
_KEY_SCAN                                 IMPT 00000000   3956  6403 
_KEY_SCAN_020                    P             0000014A   6432  6434*
_KEY_SCAN_040                    P             00000160   6457  6478*
_KEY_SCAN_OUT_TBL                P             000001AC   6488  6539*
_KJ_INI_CHK_WAIT                          IMPT 00000000   4003 
_Key_Data_Flg                             IMPT 00000000   3940  6390  6484 
_Key_Data_No                              IMPT 00000000   3941  6368  6404 
_Key_Data_WK                              IMPT 00000000   3942 
_LDACLNR                                  IMPT 00000000    196 
_LDCNTR                                   IMPT 00000000    200 
_LDDFR                                    IMPT 00000000    185 
_LDHCNR                                   IMPT 00000000    191 
_LDHSYNR                                  IMPT 00000000    192 
_LDICKR                                   IMPT 00000000    183 
_LDINTR                                   IMPT 00000000    197 
_LDLAOR                                   IMPT 00000000    189 
_LDMTR                                    IMPT 00000000    184 
_LDPALCR                                  IMPT 00000000    190 
_LDPMMR                                   IMPT 00000000    198 
_LDPR00                                   IMPT 00000000    182 
_LDPSPR                                   IMPT 00000000    199 
_LDSARL                                   IMPT 00000000    188 
_LDSARU                                   IMPT 00000000    187 
_LDSMR                                    IMPT 00000000    186 
_LDVDLNR                                  IMPT 00000000    193 
_LDVSYNR                                  IMPT 00000000    195 
*** SuperH RISC engine ASSEMBLER V.7.01.02.000 ***    07/04/21 19:29:08                                                  PAGE    46

*** CROSS REFERENCE LIST

NAME                             SECTION  ATTR VALUE             SEQUENCE

_LDVTLNR                                  IMPT 00000000    194 
_LDW_CMD                                  EQU  00000020   3125*
_LE_CMD                                   EQU  00000034   3130*
_LT_RNA_REF_ERR_FLG1                      IMPT 00000000   4193 
_LT_RNA_REF_ERR_FLG2                      IMPT 00000000   4194 
_Lcd_Contrast                             IMPT 00000000   3948 
_MCR                                      IMPT 00000000    241 
_MMUCR                                    IMPT 00000000    267 
_MPCR                                     IMPT 00000000    119 
_MRCR                                     IMPT 00000000    118 
_NCHSW_ERR_TM1                            IMPT 00000000   4075 
_NCHSW_ERR_TM2                            IMPT 00000000   4076 
_NE_CMD                                   EQU  0000002C   3128*
_ORW_CMD                                  EQU  0000003C   3132*
_PACR                                     IMPT 00000000     76 
_PADR                                     IMPT 00000000     89 
_PBCR                                     IMPT 00000000     77 
_PBDR                                     IMPT 00000000     90 
_PB_INDT_OLD1                             IMPT 00000000   4250 
_PB_INDT_OLD2                             IMPT 00000000   4251 
_PB_PORT_CTL_DATA                         IMPT 00000000   4249 
_PCC0CSCIER                               IMPT 00000000    113 
_PCC0CSCR                                 IMPT 00000000    112 
_PCC0GCR                                  IMPT 00000000    111 
_PCC0ISR                                  IMPT 00000000    110 
_PCCR                                     IMPT 00000000     78 
_PCDR                                     IMPT 00000000     91 
_PCR                                      IMPT 00000000    242 
_PDCR                                     IMPT 00000000     79 
_PDDR                                     IMPT 00000000     92 
_PECR                                     IMPT 00000000     80 
_PEDR                                     IMPT 00000000     93 
_PFCR                                     IMPT 00000000     81 
_PFDR                                     IMPT 00000000     94 
_PGCR                                     IMPT 00000000     82 
_PGDR                                     IMPT 00000000     95 
_PHCR                                     IMPT 00000000     83 
_PHDR                                     IMPT 00000000     96 
_PINTER                                   IMPT 00000000     22 
_PJCR                                     IMPT 00000000     84 
_PJDR                                     IMPT 00000000     97  4457  4552  4649  4744  4837  4991  5105  5214  5412  5605  5723 
                                                          5828  6072 
_PJ_INDT_OLD1                             IMPT 00000000   4255 
_PJ_INDT_OLD2                             IMPT 00000000   4256 
_PJ_PORT_CTL_DATA                         IMPT 00000000   4254 
_PKCR                                     IMPT 00000000     85 
_PKDR                                     IMPT 00000000     98 
_PK_INDT_OLD1                             IMPT 00000000   4260 
_PK_INDT_OLD2                             IMPT 00000000   4261 
_PK_PORT_CTL_DATA                         IMPT 00000000   4259 
_PLCR                                     IMPT 00000000     86 
_PLDR                                     IMPT 00000000     99 
_PLF_CMD                                  EQU  00000008   3119*
_PLS_CMD                                  EQU  00000004   3118*
*** SuperH RISC engine ASSEMBLER V.7.01.02.000 ***    07/04/21 19:29:08                                                  PAGE    47

*** CROSS REFERENCE LIST

NAME                             SECTION  ATTR VALUE             SEQUENCE

_PLSiCH1                                  EQU  00000000   3065*
_PLSiCH2                                  EQU  00000030   3066*
_PL_BitComdH                              EQU  00000002   3069*
_PL_BitComdL                              EQU  00000000   3068*
_PL_BitInfoH                              EQU  00000006   3071*
_PL_BitInfoL                              EQU  00000004   3070*
_PL_CtrlReg                               EQU  0000002A   3075*
_PL_INDT_OLD1                             IMPT 00000000   4265 
_PL_INDT_OLD2                             IMPT 00000000   4266 
_PL_NowPos1H                              EQU  00000026   3073*
_PL_NowPos1L                              EQU  00000024   3072*
_PL_NowPos2                               EQU  00000028   3074*
_PL_PORT_CTL_DATA                         IMPT 00000000   4264 
_PMCR                                     IMPT 00000000     88 
_PMDR                                     IMPT 00000000    101 
_PTEH                                     IMPT 00000000    271 
_PTEL                                     IMPT 00000000    272 
_PV0_SCRW_POS                             IMPT 00000000   4055 
_PV1_SCRW_POS                             IMPT 00000000   4053 
_PV_AD_DATA                               IMPT 00000000   4130 
_PV_GAIN_BAK1L_INI                        IMPT 00000000   3988 
_PV_GAIN_BAK1R_INI                        IMPT 00000000   3989 
_PV_GAIN_BAK2L_INI                        IMPT 00000000   3990 
_PV_GAIN_BAK2R_INI                        IMPT 00000000   3991 
_PV_GAIN_BAK3L_INI                        IMPT 00000000   3992 
_PV_GAIN_BAK3R_INI                        IMPT 00000000   3993 
_PV_GAIN_BAK4L_INI                        IMPT 00000000   3994 
_PV_GAIN_BAK4R_INI                        IMPT 00000000   3995 
_PV_GAIN_BAK5L_INI                        IMPT 00000000   3996 
_PV_GAIN_BAK5R_INI                        IMPT 00000000   3997 
_PV_OF_AVE_BAKL_INI                       IMPT 00000000   4000 
_PV_OF_AVE_BAKR_INI                       IMPT 00000000   4001 
_PV_OF_AVE_BAKT_INI                       IMPT 00000000   4002 
_PV_OF_BAKL_INI                           IMPT 00000000   3998 
_PV_OF_BAKR_INI                           IMPT 00000000   3999 
_R64CNT                                   IMPT 00000000    218 
_RACT_IN_DATA                             IMPT 00000000   4168 
_RCNT                                     IMPT 00000000    121 
_RCR1                                     IMPT 00000000    232 
_RCR2                                     IMPT 00000000    233 
_RDAYAR                                   IMPT 00000000    230 
_RDAYCNT                                  IMPT 00000000    223 
_RDEV_IN_DATA                             IMPT 00000000   4170 
_RDFP                                     IMPT 00000000    125 
_RDR0                                     IMPT 00000000    206 
_REAL_INP1_DATA                           IMPT 00000000   4244 
_REAL_INP1_DT_OLD1                        IMPT 00000000   4245 
_REAL_INP1_DT_OLD2                        IMPT 00000000   4246 
_REAL_OUT0                                IMPT 00000000   4409 
_REMOTE_ERR_CHKTM                         IMPT 00000000   4103 
_RFCR                                     IMPT 00000000    246 
_RHRAR                                    IMPT 00000000    228 
_RHRCNT                                   IMPT 00000000    221 
_RMINAR                                   IMPT 00000000    227 
*** SuperH RISC engine ASSEMBLER V.7.01.02.000 ***    07/04/21 19:29:08                                                  PAGE    48

*** CROSS REFERENCE LIST

NAME                             SECTION  ATTR VALUE             SEQUENCE

_RMINCNT                                  IMPT 00000000    220 
_RMONAR                                   IMPT 00000000    231 
_RMONCNT                                  IMPT 00000000    224 
_RNA_ALM_BIT0_CNT                         IMPT 00000000   4201 
_RNA_ALM_BIT1_CNT                         IMPT 00000000   4202 
_RNA_ALM_BIT2_CNT                         IMPT 00000000   4203 
_RNA_ALM_BIT3_CNT                         IMPT 00000000   4204 
_RNA_ALM_BIT4_CNT                         IMPT 00000000   4205 
_RNA_ALM_BIT5_CNT                         IMPT 00000000   4206 
_RNA_ALM_BIT6_CNT                         IMPT 00000000   4207 
_RNA_ALM_BIT7_CNT                         IMPT 00000000   4208 
_RNA_ALM_CNT                              IMPT 00000000   4209 
_RNA_ALM_DAT                              IMPT 00000000   4210 
_RNA_CMD_VERIFY_CNT                       IMPT 00000000   4196 
_RNA_CMD_VERIFY_DAT                       IMPT 00000000   4197 
_RNA_REF1_CNT                             IMPT 00000000   4211 
_RNA_REF2_CNT                             IMPT 00000000   4212 
_RNA_REF_ERR_FLG1                         IMPT 00000000   4191 
_RNA_REF_ERR_FLG2                         IMPT 00000000   4192 
_RNA_STS_ERR_DAT                          IMPT 00000000   4200 
_RNA_STS_REQERR_CNT                       IMPT 00000000   4199 
_RNA_STS_SYSERR_CNT                       IMPT 00000000   4198 
_ROM_SUMCHK_END                  Phwsetup      000006E4   5912  5916  5957*
_ROM_SUMCHK_LOOP                 Phwsetup      00000648   5813* 5889 
_ROM_SUM_CHK                     Phwsetup EXPT 00000640   5802  5803*
_ROM_SUM_CODE                             IMPT 00000000   5800  5811 
_ROM_SYSPAR_ERRADR                        IMPT 00000000   4105 
_RSECAR                                   IMPT 00000000    226 
_RSECCNT                                  IMPT 00000000    219 
_RSFT_TRERR_TM                            IMPT 00000000   4085 
_RTCNT                                    IMPT 00000000    244 
_RTCOR                                    IMPT 00000000    245 
_RTCSR                                    IMPT 00000000    243 
_RWKAR                                    IMPT 00000000    229 
_RWKCNT                                   IMPT 00000000    222 
_RYRCNT                                   IMPT 00000000    225 
_SAITO_ASM_RAM_TOP                        IMPT 00000000   4019 
_SAR0                                     IMPT 00000000     26 
_SAR1                                     IMPT 00000000     30 
_SAR2                                     IMPT 00000000     34 
_SAR3                                     IMPT 00000000     38 
_SCBRR2                                   IMPT 00000000    103 
_SCFCR2                                   IMPT 00000000    108 
_SCFDR2                                   IMPT 00000000    109 
_SCFRDR2                                  IMPT 00000000    107 
_SCFTDR2                                  IMPT 00000000    105 
_SCI0_PRO_ROM_TO_RAM             Phwsetup EXPT 00000530   5563  5569*
_SCPCR                                    IMPT 00000000     87 
_SCPDR                                    IMPT 00000000    100 
_SCR0                                     IMPT 00000000    203 
_SCSCMR                                   IMPT 00000000    207 
_SCSCR2                                   IMPT 00000000    104 
_SCSMR2                                   IMPT 00000000    102 
_SCSSR2                                   IMPT 00000000    106 
*** SuperH RISC engine ASSEMBLER V.7.01.02.000 ***    07/04/21 19:29:08                                                  PAGE    49

*** CROSS REFERENCE LIST

NAME                             SECTION  ATTR VALUE             SEQUENCE

_SDDRL                                    IMPT 00000000    128 
_SDDR_SDDRH                               IMPT 00000000    127 
_SDIR                                     IMPT 00000000    126 
_SELF_ACT_FLG                             IMPT 00000000   4113 
_SELF_CHK_FLG                             IMPT 00000000   4112 
_SELF_CHK_TIMER                           IMPT 00000000   4122 
_SELF_FSTY_USE                            IMPT 00000000   4119 
_SELF_HAND_FLG1                           IMPT 00000000   4116 
_SELF_HAND_FLG2                           IMPT 00000000   4117 
_SELF_RSTY_USE                            IMPT 00000000   4120 
_SEQ_ADR                                  EQU  00000000   3096*
_SEQ_ADR_HI                               EQU  00000000   3101*
_SEQ_ADR_LO                               EQU  00000000   3102*
_SEQ_BIT                                  EQU  00000000   3095*
_SEQ_CARD_MAX                             EQU  0000007F   3092*
_SEQ_CTR_CARD_TOP                         EQU  00000430   3140*
_SEQ_CTR_DT                               EQU  00000000   3099*
_SEQ_DP_TOP                               IMPT 00000000   5801 
_SEQ_DT_HI                                EQU  00000000   3105*
_SEQ_DT_LO                                EQU  00000000   3104*
_SEQ_MAX_BYTE                             EQU  0000001C   3087*
_SEQ_OFFSET_ADR1                          EQU  00000000   3107*
_SEQ_OFFSET_ADR2                          EQU  000000C8   3108*
_SEQ_OFFSET_ADR3                          EQU  00000190   3109*
_SEQ_OFFSET_ADR4                          EQU  0000021C   3110*
_SEQ_OFFSET_ADR5                          EQU  000002F8   3111*
_SEQ_OFFSET_ADR6                          EQU  00000384   3112*
_SEQ_OFFSET_ADR7                          EQU  00000424   3113*
_SEQ_TMR_CARD_TOP                         EQU  00000424   3139*
_SEQ_TMR_DT                               EQU  00000000   3098*
_SFTSW_ERR_TM                             IMPT 00000000   4073 
_SH4_SQERRAM                              IMPT 00000000   4066 
_SICDAR                                   IMPT 00000000     65 
_SICTR                                    IMPT 00000000     66 
_SIFCTR                                   IMPT 00000000     67 
_SIFPR                                    IMPT 00000000     75 
_SIIER                                    IMPT 00000000     69 
_SIMDR                                    IMPT 00000000     61 
_SIRCR                                    IMPT 00000000     73 
_SIRDAR                                   IMPT 00000000     64 
_SIRDR                                    IMPT 00000000     71 
_SISCR                                    IMPT 00000000     62 
_SISTR                                    IMPT 00000000     68 
_SITCR                                    IMPT 00000000     72 
_SITDAR                                   IMPT 00000000     63 
_SITDR                                    IMPT 00000000     70 
_SITMR                                    IMPT 00000000     74 
_SMR0                                     IMPT 00000000    201 
_SQ000                                    EQU  00000000   3219*
_SQ001                                    EQU  00000002   3220*
_SQ002                                    EQU  00000004   3221*
_SQ003                                    EQU  00000006   3222*
_SQ004                                    EQU  00000008   3223*
_SQ005                                    EQU  0000000A   3224*
*** SuperH RISC engine ASSEMBLER V.7.01.02.000 ***    07/04/21 19:29:08                                                  PAGE    50

*** CROSS REFERENCE LIST

NAME                             SECTION  ATTR VALUE             SEQUENCE

_SQ006                                    EQU  0000000C   3225*
_SQ007                                    EQU  0000000E   3226*
_SQ008                                    EQU  00000010   3227*
_SQ009                                    EQU  00000012   3228*
_SQ010                                    EQU  00000014   3229*
_SQ011                                    EQU  00000016   3230*
_SQ012                                    EQU  00000018   3231*
_SQ013                                    EQU  0000001A   3232*
_SQ014                                    EQU  0000001C   3233*
_SQ015                                    EQU  0000001E   3234*
_SQ016                                    EQU  00000020   3235*
_SQ017                                    EQU  00000022   3236*
_SQ018                                    EQU  00000024   3237*
_SQ019                                    EQU  00000026   3238*
_SQ020                                    EQU  00000028   3239*
_SQ021                                    EQU  0000002A   3240*
_SQ022                                    EQU  0000002C   3241*
_SQ023                                    EQU  0000002E   3242*
_SQ024                                    EQU  00000030   3243*
_SQ025                                    EQU  00000032   3244*
_SQ026                                    EQU  00000034   3245*
_SQ027                                    EQU  00000036   3246*
_SQ028                                    EQU  00000038   3247*
_SQ029                                    EQU  0000003A   3248*
_SQ030                                    EQU  0000003C   3249*
_SQ031                                    EQU  0000003E   3250*
_SQ032                                    EQU  00000040   3251*
_SQ033                                    EQU  00000042   3252*
_SQ034                                    EQU  00000044   3253*
_SQ035                                    EQU  00000046   3254*
_SQ036                                    EQU  00000048   3255*
_SQ037                                    EQU  0000004A   3256*
_SQ038                                    EQU  0000004C   3257*
_SQ039                                    EQU  0000004E   3258*
_SQ040                                    EQU  00000050   3259*
_SQ041                                    EQU  00000052   3260*
_SQ042                                    EQU  00000054   3261*
_SQ043                                    EQU  00000056   3262*
_SQ044                                    EQU  00000058   3263*
_SQ045                                    EQU  0000005A   3264*
_SQ046                                    EQU  0000005C   3265*
_SQ047                                    EQU  0000005E   3266*
_SQ048                                    EQU  00000060   3267*
_SQ049                                    EQU  00000062   3268*
_SQ050                                    EQU  00000064   3269*
_SQ051                                    EQU  00000066   3270*
_SQ052                                    EQU  00000068   3271*
_SQ053                                    EQU  0000006A   3272*
_SQ054                                    EQU  0000006C   3273*
_SQ055                                    EQU  0000006E   3274*
_SQ056                                    EQU  00000070   3275*
_SQ057                                    EQU  00000072   3276*
_SQ058                                    EQU  00000074   3277*
_SQ059                                    EQU  00000076   3278*
*** SuperH RISC engine ASSEMBLER V.7.01.02.000 ***    07/04/21 19:29:08                                                  PAGE    51

*** CROSS REFERENCE LIST

NAME                             SECTION  ATTR VALUE             SEQUENCE

_SQ060                                    EQU  00000078   3279*
_SQ061                                    EQU  0000007A   3280*
_SQ062                                    EQU  0000007C   3281*
_SQ063                                    EQU  0000007E   3282*
_SQ064                                    EQU  00000080   3283*
_SQ065                                    EQU  00000082   3284*
_SQ066                                    EQU  00000084   3285*
_SQ067                                    EQU  00000086   3286*
_SQ068                                    EQU  00000088   3287*
_SQ069                                    EQU  0000008A   3288*
_SQ070                                    EQU  0000008C   3289*
_SQ071                                    EQU  0000008E   3290*
_SQ072                                    EQU  00000090   3291*
_SQ073                                    EQU  00000092   3292*
_SQ074                                    EQU  00000094   3293*
_SQ075                                    EQU  00000096   3294*
_SQ076                                    EQU  00000098   3295*
_SQ077                                    EQU  0000009A   3296*
_SQ078                                    EQU  0000009C   3297*
_SQ079                                    EQU  0000009E   3298*
_SQ080                                    EQU  000000A0   3299*
_SQ081                                    EQU  000000A2   3300*
_SQ082                                    EQU  000000A4   3301*
_SQ083                                    EQU  000000A6   3302*
_SQ084                                    EQU  000000A8   3303*
_SQ085                                    EQU  000000AA   3304*
_SQ086                                    EQU  000000AC   3305*
_SQ087                                    EQU  000000AE   3306*
_SQ088                                    EQU  000000B0   3307*
_SQ089                                    EQU  000000B2   3308*
_SQ090                                    EQU  000000B4   3309*
_SQ091                                    EQU  000000B6   3310*
_SQ092                                    EQU  000000B8   3311*
_SQ093                                    EQU  000000BA   3312*
_SQ094                                    EQU  000000BC   3313*
_SQ095                                    EQU  000000BE   3314*
_SQ096                                    EQU  000000C0   3315*
_SQ097                                    EQU  000000C2   3316*
_SQ098                                    EQU  000000C4   3317*
_SQ099                                    EQU  000000C6   3318*
_SQ100                                    EQU  000000C8   3320*
_SQ101                                    EQU  000000CA   3321*
_SQ102                                    EQU  000000CC   3322*
_SQ103                                    EQU  000000CE   3323*
_SQ104                                    EQU  000000D0   3324*
_SQ105                                    EQU  000000D2   3325*
_SQ106                                    EQU  000000D4   3326*
_SQ107                                    EQU  000000D6   3327*
_SQ108                                    EQU  000000D8   3328*
_SQ109                                    EQU  000000DA   3329*
_SQ110                                    EQU  000000DC   3330*
_SQ111                                    EQU  000000DE   3331*
_SQ112                                    EQU  000000E0   3332*
_SQ113                                    EQU  000000E2   3333*
*** SuperH RISC engine ASSEMBLER V.7.01.02.000 ***    07/04/21 19:29:08                                                  PAGE    52

*** CROSS REFERENCE LIST

NAME                             SECTION  ATTR VALUE             SEQUENCE

_SQ114                                    EQU  000000E4   3334*
_SQ115                                    EQU  000000E6   3335*
_SQ116                                    EQU  000000E8   3336*
_SQ117                                    EQU  000000EA   3337*
_SQ118                                    EQU  000000EC   3338*
_SQ119                                    EQU  000000EE   3339*
_SQ120                                    EQU  000000F0   3340*
_SQ121                                    EQU  000000F2   3341*
_SQ122                                    EQU  000000F4   3342*
_SQ123                                    EQU  000000F6   3343*
_SQ124                                    EQU  000000F8   3344*
_SQ125                                    EQU  000000FA   3345*
_SQ126                                    EQU  000000FC   3346*
_SQ127                                    EQU  000000FE   3347*
_SQ128                                    EQU  00000100   3348*
_SQ129                                    EQU  00000102   3349*
_SQ130                                    EQU  00000104   3350*
_SQ131                                    EQU  00000106   3351*
_SQ132                                    EQU  00000108   3352*
_SQ133                                    EQU  0000010A   3353*
_SQ134                                    EQU  0000010C   3354*
_SQ135                                    EQU  0000010E   3355*
_SQ136                                    EQU  00000110   3356*
_SQ137                                    EQU  00000112   3357*
_SQ138                                    EQU  00000114   3358*
_SQ139                                    EQU  00000116   3359*
_SQ140                                    EQU  00000118   3360*
_SQ141                                    EQU  0000011A   3361*
_SQ142                                    EQU  0000011C   3362*
_SQ143                                    EQU  0000011E   3363*
_SQ144                                    EQU  00000120   3364*
_SQ145                                    EQU  00000122   3365*
_SQ146                                    EQU  00000124   3366*
_SQ147                                    EQU  00000126   3367*
_SQ148                                    EQU  00000128   3368*
_SQ149                                    EQU  0000012A   3369*
_SQ150                                    EQU  0000012C   3370*
_SQ151                                    EQU  0000012E   3371*
_SQ152                                    EQU  00000130   3372*
_SQ153                                    EQU  00000132   3373*
_SQ154                                    EQU  00000134   3374*
_SQ155                                    EQU  00000136   3375*
_SQ156                                    EQU  00000138   3376*
_SQ157                                    EQU  0000013A   3377*
_SQ158                                    EQU  0000013C   3378*
_SQ159                                    EQU  0000013E   3379*
_SQ160                                    EQU  00000140   3380*
_SQ161                                    EQU  00000142   3381*
_SQ162                                    EQU  00000144   3382*
_SQ163                                    EQU  00000146   3383*
_SQ164                                    EQU  00000148   3384*
_SQ165                                    EQU  0000014A   3385*
_SQ166                                    EQU  0000014C   3386*
_SQ167                                    EQU  0000014E   3387*
*** SuperH RISC engine ASSEMBLER V.7.01.02.000 ***    07/04/21 19:29:08                                                  PAGE    53

*** CROSS REFERENCE LIST

NAME                             SECTION  ATTR VALUE             SEQUENCE

_SQ168                                    EQU  00000150   3388*
_SQ169                                    EQU  00000152   3389*
_SQ170                                    EQU  00000154   3390*
_SQ171                                    EQU  00000156   3391*
_SQ172                                    EQU  00000158   3392*
_SQ173                                    EQU  0000015A   3393*
_SQ174                                    EQU  0000015C   3394*
_SQ175                                    EQU  0000015E   3395*
_SQ176                                    EQU  00000160   3396*
_SQ177                                    EQU  00000162   3397*
_SQ178                                    EQU  00000164   3398*
_SQ179                                    EQU  00000166   3399*
_SQ180                                    EQU  00000168   3400*
_SQ181                                    EQU  0000016A   3401*
_SQ182                                    EQU  0000016C   3402*
_SQ183                                    EQU  0000016E   3403*
_SQ184                                    EQU  00000170   3404*
_SQ185                                    EQU  00000172   3405*
_SQ186                                    EQU  00000174   3406*
_SQ187                                    EQU  00000176   3407*
_SQ188                                    EQU  00000178   3408*
_SQ189                                    EQU  0000017A   3409*
_SQ190                                    EQU  0000017C   3410*
_SQ191                                    EQU  0000017E   3411*
_SQ192                                    EQU  00000180   3412*
_SQ193                                    EQU  00000182   3413*
_SQ194                                    EQU  00000184   3414*
_SQ195                                    EQU  00000186   3415*
_SQ196                                    EQU  00000188   3416*
_SQ197                                    EQU  0000018A   3417*
_SQ198                                    EQU  0000018C   3418*
_SQ199                                    EQU  0000018E   3419*
_SQ200                                    EQU  00000190   3421*
_SQ201                                    EQU  00000192   3422*
_SQ202                                    EQU  00000194   3423*
_SQ203                                    EQU  00000196   3424*
_SQ204                                    EQU  00000198   3425*
_SQ205                                    EQU  0000019A   3426*
_SQ206                                    EQU  0000019C   3427*
_SQ207                                    EQU  0000019E   3428*
_SQ208                                    EQU  000001A0   3429*
_SQ209                                    EQU  000001A2   3430*
_SQ210                                    EQU  000001A4   3431*
_SQ211                                    EQU  000001A6   3432*
_SQ212                                    EQU  000001A8   3433*
_SQ213                                    EQU  000001AA   3434*
_SQ214                                    EQU  000001AC   3435*
_SQ215                                    EQU  000001AE   3436*
_SQ216                                    EQU  000001B0   3437*
_SQ217                                    EQU  000001B2   3438*
_SQ218                                    EQU  000001B4   3439*
_SQ219                                    EQU  000001B6   3440*
_SQ220                                    EQU  000001B8   3441*
_SQ221                                    EQU  000001BA   3442*
*** SuperH RISC engine ASSEMBLER V.7.01.02.000 ***    07/04/21 19:29:08                                                  PAGE    54

*** CROSS REFERENCE LIST

NAME                             SECTION  ATTR VALUE             SEQUENCE

_SQ222                                    EQU  000001BC   3443*
_SQ223                                    EQU  000001BE   3444*
_SQ224                                    EQU  000001C0   3445*
_SQ225                                    EQU  000001C2   3446*
_SQ226                                    EQU  000001C4   3447*
_SQ227                                    EQU  000001C6   3448*
_SQ228                                    EQU  000001C8   3449*
_SQ229                                    EQU  000001CA   3450*
_SQ230                                    EQU  000001CC   3451*
_SQ231                                    EQU  000001CE   3452*
_SQ232                                    EQU  000001D0   3453*
_SQ233                                    EQU  000001D2   3454*
_SQ234                                    EQU  000001D4   3455*
_SQ235                                    EQU  000001D6   3456*
_SQ236                                    EQU  000001D8   3457*
_SQ237                                    EQU  000001DA   3458*
_SQ238                                    EQU  000001DC   3459*
_SQ239                                    EQU  000001DE   3460*
_SQ240                                    EQU  000001E0   3461*
_SQ241                                    EQU  000001E2   3462*
_SQ242                                    EQU  000001E4   3463*
_SQ243                                    EQU  000001E6   3464*
_SQ244                                    EQU  000001E8   3465*
_SQ245                                    EQU  000001EA   3466*
_SQ246                                    EQU  000001EC   3467*
_SQ247                                    EQU  000001EE   3468*
_SQ248                                    EQU  000001F0   3469*
_SQ249                                    EQU  000001F2   3470*
_SQ250                                    EQU  000001F4   3471*
_SQ251                                    EQU  000001F6   3472*
_SQ252                                    EQU  000001F8   3473*
_SQ253                                    EQU  000001FA   3474*
_SQ254                                    EQU  000001FC   3475*
_SQ255                                    EQU  000001FE   3476*
_SQ256                                    EQU  00000200   3477*
_SQ257                                    EQU  00000202   3478*
_SQ258                                    EQU  00000204   3479*
_SQ259                                    EQU  00000206   3480*
_SQ260                                    EQU  00000208   3481*
_SQ261                                    EQU  0000020A   3482*
_SQ262                                    EQU  0000020C   3483*
_SQ263                                    EQU  0000020E   3484*
_SQ264                                    EQU  00000210   3485*
_SQ265                                    EQU  00000212   3486*
_SQ266                                    EQU  00000214   3487*
_SQ267                                    EQU  00000216   3488*
_SQ268                                    EQU  00000218   3489*
_SQ269                                    EQU  0000021A   3490*
_SQ270                                    EQU  0000021C   3491*
_SQ271                                    EQU  0000021E   3492*
_SQ272                                    EQU  00000220   3493*
_SQ273                                    EQU  00000222   3494*
_SQ274                                    EQU  00000224   3495*
_SQ275                                    EQU  00000226   3496*
*** SuperH RISC engine ASSEMBLER V.7.01.02.000 ***    07/04/21 19:29:08                                                  PAGE    55

*** CROSS REFERENCE LIST

NAME                             SECTION  ATTR VALUE             SEQUENCE

_SQ276                                    EQU  00000228   3497*
_SQ277                                    EQU  0000022A   3498*
_SQ278                                    EQU  0000022C   3499*
_SQ279                                    EQU  0000022E   3500*
_SQ280                                    EQU  00000230   3501*
_SQ281                                    EQU  00000232   3502*
_SQ282                                    EQU  00000234   3503*
_SQ283                                    EQU  00000236   3504*
_SQ284                                    EQU  00000238   3505*
_SQ285                                    EQU  0000023A   3506*
_SQ286                                    EQU  0000023C   3507*
_SQ287                                    EQU  0000023E   3508*
_SQ288                                    EQU  00000240   3509*
_SQ289                                    EQU  00000242   3510*
_SQ290                                    EQU  00000244   3511*
_SQ291                                    EQU  00000246   3512*
_SQ292                                    EQU  00000248   3513*
_SQ293                                    EQU  0000024A   3514*
_SQ294                                    EQU  0000024C   3515*
_SQ295                                    EQU  0000024E   3516*
_SQ296                                    EQU  00000250   3517*
_SQ297                                    EQU  00000252   3518*
_SQ298                                    EQU  00000254   3519*
_SQ299                                    EQU  00000256   3520*
_SQ300                                    EQU  00000258   3522*
_SQ301                                    EQU  0000025A   3523*
_SQ302                                    EQU  0000025C   3524*
_SQ303                                    EQU  0000025E   3525*
_SQ304                                    EQU  00000260   3526*
_SQ305                                    EQU  00000262   3527*
_SQ306                                    EQU  00000264   3528*
_SQ307                                    EQU  00000266   3529*
_SQ308                                    EQU  00000268   3530*
_SQ309                                    EQU  0000026A   3531*
_SQ310                                    EQU  0000026C   3532*
_SQ311                                    EQU  0000026E   3533*
_SQ312                                    EQU  00000270   3534*
_SQ313                                    EQU  00000272   3535*
_SQ314                                    EQU  00000274   3536*
_SQ315                                    EQU  00000276   3537*
_SQ316                                    EQU  00000278   3538*
_SQ317                                    EQU  0000027A   3539*
_SQ318                                    EQU  0000027C   3540*
_SQ319                                    EQU  0000027E   3541*
_SQ320                                    EQU  00000280   3542*
_SQ321                                    EQU  00000282   3543*
_SQ322                                    EQU  00000284   3544*
_SQ323                                    EQU  00000286   3545*
_SQ324                                    EQU  00000288   3546*
_SQ325                                    EQU  0000028A   3547*
_SQ326                                    EQU  0000028C   3548*
_SQ327                                    EQU  0000028E   3549*
_SQ328                                    EQU  00000290   3550*
_SQ329                                    EQU  00000292   3551*
*** SuperH RISC engine ASSEMBLER V.7.01.02.000 ***    07/04/21 19:29:08                                                  PAGE    56

*** CROSS REFERENCE LIST

NAME                             SECTION  ATTR VALUE             SEQUENCE

_SQ330                                    EQU  00000294   3552*
_SQ331                                    EQU  00000296   3553*
_SQ332                                    EQU  00000298   3554*
_SQ333                                    EQU  0000029A   3555*
_SQ334                                    EQU  0000029C   3556*
_SQ335                                    EQU  0000029E   3557*
_SQ336                                    EQU  000002A0   3558*
_SQ337                                    EQU  000002A2   3559*
_SQ338                                    EQU  000002A4   3560*
_SQ339                                    EQU  000002A6   3561*
_SQ340                                    EQU  000002A8   3562*
_SQ341                                    EQU  000002AA   3563*
_SQ342                                    EQU  000002AC   3564*
_SQ343                                    EQU  000002AE   3565*
_SQ344                                    EQU  000002B0   3566*
_SQ345                                    EQU  000002B2   3567*
_SQ346                                    EQU  000002B4   3568*
_SQ347                                    EQU  000002B6   3569*
_SQ348                                    EQU  000002B8   3570*
_SQ349                                    EQU  000002BA   3571*
_SQ350                                    EQU  000002BC   3572*
_SQ351                                    EQU  000002BE   3573*
_SQ352                                    EQU  000002C0   3574*
_SQ353                                    EQU  000002C2   3575*
_SQ354                                    EQU  000002C4   3576*
_SQ355                                    EQU  000002C6   3577*
_SQ356                                    EQU  000002C8   3578*
_SQ357                                    EQU  000002CA   3579*
_SQ358                                    EQU  000002CC   3580*
_SQ359                                    EQU  000002CE   3581*
_SQ360                                    EQU  000002D0   3582*
_SQ361                                    EQU  000002D2   3583*
_SQ362                                    EQU  000002D4   3584*
_SQ363                                    EQU  000002D6   3585*
_SQ364                                    EQU  000002D8   3586*
_SQ365                                    EQU  000002DA   3587*
_SQ366                                    EQU  000002DC   3588*
_SQ367                                    EQU  000002DE   3589*
_SQ368                                    EQU  000002E0   3590*
_SQ369                                    EQU  000002E2   3591*
_SQ370                                    EQU  000002E4   3592*
_SQ371                                    EQU  000002E6   3593*
_SQ372                                    EQU  000002E8   3594*
_SQ373                                    EQU  000002EA   3595*
_SQ374                                    EQU  000002EC   3596*
_SQ375                                    EQU  000002EE   3597*
_SQ376                                    EQU  000002F0   3598*
_SQ377                                    EQU  000002F2   3599*
_SQ378                                    EQU  000002F4   3600*
_SQ379                                    EQU  000002F6   3601*
_SQ380                                    EQU  000002F8   3602*
_SQ381                                    EQU  000002FA   3603*
_SQ382                                    EQU  000002FC   3604*
_SQ383                                    EQU  000002FE   3605*
*** SuperH RISC engine ASSEMBLER V.7.01.02.000 ***    07/04/21 19:29:08                                                  PAGE    57

*** CROSS REFERENCE LIST

NAME                             SECTION  ATTR VALUE             SEQUENCE

_SQ384                                    EQU  00000300   3606*
_SQ385                                    EQU  00000302   3607*
_SQ386                                    EQU  00000304   3608*
_SQ387                                    EQU  00000306   3609*
_SQ388                                    EQU  00000308   3610*
_SQ389                                    EQU  0000030A   3611*
_SQ390                                    EQU  0000030C   3612*
_SQ391                                    EQU  0000030E   3613*
_SQ392                                    EQU  00000310   3614*
_SQ393                                    EQU  00000312   3615*
_SQ394                                    EQU  00000314   3616*
_SQ395                                    EQU  00000316   3617*
_SQ396                                    EQU  00000318   3618*
_SQ397                                    EQU  0000031A   3619*
_SQ398                                    EQU  0000031C   3620*
_SQ399                                    EQU  0000031E   3621*
_SQ400                                    EQU  00000320   3623*
_SQ401                                    EQU  00000322   3624*
_SQ402                                    EQU  00000324   3625*
_SQ403                                    EQU  00000326   3626*
_SQ404                                    EQU  00000328   3627*
_SQ405                                    EQU  0000032A   3628*
_SQ406                                    EQU  0000032C   3629*
_SQ407                                    EQU  0000032E   3630*
_SQ408                                    EQU  00000330   3631*
_SQ409                                    EQU  00000332   3632*
_SQ410                                    EQU  00000334   3633*
_SQ411                                    EQU  00000336   3634*
_SQ412                                    EQU  00000338   3635*
_SQ413                                    EQU  0000033A   3636*
_SQ414                                    EQU  0000033C   3637*
_SQ415                                    EQU  0000033E   3638*
_SQ416                                    EQU  00000340   3639*
_SQ417                                    EQU  00000342   3640*
_SQ418                                    EQU  00000344   3641*
_SQ419                                    EQU  00000346   3642*
_SQ420                                    EQU  00000348   3643*
_SQ421                                    EQU  0000034A   3644*
_SQ422                                    EQU  0000034C   3645*
_SQ423                                    EQU  0000034E   3646*
_SQ424                                    EQU  00000350   3647*
_SQ425                                    EQU  00000352   3648*
_SQ426                                    EQU  00000354   3649*
_SQ427                                    EQU  00000356   3650*
_SQ428                                    EQU  00000358   3651*
_SQ429                                    EQU  0000035A   3652*
_SQ430                                    EQU  0000035C   3653*
_SQ431                                    EQU  0000035E   3654*
_SQ432                                    EQU  00000360   3655*
_SQ433                                    EQU  00000362   3656*
_SQ434                                    EQU  00000364   3657*
_SQ435                                    EQU  00000366   3658*
_SQ436                                    EQU  00000368   3659*
_SQ437                                    EQU  0000036A   3660*
*** SuperH RISC engine ASSEMBLER V.7.01.02.000 ***    07/04/21 19:29:08                                                  PAGE    58

*** CROSS REFERENCE LIST

NAME                             SECTION  ATTR VALUE             SEQUENCE

_SQ438                                    EQU  0000036C   3661*
_SQ439                                    EQU  0000036E   3662*
_SQ440                                    EQU  00000370   3663*
_SQ441                                    EQU  00000372   3664*
_SQ442                                    EQU  00000374   3665*
_SQ443                                    EQU  00000376   3666*
_SQ444                                    EQU  00000378   3667*
_SQ445                                    EQU  0000037A   3668*
_SQ446                                    EQU  0000037C   3669*
_SQ447                                    EQU  0000037E   3670*
_SQ448                                    EQU  00000380   3671*
_SQ449                                    EQU  00000382   3672*
_SQ450                                    EQU  00000384   3673*
_SQ451                                    EQU  00000386   3674*
_SQ452                                    EQU  00000388   3675*
_SQ453                                    EQU  0000038A   3676*
_SQ454                                    EQU  0000038C   3677*
_SQ455                                    EQU  0000038E   3678*
_SQ456                                    EQU  00000390   3679*
_SQ457                                    EQU  00000392   3680*
_SQ458                                    EQU  00000394   3681*
_SQ459                                    EQU  00000396   3682*
_SQ460                                    EQU  00000398   3683*
_SQ461                                    EQU  0000039A   3684*
_SQ462                                    EQU  0000039C   3685*
_SQ463                                    EQU  0000039E   3686*
_SQ464                                    EQU  000003A0   3687*
_SQ465                                    EQU  000003A2   3688*
_SQ466                                    EQU  000003A4   3689*
_SQ467                                    EQU  000003A6   3690*
_SQ468                                    EQU  000003A8   3691*
_SQ469                                    EQU  000003AA   3692*
_SQ470                                    EQU  000003AC   3693*
_SQ471                                    EQU  000003AE   3694*
_SQ472                                    EQU  000003B0   3695*
_SQ473                                    EQU  000003B2   3696*
_SQ474                                    EQU  000003B4   3697*
_SQ475                                    EQU  000003B6   3698*
_SQ476                                    EQU  000003B8   3699*
_SQ477                                    EQU  000003BA   3700*
_SQ478                                    EQU  000003BC   3701*
_SQ479                                    EQU  000003BE   3702*
_SQ480                                    EQU  000003C0   3703*
_SQ481                                    EQU  000003C2   3704*
_SQ482                                    EQU  000003C4   3705*
_SQ483                                    EQU  000003C6   3706*
_SQ484                                    EQU  000003C8   3707*
_SQ485                                    EQU  000003CA   3708*
_SQ486                                    EQU  000003CC   3709*
_SQ487                                    EQU  000003CE   3710*
_SQ488                                    EQU  000003D0   3711*
_SQ489                                    EQU  000003D2   3712*
_SQ490                                    EQU  000003D4   3713*
_SQ491                                    EQU  000003D6   3714*
*** SuperH RISC engine ASSEMBLER V.7.01.02.000 ***    07/04/21 19:29:08                                                  PAGE    59

*** CROSS REFERENCE LIST

NAME                             SECTION  ATTR VALUE             SEQUENCE

_SQ492                                    EQU  000003D8   3715*
_SQ493                                    EQU  000003DA   3716*
_SQ494                                    EQU  000003DC   3717*
_SQ495                                    EQU  000003DE   3718*
_SQ496                                    EQU  000003E0   3719*
_SQ497                                    EQU  000003E2   3720*
_SQ498                                    EQU  000003E4   3721*
_SQ499                                    EQU  000003E6   3722*
_SQ500                                    EQU  000003E8   3724*
_SQ501                                    EQU  000003EA   3725*
_SQ502                                    EQU  000003EC   3726*
_SQ503                                    EQU  000003EE   3727*
_SQ504                                    EQU  000003F0   3728*
_SQ505                                    EQU  000003F2   3729*
_SQ506                                    EQU  000003F4   3730*
_SQ507                                    EQU  000003F6   3731*
_SQ508                                    EQU  000003F8   3732*
_SQ509                                    EQU  000003FA   3733*
_SQ510                                    EQU  000003FC   3734*
_SQ511                                    EQU  000003FE   3735*
_SQ512                                    EQU  00000400   3736*
_SQ513                                    EQU  00000402   3737*
_SQ514                                    EQU  00000404   3738*
_SQ515                                    EQU  00000406   3739*
_SQ516                                    EQU  00000408   3740*
_SQ517                                    EQU  0000040A   3741*
_SQ518                                    EQU  0000040C   3742*
_SQ519                                    EQU  0000040E   3743*
_SQ520                                    EQU  00000410   3744*
_SQ521                                    EQU  00000412   3745*
_SQ522                                    EQU  00000414   3746*
_SQ523                                    EQU  00000416   3747*
_SQ524                                    EQU  00000418   3748*
_SQ525                                    EQU  0000041A   3749*
_SQ526                                    EQU  0000041C   3750*
_SQ527                                    EQU  0000041E   3751*
_SQ528                                    EQU  00000420   3752*
_SQ529                                    EQU  00000422   3753*
_SQ530                                    EQU  00000424   3754*
_SQ531                                    EQU  00000426   3755*
_SQ532                                    EQU  00000428   3756*
_SQ533                                    EQU  0000042A   3757*
_SQ534                                    EQU  0000042C   3758*
_SQ535                                    EQU  0000042E   3759*
_SQ536                                    EQU  00000430   3760*
_SQ537                                    EQU  00000432   3761*
_SQ538                                    EQU  00000434   3762*
_SQ539                                    EQU  00000436   3763*
_SQ540                                    EQU  00000438   3764*
_SQ541                                    EQU  0000043A   3765*
_SQ542                                    EQU  0000043C   3766*
_SQ543                                    EQU  0000043E   3767*
_SQ544                                    EQU  00000440   3768*
_SQ545                                    EQU  00000442   3769*
*** SuperH RISC engine ASSEMBLER V.7.01.02.000 ***    07/04/21 19:29:08                                                  PAGE    60

*** CROSS REFERENCE LIST

NAME                             SECTION  ATTR VALUE             SEQUENCE

_SQ546                                    EQU  00000444   3770*
_SQ547                                    EQU  00000446   3771*
_SQ548                                    EQU  00000448   3772*
_SQ549                                    EQU  0000044A   3773*
_SQ550                                    EQU  0000044C   3774*
_SQ551                                    EQU  0000044E   3775*
_SQ552                                    EQU  00000450   3776*
_SQ553                                    EQU  00000452   3777*
_SQ554                                    EQU  00000454   3778*
_SQ555                                    EQU  00000456   3779*
_SQ556                                    EQU  00000458   3780*
_SQ557                                    EQU  0000045A   3781*
_SQ558                                    EQU  0000045C   3782*
_SQ559                                    EQU  0000045E   3783*
_SQ560                                    EQU  00000460   3784*
_SQ561                                    EQU  00000462   3785*
_SQ562                                    EQU  00000464   3786*
_SQ563                                    EQU  00000466   3787*
_SQ564                                    EQU  00000468   3788*
_SQ565                                    EQU  0000046A   3789*
_SQ566                                    EQU  0000046C   3790*
_SQ567                                    EQU  0000046E   3791*
_SQ568                                    EQU  00000470   3792*
_SQ569                                    EQU  00000472   3793*
_SQ570                                    EQU  00000474   3794*
_SQ571                                    EQU  00000476   3795*
_SQ572                                    EQU  00000478   3796*
_SQ573                                    EQU  0000047A   3797*
_SQ574                                    EQU  0000047C   3798*
_SQ575                                    EQU  0000047E   3799*
_SQ576                                    EQU  00000480   3800*
_SQ577                                    EQU  00000482   3801*
_SQ578                                    EQU  00000484   3802*
_SQ579                                    EQU  00000486   3803*
_SQ580                                    EQU  00000488   3804*
_SQ581                                    EQU  0000048A   3805*
_SQ582                                    EQU  0000048C   3806*
_SQ583                                    EQU  0000048E   3807*
_SQ584                                    EQU  00000490   3808*
_SQ585                                    EQU  00000492   3809*
_SQ586                                    EQU  00000494   3810*
_SQ587                                    EQU  00000496   3811*
_SQ588                                    EQU  00000498   3812*
_SQ589                                    EQU  0000049A   3813*
_SQ590                                    EQU  0000049C   3814*
_SQ591                                    EQU  0000049E   3815*
_SQ592                                    EQU  000004A0   3816*
_SQ593                                    EQU  000004A2   3817*
_SQ594                                    EQU  000004A4   3818*
_SQ595                                    EQU  000004A6   3819*
_SQ596                                    EQU  000004A8   3820*
_SQ597                                    EQU  000004AA   3821*
_SQ598                                    EQU  000004AC   3822*
_SQ599                                    EQU  000004AE   3823*
*** SuperH RISC engine ASSEMBLER V.7.01.02.000 ***    07/04/21 19:29:08                                                  PAGE    61

*** CROSS REFERENCE LIST

NAME                             SECTION  ATTR VALUE             SEQUENCE

_SQ600                                    EQU  000004B0   3825*
_SQ601                                    EQU  000004B2   3826*
_SQ602                                    EQU  000004B4   3827*
_SQ603                                    EQU  000004B6   3828*
_SQ604                                    EQU  000004B8   3829*
_SQ605                                    EQU  000004BA   3830*
_SQ606                                    EQU  000004BC   3831*
_SQ607                                    EQU  000004BE   3832*
_SQ608                                    EQU  000004C0   3833*
_SQ609                                    EQU  000004C2   3834*
_SQ610                                    EQU  000004C4   3835*
_SQ611                                    EQU  000004C6   3836*
_SQ612                                    EQU  000004C8   3837*
_SQ613                                    EQU  000004CA   3838*
_SQ614                                    EQU  000004CC   3839*
_SQ615                                    EQU  000004CE   3840*
_SQ616                                    EQU  000004D0   3841*
_SQ617                                    EQU  000004D2   3842*
_SQ618                                    EQU  000004D4   3843*
_SQ619                                    EQU  000004D6   3844*
_SQ620                                    EQU  000004D8   3845*
_SQ621                                    EQU  000004DA   3846*
_SQ622                                    EQU  000004DC   3847*
_SQ623                                    EQU  000004DE   3848*
_SQ624                                    EQU  000004E0   3849*
_SQ625                                    EQU  000004E2   3850*
_SQ626                                    EQU  000004E4   3851*
_SQ627                                    EQU  000004E6   3852*
_SQ628                                    EQU  000004E8   3853*
_SQ629                                    EQU  000004EA   3854*
_SQ630                                    EQU  000004EC   3855*
_SQ631                                    EQU  000004EE   3856*
_SQ632                                    EQU  000004F0   3857*
_SQ633                                    EQU  000004F2   3858*
_SQ634                                    EQU  000004F4   3859*
_SQ635                                    EQU  000004F6   3860*
_SQ636                                    EQU  000004F8   3861*
_SQ637                                    EQU  000004FA   3862*
_SQ638                                    EQU  000004FC   3863*
_SQ639                                    EQU  000004FE   3864*
_SQ640                                    EQU  00000500   3865*
_SQ641                                    EQU  00000502   3866*
_SQ642                                    EQU  00000504   3867*
_SQ643                                    EQU  00000506   3868*
_SQ644                                    EQU  00000508   3869*
_SQ645                                    EQU  0000050A   3870*
_SQ646                                    EQU  0000050C   3871*
_SQ647                                    EQU  0000050E   3872*
_SQ648                                    EQU  00000510   3873*
_SQ649                                    EQU  00000512   3874*
_SQ650                                    EQU  00000514   3875*
_SQ651                                    EQU  00000516   3876*
_SQ652                                    EQU  00000518   3877*
_SQ653                                    EQU  0000051A   3878*
*** SuperH RISC engine ASSEMBLER V.7.01.02.000 ***    07/04/21 19:29:08                                                  PAGE    62

*** CROSS REFERENCE LIST

NAME                             SECTION  ATTR VALUE             SEQUENCE

_SQ654                                    EQU  0000051C   3879*
_SQ655                                    EQU  0000051E   3880*
_SQ656                                    EQU  00000520   3881*
_SQ657                                    EQU  00000522   3882*
_SQ658                                    EQU  00000524   3883*
_SQ659                                    EQU  00000526   3884*
_SQ660                                    EQU  00000528   3885*
_SQ661                                    EQU  0000052A   3886*
_SQ662                                    EQU  0000052C   3887*
_SQ663                                    EQU  0000052E   3888*
_SQ664                                    EQU  00000530   3889*
_SQ665                                    EQU  00000532   3890*
_SQ666                                    EQU  00000534   3891*
_SQ667                                    EQU  00000536   3892*
_SQ668                                    EQU  00000538   3893*
_SQ669                                    EQU  0000053A   3894*
_SQ670                                    EQU  0000053C   3895*
_SQ671                                    EQU  0000053E   3896*
_SQ672                                    EQU  00000540   3897*
_SQ673                                    EQU  00000542   3898*
_SQ674                                    EQU  00000544   3899*
_SQ675                                    EQU  00000546   3900*
_SQ676                                    EQU  00000548   3901*
_SQ677                                    EQU  0000054A   3902*
_SQ678                                    EQU  0000054C   3903*
_SQ679                                    EQU  0000054E   3904*
_SQ680                                    EQU  00000550   3905*
_SQ681                                    EQU  00000552   3906*
_SQ682                                    EQU  00000554   3907*
_SQ683                                    EQU  00000556   3908*
_SQ684                                    EQU  00000558   3909*
_SQ685                                    EQU  0000055A   3910*
_SQ686                                    EQU  0000055C   3911*
_SQ687                                    EQU  0000055E   3912*
_SQ688                                    EQU  00000560   3913*
_SQ689                                    EQU  00000562   3914*
_SQ690                                    EQU  00000564   3915*
_SQ691                                    EQU  00000566   3916*
_SQ692                                    EQU  00000568   3917*
_SQ693                                    EQU  0000056A   3918*
_SQ694                                    EQU  0000056C   3919*
_SQ695                                    EQU  0000056E   3920*
_SQ696                                    EQU  00000570   3921*
_SQ697                                    EQU  00000572   3922*
_SQ698                                    EQU  00000574   3923*
_SQ699                                    EQU  00000576   3924*
_SQCB200                                  EQU  00000000   3146*
_SQCB201                                  EQU  00000002   3147*
_SQCB202                                  EQU  00000004   3148*
_SQCB203                                  EQU  00000006   3149*
_SQCB204                                  EQU  00000008   3150*
_SQCB205                                  EQU  0000000A   3151*
_SQCB206                                  EQU  0000000C   3152*
_SQCB207                                  EQU  0000000E   3153*
*** SuperH RISC engine ASSEMBLER V.7.01.02.000 ***    07/04/21 19:29:08                                                  PAGE    63

*** CROSS REFERENCE LIST

NAME                             SECTION  ATTR VALUE             SEQUENCE

_SQCB208                                  EQU  00000010   3154*
_SQCB209                                  EQU  00000012   3155*
_SQCB210                                  EQU  00000014   3156*
_SQCB211                                  EQU  00000016   3157*
_SQCB212                                  EQU  00000018   3158*
_SQCB213                                  EQU  0000001A   3159*
_SQCB214                                  EQU  0000001C   3160*
_SQCB215                                  EQU  0000001E   3161*
_SQCB216                                  EQU  00000020   3162*
_SQCB217                                  EQU  00000022   3163*
_SQCB218                                  EQU  00000024   3164*
_SQCB219                                  EQU  00000026   3165*
_SQCB220                                  EQU  00000028   3166*
_SQCB221                                  EQU  0000002A   3167*
_SQCB222                                  EQU  0000002C   3168*
_SQCB223                                  EQU  0000002E   3169*
_SQCB224                                  EQU  00000030   3170*
_SQCB225                                  EQU  00000032   3171*
_SQCB226                                  EQU  00000034   3172*
_SQCB227                                  EQU  00000036   3173*
_SQCB228                                  EQU  00000038   3174*
_SQCB229                                  EQU  0000003A   3175*
_SQCB230                                  EQU  0000003C   3176*
_SQCB231                                  EQU  0000003E   3177*
_SQCB232                                  EQU  00000040   3178*
_SQCB233                                  EQU  00000042   3179*
_SQCB234                                  EQU  00000044   3180*
_SQCB235                                  EQU  00000046   3181*
_SQCB236                                  EQU  00000048   3182*
_SQCB237                                  EQU  0000004A   3183*
_SQCB238                                  EQU  0000004C   3184*
_SQCB239                                  EQU  0000004E   3185*
_SQCB240                                  EQU  00000050   3186*
_SQCB241                                  EQU  00000052   3187* 5918 
_SQCB242                                  EQU  00000054   3188*
_SQCB243                                  EQU  00000056   3189*
_SQCB244                                  EQU  00000058   3190*
_SQCB245                                  EQU  0000005A   3191*
_SQCB246                                  EQU  0000005C   3192*
_SQCB247                                  EQU  0000005E   3193*
_SQCB248                                  EQU  00000060   3194*
_SQCB249                                  EQU  00000062   3195*
_SQCB250                                  EQU  00000064   3196*
_SQCB251                                  EQU  00000066   3197*
_SQCB252                                  EQU  00000068   3198*
_SQCB253                                  EQU  0000006A   3199*
_SQCB254                                  EQU  0000006C   3200*
_SQCB255                                  EQU  0000006E   3201*
_SQCB256                                  EQU  00000070   3202*
_SQCB257                                  EQU  00000072   3203*
_SQCB258                                  EQU  00000074   3204*
_SQCB259                                  EQU  00000076   3205*
_SQCB260                                  EQU  00000078   3206*
_SQCB261                                  EQU  0000007A   3207*
*** SuperH RISC engine ASSEMBLER V.7.01.02.000 ***    07/04/21 19:29:08                                                  PAGE    64

*** CROSS REFERENCE LIST

NAME                             SECTION  ATTR VALUE             SEQUENCE

_SQCB262                                  EQU  0000007C   3208*
_SQCB263                                  EQU  0000007E   3209*
_SQCB264                                  EQU  00000080   3210*
_SQCB265                                  EQU  00000082   3211*
_SQCB266                                  EQU  00000084   3212*
_SQCB267                                  EQU  00000086   3213*
_SQCB268                                  EQU  00000088   3214* 5901 
_SQCB269                                  EQU  0000008A   3215*
_SQ_CBWK_TOP                              IMPT 00000000   4239  5901  5918 
_SQ_CB_DAT1                               EQU  00000046   3142*
_SQ_ERR_END                               EQU  0000FF00   3091*
_SQ_NML_COD                               EQU  00000000   3089*
_SQ_NML_END                               EQU  00000055   3090*
_SRAM_SIZE                                EQU  001FFFFF   2978* 4432  4524  4624  4716  4813  4965 
_SRAM_TOP                                 EQU  AC000000   2977* 4431  4523  4623  4715  4812  4964 
_SRSTR                                    IMPT 00000000    136 
_SSR0                                     IMPT 00000000    205 
_STACK_CHK_FLG                            IMPT 00000000   3981 
_START_ACK_COD                            EQU  00004321    480*
_START_REQ_COD                            EQU  00009876    479*
_STBCR                                    IMPT 00000000    248 
_STBCR2                                   IMPT 00000000    251 
_STBCR3                                   IMPT 00000000    135 
_STW_CMD                                  EQU  00000024   3126*
_SUB_CMD                                  EQU  00000048   3135*
_TCNT0                                    IMPT 00000000    210 
_TCNT1                                    IMPT 00000000    213 
_TCNT2                                    IMPT 00000000    216 
_TCOR0                                    IMPT 00000000    209 
_TCOR1                                    IMPT 00000000    212 
_TCOR2                                    IMPT 00000000    215 
_TCR0                                     IMPT 00000000    211 
_TCR1                                     IMPT 00000000    214 
_TCR2                                     IMPT 00000000    217 
_TDFP                                     IMPT 00000000    124 
_TDR0                                     IMPT 00000000    204 
_TEA                                      IMPT 00000000    274 
_TIM100US                                 EQU  000007D0   2968*
_TIM1MS                                   EQU  000009C4   2969*
_TINT3_10MS_CNT                           IMPT 00000000   4177 
_TMR_CMD                                  EQU  00000010   3121*
_TRA                                      IMPT 00000000    264 
_TSTR                                     IMPT 00000000    208 
_TTB                                      IMPT 00000000    273 
_USBDASTS                                 IMPT 00000000    148 
_USBDMA                                   IMPT 00000000    157 
_USBEPDR0I                                IMPT 00000000    142 
_USBEPDR0O                                IMPT 00000000    143 
_USBEPDR0S                                IMPT 00000000    147 
_USBEPDR1                                 IMPT 00000000    154 
_USBEPDR2                                 IMPT 00000000    149 
_USBEPDR3                                 IMPT 00000000    158 
_USBEPSTL                                 IMPT 00000000    151 
_USBEPSZ0O                                IMPT 00000000    146 
*** SuperH RISC engine ASSEMBLER V.7.01.02.000 ***    07/04/21 19:29:08                                                  PAGE    65

*** CROSS REFERENCE LIST

NAME                             SECTION  ATTR VALUE             SEQUENCE

_USBEPSZ1                                 IMPT 00000000    155 
_USBFCLR                                  IMPT 00000000    145 
_USBHBCED                                 IMPT 00000000    170 
_USBHBHED                                 IMPT 00000000    169 
_USBHC                                    IMPT 00000000    160 
_USBHCCED                                 IMPT 00000000    168 
_USBHCHED                                 IMPT 00000000    167 
_USBHCS                                   IMPT 00000000    161 
_USBHDHED                                 IMPT 00000000    171 
_USBHFI                                   IMPT 00000000    172 
_USBHFN                                   IMPT 00000000    174 
_USBHFR                                   IMPT 00000000    173 
_USBHHCCA                                 IMPT 00000000    165 
_USBHID                                   IMPT 00000000    164 
_USBHIE                                   IMPT 00000000    163 
_USBHIS                                   IMPT 00000000    162 
_USBHLST                                  IMPT 00000000    176 
_USBHPCED                                 IMPT 00000000    166 
_USBHPS                                   IMPT 00000000    175 
_USBHR                                    IMPT 00000000    159 
_USBHRDA                                  IMPT 00000000    177 
_USBHRDB                                  IMPT 00000000    178 
_USBHRPS1                                 IMPT 00000000    180 
_USBHRPS2                                 IMPT 00000000    181 
_USBHRS                                   IMPT 00000000    179 
_USBIER0                                  IMPT 00000000    152 
_USBIER1                                  IMPT 00000000    153 
_USBIFR0                                  IMPT 00000000    140 
_USBIFR1                                  IMPT 00000000    141 
_USBISR0                                  IMPT 00000000    150 
_USBISR1                                  IMPT 00000000    156 
_USBTFG                                   IMPT 00000000    144 
_VLVER11_ERR_TM                           IMPT 00000000   4077 
_VLVER12_ERR_TM                           IMPT 00000000   4078 
_VLVER21_ERR_TM                           IMPT 00000000   4079 
_VLVER22_ERR_TM                           IMPT 00000000   4080 
_VLVER31_ERR_TM                           IMPT 00000000   4081 
_VLVER32_ERR_TM                           IMPT 00000000   4082 
_VPC_LOOP                        Phwsetup      00000542   5583* 5665 
_VPC_LOOP_END                    Phwsetup      000005B2   5585  5668*
_VUPCHECK_EQU                             EQU  11AB3739    365*
_WCR1                                     IMPT 00000000    239 
_WCR2                                     IMPT 00000000    240 
_WDT_Rifresh                     P        EXPT 00000000   5983  5984*
_WK_RCV_SCFDR2                            IMPT 00000000   4183 
_WK_RCV_SCFSR2                            IMPT 00000000   4182 
_WK_RCV_SCLSR2                            IMPT 00000000   4181 
_WORK_MEM_CHK                    Phwsetup EXPT 00000000   4420  4421*
_WORK_MEM_CHK2                   Phwsetup EXPT 0000028C   4952  4957*
_WPAR1_BTNER_TM                           IMPT 00000000   4089 
_WPAR1_CMPER2_TM                          IMPT 00000000   4098 
_WPAR1_FSFTTRER_TM                        IMPT 00000000   4099 
_WPAR1_MODSER_TM1                         IMPT 00000000   4090 
_WPAR1_MODSER_TM2                         IMPT 00000000   4091 
*** SuperH RISC engine ASSEMBLER V.7.01.02.000 ***    07/04/21 19:29:08                                                  PAGE    66

*** CROSS REFERENCE LIST

NAME                             SECTION  ATTR VALUE             SEQUENCE

_WPAR1_RSFTTRER_TM                        IMPT 00000000   4100 
_WPAR1_SFTSWER_TM                         IMPT 00000000   4088 
_WPAR1_VLVER11_TM1                        IMPT 00000000   4092 
_WPAR1_VLVER12_TM1                        IMPT 00000000   4093 
_WPAR1_VLVER21_TM1                        IMPT 00000000   4094 
_WPAR1_VLVER22_TM1                        IMPT 00000000   4095 
_WPAR1_VLVER31_TM1                        IMPT 00000000   4096 
_WPAR1_VLVER32_TM1                        IMPT 00000000   4097 
_WSC_CMD                                  EQU  00000018   3123*
_WSR_CMD                                  EQU  0000001C   3124*
_WTCNT                                    IMPT 00000000    249 
_WTCSR                                    IMPT 00000000    250 
_XORW_CMD                                 EQU  00000040   3133*
__INTHandler_BGN                          IMPT 00000000   5683  5692 
__INTHdlrRAM_BGN                          IMPT 00000000   5684  5694 
__INTHnadler_END                          IMPT 00000000   5685  5696 
__PvupsciRAM_BGN                          IMPT 00000000   5561  5576 
__PvupsciROM_BGN                          IMPT 00000000   5560  5574 
__PvupsciROM_END                          IMPT 00000000   5562  5578 
_aLCD_BUFF                                IMPT 00000000   3979 
_aLCD_MOZI_SUU                            IMPT 00000000   3978 
_aLCD_NO                                  IMPT 00000000   3976 
_aLCD_WR_ADR                              IMPT 00000000   3977 
_cpuab_hs_out0                            IMPT 00000000   3934 
_dio_top1                                 IMPT 00000000   4933  5047  5342  5540  5952  6348  6421  6448  6470  6512 
_dio_top2                                 IMPT 00000000   4475  4488  4570  4583  4667  4680  4762  4775  4855  4868  4997  5123 
                                                          5136  5232  5245  5430  5443  5623  5636  5741  5754  5846  5859  6090 
                                                          6103  6349 
_dpramB_top                               IMPT 00000000   5375  5387 
_dpram_top                                IMPT 00000000   5182  5189 
_hmi2_test_type                           IMPT 00000000   3961 
_hmi2_test_wk1                            IMPT 00000000   3959 
_hmi2_test_wk2                            IMPT 00000000   3960 
_kan_bank_dat                             IMPT 00000000   3958 
_kata_adr_ld                              IMPT 00000000   3970 
_kata_adr_sv                              IMPT 00000000   3969 
_kata_no_ld                               IMPT 00000000   3968 
_kata_no_sv                               IMPT 00000000   3967 
_rcv2_data_INcnt                          IMPT 00000000   4039 
_rcv2_data_buf                            IMPT 00000000   4041 
_rcv2_data_cnt                            IMPT 00000000   4040 
_rcv2_err_FRPRErrCnt                      IMPT 00000000   4033 
_rcv2_err_OverRunCnt                      IMPT 00000000   4032 
_rcv2_err_data_flg1                       IMPT 00000000   4027 
_rcv2_err_data_sts1                       IMPT 00000000   4031 
_rcv2_err_elseErrCnt                      IMPT 00000000   4034 
_rcv2_err_hard_INTflg1                    IMPT 00000000   4024 
_rcv2_err_hard_INTflg2                    IMPT 00000000   4025 
_rcv2_err_hard_INTflg3                    IMPT 00000000   4026 
_rcv2_err_hard_sts1                       IMPT 00000000   4028 
_rcv2_err_hard_sts2                       IMPT 00000000   4029 
_rcv2_err_hard_sts3                       IMPT 00000000   4030 
_rcv2_event_flg                           IMPT 00000000   4050 
_send2_data_buf                           IMPT 00000000   4046 
*** SuperH RISC engine ASSEMBLER V.7.01.02.000 ***    07/04/21 19:29:08                                                  PAGE    67

*** CROSS REFERENCE LIST

NAME                             SECTION  ATTR VALUE             SEQUENCE

_send2_event_flg                          IMPT 00000000   4051 
_shima_sram_top                           IMPT 00000000   3932 
*** SuperH RISC engine ASSEMBLER V.7.01.02.000 ***    07/04/21 19:29:08                                                  PAGE    68

*** SECTION DATA LIST

SECTION                          ATTRIBUTE    SIZE             START

Phwsetup1                        REL-CODE    000000700        
P                                REL-CODE    0000001B4        
