*** SuperH RISC engine ASSEMBLER V.7.01.02.000 ***    07/04/21 19:29:06                                                  PAGE     1
PROGRAM NAME =

    1                               1     ;       ***********************************************************
    2                               2     ;       ***                                                     ***
    3                               3     ;       ***     call table                                      ***
    4                               4     ;       ***     ﾊﾞｰｼﾞｮﾝｱｯﾌﾟのboot書き換えしない様に             ***
    5                               5     ;       ***     ｱﾄﾞﾚｽを変更したくないﾌﾟﾛｸﾞﾗﾑを間接でcallする    ***
    6                               6     ;       ***                                                     ***
    7                               7     ;       ***********************************************************
 4383                              16     
 4384                              17             .IMPORT         _ASM_K1_CTRL_INT1
 4385                              18             .IMPORT         _ASM_K1_CTRL_INT2
 4386                              19             .IMPORT         _ASM_K1_CTRL_INT3
 4387                              20             .IMPORT         _hmi1_int3
 4388                              21             .IMPORT         _hmi2_int3
 4389                              22             .IMPORT         _ASM_Y1_CTRL_INT1;//500usec割込
 4390                              23             .IMPORT         _ASM_Y1_CTRL_INT2;//1msec割込
 4391                              24             .IMPORT         _ASM_Y1_CTRL_INT3;//5msec程度
 4392                              25             .IMPORT         _WDT_Rifresh
 4393                              26     
 4394                              27             .IMPORT         _OPE_RE_INT     ; SIT4-MC
 4395                              28             .IMPORT         _OPE_RX_INT     ; SIT4-MC
 4396                              29             .IMPORT         _OPE_TX_INT     ; SIT4-MC
 4397                              30     
 4398                              31     
 4399                              32             .IMPORT         _IOGA1_CTRL_DAT1                ; 2006-08-05 SAITO
 4400                              33             .IMPORT         _dio_top1                       ; 2006-08-05 SAITO
 4401                              34     
 4402                              35     
 4403                              36             .EXPORT         _BOOT_CALL                      ;
 4404                              37     
 4405                              38     ;       ==============================
 4406                              39     
 4407                              40     
 4408                              41             .MACRO  SCAN_CHK_SIGn_ON
 4409                              42             .ENDM
 4410                              43     
 4411                              44             .MACRO  SCAN_CHK_SIGn_OF
 4412                              45             .ENDM
 4413                              46     
 4414                              47     
 4415                              48     
 4416 00000000                     49             .SECTION        Pcall,CODE,ALIGN=4              ;
 4417 00000000                     50     _BOOT_CALL:
 4418 00000000 4008                51             SHLL2   R0
 4419 00000002 D105                52             MOV.L   #_BOOT_CALL_TBL_TOP,R1
 4420 00000004 310C                53             ADD     R0,R1
 4421 00000006 6012                54             MOV     @R1,R0
 4422                              55     
 4423 00000008 400B                56             JSR     @R0
 4424 0000000A 0009                57             NOP
 4425                              58     
 4426                              59             POP_REG1 R1
 4427                                 M                                   ; RE"+4" 00,00,00,04
 4428 0000000C 61F6                   M           MOV.L   @R15+,R1        ;
 4429                              60             POP_REG1 R0
 4430                                 M                                   ; RE"+4" 00,00,00,04
 4431 0000000E 60F6                   M           MOV.L   @R15+,R0        ;
 4432                              61     
*** SuperH RISC engine ASSEMBLER V.7.01.02.000 ***    07/04/21 19:29:06                                                  PAGE     2
PROGRAM NAME =

 4433                              62             SUB_END                 ;
 4434                                 M   ;;;;;;; ADD     #4,R15                  ;[不要?]
 4435 00000010 4F26                   M           LDS.L   @R15+,PR                ;[必要]
 4436                              63             M_RTS
 4437 00000012 000B                   M           RTS                             ;RTSの後ろの
 4438 00000014 0009                   M           NOP                             ;@R15+,PRはﾀﾞﾒ
 4439                              64     
 4440                              65     
 4441                              66     ;H'040 TLB miss/invalid (load)
 4442                                     ***** BEGIN-POOL *****
 4443 00000016 0000                       ALIGNMENT CODE
 4444 00000018 00000000                   DATA FOR SOURCE-LINE 52
 4445                                     ***** END-POOL *****
 4446 0000001C                     67     _INT_CALL_TLBMiss_Load
 4447                              68     ;H'060 TLB miss/invalid (store)
 4448 0000001C                     69     _INT_CALL_TLBMiss_Store
 4449                              70     ;H'070 TBL exception/CPU Address error in repeat loop
 4450 0000001C                     71     _INT_CALL_TLBCPU_ADERR
 4451                              72     ;H'080 Initial page write
 4452 0000001C                     73     _INT_CALL_TLBInitial_Page
 4453                              74     ;H'0A0 TLB protect (load)
 4454 0000001C                     75     _INT_CALL_TLBProtect_Load
 4455                              76     ;H'0C0 TLB protect (store)
 4456 0000001C                     77     _INT_CALL_TLBProtect_Store
 4457                              78     ;H'0D0 TLB protect in repeat loop
 4458 0000001C                     79     _INT_CALL_TLBProtect_Loop
 4459                              80     ;H'0E0 Address error (load)
 4460 0000001C                     81     _INT_CALL_Address_load
 4461                              82     ;H'100 Address error (store)
 4462 0000001C                     83     _INT_CALL_Address_store
 4463                              84     ;H'120 Reserved
 4464 0000001C                     85     _INT_CALL_Reserved1
 4465                              86     ;H'140 Reserved
 4466 0000001C                     87     _INT_CALL_Reserved2
 4467                              88     ;H'160 TRAPA
 4468 0000001C                     89     _INT_CALL_TRAPA
 4469                              90     ;H'180 Illegal code
 4470 0000001C                     91     _INT_CALL_Illegal_code
 4471                              92     ;H'1A0 Illegal slot
 4472 0000001C                     93     _INT_CALL_Illegal_slot
 4473                              94     ;H'1C0 Nonmaskable interrupt
 4474 0000001C                     95     _INT_CALL_NMI
 4475                              96     ;H'1E0 User breakpoint trap
 4476 0000001C                     97     _INT_CALL_User_Break
 4477                              98     ;H'200 External hardware interrupt
 4478 0000001C                     99     _INT_CALL_Extern_0000
 4479                             100     ;H'220 External hardware interrupt
 4480 0000001C                    101     _INT_CALL_Extern_0001
 4481                             102     ;H'240 External hardware interrupt
 4482 0000001C                    103     _INT_CALL_Extern_0010
 4483                             104     ;H'260 External hardware interrupt
 4484 0000001C                    105     _INT_CALL_Extern_0011
 4485                             106     ;H'280 External hardware interrupt
 4486 0000001C                    107     _INT_CALL_Extern_0100
 4487                             108     ;H'2A0 External hardware interrupt
 4488 0000001C                    109     _INT_CALL_Extern_0101
 4489                             110     ;H'2C0 External hardware interrupt
*** SuperH RISC engine ASSEMBLER V.7.01.02.000 ***    07/04/21 19:29:06                                                  PAGE     3
PROGRAM NAME =

 4490 0000001C                    111     _INT_CALL_Extern_0110
 4491                             112     ;H'2E0 External hardware interrupt
 4492 0000001C                    113     _INT_CALL_Extern_0111
 4493                             114     ;H'300 External hardware interrupt
 4494 0000001C                    115     _INT_CALL_Extern_1000
 4495                             116     ;H'320 External hardware interrupt
 4496 0000001C                    117     _INT_CALL_Extern_1001
 4497                             118     ;H'340 External hardware interrupt
 4498 0000001C                    119     _INT_CALL_Extern_1010
 4499                             120     ;H'360 External hardware interrupt
 4500 0000001C                    121     _INT_CALL_Extern_1011
 4501                             122     ;H'380 External hardware interrupt
 4502 0000001C                    123     _INT_CALL_Extern_1100
 4503                             124     ;H'3A0 External hardware interrupt
 4504 0000001C                    125     _INT_CALL_Extern_1101
 4505                             126     ;H'3C0 External hardware interrupt
 4506 0000001C                    127     _INT_CALL_Extern_1110
 4507                             128     ;H'3E0 Reserved
 4508 0000001C                    129     _INT_CALL_Reserved3E0
 4509 0000001C 001B               130             sleep
 4510 0000001E 0009               131             nop
 4511                             132     
 4512                             133     
 4513                             134     ;H'400 TMU TUNI0
 4514                             135             .EXPORT         _INT_CALL_TMU_TUNI0
 4515 00000020                    136     _INT_CALL_TMU_TUNI0:            ; 500usec
 4516                             137             SUB_START
 4517 00000020 4F22                   M           STS.L   PR,@-R15                ;[必要]
 4518                                 M   ;;;;;;; ADD     #-4,R15                 ;[不要?]
 4519                             138             PUSH_ALL
 4520                                 M           PUSH_REG1       R0      ;
 4521 00000022 2F06                   M           MOV.L   R0,@-R15                ;PUSH=SP-4
 4522                                 M                                           ;REG=>[SP]
 4523                                 M                                           ;"-4" FF,FF,FF,FC
 4524                                 M           PUSH_REG1       R1      ;
 4525 00000024 2F16                   M           MOV.L   R1,@-R15                ;PUSH=SP-4
 4526                                 M                                           ;REG=>[SP]
 4527                                 M                                           ;"-4" FF,FF,FF,FC
 4528                                 M           PUSH_REG1       R2      ;
 4529 00000026 2F26                   M           MOV.L   R2,@-R15                ;PUSH=SP-4
 4530                                 M                                           ;REG=>[SP]
 4531                                 M                                           ;"-4" FF,FF,FF,FC
 4532                                 M           PUSH_REG1       R3      ;
 4533 00000028 2F36                   M           MOV.L   R3,@-R15                ;PUSH=SP-4
 4534                                 M                                           ;REG=>[SP]
 4535                                 M                                           ;"-4" FF,FF,FF,FC
 4536                                 M           PUSH_REG1       R4      ;
 4537 0000002A 2F46                   M           MOV.L   R4,@-R15                ;PUSH=SP-4
 4538                                 M                                           ;REG=>[SP]
 4539                                 M                                           ;"-4" FF,FF,FF,FC
 4540                                 M           PUSH_REG1       R5      ;
 4541 0000002C 2F56                   M           MOV.L   R5,@-R15                ;PUSH=SP-4
 4542                                 M                                           ;REG=>[SP]
 4543                                 M                                           ;"-4" FF,FF,FF,FC
 4544                                 M           PUSH_REG1       R6      ;
 4545 0000002E 2F66                   M           MOV.L   R6,@-R15                ;PUSH=SP-4
 4546                                 M                                           ;REG=>[SP]
*** SuperH RISC engine ASSEMBLER V.7.01.02.000 ***    07/04/21 19:29:06                                                  PAGE     4
PROGRAM NAME =

 4547                                 M                                           ;"-4" FF,FF,FF,FC
 4548                                 M           PUSH_REG1       R7      ;
 4549 00000030 2F76                   M           MOV.L   R7,@-R15                ;PUSH=SP-4
 4550                                 M                                           ;REG=>[SP]
 4551                                 M                                           ;"-4" FF,FF,FF,FC
 4552                                 M           PUSH_REG1       R8      ;
 4553 00000032 2F86                   M           MOV.L   R8,@-R15                ;PUSH=SP-4
 4554                                 M                                           ;REG=>[SP]
 4555                                 M                                           ;"-4" FF,FF,FF,FC
 4556                                 M           PUSH_REG1       R9      ;
 4557 00000034 2F96                   M           MOV.L   R9,@-R15                ;PUSH=SP-4
 4558                                 M                                           ;REG=>[SP]
 4559                                 M                                           ;"-4" FF,FF,FF,FC
 4560                                 M           PUSH_REG1       R10     ;
 4561 00000036 2FA6                   M           MOV.L   R10,@-R15               ;PUSH=SP-4
 4562                                 M                                           ;REG=>[SP]
 4563                                 M                                           ;"-4" FF,FF,FF,FC
 4564                                 M           PUSH_REG1       R11     ;
 4565 00000038 2FB6                   M           MOV.L   R11,@-R15               ;PUSH=SP-4
 4566                                 M                                           ;REG=>[SP]
 4567                                 M                                           ;"-4" FF,FF,FF,FC
 4568                                 M           PUSH_REG1       R12     ;
 4569 0000003A 2FC6                   M           MOV.L   R12,@-R15               ;PUSH=SP-4
 4570                                 M                                           ;REG=>[SP]
 4571                                 M                                           ;"-4" FF,FF,FF,FC
 4572                                 M           PUSH_REG1       R13     ;
 4573 0000003C 2FD6                   M           MOV.L   R13,@-R15               ;PUSH=SP-4
 4574                                 M                                           ;REG=>[SP]
 4575                                 M                                           ;"-4" FF,FF,FF,FC
 4576                                 M           PUSH_REG1       R14     ;
 4577 0000003E 2FE6                   M           MOV.L   R14,@-R15               ;PUSH=SP-4
 4578                                 M                                           ;REG=>[SP]
 4579                                 M                                           ;"-4" FF,FF,FF,FC
 4580                                 M           PUSH_MACHL              ;
 4581 00000040 4F02                   M           STS.L   MACH,@-R15
 4582 00000042 4F12                   M           STS.L   MACL,@-R15
 4583                                 M           PUSH_SYS_REG    GBR     ;
 4584 00000044 4F13                   M           STC.L   GBR,@-R15
 4585                                 M           .AIF    3 EQ 3
 4586                                             .AELSE
 4587                                             PUSH_FPU_ALL            ;2001-07-08
 4588                                             .AENDI
 4589                             139     
 4590 00000046 D20E               140             MOV.L   #_TCR0,R2
 4591 00000048 6021               141             MOV.W   @R2,R0
 4592 0000004A 9117               142             MOV.W   #BIT8,R1
 4593 0000004C 6117               143             NOT     R1,R1
 4594 0000004E 2019               144             AND     R1,R0
 4595 00000050 2201               145             MOV.W   R0,@R2
 4596                             146     
 4597                             147     
 4598                             148             POP_ALL
 4599                                 M           .AIF    3 EQ 3
 4600                                             .AELSE
 4601                                             POP_FPU_ALL             ;2001-07-08
 4602                                             .AENDI
 4603                                 M           POP_SYS_REG     GBR     ;
*** SuperH RISC engine ASSEMBLER V.7.01.02.000 ***    07/04/21 19:29:06                                                  PAGE     5
PROGRAM NAME =

 4604 00000052 4F17                   M           LDC.L   @R15+,GBR
 4605                                 M           POP_MACHL               ;
 4606 00000054 4F16                   M           LDS.L   @R15+,MACL
 4607 00000056 4F06                   M           LDS.L   @R15+,MACH
 4608                                 M           POP_REG1        R14     ;
 4609                                 M                                   ; RE"+4" 00,00,00,04
 4610 00000058 6EF6                   M           MOV.L   @R15+,R14        ;
 4611                                 M           POP_REG1        R13     ;
 4612                                 M                                   ; RE"+4" 00,00,00,04
 4613 0000005A 6DF6                   M           MOV.L   @R15+,R13        ;
 4614                                 M           POP_REG1        R12     ;
 4615                                 M                                   ; RE"+4" 00,00,00,04
 4616 0000005C 6CF6                   M           MOV.L   @R15+,R12        ;
 4617                                 M           POP_REG1        R11     ;
 4618                                 M                                   ; RE"+4" 00,00,00,04
 4619 0000005E 6BF6                   M           MOV.L   @R15+,R11        ;
 4620                                 M           POP_REG1        R10     ;
 4621                                 M                                   ; RE"+4" 00,00,00,04
 4622 00000060 6AF6                   M           MOV.L   @R15+,R10        ;
 4623                                 M           POP_REG1        R9      ;
 4624                                 M                                   ; RE"+4" 00,00,00,04
 4625 00000062 69F6                   M           MOV.L   @R15+,R9        ;
 4626                                 M           POP_REG1        R8      ;
 4627                                 M                                   ; RE"+4" 00,00,00,04
 4628 00000064 68F6                   M           MOV.L   @R15+,R8        ;
 4629                                 M           POP_REG1        R7      ;
 4630                                 M                                   ; RE"+4" 00,00,00,04
 4631 00000066 67F6                   M           MOV.L   @R15+,R7        ;
 4632                                 M           POP_REG1        R6      ;
 4633                                 M                                   ; RE"+4" 00,00,00,04
 4634 00000068 66F6                   M           MOV.L   @R15+,R6        ;
 4635                                 M           POP_REG1        R5      ;
 4636                                 M                                   ; RE"+4" 00,00,00,04
 4637 0000006A 65F6                   M           MOV.L   @R15+,R5        ;
 4638                                 M           POP_REG1        R4      ;
 4639                                 M                                   ; RE"+4" 00,00,00,04
 4640 0000006C 64F6                   M           MOV.L   @R15+,R4        ;
 4641                                 M           POP_REG1        R3      ;
 4642                                 M                                   ; RE"+4" 00,00,00,04
 4643 0000006E 63F6                   M           MOV.L   @R15+,R3        ;
 4644                                 M           POP_REG1        R2      ;
 4645                                 M                                   ; RE"+4" 00,00,00,04
 4646 00000070 62F6                   M           MOV.L   @R15+,R2        ;
 4647                                 M           POP_REG1        R1      ;
 4648                                 M                                   ; RE"+4" 00,00,00,04
 4649 00000072 61F6                   M           MOV.L   @R15+,R1        ;
 4650                                 M           POP_REG1        R0      ;
 4651                                 M                                   ; RE"+4" 00,00,00,04
 4652 00000074 60F6                   M           MOV.L   @R15+,R0        ;
 4653                             149             SUB_END
 4654                                 M   ;;;;;;; ADD     #4,R15                  ;[不要?]
 4655 00000076 4F26                   M           LDS.L   @R15+,PR                ;[必要]
 4656                             150             M_RTS
 4657 00000078 000B                   M           RTS                             ;RTSの後ろの
 4658 0000007A 0009                   M           NOP                             ;@R15+,PRはﾀﾞﾒ
 4659                             151     
 4660                             152     
*** SuperH RISC engine ASSEMBLER V.7.01.02.000 ***    07/04/21 19:29:06                                                  PAGE     6
PROGRAM NAME =

 4661                             153     ;H'420 TMU TUNI1
 4662                             154             .EXPORT         _INT_CALL_TMU_TUNI1
 4663                                     ***** BEGIN-POOL *****
 4664 0000007C 0100                       DATA FOR SOURCE-LINE 142
 4665 0000007E 0000                       ALIGNMENT CODE
 4666 00000080 00000000                   DATA FOR SOURCE-LINE 140
 4667                                     ***** END-POOL *****
 4668 00000084                    155     _INT_CALL_TMU_TUNI1:            ; 1msec
 4669                             156             SUB_START
 4670 00000084 4F22                   M           STS.L   PR,@-R15                ;[必要]
 4671                                 M   ;;;;;;; ADD     #-4,R15                 ;[不要?]
 4672                             157             PUSH_ALL
 4673                                 M           PUSH_REG1       R0      ;
 4674 00000086 2F06                   M           MOV.L   R0,@-R15                ;PUSH=SP-4
 4675                                 M                                           ;REG=>[SP]
 4676                                 M                                           ;"-4" FF,FF,FF,FC
 4677                                 M           PUSH_REG1       R1      ;
 4678 00000088 2F16                   M           MOV.L   R1,@-R15                ;PUSH=SP-4
 4679                                 M                                           ;REG=>[SP]
 4680                                 M                                           ;"-4" FF,FF,FF,FC
 4681                                 M           PUSH_REG1       R2      ;
 4682 0000008A 2F26                   M           MOV.L   R2,@-R15                ;PUSH=SP-4
 4683                                 M                                           ;REG=>[SP]
 4684                                 M                                           ;"-4" FF,FF,FF,FC
 4685                                 M           PUSH_REG1       R3      ;
 4686 0000008C 2F36                   M           MOV.L   R3,@-R15                ;PUSH=SP-4
 4687                                 M                                           ;REG=>[SP]
 4688                                 M                                           ;"-4" FF,FF,FF,FC
 4689                                 M           PUSH_REG1       R4      ;
 4690 0000008E 2F46                   M           MOV.L   R4,@-R15                ;PUSH=SP-4
 4691                                 M                                           ;REG=>[SP]
 4692                                 M                                           ;"-4" FF,FF,FF,FC
 4693                                 M           PUSH_REG1       R5      ;
 4694 00000090 2F56                   M           MOV.L   R5,@-R15                ;PUSH=SP-4
 4695                                 M                                           ;REG=>[SP]
 4696                                 M                                           ;"-4" FF,FF,FF,FC
 4697                                 M           PUSH_REG1       R6      ;
 4698 00000092 2F66                   M           MOV.L   R6,@-R15                ;PUSH=SP-4
 4699                                 M                                           ;REG=>[SP]
 4700                                 M                                           ;"-4" FF,FF,FF,FC
 4701                                 M           PUSH_REG1       R7      ;
 4702 00000094 2F76                   M           MOV.L   R7,@-R15                ;PUSH=SP-4
 4703                                 M                                           ;REG=>[SP]
 4704                                 M                                           ;"-4" FF,FF,FF,FC
 4705                                 M           PUSH_REG1       R8      ;
 4706 00000096 2F86                   M           MOV.L   R8,@-R15                ;PUSH=SP-4
 4707                                 M                                           ;REG=>[SP]
 4708                                 M                                           ;"-4" FF,FF,FF,FC
 4709                                 M           PUSH_REG1       R9      ;
 4710 00000098 2F96                   M           MOV.L   R9,@-R15                ;PUSH=SP-4
 4711                                 M                                           ;REG=>[SP]
 4712                                 M                                           ;"-4" FF,FF,FF,FC
 4713                                 M           PUSH_REG1       R10     ;
 4714 0000009A 2FA6                   M           MOV.L   R10,@-R15               ;PUSH=SP-4
 4715                                 M                                           ;REG=>[SP]
 4716                                 M                                           ;"-4" FF,FF,FF,FC
 4717                                 M           PUSH_REG1       R11     ;
*** SuperH RISC engine ASSEMBLER V.7.01.02.000 ***    07/04/21 19:29:06                                                  PAGE     7
PROGRAM NAME =

 4718 0000009C 2FB6                   M           MOV.L   R11,@-R15               ;PUSH=SP-4
 4719                                 M                                           ;REG=>[SP]
 4720                                 M                                           ;"-4" FF,FF,FF,FC
 4721                                 M           PUSH_REG1       R12     ;
 4722 0000009E 2FC6                   M           MOV.L   R12,@-R15               ;PUSH=SP-4
 4723                                 M                                           ;REG=>[SP]
 4724                                 M                                           ;"-4" FF,FF,FF,FC
 4725                                 M           PUSH_REG1       R13     ;
 4726 000000A0 2FD6                   M           MOV.L   R13,@-R15               ;PUSH=SP-4
 4727                                 M                                           ;REG=>[SP]
 4728                                 M                                           ;"-4" FF,FF,FF,FC
 4729                                 M           PUSH_REG1       R14     ;
 4730 000000A2 2FE6                   M           MOV.L   R14,@-R15               ;PUSH=SP-4
 4731                                 M                                           ;REG=>[SP]
 4732                                 M                                           ;"-4" FF,FF,FF,FC
 4733                                 M           PUSH_MACHL              ;
 4734 000000A4 4F02                   M           STS.L   MACH,@-R15
 4735 000000A6 4F12                   M           STS.L   MACL,@-R15
 4736                                 M           PUSH_SYS_REG    GBR     ;
 4737 000000A8 4F13                   M           STC.L   GBR,@-R15
 4738                                 M           .AIF    3 EQ 3
 4739                                             .AELSE
 4740                                             PUSH_FPU_ALL            ;2001-07-08
 4741                                             .AENDI
 4742                             158     
 4743 000000AA D212               159             MOV.L   #_TCR1,R2
 4744 000000AC 6021               160             MOV.W   @R2,R0
 4745 000000AE 9120               161             MOV.W   #BIT8,R1
 4746 000000B0 6117               162             NOT     R1,R1
 4747 000000B2 2019               163             AND     R1,R0
 4748 000000B4 2201               164             MOV.W   R0,@R2
 4749                             165     
 4750                             166     
 4751                             167     
 4752                             168             FAR_JSR #_WDT_Rifresh,R0                        ; V02
 4753 000000B6 D010                   M           MOV.L   #_WDT_Rifresh,R0                ;ﾃｰﾌﾞﾙｱﾄﾞﾚｽの内容をREGへ
 4754 000000B8 400B                   M           JSR     @R0                     ;
 4755 000000BA 0009                   M           NOP                                     ;
 4756                             169     
 4757                             170     
 4758                             171     
 4759                             172             FAR_JSR #_ASM_K1_CTRL_INT2,R0                   ; C/B
 4760 000000BC D00F                   M           MOV.L   #_ASM_K1_CTRL_INT2,R0           ;ﾃｰﾌﾞﾙｱﾄﾞﾚｽの内容をREGへ
 4761 000000BE 400B                   M           JSR     @R0                     ;
 4762 000000C0 0009                   M           NOP                                     ;
 4763                             173     
 4764                             174             FAR_JSR #_ASM_Y1_CTRL_INT2,R0
 4765 000000C2 D00F                   M           MOV.L   #_ASM_Y1_CTRL_INT2,R0           ;ﾃｰﾌﾞﾙｱﾄﾞﾚｽの内容をREGへ
 4766 000000C4 400B                   M           JSR     @R0                     ;
 4767 000000C6 0009                   M           NOP                                     ;
 4768                             175     
 4769                             176     
 4770                             177     
 4771                             178     
 4772                             179     
 4773                             180             POP_ALL
 4774                                 M           .AIF    3 EQ 3
*** SuperH RISC engine ASSEMBLER V.7.01.02.000 ***    07/04/21 19:29:06                                                  PAGE     8
PROGRAM NAME =

 4775                                             .AELSE
 4776                                             POP_FPU_ALL             ;2001-07-08
 4777                                             .AENDI
 4778                                 M           POP_SYS_REG     GBR     ;
 4779 000000C8 4F17                   M           LDC.L   @R15+,GBR
 4780                                 M           POP_MACHL               ;
 4781 000000CA 4F16                   M           LDS.L   @R15+,MACL
 4782 000000CC 4F06                   M           LDS.L   @R15+,MACH
 4783                                 M           POP_REG1        R14     ;
 4784                                 M                                   ; RE"+4" 00,00,00,04
 4785 000000CE 6EF6                   M           MOV.L   @R15+,R14        ;
 4786                                 M           POP_REG1        R13     ;
 4787                                 M                                   ; RE"+4" 00,00,00,04
 4788 000000D0 6DF6                   M           MOV.L   @R15+,R13        ;
 4789                                 M           POP_REG1        R12     ;
 4790                                 M                                   ; RE"+4" 00,00,00,04
 4791 000000D2 6CF6                   M           MOV.L   @R15+,R12        ;
 4792                                 M           POP_REG1        R11     ;
 4793                                 M                                   ; RE"+4" 00,00,00,04
 4794 000000D4 6BF6                   M           MOV.L   @R15+,R11        ;
 4795                                 M           POP_REG1        R10     ;
 4796                                 M                                   ; RE"+4" 00,00,00,04
 4797 000000D6 6AF6                   M           MOV.L   @R15+,R10        ;
 4798                                 M           POP_REG1        R9      ;
 4799                                 M                                   ; RE"+4" 00,00,00,04
 4800 000000D8 69F6                   M           MOV.L   @R15+,R9        ;
 4801                                 M           POP_REG1        R8      ;
 4802                                 M                                   ; RE"+4" 00,00,00,04
 4803 000000DA 68F6                   M           MOV.L   @R15+,R8        ;
 4804                                 M           POP_REG1        R7      ;
 4805                                 M                                   ; RE"+4" 00,00,00,04
 4806 000000DC 67F6                   M           MOV.L   @R15+,R7        ;
 4807                                 M           POP_REG1        R6      ;
 4808                                 M                                   ; RE"+4" 00,00,00,04
 4809 000000DE 66F6                   M           MOV.L   @R15+,R6        ;
 4810                                 M           POP_REG1        R5      ;
 4811                                 M                                   ; RE"+4" 00,00,00,04
 4812 000000E0 65F6                   M           MOV.L   @R15+,R5        ;
 4813                                 M           POP_REG1        R4      ;
 4814                                 M                                   ; RE"+4" 00,00,00,04
 4815 000000E2 64F6                   M           MOV.L   @R15+,R4        ;
 4816                                 M           POP_REG1        R3      ;
 4817                                 M                                   ; RE"+4" 00,00,00,04
 4818 000000E4 63F6                   M           MOV.L   @R15+,R3        ;
 4819                                 M           POP_REG1        R2      ;
 4820                                 M                                   ; RE"+4" 00,00,00,04
 4821 000000E6 62F6                   M           MOV.L   @R15+,R2        ;
 4822                                 M           POP_REG1        R1      ;
 4823                                 M                                   ; RE"+4" 00,00,00,04
 4824 000000E8 61F6                   M           MOV.L   @R15+,R1        ;
 4825                                 M           POP_REG1        R0      ;
 4826                                 M                                   ; RE"+4" 00,00,00,04
 4827 000000EA 60F6                   M           MOV.L   @R15+,R0        ;
 4828                             181             SUB_END
 4829                                 M   ;;;;;;; ADD     #4,R15                  ;[不要?]
 4830 000000EC 4F26                   M           LDS.L   @R15+,PR                ;[必要]
 4831                             182             M_RTS
*** SuperH RISC engine ASSEMBLER V.7.01.02.000 ***    07/04/21 19:29:06                                                  PAGE     9
PROGRAM NAME =

 4832 000000EE 000B                   M           RTS                             ;RTSの後ろの
 4833 000000F0 0009                   M           NOP                             ;@R15+,PRはﾀﾞﾒ
 4834                             183     
 4835                             184     
 4836                             185     ;H'440 TMU TUNI2
 4837                             186             .EXPORT         _INT_CALL_TMU_TUNI2
 4838                                     ***** BEGIN-POOL *****
 4839 000000F2 0100                       DATA FOR SOURCE-LINE 161
 4840 000000F4 00000000                   DATA FOR SOURCE-LINE 159
 4841 000000F8 00000000                   DATA FOR SOURCE-LINE 168
 4842 000000FC 00000000                   DATA FOR SOURCE-LINE 172
 4843 00000100 00000000                   DATA FOR SOURCE-LINE 174
 4844                                     ***** END-POOL *****
 4845 00000104                    187     _INT_CALL_TMU_TUNI2:            ; 5msec
 4846                             188             SUB_START
 4847 00000104 4F22                   M           STS.L   PR,@-R15                ;[必要]
 4848                                 M   ;;;;;;; ADD     #-4,R15                 ;[不要?]
 4849                             189             PUSH_ALL
 4850                                 M           PUSH_REG1       R0      ;
 4851 00000106 2F06                   M           MOV.L   R0,@-R15                ;PUSH=SP-4
 4852                                 M                                           ;REG=>[SP]
 4853                                 M                                           ;"-4" FF,FF,FF,FC
 4854                                 M           PUSH_REG1       R1      ;
 4855 00000108 2F16                   M           MOV.L   R1,@-R15                ;PUSH=SP-4
 4856                                 M                                           ;REG=>[SP]
 4857                                 M                                           ;"-4" FF,FF,FF,FC
 4858                                 M           PUSH_REG1       R2      ;
 4859 0000010A 2F26                   M           MOV.L   R2,@-R15                ;PUSH=SP-4
 4860                                 M                                           ;REG=>[SP]
 4861                                 M                                           ;"-4" FF,FF,FF,FC
 4862                                 M           PUSH_REG1       R3      ;
 4863 0000010C 2F36                   M           MOV.L   R3,@-R15                ;PUSH=SP-4
 4864                                 M                                           ;REG=>[SP]
 4865                                 M                                           ;"-4" FF,FF,FF,FC
 4866                                 M           PUSH_REG1       R4      ;
 4867 0000010E 2F46                   M           MOV.L   R4,@-R15                ;PUSH=SP-4
 4868                                 M                                           ;REG=>[SP]
 4869                                 M                                           ;"-4" FF,FF,FF,FC
 4870                                 M           PUSH_REG1       R5      ;
 4871 00000110 2F56                   M           MOV.L   R5,@-R15                ;PUSH=SP-4
 4872                                 M                                           ;REG=>[SP]
 4873                                 M                                           ;"-4" FF,FF,FF,FC
 4874                                 M           PUSH_REG1       R6      ;
 4875 00000112 2F66                   M           MOV.L   R6,@-R15                ;PUSH=SP-4
 4876                                 M                                           ;REG=>[SP]
 4877                                 M                                           ;"-4" FF,FF,FF,FC
 4878                                 M           PUSH_REG1       R7      ;
 4879 00000114 2F76                   M           MOV.L   R7,@-R15                ;PUSH=SP-4
 4880                                 M                                           ;REG=>[SP]
 4881                                 M                                           ;"-4" FF,FF,FF,FC
 4882                                 M           PUSH_REG1       R8      ;
 4883 00000116 2F86                   M           MOV.L   R8,@-R15                ;PUSH=SP-4
 4884                                 M                                           ;REG=>[SP]
 4885                                 M                                           ;"-4" FF,FF,FF,FC
 4886                                 M           PUSH_REG1       R9      ;
 4887 00000118 2F96                   M           MOV.L   R9,@-R15                ;PUSH=SP-4
 4888                                 M                                           ;REG=>[SP]
*** SuperH RISC engine ASSEMBLER V.7.01.02.000 ***    07/04/21 19:29:06                                                  PAGE    10
PROGRAM NAME =

 4889                                 M                                           ;"-4" FF,FF,FF,FC
 4890                                 M           PUSH_REG1       R10     ;
 4891 0000011A 2FA6                   M           MOV.L   R10,@-R15               ;PUSH=SP-4
 4892                                 M                                           ;REG=>[SP]
 4893                                 M                                           ;"-4" FF,FF,FF,FC
 4894                                 M           PUSH_REG1       R11     ;
 4895 0000011C 2FB6                   M           MOV.L   R11,@-R15               ;PUSH=SP-4
 4896                                 M                                           ;REG=>[SP]
 4897                                 M                                           ;"-4" FF,FF,FF,FC
 4898                                 M           PUSH_REG1       R12     ;
 4899 0000011E 2FC6                   M           MOV.L   R12,@-R15               ;PUSH=SP-4
 4900                                 M                                           ;REG=>[SP]
 4901                                 M                                           ;"-4" FF,FF,FF,FC
 4902                                 M           PUSH_REG1       R13     ;
 4903 00000120 2FD6                   M           MOV.L   R13,@-R15               ;PUSH=SP-4
 4904                                 M                                           ;REG=>[SP]
 4905                                 M                                           ;"-4" FF,FF,FF,FC
 4906                                 M           PUSH_REG1       R14     ;
 4907 00000122 2FE6                   M           MOV.L   R14,@-R15               ;PUSH=SP-4
 4908                                 M                                           ;REG=>[SP]
 4909                                 M                                           ;"-4" FF,FF,FF,FC
 4910                                 M           PUSH_MACHL              ;
 4911 00000124 4F02                   M           STS.L   MACH,@-R15
 4912 00000126 4F12                   M           STS.L   MACL,@-R15
 4913                                 M           PUSH_SYS_REG    GBR     ;
 4914 00000128 4F13                   M           STC.L   GBR,@-R15
 4915                                 M           .AIF    3 EQ 3
 4916                                             .AELSE
 4917                                             PUSH_FPU_ALL            ;2001-07-08
 4918                                             .AENDI
 4919                             190     
 4920 0000012A D214               191             MOV.L   #_TCR2,R2
 4921 0000012C 6021               192             MOV.W   @R2,R0
 4922 0000012E 9123               193             MOV.W   #BIT8,R1
 4923 00000130 6117               194             NOT     R1,R1
 4924 00000132 2019               195             AND     R1,R0
 4925 00000134 2201               196             MOV.W   R0,@R2
 4926                             197     
 4927                             198     
 4928                             199             FAR_JSR #_ASM_K1_CTRL_INT3,R0                   ; C/B
 4929 00000136 D012                   M           MOV.L   #_ASM_K1_CTRL_INT3,R0           ;ﾃｰﾌﾞﾙｱﾄﾞﾚｽの内容をREGへ
 4930 00000138 400B                   M           JSR     @R0                     ;
 4931 0000013A 0009                   M           NOP                                     ;
 4932                             200             FAR_JSR #_hmi1_int3,R0                          ; HMI
 4933 0000013C D011                   M           MOV.L   #_hmi1_int3,R0          ;ﾃｰﾌﾞﾙｱﾄﾞﾚｽの内容をREGへ
 4934 0000013E 400B                   M           JSR     @R0                     ;
 4935 00000140 0009                   M           NOP                                     ;
 4936                             201             FAR_JSR #_hmi2_int3,R0                          ; HMI
 4937 00000142 D011                   M           MOV.L   #_hmi2_int3,R0          ;ﾃｰﾌﾞﾙｱﾄﾞﾚｽの内容をREGへ
 4938 00000144 400B                   M           JSR     @R0                     ;
 4939 00000146 0009                   M           NOP                                     ;
 4940                             202             FAR_JSR #_ASM_Y1_CTRL_INT3,R0
 4941 00000148 D010                   M           MOV.L   #_ASM_Y1_CTRL_INT3,R0           ;ﾃｰﾌﾞﾙｱﾄﾞﾚｽの内容をREGへ
 4942 0000014A 400B                   M           JSR     @R0                     ;
 4943 0000014C 0009                   M           NOP                                     ;
 4944                             203     
 4945                             204     
*** SuperH RISC engine ASSEMBLER V.7.01.02.000 ***    07/04/21 19:29:06                                                  PAGE    11
PROGRAM NAME =

 4946                             205             POP_ALL
 4947                                 M           .AIF    3 EQ 3
 4948                                             .AELSE
 4949                                             POP_FPU_ALL             ;2001-07-08
 4950                                             .AENDI
 4951                                 M           POP_SYS_REG     GBR     ;
 4952 0000014E 4F17                   M           LDC.L   @R15+,GBR
 4953                                 M           POP_MACHL               ;
 4954 00000150 4F16                   M           LDS.L   @R15+,MACL
 4955 00000152 4F06                   M           LDS.L   @R15+,MACH
 4956                                 M           POP_REG1        R14     ;
 4957                                 M                                   ; RE"+4" 00,00,00,04
 4958 00000154 6EF6                   M           MOV.L   @R15+,R14        ;
 4959                                 M           POP_REG1        R13     ;
 4960                                 M                                   ; RE"+4" 00,00,00,04
 4961 00000156 6DF6                   M           MOV.L   @R15+,R13        ;
 4962                                 M           POP_REG1        R12     ;
 4963                                 M                                   ; RE"+4" 00,00,00,04
 4964 00000158 6CF6                   M           MOV.L   @R15+,R12        ;
 4965                                 M           POP_REG1        R11     ;
 4966                                 M                                   ; RE"+4" 00,00,00,04
 4967 0000015A 6BF6                   M           MOV.L   @R15+,R11        ;
 4968                                 M           POP_REG1        R10     ;
 4969                                 M                                   ; RE"+4" 00,00,00,04
 4970 0000015C 6AF6                   M           MOV.L   @R15+,R10        ;
 4971                                 M           POP_REG1        R9      ;
 4972                                 M                                   ; RE"+4" 00,00,00,04
 4973 0000015E 69F6                   M           MOV.L   @R15+,R9        ;
 4974                                 M           POP_REG1        R8      ;
 4975                                 M                                   ; RE"+4" 00,00,00,04
 4976 00000160 68F6                   M           MOV.L   @R15+,R8        ;
 4977                                 M           POP_REG1        R7      ;
 4978                                 M                                   ; RE"+4" 00,00,00,04
 4979 00000162 67F6                   M           MOV.L   @R15+,R7        ;
 4980                                 M           POP_REG1        R6      ;
 4981                                 M                                   ; RE"+4" 00,00,00,04
 4982 00000164 66F6                   M           MOV.L   @R15+,R6        ;
 4983                                 M           POP_REG1        R5      ;
 4984                                 M                                   ; RE"+4" 00,00,00,04
 4985 00000166 65F6                   M           MOV.L   @R15+,R5        ;
 4986                                 M           POP_REG1        R4      ;
 4987                                 M                                   ; RE"+4" 00,00,00,04
 4988 00000168 64F6                   M           MOV.L   @R15+,R4        ;
 4989                                 M           POP_REG1        R3      ;
 4990                                 M                                   ; RE"+4" 00,00,00,04
 4991 0000016A 63F6                   M           MOV.L   @R15+,R3        ;
 4992                                 M           POP_REG1        R2      ;
 4993                                 M                                   ; RE"+4" 00,00,00,04
 4994 0000016C 62F6                   M           MOV.L   @R15+,R2        ;
 4995                                 M           POP_REG1        R1      ;
 4996                                 M                                   ; RE"+4" 00,00,00,04
 4997 0000016E 61F6                   M           MOV.L   @R15+,R1        ;
 4998                                 M           POP_REG1        R0      ;
 4999                                 M                                   ; RE"+4" 00,00,00,04
 5000 00000170 60F6                   M           MOV.L   @R15+,R0        ;
 5001                             206             SUB_END
 5002                                 M   ;;;;;;; ADD     #4,R15                  ;[不要?]
*** SuperH RISC engine ASSEMBLER V.7.01.02.000 ***    07/04/21 19:29:06                                                  PAGE    12
PROGRAM NAME =

 5003 00000172 4F26                   M           LDS.L   @R15+,PR                ;[必要]
 5004                             207             M_RTS
 5005 00000174 000B                   M           RTS                             ;RTSの後ろの
 5006 00000176 0009                   M           NOP                             ;@R15+,PRはﾀﾞﾒ
 5007                             208     
 5008                             209     
 5009                             210     ;H'460 TMU TICPI2
 5010                                     ***** BEGIN-POOL *****
 5011 00000178 0100                       DATA FOR SOURCE-LINE 193
 5012 0000017A 0000                       ALIGNMENT CODE
 5013 0000017C 00000000                   DATA FOR SOURCE-LINE 191
 5014 00000180 00000000                   DATA FOR SOURCE-LINE 199
 5015 00000184 00000000                   DATA FOR SOURCE-LINE 200
 5016 00000188 00000000                   DATA FOR SOURCE-LINE 201
 5017 0000018C 00000000                   DATA FOR SOURCE-LINE 202
 5018                                     ***** END-POOL *****
 5019 00000190                    211     _INT_CALL_TMU_TICPI2
 5020                             212     ;H'480 RTC ATI
 5021 00000190                    213     _INT_CALL_RTC_ATI
 5022                             214     ;H'4A0 RTC PRI
 5023 00000190                    215     _INT_CALL_RTC_PRI
 5024                             216     ;H'4C0 RTC CUI
 5025 00000190                    217     _INT_CALL_RTC_CUI
 5026                             218     ;H'4E0 SCI ERI
 5027 00000190                    219     _INT_CALL_SCI_ERI
 5028                             220     ;H'500 SCI RXI
 5029 00000190                    221     _INT_CALL_SCI_RXI
 5030                             222     ;H'520 SCI TXI
 5031 00000190                    223     _INT_CALL_SCI_TXI
 5032                             224     ;H'540 SCI TEI
 5033 00000190                    225     _INT_CALL_SCI_TEI
 5034                             226     ;H'560 CPG ITI
 5035 00000190                    227     _INT_CALL_CPG_ITI
 5036                             228     ;H'580 BSC RCMI
 5037 00000190                    229     _INT_CALL_BSC_RCMI
 5038                             230     ;H'5A0 BSC ROVI
 5039 00000190                    231     _INT_CALL_BSC_ROVI
 5040                             232     ;H'5C0 Reserved
 5041 00000190                    233     _INT_CALL_Reserved5C0
 5042                             234     ;H'5E0 H-UDI
 5043 00000190                    235     _INT_CALL_H_UDI
 5044 00000190 001B               236             sleep
 5045 00000192 0009               237             nop
 5046                             238     
 5047                             239     ;       === EMG =====
 5048                             240     ;H'600 IRQ0
 5049 00000194                    241     _INT_CALL_IRQ0
 5050                             242             SUB_START
 5051 00000194 4F22                   M           STS.L   PR,@-R15                ;[必要]
 5052                                 M   ;;;;;;; ADD     #-4,R15                 ;[不要?]
 5053                             243             PUSH_ALL
 5054                                 M           PUSH_REG1       R0      ;
 5055 00000196 2F06                   M           MOV.L   R0,@-R15                ;PUSH=SP-4
 5056                                 M                                           ;REG=>[SP]
 5057                                 M                                           ;"-4" FF,FF,FF,FC
 5058                                 M           PUSH_REG1       R1      ;
 5059 00000198 2F16                   M           MOV.L   R1,@-R15                ;PUSH=SP-4
*** SuperH RISC engine ASSEMBLER V.7.01.02.000 ***    07/04/21 19:29:06                                                  PAGE    13
PROGRAM NAME =

 5060                                 M                                           ;REG=>[SP]
 5061                                 M                                           ;"-4" FF,FF,FF,FC
 5062                                 M           PUSH_REG1       R2      ;
 5063 0000019A 2F26                   M           MOV.L   R2,@-R15                ;PUSH=SP-4
 5064                                 M                                           ;REG=>[SP]
 5065                                 M                                           ;"-4" FF,FF,FF,FC
 5066                                 M           PUSH_REG1       R3      ;
 5067 0000019C 2F36                   M           MOV.L   R3,@-R15                ;PUSH=SP-4
 5068                                 M                                           ;REG=>[SP]
 5069                                 M                                           ;"-4" FF,FF,FF,FC
 5070                                 M           PUSH_REG1       R4      ;
 5071 0000019E 2F46                   M           MOV.L   R4,@-R15                ;PUSH=SP-4
 5072                                 M                                           ;REG=>[SP]
 5073                                 M                                           ;"-4" FF,FF,FF,FC
 5074                                 M           PUSH_REG1       R5      ;
 5075 000001A0 2F56                   M           MOV.L   R5,@-R15                ;PUSH=SP-4
 5076                                 M                                           ;REG=>[SP]
 5077                                 M                                           ;"-4" FF,FF,FF,FC
 5078                                 M           PUSH_REG1       R6      ;
 5079 000001A2 2F66                   M           MOV.L   R6,@-R15                ;PUSH=SP-4
 5080                                 M                                           ;REG=>[SP]
 5081                                 M                                           ;"-4" FF,FF,FF,FC
 5082                                 M           PUSH_REG1       R7      ;
 5083 000001A4 2F76                   M           MOV.L   R7,@-R15                ;PUSH=SP-4
 5084                                 M                                           ;REG=>[SP]
 5085                                 M                                           ;"-4" FF,FF,FF,FC
 5086                                 M           PUSH_REG1       R8      ;
 5087 000001A6 2F86                   M           MOV.L   R8,@-R15                ;PUSH=SP-4
 5088                                 M                                           ;REG=>[SP]
 5089                                 M                                           ;"-4" FF,FF,FF,FC
 5090                                 M           PUSH_REG1       R9      ;
 5091 000001A8 2F96                   M           MOV.L   R9,@-R15                ;PUSH=SP-4
 5092                                 M                                           ;REG=>[SP]
 5093                                 M                                           ;"-4" FF,FF,FF,FC
 5094                                 M           PUSH_REG1       R10     ;
 5095 000001AA 2FA6                   M           MOV.L   R10,@-R15               ;PUSH=SP-4
 5096                                 M                                           ;REG=>[SP]
 5097                                 M                                           ;"-4" FF,FF,FF,FC
 5098                                 M           PUSH_REG1       R11     ;
 5099 000001AC 2FB6                   M           MOV.L   R11,@-R15               ;PUSH=SP-4
 5100                                 M                                           ;REG=>[SP]
 5101                                 M                                           ;"-4" FF,FF,FF,FC
 5102                                 M           PUSH_REG1       R12     ;
 5103 000001AE 2FC6                   M           MOV.L   R12,@-R15               ;PUSH=SP-4
 5104                                 M                                           ;REG=>[SP]
 5105                                 M                                           ;"-4" FF,FF,FF,FC
 5106                                 M           PUSH_REG1       R13     ;
 5107 000001B0 2FD6                   M           MOV.L   R13,@-R15               ;PUSH=SP-4
 5108                                 M                                           ;REG=>[SP]
 5109                                 M                                           ;"-4" FF,FF,FF,FC
 5110                                 M           PUSH_REG1       R14     ;
 5111 000001B2 2FE6                   M           MOV.L   R14,@-R15               ;PUSH=SP-4
 5112                                 M                                           ;REG=>[SP]
 5113                                 M                                           ;"-4" FF,FF,FF,FC
 5114                                 M           PUSH_MACHL              ;
 5115 000001B4 4F02                   M           STS.L   MACH,@-R15
 5116 000001B6 4F12                   M           STS.L   MACL,@-R15
*** SuperH RISC engine ASSEMBLER V.7.01.02.000 ***    07/04/21 19:29:06                                                  PAGE    14
PROGRAM NAME =

 5117                                 M           PUSH_SYS_REG    GBR     ;
 5118 000001B8 4F13                   M           STC.L   GBR,@-R15
 5119                                 M           .AIF    3 EQ 3
 5120                                             .AELSE
 5121                                             PUSH_FPU_ALL            ;2001-07-08
 5122                                             .AENDI
 5123                             244     
 5124 000001BA D10E               245             MOV.L   #_IRR0,R1
 5125 000001BC 6010               246             MOV.B   @R1,R0
 5126 000001BE 9217               247             MOV.W   #BIT0,R2                ;IRQ0:BIT7
 5127 000001C0 6227               248             NOT     R2,R2
 5128 000001C2 2029               249             AND     R2,R0
 5129 000001C4 2100               250             MOV.B   R0,@R1
 5130                             251     
 5131                             252             POP_ALL
 5132                                 M           .AIF    3 EQ 3
 5133                                             .AELSE
 5134                                             POP_FPU_ALL             ;2001-07-08
 5135                                             .AENDI
 5136                                 M           POP_SYS_REG     GBR     ;
 5137 000001C6 4F17                   M           LDC.L   @R15+,GBR
 5138                                 M           POP_MACHL               ;
 5139 000001C8 4F16                   M           LDS.L   @R15+,MACL
 5140 000001CA 4F06                   M           LDS.L   @R15+,MACH
 5141                                 M           POP_REG1        R14     ;
 5142                                 M                                   ; RE"+4" 00,00,00,04
 5143 000001CC 6EF6                   M           MOV.L   @R15+,R14        ;
 5144                                 M           POP_REG1        R13     ;
 5145                                 M                                   ; RE"+4" 00,00,00,04
 5146 000001CE 6DF6                   M           MOV.L   @R15+,R13        ;
 5147                                 M           POP_REG1        R12     ;
 5148                                 M                                   ; RE"+4" 00,00,00,04
 5149 000001D0 6CF6                   M           MOV.L   @R15+,R12        ;
 5150                                 M           POP_REG1        R11     ;
 5151                                 M                                   ; RE"+4" 00,00,00,04
 5152 000001D2 6BF6                   M           MOV.L   @R15+,R11        ;
 5153                                 M           POP_REG1        R10     ;
 5154                                 M                                   ; RE"+4" 00,00,00,04
 5155 000001D4 6AF6                   M           MOV.L   @R15+,R10        ;
 5156                                 M           POP_REG1        R9      ;
 5157                                 M                                   ; RE"+4" 00,00,00,04
 5158 000001D6 69F6                   M           MOV.L   @R15+,R9        ;
 5159                                 M           POP_REG1        R8      ;
 5160                                 M                                   ; RE"+4" 00,00,00,04
 5161 000001D8 68F6                   M           MOV.L   @R15+,R8        ;
 5162                                 M           POP_REG1        R7      ;
 5163                                 M                                   ; RE"+4" 00,00,00,04
 5164 000001DA 67F6                   M           MOV.L   @R15+,R7        ;
 5165                                 M           POP_REG1        R6      ;
 5166                                 M                                   ; RE"+4" 00,00,00,04
 5167 000001DC 66F6                   M           MOV.L   @R15+,R6        ;
 5168                                 M           POP_REG1        R5      ;
 5169                                 M                                   ; RE"+4" 00,00,00,04
 5170 000001DE 65F6                   M           MOV.L   @R15+,R5        ;
 5171                                 M           POP_REG1        R4      ;
 5172                                 M                                   ; RE"+4" 00,00,00,04
 5173 000001E0 64F6                   M           MOV.L   @R15+,R4        ;
*** SuperH RISC engine ASSEMBLER V.7.01.02.000 ***    07/04/21 19:29:06                                                  PAGE    15
PROGRAM NAME =

 5174                                 M           POP_REG1        R3      ;
 5175                                 M                                   ; RE"+4" 00,00,00,04
 5176 000001E2 63F6                   M           MOV.L   @R15+,R3        ;
 5177                                 M           POP_REG1        R2      ;
 5178                                 M                                   ; RE"+4" 00,00,00,04
 5179 000001E4 62F6                   M           MOV.L   @R15+,R2        ;
 5180                                 M           POP_REG1        R1      ;
 5181                                 M                                   ; RE"+4" 00,00,00,04
 5182 000001E6 61F6                   M           MOV.L   @R15+,R1        ;
 5183                                 M           POP_REG1        R0      ;
 5184                                 M                                   ; RE"+4" 00,00,00,04
 5185 000001E8 60F6                   M           MOV.L   @R15+,R0        ;
 5186                             253             SUB_END
 5187                                 M   ;;;;;;; ADD     #4,R15                  ;[不要?]
 5188 000001EA 4F26                   M           LDS.L   @R15+,PR                ;[必要]
 5189                             254             M_RTS
 5190 000001EC 000B                   M           RTS                             ;RTSの後ろの
 5191 000001EE 0009                   M           NOP                             ;@R15+,PRはﾀﾞﾒ
 5192                             255     
 5193                             256     
 5194                             257     ;H'620 IRQ1
 5195                                     ***** BEGIN-POOL *****
 5196 000001F0 0001                       DATA FOR SOURCE-LINE 247
 5197 000001F2 0000                       ALIGNMENT CODE
 5198 000001F4 00000000                   DATA FOR SOURCE-LINE 245
 5199                                     ***** END-POOL *****
 5200 000001F8                    258     _INT_CALL_IRQ1
 5201                             259             SUB_START
 5202 000001F8 4F22                   M           STS.L   PR,@-R15                ;[必要]
 5203                                 M   ;;;;;;; ADD     #-4,R15                 ;[不要?]
 5204                             260             PUSH_ALL
 5205                                 M           PUSH_REG1       R0      ;
 5206 000001FA 2F06                   M           MOV.L   R0,@-R15                ;PUSH=SP-4
 5207                                 M                                           ;REG=>[SP]
 5208                                 M                                           ;"-4" FF,FF,FF,FC
 5209                                 M           PUSH_REG1       R1      ;
 5210 000001FC 2F16                   M           MOV.L   R1,@-R15                ;PUSH=SP-4
 5211                                 M                                           ;REG=>[SP]
 5212                                 M                                           ;"-4" FF,FF,FF,FC
 5213                                 M           PUSH_REG1       R2      ;
 5214 000001FE 2F26                   M           MOV.L   R2,@-R15                ;PUSH=SP-4
 5215                                 M                                           ;REG=>[SP]
 5216                                 M                                           ;"-4" FF,FF,FF,FC
 5217                                 M           PUSH_REG1       R3      ;
 5218 00000200 2F36                   M           MOV.L   R3,@-R15                ;PUSH=SP-4
 5219                                 M                                           ;REG=>[SP]
 5220                                 M                                           ;"-4" FF,FF,FF,FC
 5221                                 M           PUSH_REG1       R4      ;
 5222 00000202 2F46                   M           MOV.L   R4,@-R15                ;PUSH=SP-4
 5223                                 M                                           ;REG=>[SP]
 5224                                 M                                           ;"-4" FF,FF,FF,FC
 5225                                 M           PUSH_REG1       R5      ;
 5226 00000204 2F56                   M           MOV.L   R5,@-R15                ;PUSH=SP-4
 5227                                 M                                           ;REG=>[SP]
 5228                                 M                                           ;"-4" FF,FF,FF,FC
 5229                                 M           PUSH_REG1       R6      ;
 5230 00000206 2F66                   M           MOV.L   R6,@-R15                ;PUSH=SP-4
*** SuperH RISC engine ASSEMBLER V.7.01.02.000 ***    07/04/21 19:29:06                                                  PAGE    16
PROGRAM NAME =

 5231                                 M                                           ;REG=>[SP]
 5232                                 M                                           ;"-4" FF,FF,FF,FC
 5233                                 M           PUSH_REG1       R7      ;
 5234 00000208 2F76                   M           MOV.L   R7,@-R15                ;PUSH=SP-4
 5235                                 M                                           ;REG=>[SP]
 5236                                 M                                           ;"-4" FF,FF,FF,FC
 5237                                 M           PUSH_REG1       R8      ;
 5238 0000020A 2F86                   M           MOV.L   R8,@-R15                ;PUSH=SP-4
 5239                                 M                                           ;REG=>[SP]
 5240                                 M                                           ;"-4" FF,FF,FF,FC
 5241                                 M           PUSH_REG1       R9      ;
 5242 0000020C 2F96                   M           MOV.L   R9,@-R15                ;PUSH=SP-4
 5243                                 M                                           ;REG=>[SP]
 5244                                 M                                           ;"-4" FF,FF,FF,FC
 5245                                 M           PUSH_REG1       R10     ;
 5246 0000020E 2FA6                   M           MOV.L   R10,@-R15               ;PUSH=SP-4
 5247                                 M                                           ;REG=>[SP]
 5248                                 M                                           ;"-4" FF,FF,FF,FC
 5249                                 M           PUSH_REG1       R11     ;
 5250 00000210 2FB6                   M           MOV.L   R11,@-R15               ;PUSH=SP-4
 5251                                 M                                           ;REG=>[SP]
 5252                                 M                                           ;"-4" FF,FF,FF,FC
 5253                                 M           PUSH_REG1       R12     ;
 5254 00000212 2FC6                   M           MOV.L   R12,@-R15               ;PUSH=SP-4
 5255                                 M                                           ;REG=>[SP]
 5256                                 M                                           ;"-4" FF,FF,FF,FC
 5257                                 M           PUSH_REG1       R13     ;
 5258 00000214 2FD6                   M           MOV.L   R13,@-R15               ;PUSH=SP-4
 5259                                 M                                           ;REG=>[SP]
 5260                                 M                                           ;"-4" FF,FF,FF,FC
 5261                                 M           PUSH_REG1       R14     ;
 5262 00000216 2FE6                   M           MOV.L   R14,@-R15               ;PUSH=SP-4
 5263                                 M                                           ;REG=>[SP]
 5264                                 M                                           ;"-4" FF,FF,FF,FC
 5265                                 M           PUSH_MACHL              ;
 5266 00000218 4F02                   M           STS.L   MACH,@-R15
 5267 0000021A 4F12                   M           STS.L   MACL,@-R15
 5268                                 M           PUSH_SYS_REG    GBR     ;
 5269 0000021C 4F13                   M           STC.L   GBR,@-R15
 5270                                 M           .AIF    3 EQ 3
 5271                                             .AELSE
 5272                                             PUSH_FPU_ALL            ;2001-07-08
 5273                                             .AENDI
 5274                             261     
 5275                             262     
 5276                             263     
 5277 0000021E D10E               264             MOV.L   #_IRR0,R1
 5278 00000220 6010               265             MOV.B   @R1,R0
 5279 00000222 9217               266             MOV.W   #BIT1,R2                ;IRQ1=BIT6 MISSだけど、実行すればｸﾘｱだからこれは本
                                          来不要
 5280 00000224 6227               267             NOT     R2,R2
 5281 00000226 2029               268             AND     R2,R0
 5282 00000228 2100               269             MOV.B   R0,@R1
 5283                             270     
 5284                             271     
 5285                             272             POP_ALL
 5286                                 M           .AIF    3 EQ 3
*** SuperH RISC engine ASSEMBLER V.7.01.02.000 ***    07/04/21 19:29:06                                                  PAGE    17
PROGRAM NAME =

 5287                                             .AELSE
 5288                                             POP_FPU_ALL             ;2001-07-08
 5289                                             .AENDI
 5290                                 M           POP_SYS_REG     GBR     ;
 5291 0000022A 4F17                   M           LDC.L   @R15+,GBR
 5292                                 M           POP_MACHL               ;
 5293 0000022C 4F16                   M           LDS.L   @R15+,MACL
 5294 0000022E 4F06                   M           LDS.L   @R15+,MACH
 5295                                 M           POP_REG1        R14     ;
 5296                                 M                                   ; RE"+4" 00,00,00,04
 5297 00000230 6EF6                   M           MOV.L   @R15+,R14        ;
 5298                                 M           POP_REG1        R13     ;
 5299                                 M                                   ; RE"+4" 00,00,00,04
 5300 00000232 6DF6                   M           MOV.L   @R15+,R13        ;
 5301                                 M           POP_REG1        R12     ;
 5302                                 M                                   ; RE"+4" 00,00,00,04
 5303 00000234 6CF6                   M           MOV.L   @R15+,R12        ;
 5304                                 M           POP_REG1        R11     ;
 5305                                 M                                   ; RE"+4" 00,00,00,04
 5306 00000236 6BF6                   M           MOV.L   @R15+,R11        ;
 5307                                 M           POP_REG1        R10     ;
 5308                                 M                                   ; RE"+4" 00,00,00,04
 5309 00000238 6AF6                   M           MOV.L   @R15+,R10        ;
 5310                                 M           POP_REG1        R9      ;
 5311                                 M                                   ; RE"+4" 00,00,00,04
 5312 0000023A 69F6                   M           MOV.L   @R15+,R9        ;
 5313                                 M           POP_REG1        R8      ;
 5314                                 M                                   ; RE"+4" 00,00,00,04
 5315 0000023C 68F6                   M           MOV.L   @R15+,R8        ;
 5316                                 M           POP_REG1        R7      ;
 5317                                 M                                   ; RE"+4" 00,00,00,04
 5318 0000023E 67F6                   M           MOV.L   @R15+,R7        ;
 5319                                 M           POP_REG1        R6      ;
 5320                                 M                                   ; RE"+4" 00,00,00,04
 5321 00000240 66F6                   M           MOV.L   @R15+,R6        ;
 5322                                 M           POP_REG1        R5      ;
 5323                                 M                                   ; RE"+4" 00,00,00,04
 5324 00000242 65F6                   M           MOV.L   @R15+,R5        ;
 5325                                 M           POP_REG1        R4      ;
 5326                                 M                                   ; RE"+4" 00,00,00,04
 5327 00000244 64F6                   M           MOV.L   @R15+,R4        ;
 5328                                 M           POP_REG1        R3      ;
 5329                                 M                                   ; RE"+4" 00,00,00,04
 5330 00000246 63F6                   M           MOV.L   @R15+,R3        ;
 5331                                 M           POP_REG1        R2      ;
 5332                                 M                                   ; RE"+4" 00,00,00,04
 5333 00000248 62F6                   M           MOV.L   @R15+,R2        ;
 5334                                 M           POP_REG1        R1      ;
 5335                                 M                                   ; RE"+4" 00,00,00,04
 5336 0000024A 61F6                   M           MOV.L   @R15+,R1        ;
 5337                                 M           POP_REG1        R0      ;
 5338                                 M                                   ; RE"+4" 00,00,00,04
 5339 0000024C 60F6                   M           MOV.L   @R15+,R0        ;
 5340                             273             SUB_END
 5341                                 M   ;;;;;;; ADD     #4,R15                  ;[不要?]
 5342 0000024E 4F26                   M           LDS.L   @R15+,PR                ;[必要]
 5343                             274             M_RTS
*** SuperH RISC engine ASSEMBLER V.7.01.02.000 ***    07/04/21 19:29:06                                                  PAGE    18
PROGRAM NAME =

 5344 00000250 000B                   M           RTS                             ;RTSの後ろの
 5345 00000252 0009                   M           NOP                             ;@R15+,PRはﾀﾞﾒ
 5346                             275     
 5347                             276     
 5348                             277     ;       === DP_INT(未使用) =====
 5349                             278     ;H'640 IRQ2
 5350                                     ***** BEGIN-POOL *****
 5351 00000254 0002                       DATA FOR SOURCE-LINE 266
 5352 00000256 0000                       ALIGNMENT CODE
 5353 00000258 00000000                   DATA FOR SOURCE-LINE 264
 5354                                     ***** END-POOL *****
 5355 0000025C                    279     _INT_CALL_IRQ2
 5356                             280             SUB_START
 5357 0000025C 4F22                   M           STS.L   PR,@-R15                ;[必要]
 5358                                 M   ;;;;;;; ADD     #-4,R15                 ;[不要?]
 5359                             281             PUSH_ALL
 5360                                 M           PUSH_REG1       R0      ;
 5361 0000025E 2F06                   M           MOV.L   R0,@-R15                ;PUSH=SP-4
 5362                                 M                                           ;REG=>[SP]
 5363                                 M                                           ;"-4" FF,FF,FF,FC
 5364                                 M           PUSH_REG1       R1      ;
 5365 00000260 2F16                   M           MOV.L   R1,@-R15                ;PUSH=SP-4
 5366                                 M                                           ;REG=>[SP]
 5367                                 M                                           ;"-4" FF,FF,FF,FC
 5368                                 M           PUSH_REG1       R2      ;
 5369 00000262 2F26                   M           MOV.L   R2,@-R15                ;PUSH=SP-4
 5370                                 M                                           ;REG=>[SP]
 5371                                 M                                           ;"-4" FF,FF,FF,FC
 5372                                 M           PUSH_REG1       R3      ;
 5373 00000264 2F36                   M           MOV.L   R3,@-R15                ;PUSH=SP-4
 5374                                 M                                           ;REG=>[SP]
 5375                                 M                                           ;"-4" FF,FF,FF,FC
 5376                                 M           PUSH_REG1       R4      ;
 5377 00000266 2F46                   M           MOV.L   R4,@-R15                ;PUSH=SP-4
 5378                                 M                                           ;REG=>[SP]
 5379                                 M                                           ;"-4" FF,FF,FF,FC
 5380                                 M           PUSH_REG1       R5      ;
 5381 00000268 2F56                   M           MOV.L   R5,@-R15                ;PUSH=SP-4
 5382                                 M                                           ;REG=>[SP]
 5383                                 M                                           ;"-4" FF,FF,FF,FC
 5384                                 M           PUSH_REG1       R6      ;
 5385 0000026A 2F66                   M           MOV.L   R6,@-R15                ;PUSH=SP-4
 5386                                 M                                           ;REG=>[SP]
 5387                                 M                                           ;"-4" FF,FF,FF,FC
 5388                                 M           PUSH_REG1       R7      ;
 5389 0000026C 2F76                   M           MOV.L   R7,@-R15                ;PUSH=SP-4
 5390                                 M                                           ;REG=>[SP]
 5391                                 M                                           ;"-4" FF,FF,FF,FC
 5392                                 M           PUSH_REG1       R8      ;
 5393 0000026E 2F86                   M           MOV.L   R8,@-R15                ;PUSH=SP-4
 5394                                 M                                           ;REG=>[SP]
 5395                                 M                                           ;"-4" FF,FF,FF,FC
 5396                                 M           PUSH_REG1       R9      ;
 5397 00000270 2F96                   M           MOV.L   R9,@-R15                ;PUSH=SP-4
 5398                                 M                                           ;REG=>[SP]
 5399                                 M                                           ;"-4" FF,FF,FF,FC
 5400                                 M           PUSH_REG1       R10     ;
*** SuperH RISC engine ASSEMBLER V.7.01.02.000 ***    07/04/21 19:29:06                                                  PAGE    19
PROGRAM NAME =

 5401 00000272 2FA6                   M           MOV.L   R10,@-R15               ;PUSH=SP-4
 5402                                 M                                           ;REG=>[SP]
 5403                                 M                                           ;"-4" FF,FF,FF,FC
 5404                                 M           PUSH_REG1       R11     ;
 5405 00000274 2FB6                   M           MOV.L   R11,@-R15               ;PUSH=SP-4
 5406                                 M                                           ;REG=>[SP]
 5407                                 M                                           ;"-4" FF,FF,FF,FC
 5408                                 M           PUSH_REG1       R12     ;
 5409 00000276 2FC6                   M           MOV.L   R12,@-R15               ;PUSH=SP-4
 5410                                 M                                           ;REG=>[SP]
 5411                                 M                                           ;"-4" FF,FF,FF,FC
 5412                                 M           PUSH_REG1       R13     ;
 5413 00000278 2FD6                   M           MOV.L   R13,@-R15               ;PUSH=SP-4
 5414                                 M                                           ;REG=>[SP]
 5415                                 M                                           ;"-4" FF,FF,FF,FC
 5416                                 M           PUSH_REG1       R14     ;
 5417 0000027A 2FE6                   M           MOV.L   R14,@-R15               ;PUSH=SP-4
 5418                                 M                                           ;REG=>[SP]
 5419                                 M                                           ;"-4" FF,FF,FF,FC
 5420                                 M           PUSH_MACHL              ;
 5421 0000027C 4F02                   M           STS.L   MACH,@-R15
 5422 0000027E 4F12                   M           STS.L   MACL,@-R15
 5423                                 M           PUSH_SYS_REG    GBR     ;
 5424 00000280 4F13                   M           STC.L   GBR,@-R15
 5425                                 M           .AIF    3 EQ 3
 5426                                             .AELSE
 5427                                             PUSH_FPU_ALL            ;2001-07-08
 5428                                             .AENDI
 5429 00000282 D10E               282             MOV.L   #_IRR0,R1
 5430 00000284 6010               283             MOV.B   @R1,R0
 5431 00000286 9217               284             MOV.W   #BIT2,R2
 5432 00000288 6227               285             NOT     R2,R2
 5433 0000028A 2029               286             AND     R2,R0
 5434 0000028C 2100               287             MOV.B   R0,@R1
 5435                             288     
 5436                             289             POP_ALL
 5437                                 M           .AIF    3 EQ 3
 5438                                             .AELSE
 5439                                             POP_FPU_ALL             ;2001-07-08
 5440                                             .AENDI
 5441                                 M           POP_SYS_REG     GBR     ;
 5442 0000028E 4F17                   M           LDC.L   @R15+,GBR
 5443                                 M           POP_MACHL               ;
 5444 00000290 4F16                   M           LDS.L   @R15+,MACL
 5445 00000292 4F06                   M           LDS.L   @R15+,MACH
 5446                                 M           POP_REG1        R14     ;
 5447                                 M                                   ; RE"+4" 00,00,00,04
 5448 00000294 6EF6                   M           MOV.L   @R15+,R14        ;
 5449                                 M           POP_REG1        R13     ;
 5450                                 M                                   ; RE"+4" 00,00,00,04
 5451 00000296 6DF6                   M           MOV.L   @R15+,R13        ;
 5452                                 M           POP_REG1        R12     ;
 5453                                 M                                   ; RE"+4" 00,00,00,04
 5454 00000298 6CF6                   M           MOV.L   @R15+,R12        ;
 5455                                 M           POP_REG1        R11     ;
 5456                                 M                                   ; RE"+4" 00,00,00,04
 5457 0000029A 6BF6                   M           MOV.L   @R15+,R11        ;
*** SuperH RISC engine ASSEMBLER V.7.01.02.000 ***    07/04/21 19:29:06                                                  PAGE    20
PROGRAM NAME =

 5458                                 M           POP_REG1        R10     ;
 5459                                 M                                   ; RE"+4" 00,00,00,04
 5460 0000029C 6AF6                   M           MOV.L   @R15+,R10        ;
 5461                                 M           POP_REG1        R9      ;
 5462                                 M                                   ; RE"+4" 00,00,00,04
 5463 0000029E 69F6                   M           MOV.L   @R15+,R9        ;
 5464                                 M           POP_REG1        R8      ;
 5465                                 M                                   ; RE"+4" 00,00,00,04
 5466 000002A0 68F6                   M           MOV.L   @R15+,R8        ;
 5467                                 M           POP_REG1        R7      ;
 5468                                 M                                   ; RE"+4" 00,00,00,04
 5469 000002A2 67F6                   M           MOV.L   @R15+,R7        ;
 5470                                 M           POP_REG1        R6      ;
 5471                                 M                                   ; RE"+4" 00,00,00,04
 5472 000002A4 66F6                   M           MOV.L   @R15+,R6        ;
 5473                                 M           POP_REG1        R5      ;
 5474                                 M                                   ; RE"+4" 00,00,00,04
 5475 000002A6 65F6                   M           MOV.L   @R15+,R5        ;
 5476                                 M           POP_REG1        R4      ;
 5477                                 M                                   ; RE"+4" 00,00,00,04
 5478 000002A8 64F6                   M           MOV.L   @R15+,R4        ;
 5479                                 M           POP_REG1        R3      ;
 5480                                 M                                   ; RE"+4" 00,00,00,04
 5481 000002AA 63F6                   M           MOV.L   @R15+,R3        ;
 5482                                 M           POP_REG1        R2      ;
 5483                                 M                                   ; RE"+4" 00,00,00,04
 5484 000002AC 62F6                   M           MOV.L   @R15+,R2        ;
 5485                                 M           POP_REG1        R1      ;
 5486                                 M                                   ; RE"+4" 00,00,00,04
 5487 000002AE 61F6                   M           MOV.L   @R15+,R1        ;
 5488                                 M           POP_REG1        R0      ;
 5489                                 M                                   ; RE"+4" 00,00,00,04
 5490 000002B0 60F6                   M           MOV.L   @R15+,R0        ;
 5491                             290             SUB_END
 5492                                 M   ;;;;;;; ADD     #4,R15                  ;[不要?]
 5493 000002B2 4F26                   M           LDS.L   @R15+,PR                ;[必要]
 5494                             291             M_RTS
 5495 000002B4 000B                   M           RTS                             ;RTSの後ろの
 5496 000002B6 0009                   M           NOP                             ;@R15+,PRはﾀﾞﾒ
 5497                             292     
 5498                             293     
 5499                             294     ;       === ACTB =====
 5500                             295     ;H'660 IRQ3
 5501                                     ***** BEGIN-POOL *****
 5502 000002B8 0004                       DATA FOR SOURCE-LINE 284
 5503 000002BA 0000                       ALIGNMENT CODE
 5504 000002BC 00000000                   DATA FOR SOURCE-LINE 282
 5505                                     ***** END-POOL *****
 5506 000002C0                    296     _INT_CALL_IRQ3
 5507                             297             SUB_START
 5508 000002C0 4F22                   M           STS.L   PR,@-R15                ;[必要]
 5509                                 M   ;;;;;;; ADD     #-4,R15                 ;[不要?]
 5510                             298             PUSH_ALL
 5511                                 M           PUSH_REG1       R0      ;
 5512 000002C2 2F06                   M           MOV.L   R0,@-R15                ;PUSH=SP-4
 5513                                 M                                           ;REG=>[SP]
 5514                                 M                                           ;"-4" FF,FF,FF,FC
*** SuperH RISC engine ASSEMBLER V.7.01.02.000 ***    07/04/21 19:29:06                                                  PAGE    21
PROGRAM NAME =

 5515                                 M           PUSH_REG1       R1      ;
 5516 000002C4 2F16                   M           MOV.L   R1,@-R15                ;PUSH=SP-4
 5517                                 M                                           ;REG=>[SP]
 5518                                 M                                           ;"-4" FF,FF,FF,FC
 5519                                 M           PUSH_REG1       R2      ;
 5520 000002C6 2F26                   M           MOV.L   R2,@-R15                ;PUSH=SP-4
 5521                                 M                                           ;REG=>[SP]
 5522                                 M                                           ;"-4" FF,FF,FF,FC
 5523                                 M           PUSH_REG1       R3      ;
 5524 000002C8 2F36                   M           MOV.L   R3,@-R15                ;PUSH=SP-4
 5525                                 M                                           ;REG=>[SP]
 5526                                 M                                           ;"-4" FF,FF,FF,FC
 5527                                 M           PUSH_REG1       R4      ;
 5528 000002CA 2F46                   M           MOV.L   R4,@-R15                ;PUSH=SP-4
 5529                                 M                                           ;REG=>[SP]
 5530                                 M                                           ;"-4" FF,FF,FF,FC
 5531                                 M           PUSH_REG1       R5      ;
 5532 000002CC 2F56                   M           MOV.L   R5,@-R15                ;PUSH=SP-4
 5533                                 M                                           ;REG=>[SP]
 5534                                 M                                           ;"-4" FF,FF,FF,FC
 5535                                 M           PUSH_REG1       R6      ;
 5536 000002CE 2F66                   M           MOV.L   R6,@-R15                ;PUSH=SP-4
 5537                                 M                                           ;REG=>[SP]
 5538                                 M                                           ;"-4" FF,FF,FF,FC
 5539                                 M           PUSH_REG1       R7      ;
 5540 000002D0 2F76                   M           MOV.L   R7,@-R15                ;PUSH=SP-4
 5541                                 M                                           ;REG=>[SP]
 5542                                 M                                           ;"-4" FF,FF,FF,FC
 5543                                 M           PUSH_REG1       R8      ;
 5544 000002D2 2F86                   M           MOV.L   R8,@-R15                ;PUSH=SP-4
 5545                                 M                                           ;REG=>[SP]
 5546                                 M                                           ;"-4" FF,FF,FF,FC
 5547                                 M           PUSH_REG1       R9      ;
 5548 000002D4 2F96                   M           MOV.L   R9,@-R15                ;PUSH=SP-4
 5549                                 M                                           ;REG=>[SP]
 5550                                 M                                           ;"-4" FF,FF,FF,FC
 5551                                 M           PUSH_REG1       R10     ;
 5552 000002D6 2FA6                   M           MOV.L   R10,@-R15               ;PUSH=SP-4
 5553                                 M                                           ;REG=>[SP]
 5554                                 M                                           ;"-4" FF,FF,FF,FC
 5555                                 M           PUSH_REG1       R11     ;
 5556 000002D8 2FB6                   M           MOV.L   R11,@-R15               ;PUSH=SP-4
 5557                                 M                                           ;REG=>[SP]
 5558                                 M                                           ;"-4" FF,FF,FF,FC
 5559                                 M           PUSH_REG1       R12     ;
 5560 000002DA 2FC6                   M           MOV.L   R12,@-R15               ;PUSH=SP-4
 5561                                 M                                           ;REG=>[SP]
 5562                                 M                                           ;"-4" FF,FF,FF,FC
 5563                                 M           PUSH_REG1       R13     ;
 5564 000002DC 2FD6                   M           MOV.L   R13,@-R15               ;PUSH=SP-4
 5565                                 M                                           ;REG=>[SP]
 5566                                 M                                           ;"-4" FF,FF,FF,FC
 5567                                 M           PUSH_REG1       R14     ;
 5568 000002DE 2FE6                   M           MOV.L   R14,@-R15               ;PUSH=SP-4
 5569                                 M                                           ;REG=>[SP]
 5570                                 M                                           ;"-4" FF,FF,FF,FC
 5571                                 M           PUSH_MACHL              ;
*** SuperH RISC engine ASSEMBLER V.7.01.02.000 ***    07/04/21 19:29:06                                                  PAGE    22
PROGRAM NAME =

 5572 000002E0 4F02                   M           STS.L   MACH,@-R15
 5573 000002E2 4F12                   M           STS.L   MACL,@-R15
 5574                                 M           PUSH_SYS_REG    GBR     ;
 5575 000002E4 4F13                   M           STC.L   GBR,@-R15
 5576                                 M           .AIF    3 EQ 3
 5577                                             .AELSE
 5578                                             PUSH_FPU_ALL            ;2001-07-08
 5579                                             .AENDI
 5580                             299     
 5581                             300     
 5582 000002E6 D10E               301             MOV.L   #_IRR0,R1
 5583 000002E8 6010               302             MOV.B   @R1,R0
 5584 000002EA 9217               303             MOV.W   #BIT3,R2
 5585 000002EC 6227               304             NOT     R2,R2
 5586 000002EE 2029               305             AND     R2,R0
 5587 000002F0 2100               306             MOV.B   R0,@R1
 5588                             307     
 5589                             308             POP_ALL
 5590                                 M           .AIF    3 EQ 3
 5591                                             .AELSE
 5592                                             POP_FPU_ALL             ;2001-07-08
 5593                                             .AENDI
 5594                                 M           POP_SYS_REG     GBR     ;
 5595 000002F2 4F17                   M           LDC.L   @R15+,GBR
 5596                                 M           POP_MACHL               ;
 5597 000002F4 4F16                   M           LDS.L   @R15+,MACL
 5598 000002F6 4F06                   M           LDS.L   @R15+,MACH
 5599                                 M           POP_REG1        R14     ;
 5600                                 M                                   ; RE"+4" 00,00,00,04
 5601 000002F8 6EF6                   M           MOV.L   @R15+,R14        ;
 5602                                 M           POP_REG1        R13     ;
 5603                                 M                                   ; RE"+4" 00,00,00,04
 5604 000002FA 6DF6                   M           MOV.L   @R15+,R13        ;
 5605                                 M           POP_REG1        R12     ;
 5606                                 M                                   ; RE"+4" 00,00,00,04
 5607 000002FC 6CF6                   M           MOV.L   @R15+,R12        ;
 5608                                 M           POP_REG1        R11     ;
 5609                                 M                                   ; RE"+4" 00,00,00,04
 5610 000002FE 6BF6                   M           MOV.L   @R15+,R11        ;
 5611                                 M           POP_REG1        R10     ;
 5612                                 M                                   ; RE"+4" 00,00,00,04
 5613 00000300 6AF6                   M           MOV.L   @R15+,R10        ;
 5614                                 M           POP_REG1        R9      ;
 5615                                 M                                   ; RE"+4" 00,00,00,04
 5616 00000302 69F6                   M           MOV.L   @R15+,R9        ;
 5617                                 M           POP_REG1        R8      ;
 5618                                 M                                   ; RE"+4" 00,00,00,04
 5619 00000304 68F6                   M           MOV.L   @R15+,R8        ;
 5620                                 M           POP_REG1        R7      ;
 5621                                 M                                   ; RE"+4" 00,00,00,04
 5622 00000306 67F6                   M           MOV.L   @R15+,R7        ;
 5623                                 M           POP_REG1        R6      ;
 5624                                 M                                   ; RE"+4" 00,00,00,04
 5625 00000308 66F6                   M           MOV.L   @R15+,R6        ;
 5626                                 M           POP_REG1        R5      ;
 5627                                 M                                   ; RE"+4" 00,00,00,04
 5628 0000030A 65F6                   M           MOV.L   @R15+,R5        ;
*** SuperH RISC engine ASSEMBLER V.7.01.02.000 ***    07/04/21 19:29:06                                                  PAGE    23
PROGRAM NAME =

 5629                                 M           POP_REG1        R4      ;
 5630                                 M                                   ; RE"+4" 00,00,00,04
 5631 0000030C 64F6                   M           MOV.L   @R15+,R4        ;
 5632                                 M           POP_REG1        R3      ;
 5633                                 M                                   ; RE"+4" 00,00,00,04
 5634 0000030E 63F6                   M           MOV.L   @R15+,R3        ;
 5635                                 M           POP_REG1        R2      ;
 5636                                 M                                   ; RE"+4" 00,00,00,04
 5637 00000310 62F6                   M           MOV.L   @R15+,R2        ;
 5638                                 M           POP_REG1        R1      ;
 5639                                 M                                   ; RE"+4" 00,00,00,04
 5640 00000312 61F6                   M           MOV.L   @R15+,R1        ;
 5641                                 M           POP_REG1        R0      ;
 5642                                 M                                   ; RE"+4" 00,00,00,04
 5643 00000314 60F6                   M           MOV.L   @R15+,R0        ;
 5644                             309             SUB_END
 5645                                 M   ;;;;;;; ADD     #4,R15                  ;[不要?]
 5646 00000316 4F26                   M           LDS.L   @R15+,PR                ;[必要]
 5647                             310             M_RTS
 5648 00000318 000B                   M           RTS                             ;RTSの後ろの
 5649 0000031A 0009                   M           NOP                             ;@R15+,PRはﾀﾞﾒ
 5650                             311     
 5651                             312     
 5652                             313     ;       === STPX =====
 5653                             314     ;H'680 IRQ4
 5654                                     ***** BEGIN-POOL *****
 5655 0000031C 0008                       DATA FOR SOURCE-LINE 303
 5656 0000031E 0000                       ALIGNMENT CODE
 5657 00000320 00000000                   DATA FOR SOURCE-LINE 301
 5658                                     ***** END-POOL *****
 5659 00000324                    315     _INT_CALL_IRQ4
 5660                             316             SUB_START
 5661 00000324 4F22                   M           STS.L   PR,@-R15                ;[必要]
 5662                                 M   ;;;;;;; ADD     #-4,R15                 ;[不要?]
 5663                             317             PUSH_ALL
 5664                                 M           PUSH_REG1       R0      ;
 5665 00000326 2F06                   M           MOV.L   R0,@-R15                ;PUSH=SP-4
 5666                                 M                                           ;REG=>[SP]
 5667                                 M                                           ;"-4" FF,FF,FF,FC
 5668                                 M           PUSH_REG1       R1      ;
 5669 00000328 2F16                   M           MOV.L   R1,@-R15                ;PUSH=SP-4
 5670                                 M                                           ;REG=>[SP]
 5671                                 M                                           ;"-4" FF,FF,FF,FC
 5672                                 M           PUSH_REG1       R2      ;
 5673 0000032A 2F26                   M           MOV.L   R2,@-R15                ;PUSH=SP-4
 5674                                 M                                           ;REG=>[SP]
 5675                                 M                                           ;"-4" FF,FF,FF,FC
 5676                                 M           PUSH_REG1       R3      ;
 5677 0000032C 2F36                   M           MOV.L   R3,@-R15                ;PUSH=SP-4
 5678                                 M                                           ;REG=>[SP]
 5679                                 M                                           ;"-4" FF,FF,FF,FC
 5680                                 M           PUSH_REG1       R4      ;
 5681 0000032E 2F46                   M           MOV.L   R4,@-R15                ;PUSH=SP-4
 5682                                 M                                           ;REG=>[SP]
 5683                                 M                                           ;"-4" FF,FF,FF,FC
 5684                                 M           PUSH_REG1       R5      ;
 5685 00000330 2F56                   M           MOV.L   R5,@-R15                ;PUSH=SP-4
*** SuperH RISC engine ASSEMBLER V.7.01.02.000 ***    07/04/21 19:29:06                                                  PAGE    24
PROGRAM NAME =

 5686                                 M                                           ;REG=>[SP]
 5687                                 M                                           ;"-4" FF,FF,FF,FC
 5688                                 M           PUSH_REG1       R6      ;
 5689 00000332 2F66                   M           MOV.L   R6,@-R15                ;PUSH=SP-4
 5690                                 M                                           ;REG=>[SP]
 5691                                 M                                           ;"-4" FF,FF,FF,FC
 5692                                 M           PUSH_REG1       R7      ;
 5693 00000334 2F76                   M           MOV.L   R7,@-R15                ;PUSH=SP-4
 5694                                 M                                           ;REG=>[SP]
 5695                                 M                                           ;"-4" FF,FF,FF,FC
 5696                                 M           PUSH_REG1       R8      ;
 5697 00000336 2F86                   M           MOV.L   R8,@-R15                ;PUSH=SP-4
 5698                                 M                                           ;REG=>[SP]
 5699                                 M                                           ;"-4" FF,FF,FF,FC
 5700                                 M           PUSH_REG1       R9      ;
 5701 00000338 2F96                   M           MOV.L   R9,@-R15                ;PUSH=SP-4
 5702                                 M                                           ;REG=>[SP]
 5703                                 M                                           ;"-4" FF,FF,FF,FC
 5704                                 M           PUSH_REG1       R10     ;
 5705 0000033A 2FA6                   M           MOV.L   R10,@-R15               ;PUSH=SP-4
 5706                                 M                                           ;REG=>[SP]
 5707                                 M                                           ;"-4" FF,FF,FF,FC
 5708                                 M           PUSH_REG1       R11     ;
 5709 0000033C 2FB6                   M           MOV.L   R11,@-R15               ;PUSH=SP-4
 5710                                 M                                           ;REG=>[SP]
 5711                                 M                                           ;"-4" FF,FF,FF,FC
 5712                                 M           PUSH_REG1       R12     ;
 5713 0000033E 2FC6                   M           MOV.L   R12,@-R15               ;PUSH=SP-4
 5714                                 M                                           ;REG=>[SP]
 5715                                 M                                           ;"-4" FF,FF,FF,FC
 5716                                 M           PUSH_REG1       R13     ;
 5717 00000340 2FD6                   M           MOV.L   R13,@-R15               ;PUSH=SP-4
 5718                                 M                                           ;REG=>[SP]
 5719                                 M                                           ;"-4" FF,FF,FF,FC
 5720                                 M           PUSH_REG1       R14     ;
 5721 00000342 2FE6                   M           MOV.L   R14,@-R15               ;PUSH=SP-4
 5722                                 M                                           ;REG=>[SP]
 5723                                 M                                           ;"-4" FF,FF,FF,FC
 5724                                 M           PUSH_MACHL              ;
 5725 00000344 4F02                   M           STS.L   MACH,@-R15
 5726 00000346 4F12                   M           STS.L   MACL,@-R15
 5727                                 M           PUSH_SYS_REG    GBR     ;
 5728 00000348 4F13                   M           STC.L   GBR,@-R15
 5729                                 M           .AIF    3 EQ 3
 5730                                             .AELSE
 5731                                             PUSH_FPU_ALL            ;2001-07-08
 5732                                             .AENDI
 5733                             318     
 5734 0000034A D10E               319             MOV.L   #_IRR0,R1
 5735 0000034C 6010               320             MOV.B   @R1,R0
 5736 0000034E 9217               321             MOV.W   #BIT4,R2
 5737 00000350 6227               322             NOT     R2,R2
 5738 00000352 2029               323             AND     R2,R0
 5739 00000354 2100               324             MOV.B   R0,@R1
 5740                             325     
 5741                             326             POP_ALL
 5742                                 M           .AIF    3 EQ 3
*** SuperH RISC engine ASSEMBLER V.7.01.02.000 ***    07/04/21 19:29:06                                                  PAGE    25
PROGRAM NAME =

 5743                                             .AELSE
 5744                                             POP_FPU_ALL             ;2001-07-08
 5745                                             .AENDI
 5746                                 M           POP_SYS_REG     GBR     ;
 5747 00000356 4F17                   M           LDC.L   @R15+,GBR
 5748                                 M           POP_MACHL               ;
 5749 00000358 4F16                   M           LDS.L   @R15+,MACL
 5750 0000035A 4F06                   M           LDS.L   @R15+,MACH
 5751                                 M           POP_REG1        R14     ;
 5752                                 M                                   ; RE"+4" 00,00,00,04
 5753 0000035C 6EF6                   M           MOV.L   @R15+,R14        ;
 5754                                 M           POP_REG1        R13     ;
 5755                                 M                                   ; RE"+4" 00,00,00,04
 5756 0000035E 6DF6                   M           MOV.L   @R15+,R13        ;
 5757                                 M           POP_REG1        R12     ;
 5758                                 M                                   ; RE"+4" 00,00,00,04
 5759 00000360 6CF6                   M           MOV.L   @R15+,R12        ;
 5760                                 M           POP_REG1        R11     ;
 5761                                 M                                   ; RE"+4" 00,00,00,04
 5762 00000362 6BF6                   M           MOV.L   @R15+,R11        ;
 5763                                 M           POP_REG1        R10     ;
 5764                                 M                                   ; RE"+4" 00,00,00,04
 5765 00000364 6AF6                   M           MOV.L   @R15+,R10        ;
 5766                                 M           POP_REG1        R9      ;
 5767                                 M                                   ; RE"+4" 00,00,00,04
 5768 00000366 69F6                   M           MOV.L   @R15+,R9        ;
 5769                                 M           POP_REG1        R8      ;
 5770                                 M                                   ; RE"+4" 00,00,00,04
 5771 00000368 68F6                   M           MOV.L   @R15+,R8        ;
 5772                                 M           POP_REG1        R7      ;
 5773                                 M                                   ; RE"+4" 00,00,00,04
 5774 0000036A 67F6                   M           MOV.L   @R15+,R7        ;
 5775                                 M           POP_REG1        R6      ;
 5776                                 M                                   ; RE"+4" 00,00,00,04
 5777 0000036C 66F6                   M           MOV.L   @R15+,R6        ;
 5778                                 M           POP_REG1        R5      ;
 5779                                 M                                   ; RE"+4" 00,00,00,04
 5780 0000036E 65F6                   M           MOV.L   @R15+,R5        ;
 5781                                 M           POP_REG1        R4      ;
 5782                                 M                                   ; RE"+4" 00,00,00,04
 5783 00000370 64F6                   M           MOV.L   @R15+,R4        ;
 5784                                 M           POP_REG1        R3      ;
 5785                                 M                                   ; RE"+4" 00,00,00,04
 5786 00000372 63F6                   M           MOV.L   @R15+,R3        ;
 5787                                 M           POP_REG1        R2      ;
 5788                                 M                                   ; RE"+4" 00,00,00,04
 5789 00000374 62F6                   M           MOV.L   @R15+,R2        ;
 5790                                 M           POP_REG1        R1      ;
 5791                                 M                                   ; RE"+4" 00,00,00,04
 5792 00000376 61F6                   M           MOV.L   @R15+,R1        ;
 5793                                 M           POP_REG1        R0      ;
 5794                                 M                                   ; RE"+4" 00,00,00,04
 5795 00000378 60F6                   M           MOV.L   @R15+,R0        ;
 5796                             327             SUB_END
 5797                                 M   ;;;;;;; ADD     #4,R15                  ;[不要?]
 5798 0000037A 4F26                   M           LDS.L   @R15+,PR                ;[必要]
 5799                             328             M_RTS
*** SuperH RISC engine ASSEMBLER V.7.01.02.000 ***    07/04/21 19:29:06                                                  PAGE    26
PROGRAM NAME =

 5800 0000037C 000B                   M           RTS                             ;RTSの後ろの
 5801 0000037E 0009                   M           NOP                             ;@R15+,PRはﾀﾞﾒ
 5802                             329     
 5803                             330     
 5804                             331     ;       === PD(POWER DOWN 未使用) =====
 5805                             332     ;H'6A0 IRQ5
 5806                                     ***** BEGIN-POOL *****
 5807 00000380 0010                       DATA FOR SOURCE-LINE 321
 5808 00000382 0000                       ALIGNMENT CODE
 5809 00000384 00000000                   DATA FOR SOURCE-LINE 319
 5810                                     ***** END-POOL *****
 5811 00000388                    333     _INT_CALL_IRQ5
 5812                             334             SUB_START
 5813 00000388 4F22                   M           STS.L   PR,@-R15                ;[必要]
 5814                                 M   ;;;;;;; ADD     #-4,R15                 ;[不要?]
 5815                             335             PUSH_ALL
 5816                                 M           PUSH_REG1       R0      ;
 5817 0000038A 2F06                   M           MOV.L   R0,@-R15                ;PUSH=SP-4
 5818                                 M                                           ;REG=>[SP]
 5819                                 M                                           ;"-4" FF,FF,FF,FC
 5820                                 M           PUSH_REG1       R1      ;
 5821 0000038C 2F16                   M           MOV.L   R1,@-R15                ;PUSH=SP-4
 5822                                 M                                           ;REG=>[SP]
 5823                                 M                                           ;"-4" FF,FF,FF,FC
 5824                                 M           PUSH_REG1       R2      ;
 5825 0000038E 2F26                   M           MOV.L   R2,@-R15                ;PUSH=SP-4
 5826                                 M                                           ;REG=>[SP]
 5827                                 M                                           ;"-4" FF,FF,FF,FC
 5828                                 M           PUSH_REG1       R3      ;
 5829 00000390 2F36                   M           MOV.L   R3,@-R15                ;PUSH=SP-4
 5830                                 M                                           ;REG=>[SP]
 5831                                 M                                           ;"-4" FF,FF,FF,FC
 5832                                 M           PUSH_REG1       R4      ;
 5833 00000392 2F46                   M           MOV.L   R4,@-R15                ;PUSH=SP-4
 5834                                 M                                           ;REG=>[SP]
 5835                                 M                                           ;"-4" FF,FF,FF,FC
 5836                                 M           PUSH_REG1       R5      ;
 5837 00000394 2F56                   M           MOV.L   R5,@-R15                ;PUSH=SP-4
 5838                                 M                                           ;REG=>[SP]
 5839                                 M                                           ;"-4" FF,FF,FF,FC
 5840                                 M           PUSH_REG1       R6      ;
 5841 00000396 2F66                   M           MOV.L   R6,@-R15                ;PUSH=SP-4
 5842                                 M                                           ;REG=>[SP]
 5843                                 M                                           ;"-4" FF,FF,FF,FC
 5844                                 M           PUSH_REG1       R7      ;
 5845 00000398 2F76                   M           MOV.L   R7,@-R15                ;PUSH=SP-4
 5846                                 M                                           ;REG=>[SP]
 5847                                 M                                           ;"-4" FF,FF,FF,FC
 5848                                 M           PUSH_REG1       R8      ;
 5849 0000039A 2F86                   M           MOV.L   R8,@-R15                ;PUSH=SP-4
 5850                                 M                                           ;REG=>[SP]
 5851                                 M                                           ;"-4" FF,FF,FF,FC
 5852                                 M           PUSH_REG1       R9      ;
 5853 0000039C 2F96                   M           MOV.L   R9,@-R15                ;PUSH=SP-4
 5854                                 M                                           ;REG=>[SP]
 5855                                 M                                           ;"-4" FF,FF,FF,FC
 5856                                 M           PUSH_REG1       R10     ;
*** SuperH RISC engine ASSEMBLER V.7.01.02.000 ***    07/04/21 19:29:06                                                  PAGE    27
PROGRAM NAME =

 5857 0000039E 2FA6                   M           MOV.L   R10,@-R15               ;PUSH=SP-4
 5858                                 M                                           ;REG=>[SP]
 5859                                 M                                           ;"-4" FF,FF,FF,FC
 5860                                 M           PUSH_REG1       R11     ;
 5861 000003A0 2FB6                   M           MOV.L   R11,@-R15               ;PUSH=SP-4
 5862                                 M                                           ;REG=>[SP]
 5863                                 M                                           ;"-4" FF,FF,FF,FC
 5864                                 M           PUSH_REG1       R12     ;
 5865 000003A2 2FC6                   M           MOV.L   R12,@-R15               ;PUSH=SP-4
 5866                                 M                                           ;REG=>[SP]
 5867                                 M                                           ;"-4" FF,FF,FF,FC
 5868                                 M           PUSH_REG1       R13     ;
 5869 000003A4 2FD6                   M           MOV.L   R13,@-R15               ;PUSH=SP-4
 5870                                 M                                           ;REG=>[SP]
 5871                                 M                                           ;"-4" FF,FF,FF,FC
 5872                                 M           PUSH_REG1       R14     ;
 5873 000003A6 2FE6                   M           MOV.L   R14,@-R15               ;PUSH=SP-4
 5874                                 M                                           ;REG=>[SP]
 5875                                 M                                           ;"-4" FF,FF,FF,FC
 5876                                 M           PUSH_MACHL              ;
 5877 000003A8 4F02                   M           STS.L   MACH,@-R15
 5878 000003AA 4F12                   M           STS.L   MACL,@-R15
 5879                                 M           PUSH_SYS_REG    GBR     ;
 5880 000003AC 4F13                   M           STC.L   GBR,@-R15
 5881                                 M           .AIF    3 EQ 3
 5882                                             .AELSE
 5883                                             PUSH_FPU_ALL            ;2001-07-08
 5884                                             .AENDI
 5885 000003AE D10E               336             MOV.L   #_IRR0,R1
 5886 000003B0 6010               337             MOV.B   @R1,R0
 5887 000003B2 9217               338             MOV.W   #BIT5,R2
 5888 000003B4 6227               339             NOT     R2,R2
 5889 000003B6 2029               340             AND     R2,R0
 5890 000003B8 2100               341             MOV.B   R0,@R1
 5891                             342     
 5892                             343             POP_ALL
 5893                                 M           .AIF    3 EQ 3
 5894                                             .AELSE
 5895                                             POP_FPU_ALL             ;2001-07-08
 5896                                             .AENDI
 5897                                 M           POP_SYS_REG     GBR     ;
 5898 000003BA 4F17                   M           LDC.L   @R15+,GBR
 5899                                 M           POP_MACHL               ;
 5900 000003BC 4F16                   M           LDS.L   @R15+,MACL
 5901 000003BE 4F06                   M           LDS.L   @R15+,MACH
 5902                                 M           POP_REG1        R14     ;
 5903                                 M                                   ; RE"+4" 00,00,00,04
 5904 000003C0 6EF6                   M           MOV.L   @R15+,R14        ;
 5905                                 M           POP_REG1        R13     ;
 5906                                 M                                   ; RE"+4" 00,00,00,04
 5907 000003C2 6DF6                   M           MOV.L   @R15+,R13        ;
 5908                                 M           POP_REG1        R12     ;
 5909                                 M                                   ; RE"+4" 00,00,00,04
 5910 000003C4 6CF6                   M           MOV.L   @R15+,R12        ;
 5911                                 M           POP_REG1        R11     ;
 5912                                 M                                   ; RE"+4" 00,00,00,04
 5913 000003C6 6BF6                   M           MOV.L   @R15+,R11        ;
*** SuperH RISC engine ASSEMBLER V.7.01.02.000 ***    07/04/21 19:29:06                                                  PAGE    28
PROGRAM NAME =

 5914                                 M           POP_REG1        R10     ;
 5915                                 M                                   ; RE"+4" 00,00,00,04
 5916 000003C8 6AF6                   M           MOV.L   @R15+,R10        ;
 5917                                 M           POP_REG1        R9      ;
 5918                                 M                                   ; RE"+4" 00,00,00,04
 5919 000003CA 69F6                   M           MOV.L   @R15+,R9        ;
 5920                                 M           POP_REG1        R8      ;
 5921                                 M                                   ; RE"+4" 00,00,00,04
 5922 000003CC 68F6                   M           MOV.L   @R15+,R8        ;
 5923                                 M           POP_REG1        R7      ;
 5924                                 M                                   ; RE"+4" 00,00,00,04
 5925 000003CE 67F6                   M           MOV.L   @R15+,R7        ;
 5926                                 M           POP_REG1        R6      ;
 5927                                 M                                   ; RE"+4" 00,00,00,04
 5928 000003D0 66F6                   M           MOV.L   @R15+,R6        ;
 5929                                 M           POP_REG1        R5      ;
 5930                                 M                                   ; RE"+4" 00,00,00,04
 5931 000003D2 65F6                   M           MOV.L   @R15+,R5        ;
 5932                                 M           POP_REG1        R4      ;
 5933                                 M                                   ; RE"+4" 00,00,00,04
 5934 000003D4 64F6                   M           MOV.L   @R15+,R4        ;
 5935                                 M           POP_REG1        R3      ;
 5936                                 M                                   ; RE"+4" 00,00,00,04
 5937 000003D6 63F6                   M           MOV.L   @R15+,R3        ;
 5938                                 M           POP_REG1        R2      ;
 5939                                 M                                   ; RE"+4" 00,00,00,04
 5940 000003D8 62F6                   M           MOV.L   @R15+,R2        ;
 5941                                 M           POP_REG1        R1      ;
 5942                                 M                                   ; RE"+4" 00,00,00,04
 5943 000003DA 61F6                   M           MOV.L   @R15+,R1        ;
 5944                                 M           POP_REG1        R0      ;
 5945                                 M                                   ; RE"+4" 00,00,00,04
 5946 000003DC 60F6                   M           MOV.L   @R15+,R0        ;
 5947                             344             SUB_END
 5948                                 M   ;;;;;;; ADD     #4,R15                  ;[不要?]
 5949 000003DE 4F26                   M           LDS.L   @R15+,PR                ;[必要]
 5950                             345             M_RTS
 5951 000003E0 000B                   M           RTS                             ;RTSの後ろの
 5952 000003E2 0009                   M           NOP                             ;@R15+,PRはﾀﾞﾒ
 5953                             346     
 5954                             347     
 5955                             348     ;H'6C0 Reserved
 5956                                     ***** BEGIN-POOL *****
 5957 000003E4 0020                       DATA FOR SOURCE-LINE 338
 5958 000003E6 0000                       ALIGNMENT CODE
 5959 000003E8 00000000                   DATA FOR SOURCE-LINE 336
 5960                                     ***** END-POOL *****
 5961 000003EC                    349     _INT_CALL_Reserved6C0
 5962                             350     ;H'6E0 Reserved
 5963 000003EC                    351     _INT_CALL_Reserved6E0
 5964                             352     ;H'700 PINT0_7
 5965 000003EC                    353     _INT_CALL_PINT0_7
 5966                             354     ;H'720 PINT8_15
 5967 000003EC                    355     _INT_CALL_PINT8_15
 5968                             356     ;H'740 Reserved
 5969 000003EC                    357     _INT_CALL_Reserved740
 5970                             358     ;H'760 Reserved
*** SuperH RISC engine ASSEMBLER V.7.01.02.000 ***    07/04/21 19:29:06                                                  PAGE    29
PROGRAM NAME =

 5971 000003EC                    359     _INT_CALL_Reserved760
 5972                             360     ;H'780 Reserved
 5973 000003EC                    361     _INT_CALL_Reserved780
 5974                             362     ;H'7A0 Reserved
 5975 000003EC                    363     _INT_CALL_Reserved7A0
 5976                             364     ;H'7C0 Reserved
 5977 000003EC                    365     _INT_CALL_Reserved7C0
 5978                             366     ;H'7E0 Reserved
 5979 000003EC                    367     _INT_CALL_Reserved7E0
 5980                             368     ;H'800 DMAC DEI0
 5981 000003EC                    369     _INT_CALL_DMAC_DEI0
 5982                             370     ;H'820 DMAC DEI1
 5983 000003EC                    371     _INT_CALL_DMAC_DEI1
 5984                             372     ;H'840 DMAC DEI2
 5985 000003EC                    373     _INT_CALL_DMAC_DEI2
 5986                             374     ;H'860 DMAC DEI3
 5987 000003EC                    375     _INT_CALL_DMAC_DEI3
 5988                             376     ;H'880 Reserved
 5989 000003EC                    377     _INT_CALL_Reserved880
 5990                             378     ;H'8A0 Reserved
 5991 000003EC                    379     _INT_CALL_Reserved8A0
 5992                             380     ;H'8C0 Reserved
 5993 000003EC                    381     _INT_CALL_Reserved8C0
 5994                             382     ;H'8E0 Reserved
 5995 000003EC                    383     _INT_CALL_Reserved8E0
 5996 000003EC 001B               384             sleep
 5997 000003EE 0009               385             nop
 5998                             386     
 5999                             387     ;H'900 SCIF ERI2
 6000 000003F0                    388     _INT_CALL_SCIF_ERI2
 6001                             389             SUB_START
 6002 000003F0 4F22                   M           STS.L   PR,@-R15                ;[必要]
 6003                                 M   ;;;;;;; ADD     #-4,R15                 ;[不要?]
 6004                             390             FAR_JSR #_OPE_RE_INT,R0
 6005 000003F2 D003                   M           MOV.L   #_OPE_RE_INT,R0         ;ﾃｰﾌﾞﾙｱﾄﾞﾚｽの内容をREGへ
 6006 000003F4 400B                   M           JSR     @R0                     ;
 6007 000003F6 0009                   M           NOP                                     ;
 6008                             391             SUB_END
 6009                                 M   ;;;;;;; ADD     #4,R15                  ;[不要?]
 6010 000003F8 4F26                   M           LDS.L   @R15+,PR                ;[必要]
 6011                             392             M_RTS
 6012 000003FA 000B                   M           RTS                             ;RTSの後ろの
 6013 000003FC 0009                   M           NOP                             ;@R15+,PRはﾀﾞﾒ
 6014                             393     
 6015                             394     ;H'920 SCIF RXI2
 6016                                     ***** BEGIN-POOL *****
 6017 000003FE 0000                       ALIGNMENT CODE
 6018 00000400 00000000                   DATA FOR SOURCE-LINE 390
 6019                                     ***** END-POOL *****
 6020 00000404                    395     _INT_CALL_SCIF_RXI2:
 6021                             396             SUB_START
 6022 00000404 4F22                   M           STS.L   PR,@-R15                ;[必要]
 6023                                 M   ;;;;;;; ADD     #-4,R15                 ;[不要?]
 6024                             397             FAR_JSR #_OPE_RX_INT,R0
 6025 00000406 D003                   M           MOV.L   #_OPE_RX_INT,R0         ;ﾃｰﾌﾞﾙｱﾄﾞﾚｽの内容をREGへ
 6026 00000408 400B                   M           JSR     @R0                     ;
 6027 0000040A 0009                   M           NOP                                     ;
*** SuperH RISC engine ASSEMBLER V.7.01.02.000 ***    07/04/21 19:29:06                                                  PAGE    30
PROGRAM NAME =

 6028                             398             SUB_END
 6029                                 M   ;;;;;;; ADD     #4,R15                  ;[不要?]
 6030 0000040C 4F26                   M           LDS.L   @R15+,PR                ;[必要]
 6031                             399             M_RTS
 6032 0000040E 000B                   M           RTS                             ;RTSの後ろの
 6033 00000410 0009                   M           NOP                             ;@R15+,PRはﾀﾞﾒ
 6034                             400     
 6035                             401     ;H'940 SCIF BRI2
 6036                                     ***** BEGIN-POOL *****
 6037 00000412 0000                       ALIGNMENT CODE
 6038 00000414 00000000                   DATA FOR SOURCE-LINE 397
 6039                                     ***** END-POOL *****
 6040 00000418                    402     _INT_CALL_SCIF_BRI2
 6041 00000418 001B               403             sleep
 6042 0000041A 0009               404             nop
 6043                             405     
 6044                             406     ;H'960 SCIF TXI2
 6045 0000041C                    407     _INT_CALL_SCIF_TXI2
 6046                             408             SUB_START
 6047 0000041C 4F22                   M           STS.L   PR,@-R15                ;[必要]
 6048                                 M   ;;;;;;; ADD     #-4,R15                 ;[不要?]
 6049                             409             FAR_JSR #_OPE_TX_INT,R0
 6050 0000041E D003                   M           MOV.L   #_OPE_TX_INT,R0         ;ﾃｰﾌﾞﾙｱﾄﾞﾚｽの内容をREGへ
 6051 00000420 400B                   M           JSR     @R0                     ;
 6052 00000422 0009                   M           NOP                                     ;
 6053                             410             SUB_END
 6054                                 M   ;;;;;;; ADD     #4,R15                  ;[不要?]
 6055 00000424 4F26                   M           LDS.L   @R15+,PR                ;[必要]
 6056                             411             M_RTS
 6057 00000426 000B                   M           RTS                             ;RTSの後ろの
 6058 00000428 0009                   M           NOP                             ;@R15+,PRはﾀﾞﾒ
 6059                             412     
 6060                             413     ;H'980 ADC ADI
 6061                                     ***** BEGIN-POOL *****
 6062 0000042A 0000                       ALIGNMENT CODE
 6063 0000042C 00000000                   DATA FOR SOURCE-LINE 409
 6064                                     ***** END-POOL *****
 6065 00000430                    414     _INT_CALL_ADC_ADI
 6066                             415     ;H'9A0 LCDC LCDCI
 6067 00000430                    416     _INT_CALL_LCDC_LCDCI
 6068                             417     ;H'9C0 PCC0
 6069 00000430                    418     _INT_CALL_PCC0
 6070                             419     ;H'9E0 Reserved
 6071 00000430                    420     _INT_CALL_Reserved9E0
 6072                             421     ;H'A00 USBH USBHI
 6073 00000430                    422     _INT_CALL_USBH_USBHI
 6074                             423     ;H'A20 USBF USBFI0
 6075 00000430                    424     _INT_CALL_USBF_USBFI0
 6076                             425     ;H'A40 USBF USBFI1
 6077 00000430                    426     _INT_CALL_USBF_USBFI1
 6078                             427     ;H'A60 AFEIF AFEIFI
 6079 00000430                    428     _INT_CALL_AFEIF_AFEIFI
 6080                             429     ;H'A80 Reserved
 6081 00000430                    430     _INT_CALL_ReservedA80
 6082                             431     ;H'AA0 Reserved
 6083 00000430                    432     _INT_CALL_ReservedAA0
 6084                             433     ;H'AC0 Reserved
*** SuperH RISC engine ASSEMBLER V.7.01.02.000 ***    07/04/21 19:29:06                                                  PAGE    31
PROGRAM NAME =

 6085 00000430                    434     _INT_CALL_ReservedAC0
 6086                             435     ;H'AE0 Reserved
 6087 00000430                    436     _INT_CALL_ReservedAE0
 6088                             437     ;H'B00 SIOF SIFERI
 6089 00000430                    438     _INT_CALL_SIOF_SIFERI
 6090                             439     ;H'B20 SIOF SIFTXI
 6091 00000430                    440     _INT_CALL_SIOF_SIFTXI
 6092                             441     ;H'B40 SIOF SIFRXI
 6093 00000430                    442     _INT_CALL_SIOF_SIFRXI
 6094                             443     ;H'B60 SIOF SIFCCI
 6095 00000430                    444     _INT_CALL_SIOF_SIFCCI
 6096                             445     ; dummy
 6097 00000430                    446     _DUMMY_CALL
 6098 00000430 001B               447             sleep
 6099 00000432 0009               448             nop
 6100                             449     
 6101                             450     
 6102 00000000                    451             .SECTION        P,CODE                  ;
 6103 00000000                    452     _BOOT_CALL_TBL_TOP:
 6104 00000000 00000000           453             .data.l         H'0                             ; DUMMY
 6105 00000004 00000000           454             .data.l         H'0                             ; DUMMY
 6106 00000008 00000000           455             .data.l         H'0                             ; DUMMY
 6107 0000000C 00000000           456             .data.l         H'0                             ; DUMMY
 6108                             457     
 6109                             458             ;H'040 TLB miss/invalid (load)
 6110 00000010 00000000           459             .data.l         _INT_CALL_TLBMiss_Load
 6111                             460             ;H'060 TLB miss/invalid (store)
 6112 00000014 00000000           461             .data.l         _INT_CALL_TLBMiss_Store
 6113                             462             ;H'070 TBL exception/CPU Address error in repeat loop
 6114 00000018 00000000           463             .data.l         _INT_CALL_TLBCPU_ADERR
 6115                             464             ;H'080 Initial page write
 6116 0000001C 00000000           465             .data.l         _INT_CALL_TLBInitial_Page
 6117                             466             ;H'0A0 TLB protect (load)
 6118 00000020 00000000           467             .data.l         _INT_CALL_TLBProtect_Load
 6119                             468             ;H'0C0 TLB protect (store)
 6120 00000024 00000000           469             .data.l         _INT_CALL_TLBProtect_Store
 6121                             470             ;H'0D0 TLB protect in repeat loop
 6122 00000028 00000000           471             .data.l         _INT_CALL_TLBProtect_Loop
 6123                             472             ;H'0E0 Address error (load)
 6124 0000002C 00000000           473             .data.l         _INT_CALL_Address_load
 6125                             474             ;H'100 Address error (store)
 6126 00000030 00000000           475             .data.l         _INT_CALL_Address_store
 6127                             476             ;H'120 Reserved
 6128 00000034 00000000           477             .data.l         _INT_CALL_Reserved1
 6129                             478             ;H'140 Reserved
 6130 00000038 00000000           479             .data.l         _INT_CALL_Reserved2
 6131                             480             ;H'160 TRAPA
 6132 0000003C 00000000           481             .data.l         _INT_CALL_TRAPA
 6133                             482             ;H'180 Illegal code
 6134 00000040 00000000           483             .data.l         _INT_CALL_Illegal_code
 6135                             484             ;H'1A0 Illegal slot
 6136 00000044 00000000           485             .data.l         _INT_CALL_Illegal_slot
 6137                             486             ;H'1C0 Nonmaskable interrupt
 6138 00000048 00000000           487             .data.l         _INT_CALL_NMI
 6139                             488             ;H'1E0 User breakpoint trap
 6140 0000004C 00000000           489             .data.l         _INT_CALL_User_Break
 6141                             490             ;H'200 External hardware interrupt
*** SuperH RISC engine ASSEMBLER V.7.01.02.000 ***    07/04/21 19:29:06                                                  PAGE    32
PROGRAM NAME =

 6142 00000050 00000000           491             .data.l         _INT_CALL_Extern_0000
 6143                             492             ;H'220 External hardware interrupt
 6144 00000054 00000000           493             .data.l         _INT_CALL_Extern_0001
 6145                             494             ;H'240 External hardware interrupt
 6146 00000058 00000000           495             .data.l         _INT_CALL_Extern_0010
 6147                             496             ;H'260 External hardware interrupt
 6148 0000005C 00000000           497             .data.l         _INT_CALL_Extern_0011
 6149                             498             ;H'280 External hardware interrupt
 6150 00000060 00000000           499             .data.l         _INT_CALL_Extern_0100
 6151                             500             ;H'2A0 External hardware interrupt
 6152 00000064 00000000           501             .data.l         _INT_CALL_Extern_0101
 6153                             502             ;H'2C0 External hardware interrupt
 6154 00000068 00000000           503             .data.l         _INT_CALL_Extern_0110
 6155                             504             ;H'2E0 External hardware interrupt
 6156 0000006C 00000000           505             .data.l         _INT_CALL_Extern_0111
 6157                             506             ;H'300 External hardware interrupt
 6158 00000070 00000000           507             .data.l         _INT_CALL_Extern_1000
 6159                             508             ;H'320 External hardware interrupt
 6160 00000074 00000000           509             .data.l         _INT_CALL_Extern_1001
 6161                             510             ;H'340 External hardware interrupt
 6162 00000078 00000000           511             .data.l         _INT_CALL_Extern_1010
 6163                             512             ;H'360 External hardware interrupt
 6164 0000007C 00000000           513             .data.l         _INT_CALL_Extern_1011
 6165                             514             ;H'380 External hardware interrupt
 6166 00000080 00000000           515             .data.l         _INT_CALL_Extern_1100
 6167                             516             ;H'3A0 External hardware interrupt
 6168 00000084 00000000           517             .data.l         _INT_CALL_Extern_1101
 6169                             518             ;H'3C0 External hardware interrupt
 6170 00000088 00000000           519             .data.l         _INT_CALL_Extern_1110
 6171                             520             ;H'3E0 Reserved
 6172 0000008C 00000000           521             .data.l         _INT_CALL_Reserved3E0
 6173                             522             ;H'400 TMU TUNI0
 6174 00000090 00000000           523             .data.l         _INT_CALL_TMU_TUNI0
 6175                             524             ;H'420 TMU TUNI1
 6176 00000094 00000000           525             .data.l         _INT_CALL_TMU_TUNI1
 6177                             526             ;H'440 TMU TUNI2
 6178 00000098 00000000           527             .data.l         _INT_CALL_TMU_TUNI2
 6179                             528             ;H'460 TMU TICPI2
 6180 0000009C 00000000           529             .data.l         _INT_CALL_TMU_TICPI2
 6181                             530             ;H'480 RTC ATI
 6182 000000A0 00000000           531             .data.l         _INT_CALL_RTC_ATI
 6183                             532             ;H'4A0 RTC PRI
 6184 000000A4 00000000           533             .data.l         _INT_CALL_RTC_PRI
 6185                             534             ;H'4C0 RTC CUI
 6186 000000A8 00000000           535             .data.l         _INT_CALL_RTC_CUI
 6187                             536             ;H'4E0 SCI ERI
 6188 000000AC 00000000           537             .data.l         _INT_CALL_SCI_ERI
 6189                             538             ;H'500 SCI RXI
 6190 000000B0 00000000           539             .data.l         _INT_CALL_SCI_RXI
 6191                             540             ;H'520 SCI TXI
 6192 000000B4 00000000           541             .data.l         _INT_CALL_SCI_TXI
 6193                             542             ;H'540 SCI TEI
 6194 000000B8 00000000           543             .data.l         _INT_CALL_SCI_TEI
 6195                             544             ;H'560 CPG ITI
 6196 000000BC 00000000           545             .data.l         _INT_CALL_CPG_ITI
 6197                             546             ;H'580 BSC RCMI
 6198 000000C0 00000000           547             .data.l         _INT_CALL_BSC_RCMI
*** SuperH RISC engine ASSEMBLER V.7.01.02.000 ***    07/04/21 19:29:06                                                  PAGE    33
PROGRAM NAME =

 6199                             548             ;H'5A0 BSC ROVI
 6200 000000C4 00000000           549             .data.l         _INT_CALL_BSC_ROVI
 6201                             550             ;H'5C0 Reserved
 6202 000000C8 00000000           551             .data.l         _INT_CALL_Reserved5C0
 6203                             552             ;H'5E0 H-UDI
 6204 000000CC 00000000           553             .data.l         _INT_CALL_H_UDI
 6205                             554             ;H'600 IRQ0
 6206 000000D0 00000000           555             .data.l         _INT_CALL_IRQ0
 6207                             556             ;H'620 IRQ1
 6208 000000D4 00000000           557             .data.l         _INT_CALL_IRQ1
 6209                             558             ;H'640 IRQ2
 6210 000000D8 00000000           559             .data.l         _INT_CALL_IRQ2
 6211                             560             ;H'660 IRQ3
 6212 000000DC 00000000           561             .data.l         _INT_CALL_IRQ3
 6213                             562             ;H'680 IRQ4
 6214 000000E0 00000000           563             .data.l         _INT_CALL_IRQ4
 6215                             564             ;H'6A0 IRQ5
 6216 000000E4 00000000           565             .data.l         _INT_CALL_IRQ5
 6217                             566             ;H'6C0 Reserved
 6218 000000E8 00000000           567             .data.l         _INT_CALL_Reserved6C0
 6219                             568             ;H'6E0 Reserved
 6220 000000EC 00000000           569             .data.l         _INT_CALL_Reserved6E0
 6221                             570             ;H'700 PINT0_7
 6222 000000F0 00000000           571             .data.l         _INT_CALL_PINT0_7
 6223                             572             ;H'720 PINT8_15
 6224 000000F4 00000000           573             .data.l         _INT_CALL_PINT8_15
 6225                             574             ;H'740 Reserved
 6226 000000F8 00000000           575             .data.l         _INT_CALL_Reserved740
 6227                             576             ;H'760 Reserved
 6228 000000FC 00000000           577             .data.l         _INT_CALL_Reserved760
 6229                             578             ;H'780 Reserved
 6230 00000100 00000000           579             .data.l         _INT_CALL_Reserved780
 6231                             580             ;H'7A0 Reserved
 6232 00000104 00000000           581             .data.l         _INT_CALL_Reserved7A0
 6233                             582             ;H'7C0 Reserved
 6234 00000108 00000000           583             .data.l         _INT_CALL_Reserved7C0
 6235                             584             ;H'7E0 Reserved
 6236 0000010C 00000000           585             .data.l         _INT_CALL_Reserved7E0
 6237                             586             ;H'800 DMAC DEI0
 6238 00000110 00000000           587             .data.l         _INT_CALL_DMAC_DEI0
 6239                             588             ;H'820 DMAC DEI1
 6240 00000114 00000000           589             .data.l         _INT_CALL_DMAC_DEI1
 6241                             590             ;H'840 DMAC DEI2
 6242 00000118 00000000           591             .data.l         _INT_CALL_DMAC_DEI2
 6243                             592             ;H'860 DMAC DEI3
 6244 0000011C 00000000           593             .data.l         _INT_CALL_DMAC_DEI3
 6245                             594             ;H'880 Reserved
 6246 00000120 00000000           595             .data.l         _INT_CALL_Reserved880
 6247                             596             ;H'8A0 Reserved
 6248 00000124 00000000           597             .data.l         _INT_CALL_Reserved8A0
 6249                             598             ;H'8C0 Reserved
 6250 00000128 00000000           599             .data.l         _INT_CALL_Reserved8C0
 6251                             600             ;H'8E0 Reserved
 6252 0000012C 00000000           601             .data.l         _INT_CALL_Reserved8E0
 6253                             602             ;H'900 SCIF ERI2
 6254 00000130 00000000           603             .data.l         _INT_CALL_SCIF_ERI2
 6255                             604             ;H'920 SCIF RXI2
*** SuperH RISC engine ASSEMBLER V.7.01.02.000 ***    07/04/21 19:29:06                                                  PAGE    34
PROGRAM NAME =

 6256 00000134 00000000           605             .data.l         _INT_CALL_SCIF_RXI2
 6257                             606             ;H'940 SCIF BRI2
 6258 00000138 00000000           607             .data.l         _INT_CALL_SCIF_BRI2
 6259                             608             ;H'960 SCIF TXI2
 6260 0000013C 00000000           609             .data.l         _INT_CALL_SCIF_TXI2
 6261                             610             ;H'980 ADC ADI
 6262 00000140 00000000           611             .data.l         _INT_CALL_ADC_ADI
 6263                             612             ;H'9A0 LCDC LCDCI
 6264 00000144 00000000           613             .data.l         _INT_CALL_LCDC_LCDCI
 6265                             614             ;H'9C0 PCC0
 6266 00000148 00000000           615             .data.l         _INT_CALL_PCC0
 6267                             616             ;H'9E0 Reserved
 6268 0000014C 00000000           617             .data.l         _INT_CALL_Reserved9E0
 6269                             618             ;H'A00 USBH USBHI
 6270 00000150 00000000           619             .data.l         _INT_CALL_USBH_USBHI
 6271                             620             ;H'A20 USBF USBFI0
 6272 00000154 00000000           621             .data.l         _INT_CALL_USBF_USBFI0
 6273                             622             ;H'A40 USBF USBFI1
 6274 00000158 00000000           623             .data.l         _INT_CALL_USBF_USBFI1
 6275                             624             ;H'A60 AFEIF AFEIFI
 6276 0000015C 00000000           625             .data.l         _INT_CALL_AFEIF_AFEIFI
 6277                             626             ;H'A80 Reserved
 6278 00000160 00000000           627             .data.l         _INT_CALL_ReservedA80
 6279                             628             ;H'AA0 Reserved
 6280 00000164 00000000           629             .data.l         _INT_CALL_ReservedAA0
 6281                             630             ;H'AC0 Reserved
 6282 00000168 00000000           631             .data.l         _INT_CALL_ReservedAC0
 6283                             632             ;H'AE0 Reserved
 6284 0000016C 00000000           633             .data.l         _INT_CALL_ReservedAE0
 6285                             634             ;H'B00 SIOF SIFERI
 6286 00000170 00000000           635             .data.l         _INT_CALL_SIOF_SIFERI
 6287                             636             ;H'B20 SIOF SIFTXI
 6288 00000174 00000000           637             .data.l         _INT_CALL_SIOF_SIFTXI
 6289                             638             ;H'B40 SIOF SIFRXI
 6290 00000178 00000000           639             .data.l         _INT_CALL_SIOF_SIFRXI
 6291                             640             ;H'B60 SIOF SIFCCI
 6292 0000017C 00000000           641             .data.l         _INT_CALL_SIOF_SIFCCI
 6293                             642             ; dummy
 6294 00000180 00000000           643             .data.l         _DUMMY_CALL
 6295                             644     
 6296                             645         .end
  *****TOTAL ERRORS       0
  *****TOTAL WARNINGS     0
*** SuperH RISC engine ASSEMBLER V.7.01.02.000 ***    07/04/21 19:29:06                                                  PAGE    35

*** CROSS REFERENCE LIST

NAME                             SECTION  ATTR VALUE             SEQUENCE

BIT0                                      EQU  00000001   1651* 5126 
BIT1                                      EQU  00000002   1652* 5279 
BIT10                                     EQU  00000400   1661*
BIT11                                     EQU  00000800   1662*
BIT12                                     EQU  00001000   1663*
BIT13                                     EQU  00002000   1664*
BIT14                                     EQU  00004000   1665*
BIT15                                     EQU  00008000   1666*
BIT16                                     EQU  00010000   1667*
BIT17                                     EQU  00020000   1668*
BIT18                                     EQU  00040000   1669*
BIT19                                     EQU  00080000   1670*
BIT2                                      EQU  00000004   1653* 5431 
BIT20                                     EQU  00100000   1671*
BIT21                                     EQU  00200000   1672*
BIT22                                     EQU  00400000   1673*
BIT23                                     EQU  00800000   1674*
BIT24                                     EQU  01000000   1675*
BIT25                                     EQU  02000000   1676*
BIT26                                     EQU  04000000   1677*
BIT27                                     EQU  08000000   1678*
BIT28                                     EQU  10000000   1679*
BIT29                                     EQU  20000000   1680*
BIT3                                      EQU  00000008   1654* 5584 
BIT30                                     EQU  40000000   1681*
BIT31                                     EQU  80000000   1682*
BIT4                                      EQU  00000010   1655* 5736 
BIT5                                      EQU  00000020   1656* 5887 
BIT6                                      EQU  00000040   1657*
BIT7                                      EQU  00000080   1658*
BIT8                                      EQU  00000100   1659* 4592  4745  4922 
BIT9                                      EQU  00000200   1660*
H_BYTE                                    EQU  00000000   1718*
L_BYTE                                    EQU  00000001   1717*
NBIT0                                     EQU  000000FE   1685*
NBIT1                                     EQU  000000FD   1686*
NBIT10                                    EQU  0000FBFF   1696*
NBIT11                                    EQU  0000F7FF   1697*
NBIT12                                    EQU  0000EFFF   1698*
NBIT13                                    EQU  0000DFFF   1699*
NBIT14                                    EQU  0000BFFF   1700*
NBIT15                                    EQU  00007FFF   1701*
NBIT2                                     EQU  000000FB   1687*
NBIT3                                     EQU  000000F7   1688*
NBIT4                                     EQU  000000EF   1689*
NBIT5                                     EQU  000000DF   1690*
NBIT6                                     EQU  000000BF   1691*
NBIT7                                     EQU  0000007F   1692*
NBIT8                                     EQU  0000FEFF   1694*
NBIT9                                     EQU  0000FDFF   1695*
P                                P        SCT  00000000   6102*
Pcall                            Pcall    SCT  00000000   4416*
XBIT0                                     EQU  00000000   1704*
XBIT1                                     EQU  00000001   1705*
*** SuperH RISC engine ASSEMBLER V.7.01.02.000 ***    07/04/21 19:29:06                                                  PAGE    36

*** CROSS REFERENCE LIST

NAME                             SECTION  ATTR VALUE             SEQUENCE

XBIT2                                     EQU  00000002   1706*
XBIT3                                     EQU  00000003   1707*
XBIT4                                     EQU  00000004   1708*
XBIT5                                     EQU  00000005   1709*
XBIT6                                     EQU  00000006   1710*
XBIT7                                     EQU  00000007   1711*
_ABS_ENC_PLS_SPD                          IMPT 00000000   2954 
_ABS_OUT_PLS_SPD                          IMPT 00000000   2964 
_ACCERR_ACC_HENSA                         IMPT 00000000   3965 
_ACCERR_ACC_OBJ                           IMPT 00000000   3964 
_ACCERR_ACC_PV                            IMPT 00000000   3963 
_ACCERR_DLY_PV_TIM                        IMPT 00000000   3974 
_ACCERR_ERR_CNT                           IMPT 00000000   3966 
_ACCESS_ERR1                              IMPT 00000000   3050 
_ACC_MONITOR_DAT1                         IMPT 00000000   3779 
_ACC_MONITOR_DAT2                         IMPT 00000000   3780 
_ACC_MONITOR_DAT3                         IMPT 00000000   3781 
_ACC_MONITOR_DAT4                         IMPT 00000000   3782 
_ACC_MONITOR_DAT5                         IMPT 00000000   3783 
_ACC_MONITOR_DAT6                         IMPT 00000000   3784 
_ACC_MONITOR_DAT7                         IMPT 00000000   3785 
_ACC_MONITOR_DAT8                         IMPT 00000000   3786 
_ACC_REST_ABS_PLS                         IMPT 00000000   3736 
_ACC_REST_FLG                             IMPT 00000000   3737 
_ACDR                                     IMPT 00000000    124 
_ACTR1                                    IMPT 00000000    116 
_ACTR2                                    IMPT 00000000    117 
_ADCR                                     IMPT 00000000     58 
_ADCSR                                    IMPT 00000000     57 
_ADDRAH                                   IMPT 00000000     49 
_ADDRAL                                   IMPT 00000000     50 
_ADDRBH                                   IMPT 00000000     51 
_ADDRBL                                   IMPT 00000000     52 
_ADDRCH                                   IMPT 00000000     53 
_ADDRCL                                   IMPT 00000000     54 
_ADDRDH                                   IMPT 00000000     55 
_ADDRDL                                   IMPT 00000000     56 
_ASDR                                     IMPT 00000000    125 
_ASM_K1_CTRL_INT1                         IMPT 00000000   4384 
_ASM_K1_CTRL_INT2                         IMPT 00000000   4385  4760 
_ASM_K1_CTRL_INT3                         IMPT 00000000   4386  4929 
_ASM_Y1_CTRL_INT1                         IMPT 00000000   4389 
_ASM_Y1_CTRL_INT2                         IMPT 00000000   4390  4765 
_ASM_Y1_CTRL_INT3                         IMPT 00000000   4391  4941 
_ASTR1                                    IMPT 00000000    118 
_ASTR2                                    IMPT 00000000    119 
_BAMRA                                    IMPT 00000000    263 
_BAMRB                                    IMPT 00000000    259 
_BANK1_CALC_ROT_NUM_ZR                    IMPT 00000000   3197 
_BANK1_LK_END_OBJ_ABSPLS                  IMPT 00000000   3190 
_BANK2_LINK_OBJROT_NUMPLS_ZR              IMPT 00000000   3195 
_BANK2_LINK_OBJROT_NUM_ZR                 IMPT 00000000   3194 
_BANK2_LK_END_OBJ_ABSPLS                  IMPT 00000000   3191 
_BARA                                     IMPT 00000000    262 
*** SuperH RISC engine ASSEMBLER V.7.01.02.000 ***    07/04/21 19:29:06                                                  PAGE    37

*** CROSS REFERENCE LIST

NAME                             SECTION  ATTR VALUE             SEQUENCE

_BARB                                     IMPT 00000000    258 
_BASE_TIM010MS                            IMPT 00000000   2056 
_BASE_TIM100MS                            IMPT 00000000   2057 
_BASRA                                    IMPT 00000000    270 
_BASRB                                    IMPT 00000000    271 
_BBN_MESURE_DLY_POINT                     IMPT 00000000   3952 
_BBN_MESURE_DLY_SSPD                      IMPT 00000000   3951 
_BBN_MESURE_POINT                         IMPT 00000000   3946 
_BBN_MESURE_PPOS_BUF                      IMPT 00000000   3936 
_BBN_MESURE_PSPD                          IMPT 00000000   3938 
_BBN_MESURE_PSPD_BUF                      IMPT 00000000   3937 
_BBN_MESURE_SPOS_BUF                      IMPT 00000000   3932 
_BBN_MESURE_SSPD                          IMPT 00000000   3934 
_BBN_MESURE_SSPD_BUF                      IMPT 00000000   3933 
_BBN_MESURE_SSPD_DLYBUF                   IMPT 00000000   3950 
_BBN_MEUSRE_PV_ACC                        IMPT 00000000   3944 
_BBN_MEUSRE_PV_ACC_SRC                    IMPT 00000000   3941 
_BBN_MEUSRE_SV_ACC                        IMPT 00000000   3943 
_BBN_MEUSRE_SV_ACC_SRC                    IMPT 00000000   3940 
_BBN_SET_TIME                             IMPT 00000000   3947 
_BBRA                                     IMPT 00000000    264 
_BBRB                                     IMPT 00000000    260 
_BCR1                                     IMPT 00000000    239 
_BCR2                                     IMPT 00000000    240 
_BDMRB                                    IMPT 00000000    255 
_BDRB                                     IMPT 00000000    254 
_BETR                                     IMPT 00000000    257 
_BKTMCL_ACCDAT                            IMPT 00000000   4135 
_BKTMCL_ACCDAT_UNIT                       IMPT 00000000   4136 
_BKTMCL_ACCPOINT                          IMPT 00000000   4138 
_BKTMCL_BBNFLT_TIMPV                      IMPT 00000000   4152 
_BKTMCL_BRKSTP_SPD                        IMPT 00000000   4160 
_BKTMCL_BRKSTR_SPD                        IMPT 00000000   4159 
_BKTMCL_BRKSTX_SPD                        IMPT 00000000   4165 
_BKTMCL_BRKSTX_TIMPV                      IMPT 00000000   4166 
_BKTMCL_BRKSTX_TIMSV                      IMPT 00000000   4167 
_BKTMCL_BRK_TIMPV                         IMPT 00000000   4162 
_BKTMCL_BRX_AREA_IN                       IMPT 00000000   4170 
_BKTMCL_BRX_AREA_INLT                     IMPT 00000000   4171 
_BKTMCL_ENC_DIR                           IMPT 00000000   4143 
_BKTMCL_OLD_PLSPOS                        IMPT 00000000   4142 
_BKTMCL_POINTMAX                          IMPT 00000000   4139 
_BKTMCL_SETX_TMDEF                        IMPT 00000000   4154 
_BKTMCL_SPDBUF                            IMPT 00000000   4134 
_BKTMCL_STOP_SPD                          IMPT 00000000   4158 
_BKTMCL_STOP_TIMPV                        IMPT 00000000   4151 
_BKTMCL_TMDEF_PV                          IMPT 00000000   4153 
_BKTMCL_TMSTEP_FLG                        IMPT 00000000   4147 
_BKTMCL_TMSTEP_STS                        IMPT 00000000   4148 
_BKTMCL_TOTAL_TIMPV                       IMPT 00000000   4150 
_BOOT_CALL                       Pcall    EXPT 00000000   4403  4417*
_BOOT_CALL_TBL_TOP               P             00000000   4419  6103*
_BRCR                                     IMPT 00000000    256 
_BRDR                                     IMPT 00000000    265 
*** SuperH RISC engine ASSEMBLER V.7.01.02.000 ***    07/04/21 19:29:06                                                  PAGE    38

*** CROSS REFERENCE LIST

NAME                             SECTION  ATTR VALUE             SEQUENCE

_BRK1_CAL_DN_ACC                          IMPT 00000000   2943 
_BRK1_CHKDLY_TM                           IMPT 00000000   2931 
_BRK1_GEN_PV_ACCTM                        IMPT 00000000   2939 
_BRK1_GEN_PV_DLYTM                        IMPT 00000000   2938 
_BRK1_GEN_SV_ACCTM                        IMPT 00000000   2937 
_BRK1_GEN_SV_DLYTM                        IMPT 00000000   2936 
_BRK1_GEN_SV_FRQ1                         IMPT 00000000   2934 
_BRK1_GEN_SV_FRQ2                         IMPT 00000000   2935 
_BRK1_SV_DN_ACC                           IMPT 00000000   2942 
_BRK2_CHKDLY_TM                           IMPT 00000000   2932 
_BRK2_SV_DN_ACC                           IMPT 00000000   2944 
_BRKTST_AREA_SIG                          IMPT 00000000   3678 
_BRKTST_BAKUP_FLG_PV1                     IMPT 00000000   3688 
_BRKTST_BAKUP_FLG_PV2                     IMPT 00000000   3689 
_BRKTST_BAKUP_FLG_SV1                     IMPT 00000000   3686 
_BRKTST_BAKUP_FLG_SV2                     IMPT 00000000   3687 
_BRKTST_CHKSPD_PLS                        IMPT 00000000   3668 
_BRKTST_CLNK_UP_POS_DN                    IMPT 00000000   3681 
_BRKTST_CLNK_UP_POS_UP                    IMPT 00000000   3680 
_BRKTST_INPUT_CMD                         IMPT 00000000   3671 
_BRKTST_LINK_UP_POS_DN                    IMPT 00000000   3683 
_BRKTST_LINK_UP_POS_UP                    IMPT 00000000   3682 
_BRKTST_MOD_FLG                           IMPT 00000000   3666 
_BRKTST_OUTSPD_PLS                        IMPT 00000000   3667 
_BRKTST_STP_ABSPLS                        IMPT 00000000   3675 
_BRKTST_STR_FLG                           IMPT 00000000   3676 
_BRKTST_SW_IN                             IMPT 00000000   3677 
_BRK_CHK_COM                              IMPT 00000000   2928 
_BRK_CHK_FLG                              IMPT 00000000   2929 
_BRR0                                     IMPT 00000000    204 
_BRSR                                     IMPT 00000000    261 
_BTTN_FLG                                 IMPT 00000000   2124 
_BTTN_ON_TIME                             IMPT 00000000   3220 
_BVLV_CTL_FLG                             IMPT 00000000   4311 
_BVLV_CTL_ON                              IMPT 00000000   4312 
_BVLV_CTL_PVTIM                           IMPT 00000000   4314 
_BVLV_CTL_SVTIM                           IMPT 00000000   4313 
_BVLV_START_IN                            IMPT 00000000   4315 
_CALC_FULCLS_MXPLS                        IMPT 00000000   2739 
_CALC_MEM_1REV_ML_NROT_ML36               IMPT 00000000   2466 
_CALC_MEM_1REV_MUL_NROT                   IMPT 00000000   2465 
_CALC_MISS_FLG1                           IMPT 00000000   3303 
_CAM_CNT_CHG_FLG                          IMPT 00000000   2836 
_CAM_CTL_STEP                             IMPT 00000000   2200 
_CAM_NOW_DIG                              IMPT 00000000   2833 
_CAM_OLD_DIG                              IMPT 00000000   2834 
_CAM_OUTPUT_DT                            IMPT 00000000   2827 
_CAM_OUTPUT_SW                            IMPT 00000000   2825 
_CAM_POS_CTL_STEP                         IMPT 00000000   2835 
_CAM_POS_STEP_END_FLG1                    IMPT 00000000   2594 
_CAM_POS_STEP_END_FLG2                    IMPT 00000000   2595 
_CAM_SELECT_SW                            IMPT 00000000   2826 
_CAM_START_FLG                            IMPT 00000000   2828 
_CAM_START_MODE                           IMPT 00000000   2829 
*** SuperH RISC engine ASSEMBLER V.7.01.02.000 ***    07/04/21 19:29:06                                                  PAGE    39

*** CROSS REFERENCE LIST

NAME                             SECTION  ATTR VALUE             SEQUENCE

_CAM_STEP_MAX                             IMPT 00000000   2832 
_CAM_STEP_NO                              IMPT 00000000   2830 
_CAM_STEP_NO_OLD                          IMPT 00000000   2831 
_CBSTS_LOAD_FLG                           IMPT 00000000   4084 
_CBSTS_SAVE_CMDWK                         IMPT 00000000   4092 
_CBSTS_SAVE_DAT                           IMPT 00000000   4101 
_CB_BAKUP_CMD1                            EQU  00005678   1750*
_CB_BAKUP_CMD2                            EQU  00001234   1751*
_CB_BAK_SUM_COD1                          EQU  5AA51234   1748*
_CB_BAK_SUM_COD2                          EQU  A55A4321   1749*
_CB_ERR_INFO_MEM                          EQU  00000080   1774*
_CB_ERR_INFO_PSIZE                        EQU  00000008   1775*
_CB_INT_START_OK                          IMPT 00000000   2053 
_CB_SEQ_CB_COM340                         IMPT 00000000   2581 
_CB_SEQ_CB_COM345                         IMPT 00000000   2584 
_CB_SEQ_CB_COM345X                        IMPT 00000000   4369 
_CB_SEQ_CB_COM346                         IMPT 00000000   2585 
_CB_SEQ_CB_COM347                         IMPT 00000000   2586 
_CB_SEQ_CB_COM348                         IMPT 00000000   2587 
_CB_SEQ_CB_COM349                         IMPT 00000000   2588 
_CB_SEQ_CB_COM350                         IMPT 00000000   2590 
_CB_SEQ_CB_COM351                         IMPT 00000000   2591 
_CB_SEQ_CB_SEL341                         IMPT 00000000   2582 
_CB_SEQ_CB_SEL342                         IMPT 00000000   2583 
_CB_SEQ_SW_SEL024                         IMPT 00000000   2577 
_CB_SEQ_SW_SEL028                         IMPT 00000000   2578 
_CB_SEQ_SW_SEL029                         IMPT 00000000   2579 
_CB_STS_BUF_1BLK                          EQU  00000040   1753* 1755 
_CB_STS_BUF_BLKMAX                        EQU  00000008   1754* 1755 
_CB_STS_BUF_MAX                           EQU  00000200   1755*
_CB_TRD_BEFORE                            EQU  00000060   1763*
_CB_TRD_BUF_DP_MAX                        EQU  00000080   1767*
_CB_TRD_BUF_MAX                           EQU  00000800   1764*
_CB_TRD_DP_1CNT                           EQU  00000008   1766*
_CB_TRD_DP_CH                             EQU  00000004   1759*
_CB_TRD_SMP_CNT                           EQU  00000080   1762*
_CCR                                      IMPT 00000000    272 
_CCR2                                     IMPT 00000000     62 
_CCS_BTTN_OFF                             IMPT 00000000   3042 
_CHCR0                                    IMPT 00000000     31 
_CHCR1                                    IMPT 00000000     35 
_CHCR2                                    IMPT 00000000     39 
_CHCR3                                    IMPT 00000000     43 
_CHKPOSWORK1                              IMPT 00000000   4241 
_CHKPOSWORK2                              IMPT 00000000   4242 
_CHKSPDANSPER                             IMPT 00000000   4246 
_CHKSPDPERWORK1                           IMPT 00000000   4247 
_CHKSPDPERWORK2                           IMPT 00000000   4248 
_CHKSPDWORK1                              IMPT 00000000   4239 
_CHKSPDWORK2                              IMPT 00000000   4240 
_CHKSPDWORKANS                            IMPT 00000000   4243 
_CHKSPDWORKTMAX                           IMPT 00000000   4245 
_CHKSPDWORKVMAX                           IMPT 00000000   4244 
_CHK_ADD_DATA_LATCH                       IMPT 00000000   3776 
*** SuperH RISC engine ASSEMBLER V.7.01.02.000 ***    07/04/21 19:29:06                                                  PAGE    40

*** CROSS REFERENCE LIST

NAME                             SECTION  ATTR VALUE             SEQUENCE

_CHK_CLK_SIG                              IMPT 00000000   4276 
_CHK_LSI_LOAD_OUT_CNT                     IMPT 00000000   3529 
_CHK_LSI_LOAD_POS_CNT                     IMPT 00000000   3528 
_CHRAR                                    IMPT 00000000    136 
_CKIO2CR                                  IMPT 00000000    141 
_CLS_INC_MOST_DOWN_PLS                    IMPT 00000000   2336 
_CLS_RNA_MOST_DOWN_POS                    IMPT 00000000   2335 
_CMCNT                                    IMPT 00000000     47 
_CMCOR                                    IMPT 00000000     48 
_CMCSR                                    IMPT 00000000     46 
_CMP2_ACC_NG_CNT                          IMPT 00000000   3109 
_CMP2_ACC_TOTAL_NG_CNT                    IMPT 00000000   3103 
_CMP2_BAS_NG_CNT                          IMPT 00000000   3106 
_CMP2_BAS_TOTAL_NG_CNT                    IMPT 00000000   3100 
_CMP2_LAT_NG_CNT                          IMPT 00000000   3108 
_CMP2_LAT_TOTAL_NG_CNT                    IMPT 00000000   3102 
_CMP2_NOW_NG_CNT                          IMPT 00000000   3110 
_CMP2_NOW_TOTAL_NG_CNT                    IMPT 00000000   3104 
_CMP2_TOP_NG_CNT                          IMPT 00000000   3107 
_CMP2_TOP_TOTAL_NG_CNT                    IMPT 00000000   3101 
_CMPSTEP_CNT_STOP                         IMPT 00000000   2244 
_CMPSTEP_CTRL_BUSY                        IMPT 00000000   2240 
_CMPSTEP_CTRL_REDY                        IMPT 00000000   2239 
_CMPSTEP_NEAR_ZERO                        IMPT 00000000   2243 
_CMPSTEP_POS_START                        IMPT 00000000   2241 
_CMPSTEP_SFTY_AUTO                        IMPT 00000000   2242 
_CMPSTEP_STEP_END                         IMPT 00000000   2245 
_CMP_ERR_CHK_STSA                         IMPT 00000000   2449 
_CMP_ERR_CHK_STSB                         IMPT 00000000   2450 
_CMP_ERR_STEP_A                           IMPT 00000000   2455 
_CMP_ERR_STEP_B                           IMPT 00000000   2456 
_CMP_ERR_STSA_INF1                        IMPT 00000000   2451 
_CMP_ERR_STSA_INF2                        IMPT 00000000   2452 
_CMP_ERR_STSA_INF3                        IMPT 00000000   2453 
_CMP_ERR_STSA_INF4                        IMPT 00000000   2454 
_CMP_ERR_TIM1                             IMPT 00000000   2156 
_CMP_LNGTH_AD_ERR_CNT                     IMPT 00000000   3213 
_CMP_POS_LSI_ACCLT1                       IMPT 00000000   3418 
_CMP_RECOVER_FLG                          IMPT 00000000   3523 
_CMP_RESTP_SR_ERR_CNT                     IMPT 00000000   3214 
_CMP_STEP_ERR_TIM1                        IMPT 00000000   2158 
_CMSTR                                    IMPT 00000000     45 
_CNT_BANK_CALC_ERR                        IMPT 00000000   3200 
_CNT_GRF_I_DATA                           IMPT 00000000   4362 
_CNT_GRF_POINT                            IMPT 00000000   4364 
_CNT_GRF_Y_DATA                           IMPT 00000000   4363 
_CNT_PLSOUT_STOP_CNT                      IMPT 00000000   3467 
_CNT_REST_SPD_HOSEI_DAT                   IMPT 00000000   3206 
_CNT_REST_SPD_HOSEI_FLG                   IMPT 00000000   3207 
_CNT_STOP_CMD                             IMPT 00000000   2079 
_CNT_STOP_CMD_BEF1                        IMPT 00000000   3913 
_CNT_STOP_CTRL_FLG                        IMPT 00000000   3187 
_CNT_STOP_LNGTH                           IMPT 00000000   3193 
_CNT_SYNC_CHK_CNT1                        IMPT 00000000   3482 
*** SuperH RISC engine ASSEMBLER V.7.01.02.000 ***    07/04/21 19:29:06                                                  PAGE    41

*** CROSS REFERENCE LIST

NAME                             SECTION  ATTR VALUE             SEQUENCE

_CNT_SYNC_CHK_CNT2                        IMPT 00000000   3483 
_CNT_SYNC_ERR_FLG                         IMPT 00000000   3465 
_CNT_SYNC_HOS_CNT1                        IMPT 00000000   3484 
_CNT_SYNC_HOS_DAT1                        IMPT 00000000   3479 
_CNT_SYNC_HOS_DAT2                        IMPT 00000000   3480 
_CNT_SYNC_HOS_FLAG                        IMPT 00000000   3481 
_CNT_SYNC_STS_FLG                         IMPT 00000000   3466 
_CONT_MOD_CNT_PV                          IMPT 00000000   2651 
_CONT_MOD_TIM_PV                          IMPT 00000000   2653 
_CONT_STOP_END_SUBPLS                     IMPT 00000000   3199 
_COP_CB_LD_MONI_SIG                       IMPT 00000000   2860 
_COP_DIG_SIG_FLG                          IMPT 00000000   2859 
_COP_OLD_ENC3600                          IMPT 00000000   2878 
_CPOS_BANK_USELFUL                        IMPT 00000000   3186 
_CPOS_CTL_MATH                            IMPT 00000000   2320 
_CPOS_DND_DIGTOP                          IMPT 00000000   3295 
_CPOS_DND_PLSTOP                          IMPT 00000000   3296 
_CPOS_DND_STOP_DIRECTOLD                  IMPT 00000000   3294 
_CPOS_DND_STOP_SW                         IMPT 00000000   3292 
_CPOS_DND_STOP_SWOLD                      IMPT 00000000   3293 
_CPOS_MOD_FLG1                            IMPT 00000000   2319 
_CPOS_SDAT1_CHGAPOS                       IMPT 00000000   2317 
_CPOS_SDAT1_CHGAPOS2                      IMPT 00000000   3188 
_CPOS_SDAT1_CNTSTEP                       IMPT 00000000   2314 
_CPOS_SDAT1_INF1                          IMPT 00000000   2315 
_CPOS_SDAT1_NUM                           IMPT 00000000   2316 
_CPOS_SDAT1_OFSPOS                        IMPT 00000000   2311 
_CPOS_SDAT1_SPD                           IMPT 00000000   2312 
_CPOS_SDAT1_STPAPOS                       IMPT 00000000   2318 
_CPOS_SDAT1_STPAPOS2                      IMPT 00000000   3189 
_CPOS_SDAT1_TIM                           IMPT 00000000   2313 
_CPOS_STEP_MAX                            IMPT 00000000   2321 
_CPOS_UPAREA_PLS                          IMPT 00000000   2334 
_CPUDX_MEM1_SNDEVN                        IMPT 00000000   4379 
_CPUDX_MEM1_SNDFLG                        IMPT 00000000   4381 
_CPUDX_MEM1_SNDKND                        IMPT 00000000   4380 
_CPUDX_SEND_MAXCNT                        IMPT 00000000   4376 
_CPUDX_SEND_NOWCNT                        IMPT 00000000   4377 
_CPUDX_SEND_TOPADR                        IMPT 00000000   4375 
_CPU_SV_HAND_IN                           IMPT 00000000   2081 
_CPU_SV_HAND_IN_ON                        IMPT 00000000   2082 
_CPU_SV_HAND_OUT                          IMPT 00000000   2084 
_CPUy_RESTPLS_LTFLG                       IMPT 00000000   3485 
_CTL_ENC360                               IMPT 00000000   2093 
_CTL_ENC360_OLD                           IMPT 00000000   3566 
_CYCLE_SPD_CMP_FLG1                       IMPT 00000000   3823 
_CYCLE_SPD_CMP_PV_DAT                     IMPT 00000000   3824 
_CYCLE_TIME_DAT                           IMPT 00000000   2569 
_CYCLE_TIME_FLG                           IMPT 00000000   2571 
_CYCLE_TIME_PV                            IMPT 00000000   2570 
_CYCL_DSP_CNT_PV                          IMPT 00000000   2994 
_CYCL_DSP_DISENB                          IMPT 00000000   2993 
_CYCL_START_CNT                           IMPT 00000000   2337 
_DACR1                                    IMPT 00000000     61 
*** SuperH RISC engine ASSEMBLER V.7.01.02.000 ***    07/04/21 19:29:06                                                  PAGE    42

*** CROSS REFERENCE LIST

NAME                             SECTION  ATTR VALUE             SEQUENCE

_DADR0                                    IMPT 00000000     59 
_DADR1                                    IMPT 00000000     60 
_DAIHAI_CALC_WORK1                        IMPT 00000000   3864 
_DAIHAI_CALC_WORK10                       IMPT 00000000   3873 
_DAIHAI_CALC_WORK11                       IMPT 00000000   3875 
_DAIHAI_CALC_WORK12                       IMPT 00000000   3876 
_DAIHAI_CALC_WORK13X                      IMPT 00000000   3877 
_DAIHAI_CALC_WORK2                        IMPT 00000000   3865 
_DAIHAI_CALC_WORK3                        IMPT 00000000   3866 
_DAIHAI_CALC_WORK4                        IMPT 00000000   3867 
_DAIHAI_CALC_WORK5                        IMPT 00000000   3868 
_DAIHAI_CALC_WORK6                        IMPT 00000000   3869 
_DAIHAI_CALC_WORK7X                       IMPT 00000000   3870 
_DAIHAI_CALC_WORK8                        IMPT 00000000   3871 
_DAIHAI_CALC_WORK9X                       IMPT 00000000   3872 
_DAI_CMP_SMPSTART                         IMPT 00000000   2513 
_DAI_HOSEI1_FLG                           IMPT 00000000   2503 
_DAR0                                     IMPT 00000000     29 
_DAR1                                     IMPT 00000000     33 
_DAR2                                     IMPT 00000000     37 
_DAR3                                     IMPT 00000000     41 
_DBG_CNT_GPOSINT                          IMPT 00000000   3124 
_DBG_CNT_STOP_CNT                         IMPT 00000000   3118 
_DBG_CNT_STOP_FLG                         IMPT 00000000   3117 
_DBG_CNT_STOP_SPC                         IMPT 00000000   3119 
_DBG_REVMOD_CTLPLS                        IMPT 00000000   2794 
_DBG_REVMOD_DNPLS                         IMPT 00000000   2796 
_DBG_REVMOD_OBJPLS                        IMPT 00000000   2793 
_DBG_REVMOD_UPPLS                         IMPT 00000000   2795 
_DBG_STEP12_CHG_DIG                       IMPT 00000000   3127 
_DBG_STEP12_CHG_POS                       IMPT 00000000   3131 
_DBG_STEP12_CHG_RSTP                      IMPT 00000000   3139 
_DBG_STEP12_CHG_SPD                       IMPT 00000000   3135 
_DBG_STEP12_CHG_TIM                       IMPT 00000000   3121 
_DBG_STEP23_CHG_DIG                       IMPT 00000000   3128 
_DBG_STEP23_CHG_POS                       IMPT 00000000   3132 
_DBG_STEP23_CHG_RSTP                      IMPT 00000000   3140 
_DBG_STEP23_CHG_SPD                       IMPT 00000000   3136 
_DBG_STEP23_CHG_TIM                       IMPT 00000000   3122 
_DBG_STEPCD_CHG_DIG                       IMPT 00000000   3129 
_DBG_STEPCD_CHG_GPS                       IMPT 00000000   3143 
_DBG_STEPCD_CHG_POS                       IMPT 00000000   3133 
_DBG_STEPCD_CHG_RSTP                      IMPT 00000000   3141 
_DBG_STEPCD_CHG_SPD                       IMPT 00000000   3137 
_DBG_STEPCD_CHG_TIM                       IMPT 00000000   3123 
_DEBUG_ENC360_STS                         IMPT 00000000   4174 
_DEBUG_ENC360_STS2                        IMPT 00000000   4175 
_DEF_DAI_POS_PV                           IMPT 00000000   2542 
_DIR_FLG                                  IMPT 00000000   3578 
_DISP_ENC360                              IMPT 00000000   2097 
_DISP_RE_VIEW_FLG                         IMPT 00000000   2572 
_DISP_SV_DG_DAT                           IMPT 00000000   2844 
_DISP_SV_MM_DAT                           IMPT 00000000   2845 
_DMAOR                                    IMPT 00000000     44 
*** SuperH RISC engine ASSEMBLER V.7.01.02.000 ***    07/04/21 19:29:06                                                  PAGE    43

*** CROSS REFERENCE LIST

NAME                             SECTION  ATTR VALUE             SEQUENCE

_DMATCR0                                  IMPT 00000000     30 
_DMATCR1                                  IMPT 00000000     34 
_DMATCR2                                  IMPT 00000000     38 
_DMATCR3                                  IMPT 00000000     42 
_DNDINC_CTRL_STEP                         IMPT 00000000   3291 
_DND_CALC_WORK                            IMPT 00000000   2359 
_DND_OVERCHK_DIG                          IMPT 00000000   3777 
_DNM_ACC_CALFLG                           IMPT 00000000   3747 
_DNM_CTL_INC3600                          IMPT 00000000   3616 
_DNM_DEBUG_CNT                            IMPT 00000000   4214 
_DNM_DEBUG_STS1                           IMPT 00000000   4213 
_DNM_DIR_CHG_FLG                          IMPT 00000000   3614 
_DNM_DIR_CHG_TIM                          IMPT 00000000   3615 
_DNM_DIR_FLG_OLD                          IMPT 00000000   3654 
_DNM_DIR_NOW_FLG                          IMPT 00000000   3612 
_DNM_DIR_SAM_FLG                          IMPT 00000000   3613 
_DNM_DIR_SET_FLG                          IMPT 00000000   3611 
_DNM_MAX_GENSOK_LENGTH                    IMPT 00000000   4253 
_DNM_SET1_OBJECT_DIG_TOP                  IMPT 00000000   3610 
_DNM_SET1_OBJECT_PLS_TOP                  IMPT 00000000   3608 
_DNM_SET1_UPAREA_DIG0                     IMPT 00000000   3609 
_DNM_SET1_UPAREA_PLS0                     IMPT 00000000   3607 
_DNM_SETX_LINK_UP_POS_DN                  IMPT 00000000   3624 
_DNM_SETX_LINK_UP_POS_UP                  IMPT 00000000   3623 
_DNM_SETX_UPAREA_DIG                      IMPT 00000000   3619 
_DNM_SETX_UPAREA_PLS                      IMPT 00000000   3618 
_DNM_WSVX_CLNK_UP_POS                     IMPT 00000000   3620 
_DNM_WSVX_CLNK_UP_POS_DN                  IMPT 00000000   3622 
_DNM_WSVX_CLNK_UP_POS_UP                  IMPT 00000000   3621 
_DPNQ                                     IMPT 00000000    122 
_DPRAM_SIZE                               EQU  00003FFF   1932*
_DRVHOS_CAL_RNA_POS                       IMPT 00000000   2535 
_DRVHOS_DEF_CNT_PV                        IMPT 00000000   2527 
_DRVHOS_DEF_RNA_POS                       IMPT 00000000   2534 
_DRVHOS_IDO_BUF                           IMPT 00000000   2539 
_DRVHOS_IDO_CNT                           IMPT 00000000   2530 
_DRVHOS_IDO_POINT                         IMPT 00000000   2528 
_DRVHOS_IDO_TOTAL                         IMPT 00000000   2538 
_DRVHOS_MOST_DN_RNAPOS                    IMPT 00000000   2536 
_DRVHOS_USE_FLG                           IMPT 00000000   2525 
_DRVHOS_WAIT_CNT_PV                       IMPT 00000000   2526 
_DRVHOS_WORK_BUF                          IMPT 00000000   2540 
_DRV_ACT_FLG                              IMPT 00000000   2230 
_DRV_START_KEEP                           IMPT 00000000   3517 
_DUMMY_CALL                      Pcall         00000430   6097* 6294 
_DUMMY_SUM_CODE                           EQU  5AA53CC3   1741*
_DUM_MRTION_SEL1                          IMPT 00000000   2854 
_DUM_MTSTEP_MAXM                          IMPT 00000000   2853 
_DUM_SET1_DIG_TOP                         IMPT 00000000   2852 
_DUM_UPAREA_DIG0                          IMPT 00000000   2851 
_DURING_TIM_F                             IMPT 00000000   4177 
_ELSE_ERR_FLG1                            IMPT 00000000   2152 
_ELSE_ERR_FLG2                            IMPT 00000000   2153 
_EMG_SCANCUT_FLG                          IMPT 00000000   4289 
*** SuperH RISC engine ASSEMBLER V.7.01.02.000 ***    07/04/21 19:29:06                                                  PAGE    44

*** CROSS REFERENCE LIST

NAME                             SECTION  ATTR VALUE             SEQUENCE

_ENC360_BITERR_CNT                        IMPT 00000000   2117 
_ENC360_BITFLW_CNT                        IMPT 00000000   2116 
_ENC360_BITNML_CNT                        IMPT 00000000   2118 
_ENC360_HEX                               IMPT 00000000   2092 
_ENC360_INDT                              IMPT 00000000   2091 
_ENC360_INOLD                             IMPT 00000000   2090 
_ENC360_LINK_AREASIG                      IMPT 00000000   3166 
_ENC360_OVER_ENC                          IMPT 00000000   3058 
_ENC360_OVER_FLG                          IMPT 00000000   3057 
_ENCPLS_1000MSEC_LAT                      IMPT 00000000   2960 
_ENCPLS_DELT                              IMPT 00000000   2956 
_ENCPLS_POINT_SEL                         IMPT 00000000   2959 
_ENCPLS_SPD_AVL_TOP                       IMPT 00000000   2957 
_ENCPLS_SPD_POINT                         IMPT 00000000   2958 
_ENCPLS_SPD_TOTAL                         IMPT 00000000   2952 
_ENC_PLS_SPD                              IMPT 00000000   2953 
_ENC_PLS_SPD_DIR                          IMPT 00000000   2955 
_ENC_SYSRST_CMD                           IMPT 00000000   2108 
_ENC_TIMEXT_FLG                           IMPT 00000000   2109 
_END_CMD_LATCH                            IMPT 00000000   2203 
_EPSENCER_CHK_FLG                         IMPT 00000000   4302 
_EPSENCER_SIG                             IMPT 00000000   4301 
_EPSENCER_TIMPV                           IMPT 00000000   4303 
_EP_BRKVALV_ON                            IMPT 00000000   4300 
_ERRCHK_ENC360                            IMPT 00000000   4126 
_ERR_CHK_SW_SEL029                        IMPT 00000000   2593 
_ERR_INFO_DLY_TIM                         IMPT 00000000   3052 
_ERR_INFO_SAVE_FLG                        IMPT 00000000   3053 
_ERR_INFO_SAVE_LATCH                      IMPT 00000000   3054 
_ERR_LEV_IN2                              IMPT 00000000   3802 
_ERR_LEV_IN3                              IMPT 00000000   3803 
_ERR_LEV_IN4                              IMPT 00000000   3804 
_ERR_LEV_IN5                              IMPT 00000000   3805 
_ERR_LEV_IN6                              IMPT 00000000   3806 
_EXCPGCR                                  IMPT 00000000    140 
_EXPEVT                                   IMPT 00000000    267 
_EXPFC                                    IMPT 00000000    139 
_FREQ_BAS_SV_SPD                          IMPT 00000000   3099 
_FREQ_PLSI_MAX_FRQ                        IMPT 00000000   3098 
_FREQ_SV_SPD                              IMPT 00000000   3031 
_FRQCR                                    IMPT 00000000    249 
_FR_CYL_MASK_FLG                          IMPT 00000000   2202 
_FULL_CLS_OBJ_MM                          IMPT 00000000   2632 
_FUL_CLS_DLYTM_SV                         IMPT 00000000   4181 
_FUL_CLS_MAXOVER_F                        IMPT 00000000   4182 
_GMN_OVER_LIDE_FLG                        IMPT 00000000   3397 
_HENSA_OVER_MOVE_CNT                      IMPT 00000000   3473 
_HENSA_OVER_STOP_CNT                      IMPT 00000000   3474 
_HENSA_OVR_ENCPOS                         IMPT 00000000   2434 
_HENSA_OVR_OUTPLS                         IMPT 00000000   2433 
_HIST_DAT_SEND_COM                        IMPT 00000000   4356 
_HIST_DAT_SEND_DIS                        IMPT 00000000   4355 
_HIST_EVENT_COD                           IMPT 00000000   4357 
_HIST_KEP_SEND_COM                        IMPT 00000000   4358 
*** SuperH RISC engine ASSEMBLER V.7.01.02.000 ***    07/04/21 19:29:06                                                  PAGE    45

*** CROSS REFERENCE LIST

NAME                             SECTION  ATTR VALUE             SEQUENCE

_ICR0                                     IMPT 00000000    236 
_ICR1                                     IMPT 00000000     22 
_ICR2                                     IMPT 00000000     23 
_ICR3                                     IMPT 00000000    135 
_INCENC_LINK_NOWROT_NUMPLS_ZR             IMPT 00000000   2259 
_INCENC_LINK_NOWROT_NUM_ZR                IMPT 00000000   2258 
_INCENC_LINK_NOWROT_OFSPLS                IMPT 00000000   2260 
_INC_ABS_ORGWORK                          IMPT 00000000   2481 
_INC_ABS_ORGWORK2                         IMPT 00000000   3856 
_INC_ABS_ORGWORK2A                        IMPT 00000000   3857 
_INC_ENC360                               IMPT 00000000   2096 
_INC_ENC_MM_POS                           IMPT 00000000   2280 
_INC_LINK_NOWROT_OFSPLS_P                 IMPT 00000000   2261 
_INC_OFS_ORGWORK2A                        IMPT 00000000   3858 
_INC_STOP_CNT                             IMPT 00000000   2808 
_INPUT_MODE_SW                            IMPT 00000000   2151 
_INP_ERR_FLG                              IMPT 00000000   4117 
_INP_MODE                                 IMPT 00000000   2183 
_INT1MS_SCAN_02MS                         IMPT 00000000   3795 
_INT1MS_SCAN_03MS                         IMPT 00000000   3796 
_INT1MS_SCAN_05MS1                        IMPT 00000000   3797 
_INT1MS_SCAN_05MS2                        IMPT 00000000   3798 
_INT1MS_SCAN_10MS                         IMPT 00000000   3799 
_INTEVT                                   IMPT 00000000    268 
_INTEVT2                                  IMPT 00000000     18 
_INT_CALL_ADC_ADI                Pcall         00000430   6065* 6262 
_INT_CALL_AFEIF_AFEIFI           Pcall         00000430   6079* 6276 
_INT_CALL_Address_load           Pcall         0000001C   4460* 6124 
_INT_CALL_Address_store          Pcall         0000001C   4462* 6126 
_INT_CALL_BSC_RCMI               Pcall         00000190   5037* 6198 
_INT_CALL_BSC_ROVI               Pcall         00000190   5039* 6200 
_INT_CALL_CPG_ITI                Pcall         00000190   5035* 6196 
_INT_CALL_DMAC_DEI0              Pcall         000003EC   5981* 6238 
_INT_CALL_DMAC_DEI1              Pcall         000003EC   5983* 6240 
_INT_CALL_DMAC_DEI2              Pcall         000003EC   5985* 6242 
_INT_CALL_DMAC_DEI3              Pcall         000003EC   5987* 6244 
_INT_CALL_Extern_0000            Pcall         0000001C   4478* 6142 
_INT_CALL_Extern_0001            Pcall         0000001C   4480* 6144 
_INT_CALL_Extern_0010            Pcall         0000001C   4482* 6146 
_INT_CALL_Extern_0011            Pcall         0000001C   4484* 6148 
_INT_CALL_Extern_0100            Pcall         0000001C   4486* 6150 
_INT_CALL_Extern_0101            Pcall         0000001C   4488* 6152 
_INT_CALL_Extern_0110            Pcall         0000001C   4490* 6154 
_INT_CALL_Extern_0111            Pcall         0000001C   4492* 6156 
_INT_CALL_Extern_1000            Pcall         0000001C   4494* 6158 
_INT_CALL_Extern_1001            Pcall         0000001C   4496* 6160 
_INT_CALL_Extern_1010            Pcall         0000001C   4498* 6162 
_INT_CALL_Extern_1011            Pcall         0000001C   4500* 6164 
_INT_CALL_Extern_1100            Pcall         0000001C   4502* 6166 
_INT_CALL_Extern_1101            Pcall         0000001C   4504* 6168 
_INT_CALL_Extern_1110            Pcall         0000001C   4506* 6170 
_INT_CALL_H_UDI                  Pcall         00000190   5043* 6204 
_INT_CALL_IRQ0                   Pcall         00000194   5049* 6206 
_INT_CALL_IRQ1                   Pcall         000001F8   5200* 6208 
*** SuperH RISC engine ASSEMBLER V.7.01.02.000 ***    07/04/21 19:29:06                                                  PAGE    46

*** CROSS REFERENCE LIST

NAME                             SECTION  ATTR VALUE             SEQUENCE

_INT_CALL_IRQ2                   Pcall         0000025C   5355* 6210 
_INT_CALL_IRQ3                   Pcall         000002C0   5506* 6212 
_INT_CALL_IRQ4                   Pcall         00000324   5659* 6214 
_INT_CALL_IRQ5                   Pcall         00000388   5811* 6216 
_INT_CALL_Illegal_code           Pcall         0000001C   4470* 6134 
_INT_CALL_Illegal_slot           Pcall         0000001C   4472* 6136 
_INT_CALL_LCDC_LCDCI             Pcall         00000430   6067* 6264 
_INT_CALL_NMI                    Pcall         0000001C   4474* 6138 
_INT_CALL_PCC0                   Pcall         00000430   6069* 6266 
_INT_CALL_PINT0_7                Pcall         000003EC   5965* 6222 
_INT_CALL_PINT8_15               Pcall         000003EC   5967* 6224 
_INT_CALL_RTC_ATI                Pcall         00000190   5021* 6182 
_INT_CALL_RTC_CUI                Pcall         00000190   5025* 6186 
_INT_CALL_RTC_PRI                Pcall         00000190   5023* 6184 
_INT_CALL_Reserved1              Pcall         0000001C   4464* 6128 
_INT_CALL_Reserved2              Pcall         0000001C   4466* 6130 
_INT_CALL_Reserved3E0            Pcall         0000001C   4508* 6172 
_INT_CALL_Reserved5C0            Pcall         00000190   5041* 6202 
_INT_CALL_Reserved6C0            Pcall         000003EC   5961* 6218 
_INT_CALL_Reserved6E0            Pcall         000003EC   5963* 6220 
_INT_CALL_Reserved740            Pcall         000003EC   5969* 6226 
_INT_CALL_Reserved760            Pcall         000003EC   5971* 6228 
_INT_CALL_Reserved780            Pcall         000003EC   5973* 6230 
_INT_CALL_Reserved7A0            Pcall         000003EC   5975* 6232 
_INT_CALL_Reserved7C0            Pcall         000003EC   5977* 6234 
_INT_CALL_Reserved7E0            Pcall         000003EC   5979* 6236 
_INT_CALL_Reserved880            Pcall         000003EC   5989* 6246 
_INT_CALL_Reserved8A0            Pcall         000003EC   5991* 6248 
_INT_CALL_Reserved8C0            Pcall         000003EC   5993* 6250 
_INT_CALL_Reserved8E0            Pcall         000003EC   5995* 6252 
_INT_CALL_Reserved9E0            Pcall         00000430   6071* 6268 
_INT_CALL_ReservedA80            Pcall         00000430   6081* 6278 
_INT_CALL_ReservedAA0            Pcall         00000430   6083* 6280 
_INT_CALL_ReservedAC0            Pcall         00000430   6085* 6282 
_INT_CALL_ReservedAE0            Pcall         00000430   6087* 6284 
_INT_CALL_SCIF_BRI2              Pcall         00000418   6040* 6258 
_INT_CALL_SCIF_ERI2              Pcall         000003F0   6000* 6254 
_INT_CALL_SCIF_RXI2              Pcall         00000404   6020* 6256 
_INT_CALL_SCIF_TXI2              Pcall         0000041C   6045* 6260 
_INT_CALL_SCI_ERI                Pcall         00000190   5027* 6188 
_INT_CALL_SCI_RXI                Pcall         00000190   5029* 6190 
_INT_CALL_SCI_TEI                Pcall         00000190   5033* 6194 
_INT_CALL_SCI_TXI                Pcall         00000190   5031* 6192 
_INT_CALL_SIOF_SIFCCI            Pcall         00000430   6095* 6292 
_INT_CALL_SIOF_SIFERI            Pcall         00000430   6089* 6286 
_INT_CALL_SIOF_SIFRXI            Pcall         00000430   6093* 6290 
_INT_CALL_SIOF_SIFTXI            Pcall         00000430   6091* 6288 
_INT_CALL_TLBCPU_ADERR           Pcall         0000001C   4450* 6114 
_INT_CALL_TLBInitial_Page        Pcall         0000001C   4452* 6116 
_INT_CALL_TLBMiss_Load           Pcall         0000001C   4446* 6110 
_INT_CALL_TLBMiss_Store          Pcall         0000001C   4448* 6112 
_INT_CALL_TLBProtect_Load        Pcall         0000001C   4454* 6118 
_INT_CALL_TLBProtect_Loop        Pcall         0000001C   4458* 6122 
_INT_CALL_TLBProtect_Store       Pcall         0000001C   4456* 6120 
*** SuperH RISC engine ASSEMBLER V.7.01.02.000 ***    07/04/21 19:29:06                                                  PAGE    47

*** CROSS REFERENCE LIST

NAME                             SECTION  ATTR VALUE             SEQUENCE

_INT_CALL_TMU_TICPI2             Pcall         00000190   5019* 6180 
_INT_CALL_TMU_TUNI0              Pcall    EXPT 00000020   4514  4515* 6174 
_INT_CALL_TMU_TUNI1              Pcall    EXPT 00000084   4662  4668* 6176 
_INT_CALL_TMU_TUNI2              Pcall    EXPT 00000104   4837  4845* 6178 
_INT_CALL_TRAPA                  Pcall         0000001C   4468* 6132 
_INT_CALL_USBF_USBFI0            Pcall         00000430   6075* 6272 
_INT_CALL_USBF_USBFI1            Pcall         00000430   6077* 6274 
_INT_CALL_USBH_USBHI             Pcall         00000430   6073* 6270 
_INT_CALL_User_Break             Pcall         0000001C   4476* 6140 
_INT_CLS_CTL_FLG                          IMPT 00000000   2400 
_INT_CLS_DYL_TIM                          IMPT 00000000   2401 
_INT_CYC_DRV_STS                          IMPT 00000000   2399 
_INT_DND_CTL_STEP                         IMPT 00000000   2395 
_INT_DND_NEG_STEP                         IMPT 00000000   2403 
_INT_DND_STEP_FLG                         IMPT 00000000   2398 
_INT_LINK_TOTAL_ABSPLS                    IMPT 00000000   2412 
_INT_POS_CTL_FLAG                         IMPT 00000000   2396 
_INT_POS_CTL_STEP                         IMPT 00000000   2393 
_INT_POS_STEP_FLG                         IMPT 00000000   2397 
_INT_SFY_INP_DAT                          IMPT 00000000   3159 
_INT_STP_INP_DAT                          IMPT 00000000   3160 
_INT_STP_INP_DAT1                         IMPT 00000000   3161 
_INT_STP_INP_DAT2                         IMPT 00000000   3162 
_INT_STP_INP_DAT3                         IMPT 00000000   3163 
_IN_PARAM_RNA_CHK                         IMPT 00000000   3556 
_IN_POS_GPOINT_POS                        IMPT 00000000   3458 
_IN_RDY_FLG                               IMPT 00000000   2191 
_IO1A_P4EX                                EQU  00000000   1990*
_IO1A_P5EX                                EQU  0000007B   1991*
_IO1A_P6EX                                EQU  00000000   1992*
_IO1A_P7EX                                EQU  00000000   1993*
_IO1B_P4EX                                EQU  000000FF   2000*
_IO1B_P5EX                                EQU  00000070   2001*
_IO1B_P6EX                                EQU  00000000   2002*
_IO1B_P7EX                                EQU  00000000   2003*
_IO2A_P5EX                                EQU  0000002F   1995*
_IO2A_P6EX                                EQU  0000009C   1996*
_IO2A_P7EX                                EQU  00000000   1997*
_IO2B_P5EX                                EQU  00000000   2006*
_IO2B_P6EX                                EQU  0000009C   2007*
_IO2B_P7EX                                EQU  00000000   2008*
_IOGA1_CTRL_DAT1                          IMPT 00000000   4399 
_IOGA_P0                                  EQU  00000000   1949*
_IOGA_P1                                  EQU  00000002   1950*
_IOGA_P2                                  EQU  00000004   1951*
_IOGA_P3                                  EQU  00000006   1952*
_IOGA_P4                                  EQU  00000008   1953*
_IOGA_P5                                  EQU  0000000A   1954*
_IOGA_P6                                  EQU  0000000C   1955*
_IOGA_P7                                  EQU  0000000E   1956*
_IOGA_PDIR0                               EQU  00000002   1974*
_IOGA_PDIR1                               EQU  00000006   1975*
_IOGA_PDIR2                               EQU  0000000A   1976*
_IOGA_PDIR3                               EQU  0000000E   1977*
*** SuperH RISC engine ASSEMBLER V.7.01.02.000 ***    07/04/21 19:29:06                                                  PAGE    48

*** CROSS REFERENCE LIST

NAME                             SECTION  ATTR VALUE             SEQUENCE

_IOGA_PDIR4                               EQU  00000012   1978*
_IOGA_PDIR5                               EQU  00000016   1979*
_IOGA_PDIR6                               EQU  0000001A   1980*
_IOGA_PDIR7                               EQU  0000001C   1981*
_IOGA_PDR0                                EQU  00000000   1964*
_IOGA_PDR1                                EQU  00000004   1965*
_IOGA_PDR2                                EQU  00000008   1966*
_IOGA_PDR3                                EQU  0000000C   1967*
_IOGA_PDR4                                EQU  00000010   1968*
_IOGA_PDR5                                EQU  00000014   1969*
_IOGA_PDR6                                EQU  00000018   1970*
_IOGA_PDR7                                EQU  0000001C   1971*
_IOGAi_PA                                 EQU  00000000   1940*
_IOGAi_PB                                 EQU  00000002   1941*
_IOGAi_PC                                 EQU  00000004   1942*
_IOGAi_PD                                 EQU  00000006   1943*
_IOGAo_PE                                 EQU  00000008   1944*
_IOGAo_PF                                 EQU  0000000A   1945*
_IOGAo_PG                                 EQU  0000000C   1946*
_IOGAo_PH                                 EQU  0000000E   1947*
_IPR3                                     IMPT 00000000    133 
_IPR4                                     IMPT 00000000    134 
_IPRA                                     IMPT 00000000    237 
_IPRB                                     IMPT 00000000    238 
_IPRC                                     IMPT 00000000     25 
_IPRD                                     IMPT 00000000     26 
_IPRE                                     IMPT 00000000     27 
_IPRF                                     IMPT 00000000    131 
_IPRG                                     IMPT 00000000    132 
_IRAM_SIZE                                EQU  00007FFF   1931*
_IRAM_TOP                                 EQU  FFFF6000   1930*
_IRQ_EMG_CNT                              IMPT 00000000   3153 
_IRQ_EMG_FLG                              IMPT 00000000   3152 
_IRQ_SFY_CNT                              IMPT 00000000   3155 
_IRQ_SFY_FLG                              IMPT 00000000   3154 
_IRQ_STP_CNT                              IMPT 00000000   3157 
_IRQ_STP_FLG                              IMPT 00000000   3156 
_IRR0                                     IMPT 00000000     19  5124  5277  5429  5582  5734  5885 
_IRR1                                     IMPT 00000000     20 
_IRR2                                     IMPT 00000000     21 
_KAJLIV_TTL_IDOBUF                        IMPT 00000000   3711 
_KAJLIV_TTL_POINT                         IMPT 00000000   3710 
_KAJLIV_TTL_TOTAL                         IMPT 00000000   3708 
_KJPHOS_CAL_PRS                           IMPT 00000000   2562 
_KJPHOS_DEF_CNT_PV                        IMPT 00000000   2554 
_KJPHOS_IDO_BUF                           IMPT 00000000   2557 
_KJPHOS_IDO_CNT                           IMPT 00000000   2551 
_KJPHOS_IDO_POINT                         IMPT 00000000   2550 
_KJPHOS_IDO_TOTAL                         IMPT 00000000   2556 
_KJPHOS_USE_FLG                           IMPT 00000000   2549 
_KJPHOS_WAIT_CNT_PV                       IMPT 00000000   2553 
_KJYUU_DEF_DAT_PV                         IMPT 00000000   2560 
_KJYUU_IN_DAT_PV                          IMPT 00000000   2559 
_KJYUU_NEW_DAT_PV                         IMPT 00000000   2561 
*** SuperH RISC engine ASSEMBLER V.7.01.02.000 ***    07/04/21 19:29:06                                                  PAGE    49

*** CROSS REFERENCE LIST

NAME                             SECTION  ATTR VALUE             SEQUENCE

_KJ_AREA_BT0_OLD                          IMPT 00000000   3277 
_KJ_AREA_SIG                              IMPT 00000000   3276 
_KOMA_ASM_RAM_TOP                         IMPT 00000000   2044 
_LDACLNR                                  IMPT 00000000    198 
_LDCNTR                                   IMPT 00000000    202 
_LDDFR                                    IMPT 00000000    187 
_LDHCNR                                   IMPT 00000000    193 
_LDHSYNR                                  IMPT 00000000    194 
_LDICKR                                   IMPT 00000000    185 
_LDINTR                                   IMPT 00000000    199 
_LDLAOR                                   IMPT 00000000    191 
_LDMTR                                    IMPT 00000000    186 
_LDPALCR                                  IMPT 00000000    192 
_LDPMMR                                   IMPT 00000000    200 
_LDPR00                                   IMPT 00000000    184 
_LDPSPR                                   IMPT 00000000    201 
_LDSARL                                   IMPT 00000000    190 
_LDSARU                                   IMPT 00000000    189 
_LDSMR                                    IMPT 00000000    188 
_LDVDLNR                                  IMPT 00000000    195 
_LDVSYNR                                  IMPT 00000000    197 
_LDVTLNR                                  IMPT 00000000    196 
_LINKX_SV_OBJ_ABSPLS                      IMPT 00000000   3192 
_LINK_1ROT_PLS                            IMPT 00000000   2331 
_LINK_2ROT_PLS                            IMPT 00000000   3726 
_LINK_3ROT_PLS                            IMPT 00000000   3727 
_LINK_4ROT_PLS                            IMPT 00000000   3728 
_LINK_CLANK_PV                            IMPT 00000000   3009 
_LINK_MAX_SPD_PLS                         IMPT 00000000   2600 
_LINK_NOWROT_NUMPLS_ZR                    IMPT 00000000   2254 
_LINK_NOWROT_NUM_ZR                       IMPT 00000000   2253 
_LINK_NOWROT_OFSPLS                       IMPT 00000000   2255 
_LINK_NOWROT_OFSPLS_P                     IMPT 00000000   2256 
_LINK_OBJROT_NUMPLS_ZR                    IMPT 00000000   2325 
_LINK_OBJROT_NUM_ZR                       IMPT 00000000   2324 
_LINK_POSE_PLS                            IMPT 00000000   2330 
_LINK_POSS_PLS                            IMPT 00000000   2329 
_LINK_POS_OFFSET1                         IMPT 00000000   2414 
_LINK_POS_OFFSET2                         IMPT 00000000   2415 
_LINK_PV_ABSPLS                           IMPT 00000000   2413 
_LINK_RL_OBJ_ABSPLS                       IMPT 00000000   2374 
_LINK_SV_OBJ_ABSPLS                       IMPT 00000000   2382 
_LINK_SV_OBJ_SPDPLS                       IMPT 00000000   2383 
_LNGTH_ADD_DATA                           IMPT 00000000   2408 
_LNGTH_TOTAL_OUTPLS                       IMPT 00000000   2409 
_LOT_CHK_DBG_CNT1                         IMPT 00000000   2996 
_LOT_CHK_DBG_CNT2                         IMPT 00000000   2997 
_LOT_CHK_FLG                              IMPT 00000000   2223 
_LOT_CNT_FLG                              IMPT 00000000   2221 
_LOT_CNT_TO_MOD                           IMPT 00000000   2222 
_LSA1_FILETR_TIM                          IMPT 00000000   3258 
_LSA2_FILETR_TIM                          IMPT 00000000   3259 
_LSA_CHK_DELAY_TM                         IMPT 00000000   3264 
_LSA_ENC_DIG                              IMPT 00000000   3251 
*** SuperH RISC engine ASSEMBLER V.7.01.02.000 ***    07/04/21 19:29:06                                                  PAGE    50

*** CROSS REFERENCE LIST

NAME                             SECTION  ATTR VALUE             SEQUENCE

_LSA_ENC_MOV_LNG1A                        IMPT 00000000   3252 
_LSA_ENC_MOV_LNG1B                        IMPT 00000000   3253 
_LSA_ENC_MOV_LNG2                         IMPT 00000000   3254 
_LSA_ERR_SIG                              IMPT 00000000   3263 
_LSA_SIG_DT                               IMPT 00000000   3255 
_LSA_SIG_DT2                              IMPT 00000000   3577 
_LSA_SIG_OLD_DT                           IMPT 00000000   3256 
_LSA_SIG_OLD_WRK                          IMPT 00000000   3257 
_LSI_BUF_PLS_BitComdL                     IMPT 00000000   3115 
_LSI_CHK_DBG_CNT1                         IMPT 00000000   3981 
_LSI_CHK_DBG_CNT2                         IMPT 00000000   3982 
_LSI_CHK_DBG_CNT3                         IMPT 00000000   3983 
_LSI_CHK_DBG_CNT4                         IMPT 00000000   3984 
_LSI_CMPCPUAB_POSMAX                      IMPT 00000000   3094 
_LSI_CMPCPUAB_POS_RL                      IMPT 00000000   3093 
_LSI_PLSCLR_AC_CNT1                       IMPT 00000000   3083 
_LSI_PLSCLR_NG_CNT1                       IMPT 00000000   3084 
_LSI_PLSCLR_NG_CNT2                       IMPT 00000000   3085 
_LSI_PLSCLR_RETRY_CNT1                    IMPT 00000000   3066 
_LSI_PLSCMP_AC_CNT1                       IMPT 00000000   3079 
_LSI_PLSCMP_NG_CNT1                       IMPT 00000000   3077 
_LSI_PLSCMP_RETRY_CNT1                    IMPT 00000000   3076 
_LSI_PLSRD_NG_CNT1                        IMPT 00000000   3080 
_LSI_PLSSET_AC_CNT1                       IMPT 00000000   3086 
_LSI_PLSSET_AC_CNT2                       IMPT 00000000   3087 
_LSI_PLSSET_NG_CNT1                       IMPT 00000000   3088 
_LSI_PLSSET_NG_CNT2                       IMPT 00000000   3089 
_LSI_PLSSET_NG_CNT3                       IMPT 00000000   3090 
_LSI_PLSSET_RETRY_CNT1                    IMPT 00000000   3067 
_LSI_SET_SPD_MAXLMT                       IMPT 00000000   3177 
_LSI_SET_SPD_MINLMT                       IMPT 00000000   3178 
_LSI_SET_SPD_SV                           IMPT 00000000   3176 
_LT_INT_LINK_RL_OBJ_ABSPLS                IMPT 00000000   3027 
_LT_LINK_SV_OBJ_ABSPLS                    IMPT 00000000   3026 
_LT_LNGTH_ADD_DATA                        IMPT 00000000   3028 
_LT_LNGTH_TOTAL_OUTPLS                    IMPT 00000000   3029 
_MAIN_CLK                                 IMPT 00000000   4275 
_MAIN_START_OK                            IMPT 00000000   2054 
_MCR                                      IMPT 00000000    243 
_MMUCR                                    IMPT 00000000    269 
_MNWR_POS_CMD                             IMPT 00000000   2343 
_MODE_SEL                                 IMPT 00000000   2184 
_MONI_CPUAB_PLSDELT                       IMPT 00000000   3433 
_MONI_DISP_MOD                            IMPT 00000000   4360 
_MOV_DATA_ERR_FLG1                        IMPT 00000000   2157 
_MOV_ERR_FLG1                             IMPT 00000000   2154 
_MPCR                                     IMPT 00000000    121 
_MRCR                                     IMPT 00000000    120 
_MRTION_SEL                               IMPT 00000000   2189 
_MYUTING_MOD_STOPSEL                      IMPT 00000000   4233 
_M_LINK_AREASIG                           IMPT 00000000   2263 
_M_LINK_RL_OBJ_ABSPLS                     IMPT 00000000   2367 
_NEAR_IN_FLG                              IMPT 00000000   2246 
_NEG_CTL_OBJ_POS_PUSH                     IMPT 00000000   3836 
*** SuperH RISC engine ASSEMBLER V.7.01.02.000 ***    07/04/21 19:29:06                                                  PAGE    51

*** CROSS REFERENCE LIST

NAME                             SECTION  ATTR VALUE             SEQUENCE

_NEG_CTRL_BEFOR_OBJ_PLS                   IMPT 00000000   3834 
_NEG_CTRL_BEFOR_SLW_PLS                   IMPT 00000000   3835 
_NEG_EXITTIM                              IMPT 00000000   4202 
_NEW_POSLSI_RESTPLS                       IMPT 00000000   3095 
_NEW_TEP_CNT                              IMPT 00000000   3323 
_NZ_TIM_OUT_PV1                           IMPT 00000000   2911 
_NZ_TIM_OUT_PV2                           IMPT 00000000   2912 
_NZ_TIM_OUT_SV1                           IMPT 00000000   2909 
_NZ_TIM_OUT_SV2                           IMPT 00000000   2910 
_OBJDIG_CLANK                             IMPT 00000000   4205 
_OBJ_ENC360                               IMPT 00000000   2098 
_OLD_RNAORG_POS1                          IMPT 00000000   2085 
_OPE_RE_INT                               IMPT 00000000   4394  6005 
_OPE_RX_INT                               IMPT 00000000   4395  6025 
_OPE_TX_INT                               IMPT 00000000   4396  6050 
_ORGIN2_STEP_FLG                          IMPT 00000000   3845 
_ORGIN_END_FLG1                           IMPT 00000000   2622 
_ORGIN_MOD2_CHKTIM                        IMPT 00000000   3347 
_ORGIN_MOD2_SEL                           IMPT 00000000   3346 
_ORGIN_MOD2_START_FLG                     IMPT 00000000   3348 
_ORGPOS_LATCH1_INC_OFFSET_PLS             IMPT 00000000   3901 
_ORGPOS_LATCH1_RNA_ABS_DAT                IMPT 00000000   3902 
_ORGPOS_SERCH_RNA_ABS_DAT                 IMPT 00000000   3903 
_ORG_DND_NOMAL_FLG1                       IMPT 00000000   2161 
_ORG_DRV_CNT_PV                           IMPT 00000000   2983 
_ORG_ELSE_NOMAL_FLG1                      IMPT 00000000   2160 
_ORG_FIRST_OBJPLS                         IMPT 00000000   2613 
_ORG_PRESET_TIM                           IMPT 00000000   2169 
_ORG_RDY_CTL_FLG                          IMPT 00000000   2984 
_ORG_SECOND_OBJPLS                        IMPT 00000000   2614 
_ORIGN_180ARA_FLG                         IMPT 00000000   3541 
_ORIGN_OBJ_CTL_FLG                        IMPT 00000000   3179 
_OUTPLS_1000MSEC_LAT                      IMPT 00000000   2970 
_OUTPLS_DELT                              IMPT 00000000   2966 
_OUTPLS_DIV                               IMPT 00000000   2417 
_OUTPLS_MOD                               IMPT 00000000   2416 
_OUTPLS_POINT_SEL                         IMPT 00000000   2969 
_OUTPLS_SPD_AVL_TOP                       IMPT 00000000   2967 
_OUTPLS_SPD_POINT                         IMPT 00000000   2968 
_OUTPLS_SPD_TOTAL                         IMPT 00000000   2962 
_OUT_PLS_SPD                              IMPT 00000000   2963 
_OUT_PLS_SPD_DIR                          IMPT 00000000   2965 
_OVERH_CALC_USE                           IMPT 00000000   4199 
_OVERH_MODE_SEL                           IMPT 00000000   4197 
_OVERLIDE_DT_SEL                          IMPT 00000000   3395 
_OVER_LIDE_ANS_TIM                        IMPT 00000000   3422 
_OVER_RIDE_LATE_ANS                       IMPT 00000000   3385 
_OVER_RIDE_LATE_FLG                       IMPT 00000000   3383 
_OVER_RIDE_LATE_REQ                       IMPT 00000000   3384 
_OVER_RIDE_USEFUL                         IMPT 00000000   3417 
_OVER_UPDN_DBGCNT                         IMPT 00000000   3419 
_PACR                                     IMPT 00000000     78 
_PADR                                     IMPT 00000000     91 
_PBCR                                     IMPT 00000000     79 
*** SuperH RISC engine ASSEMBLER V.7.01.02.000 ***    07/04/21 19:29:06                                                  PAGE    52

*** CROSS REFERENCE LIST

NAME                             SECTION  ATTR VALUE             SEQUENCE

_PBDR                                     IMPT 00000000     92 
_PCC0CSCIER                               IMPT 00000000    115 
_PCC0CSCR                                 IMPT 00000000    114 
_PCC0GCR                                  IMPT 00000000    113 
_PCC0ISR                                  IMPT 00000000    112 
_PCCR                                     IMPT 00000000     80 
_PCDR                                     IMPT 00000000     93 
_PCR                                      IMPT 00000000    244 
_PDCR                                     IMPT 00000000     81 
_PDDR                                     IMPT 00000000     94 
_PECR                                     IMPT 00000000     82 
_PEDR                                     IMPT 00000000     95 
_PFCR                                     IMPT 00000000     83 
_PFDR                                     IMPT 00000000     96 
_PGCR                                     IMPT 00000000     84 
_PGDR                                     IMPT 00000000     97 
_PHCR                                     IMPT 00000000     85 
_PHDR                                     IMPT 00000000     98 
_PINTER                                   IMPT 00000000     24 
_PJCR                                     IMPT 00000000     86 
_PJDR                                     IMPT 00000000     99 
_PKCR                                     IMPT 00000000     87 
_PKDR                                     IMPT 00000000    100 
_PLCR                                     IMPT 00000000     88 
_PLDR                                     IMPT 00000000    101 
_PLS_OUTPUT_FLG                           IMPT 00000000   2902 
_PLS_OUT_END_STS                          IMPT 00000000   4258 
_PLSiCH1                                  EQU  00000000   2016*
_PLSiCH2                                  EQU  00000030   2017*
_PL_BitComdH                              EQU  00000002   2020*
_PL_BitComdL                              EQU  00000000   2019*
_PL_BitInfoH                              EQU  00000006   2022*
_PL_BitInfoL                              EQU  00000004   2021*
_PL_CtrlReg                               EQU  0000002A   2026*
_PL_NowPos1H                              EQU  00000026   2024*
_PL_NowPos1L                              EQU  00000024   2023*
_PL_NowPos2                               EQU  00000028   2025*
_PMCR                                     IMPT 00000000     90 
_PMDR                                     IMPT 00000000    103 
_POSCTL_CALC_ERR                          IMPT 00000000   3370 
_POSCTL_OVER_ACC_LAT                      IMPT 00000000   3426 
_POSCTL_OVER_SPD_LAT                      IMPT 00000000   3425 
_POSCTL_RL_PLS                            IMPT 00000000   3357 
_POSCTL_RL_SPD                            IMPT 00000000   3361 
_POSCTL_SET_SPD                           IMPT 00000000   3359 
_POSCTL_STEP_CMD                          IMPT 00000000   3368 
_POSCTL_STEP_FLG                          IMPT 00000000   3369 
_POSCTL_SV_DN_ACC                         IMPT 00000000   3364 
_POSCTL_SV_OFS_SPD                        IMPT 00000000   3366 
_POSCTL_SV_PLS                            IMPT 00000000   3356 
_POSCTL_SV_SPD                            IMPT 00000000   3360 
_POSCTL_SV_UP_ACC                         IMPT 00000000   3363 
_POSLSI_CHK_CNT                           IMPT 00000000   2426 
_POSLSI_CHK_DLT                           IMPT 00000000   2427 
*** SuperH RISC engine ASSEMBLER V.7.01.02.000 ***    07/04/21 19:29:06                                                  PAGE    53

*** CROSS REFERENCE LIST

NAME                             SECTION  ATTR VALUE             SEQUENCE

_POSLSI_CHK_RESTPLS                       IMPT 00000000   2420 
_POSLSI_CHK_STS                           IMPT 00000000   2428 
_POSLSI_CMP_DATA                          IMPT 00000000   2410 
_POSLSI_DELT_POS                          IMPT 00000000   2411 
_POSLSI_DRIV_SHIN                         IMPT 00000000   2419 
_POSLSI_DRV_FRQ                           IMPT 00000000   3096 
_POSLSI_HENSA_LATCH                       IMPT 00000000   2424 
_POSLSI_OUTPUT_TOTAL_PLS                  IMPT 00000000   2422 
_POS_CALC_ERR_FLG1                        IMPT 00000000   3069 
_POS_CALC_ERR_FLG2                        IMPT 00000000   3070 
_POS_CALC_ERR_INF1                        IMPT 00000000   3073 
_POS_CALC_ERR_INF2                        IMPT 00000000   3074 
_POS_CTRL_SQ_STS                          IMPT 00000000   2390 
_POS_DRV_DIRECT                           IMPT 00000000   2384 
_POS_FRQ_SPDMAX                           IMPT 00000000   2606 
_POS_GPOINT_POS                           IMPT 00000000   3459 
_POS_LSI_ABSPLS                           IMPT 00000000   2472 
_POS_LSI_ACCLT1                           IMPT 00000000   2610 
_POS_LSI_ACCLT2                           IMPT 00000000   2611 
_POS_LSI_ACS_ERR_FLG1                     IMPT 00000000   3068 
_POS_LSI_ACS_ERR_INF1                     IMPT 00000000   3072 
_POS_LSI_CLSINC_SPDBAS                    IMPT 00000000   2628 
_POS_LSI_CLS_SPDBAS                       IMPT 00000000   2627 
_POS_LSI_CTL_NOWPLS                       IMPT 00000000   2476 
_POS_LSI_OFFSET1                          IMPT 00000000   2474 
_POS_LSI_OFFSET2                          IMPT 00000000   2475 
_POS_LSI_OLDCNT                           IMPT 00000000   2478 
_POS_LSI_SPDBAS                           IMPT 00000000   2609 
_POS_LSI_SPDLAT                           IMPT 00000000   2608 
_POS_LSI_SPDMAX                           IMPT 00000000   2607 
_POS_LSI_TOTAL_PLS                        IMPT 00000000   2471 
_PRD_DAI_CMP_ENB                          IMPT 00000000   3021 
_PRD_DAI_POS0                             IMPT 00000000   3019 
_PRD_DAI_POS1                             IMPT 00000000   3020 
_PRD_KJP_CMP_ENB                          IMPT 00000000   3507 
_PTEH                                     IMPT 00000000    273 
_PTEL                                     IMPT 00000000    274 
_PVCK_STOP_SMPTIM                         IMPT 00000000   2806 
_PVC_BRK_ENC_SPD                          IMPT 00000000   2974 
_PVC_BRK_OUT_SPD                          IMPT 00000000   2975 
_PVX_AMPERR_TIM1                          IMPT 00000000   2746 
_PVX_AMPERR_TIM2                          IMPT 00000000   2747 
_PVX_AMPERR_TIM3                          IMPT 00000000   2748 
_PVX_CKSPD_OVBIT                          IMPT 00000000   4238 
_PVX_DAI_POS0                             IMPT 00000000   2492 
_PVX_DAI_POS1                             IMPT 00000000   2493 
_PVX_DNMOD_DLYTIM                         IMPT 00000000   4222 
_PVX_DYHITO_POS                           IMPT 00000000   2500 
_PVX_IAMP_VLT                             IMPT 00000000   2749 
_PVX_INPPOS_TIM1                          IMPT 00000000   2722 
_PVX_MOTINS_AG2                           IMPT 00000000   4043 
_PVX_MOTINS_AG2X                          IMPT 00000000   4044 
_PVX_MOTINS_AG3                           IMPT 00000000   4049 
_PVX_MOTINS_AG3X                          IMPT 00000000   4050 
*** SuperH RISC engine ASSEMBLER V.7.01.02.000 ***    07/04/21 19:29:06                                                  PAGE    54

*** CROSS REFERENCE LIST

NAME                             SECTION  ATTR VALUE             SEQUENCE

_PVX_MOTINS_AGL                           IMPT 00000000   4046 
_PVX_MOTINS_AGLX                          IMPT 00000000   4047 
_PVX_MOTINS_DAN                           IMPT 00000000   4054 
_PVX_MOTINS_DANAFT                        IMPT 00000000   4055 
_PVX_MOTINS_DANBEF                        IMPT 00000000   4053 
_PVX_MOTINS_INF                           IMPT 00000000   4057 
_PVX_MOTINS_POS                           IMPT 00000000   4040 
_PVX_MOTINS_PS2                           IMPT 00000000   4039 
_PVX_MOTINS_PS3                           IMPT 00000000   4041 
_PVX_RNA_STLORK                           IMPT 00000000   2494 
_PV_ENC_SPD_PER                           IMPT 00000000   2972 
_PV_OUT_SPD_PER                           IMPT 00000000   2973 
_R64CNT                                   IMPT 00000000    220 
_RCNT                                     IMPT 00000000    123 
_RCR1                                     IMPT 00000000    234 
_RCR2                                     IMPT 00000000    235 
_RDAYAR                                   IMPT 00000000    232 
_RDAYCNT                                  IMPT 00000000    225 
_RDFP                                     IMPT 00000000    127 
_RDR0                                     IMPT 00000000    208 
_RDY_SFTY_LOCK                            IMPT 00000000   3243 
_RDY_SFTY_WAIT_TIM                        IMPT 00000000   3244 
_RESET_ROTNUMPLS_ZR                       IMPT 00000000   2288 
_RESET_ROTNUM_ZR                          IMPT 00000000   2287 
_REVCHK_DRIV_SHIN                         IMPT 00000000   4124 
_REVCHK_MASK_PVTIM                        IMPT 00000000   4125 
_REVMOD_REVDN_DIG                         IMPT 00000000   4127 
_REV_CALC_WORK0                           IMPT 00000000   2797 
_REV_CALC_WORK1                           IMPT 00000000   2798 
_REV_CALC_WORK2                           IMPT 00000000   2799 
_REV_ERR_WAIT_TIMPV                       IMPT 00000000   4123 
_REV_LATCH_ENCPOS                         IMPT 00000000   2442 
_REV_LATCH_OUTPLS                         IMPT 00000000   2441 
_REV_LATCH_RNAPOS                         IMPT 00000000   2443 
_RFCR                                     IMPT 00000000    248 
_RHRAR                                    IMPT 00000000    230 
_RHRCNT                                   IMPT 00000000    223 
_RMINAR                                   IMPT 00000000    229 
_RMINCNT                                  IMPT 00000000    222 
_RMONAR                                   IMPT 00000000    233 
_RMONCNT                                  IMPT 00000000    226 
_RNA_ABS_DRVHOS_DT                        IMPT 00000000   2533 
_RNA_ABS_MAXPOS                           IMPT 00000000   2512 
_RNA_ABS_MD2_C1                           IMPT 00000000   3860 
_RNA_ABS_MD2_C1A                          IMPT 00000000   3861 
_RNA_ABS_MD2_C2                           IMPT 00000000   3862 
_RNA_ABS_MD_DT0                           IMPT 00000000   2496 
_RNA_ABS_MD_DT1                           IMPT 00000000   2497 
_RNA_ABS_MEMORG                           IMPT 00000000   2489 
_RNA_ABS_MINPOS                           IMPT 00000000   2511 
_RNA_ABS_ORGWORK                          IMPT 00000000   2480 
_RNA_ABS_ORGWORK2                         IMPT 00000000   3854 
_RNA_ABS_ORGWORK2A                        IMPT 00000000   3855 
_RNA_ABS_POS                              IMPT 00000000   2488 
*** SuperH RISC engine ASSEMBLER V.7.01.02.000 ***    07/04/21 19:29:06                                                  PAGE    55

*** CROSS REFERENCE LIST

NAME                             SECTION  ATTR VALUE             SEQUENCE

_RNA_ABS_WKMAXPOS                         IMPT 00000000   2510 
_RNA_ABS_WKMINPOS                         IMPT 00000000   2509 
_RNA_BBN_MESURE_POINT                     IMPT 00000000   3998 
_RNA_BBN_MESURE_SPOS_BUF                  IMPT 00000000   3991 
_RNA_BBN_MESURE_SSPD                      IMPT 00000000   3993 
_RNA_BBN_MESURE_SSPD_BUF                  IMPT 00000000   3992 
_RNA_BBN_MEUSRE_ACC                       IMPT 00000000   3995 
_RNA_BBN_MEUSRE_ACC_SRC                   IMPT 00000000   3994 
_RNA_BBN_SET_TIME                         IMPT 00000000   3997 
_RNA_CMD_RD_CNT                           IMPT 00000000   2111 
_RNA_CMD_SND_CNT                          IMPT 00000000   2110 
_RNA_COM_ERR_CNT                          IMPT 00000000   2103 
_RNA_COM_NML_CNT                          IMPT 00000000   2104 
_RNA_CTL_POS0                             IMPT 00000000   2498 
_RNA_CTL_POS1                             IMPT 00000000   2499 
_RNA_ENC360                               IMPT 00000000   2095 
_RNA_HOS_DELT                             IMPT 00000000   2501 
_RNA_INSERT_CHKFLG                        IMPT 00000000   4010 
_RNA_LINK_NOWROT_OFSPLS_P                 IMPT 00000000   2279 
_RNA_OLD_STEP                             IMPT 00000000   4013 
_RNA_POS_OFFSET1                          IMPT 00000000   2486 
_RNA_POS_OFFSET2                          IMPT 00000000   2487 
_RNA_PROTOCOL_SEL                         IMPT 00000000   3557 
_RNA_RESET_FLG                            IMPT 00000000   2106 
_RNA_RESET_TIM                            IMPT 00000000   2107 
_RNA_STLORK                               IMPT 00000000   2491 
_RNA_STLORK_HALF                          IMPT 00000000   3852 
_RNA_STOP_CNT                             IMPT 00000000   2807 
_RNA_TECH_POINT                           IMPT 00000000   4009 
_RNA_TECH_POSBUF                          IMPT 00000000   4008 
_ROOT_MAIN_INP                            IMPT 00000000   4366 
_ROOT_MAIN_OUT                            IMPT 00000000   4367 
_RSECAR                                   IMPT 00000000    228 
_RSECCNT                                  IMPT 00000000    221 
_RST_ERR_CHK_ERR                          IMPT 00000000   2447 
_RST_ERR_CHK_FLG                          IMPT 00000000   2445 
_RTCNT                                    IMPT 00000000    246 
_RTCOR                                    IMPT 00000000    247 
_RTCSR                                    IMPT 00000000    245 
_RWKAR                                    IMPT 00000000    231 
_RWKCNT                                   IMPT 00000000    224 
_RYRCNT                                   IMPT 00000000    227 
_SAME_TIM                                 IMPT 00000000   2231 
_SAR0                                     IMPT 00000000     28 
_SAR1                                     IMPT 00000000     32 
_SAR2                                     IMPT 00000000     36 
_SAR3                                     IMPT 00000000     40 
_SCAN_DBG_CNT                             IMPT 00000000   4294 
_SCAN_SMP_SIG                             IMPT 00000000   4281 
_SCAN_TIM_IDOBUF                          IMPT 00000000   4272 
_SCAN_TIM_IN                              IMPT 00000000   4277 
_SCAN_TIM_POINT                           IMPT 00000000   4273 
_SCAN_TIM_TOTAL                           IMPT 00000000   4271 
_SCBRR2                                   IMPT 00000000    105 
*** SuperH RISC engine ASSEMBLER V.7.01.02.000 ***    07/04/21 19:29:06                                                  PAGE    56

*** CROSS REFERENCE LIST

NAME                             SECTION  ATTR VALUE             SEQUENCE

_SCFCR2                                   IMPT 00000000    110 
_SCFDR2                                   IMPT 00000000    111 
_SCFRDR2                                  IMPT 00000000    109 
_SCFTDR2                                  IMPT 00000000    107 
_SCPCR                                    IMPT 00000000     89 
_SCPDR                                    IMPT 00000000    102 
_SCR0                                     IMPT 00000000    205 
_SCSCMR                                   IMPT 00000000    209 
_SCSCR2                                   IMPT 00000000    106 
_SCSMR2                                   IMPT 00000000    104 
_SCSSR2                                   IMPT 00000000    108 
_SDATCLS_OBJMM                            IMPT 00000000   2634 
_SDATCLS_OBJPLS                           IMPT 00000000   2633 
_SDATCLS_OBJ_NEAR_UPDNPLS                 IMPT 00000000   2635 
_SDATCLS_TRG_STEP                         IMPT 00000000   2637 
_SDATCLS_UPOBJ_PLS                        IMPT 00000000   2636 
_SDAT_WAIT_PVTIM                          IMPT 00000000   2333 
_SDDRL                                    IMPT 00000000    130 
_SDDR_SDDRH                               IMPT 00000000    129 
_SDIR                                     IMPT 00000000    128 
_SELF_AD_LATCH                            IMPT 00000000   3232 
_SELF_BRK_LOCK                            IMPT 00000000   3228 
_SELF_CHK_MATHED                          IMPT 00000000   3227 
_SELF_CHK_SEL                             IMPT 00000000   2178 
_SELF_COM                                 IMPT 00000000   2176 
_SELF_FIRST_END_FLG                       IMPT 00000000   3225 
_SELF_FLG                                 IMPT 00000000   2174 
_SELF_LOCK_FLG                            IMPT 00000000   3512 
_SELF_MOV_LENGTH                          IMPT 00000000   3235 
_SELF_MOV_SPEED                           IMPT 00000000   3236 
_SELF_SECOND_ACT_FLG                      IMPT 00000000   3230 
_SELF_SECOND_STEP                         IMPT 00000000   3231 
_SELF_START_POS_LATCH                     IMPT 00000000   3234 
_SELF_START_WAIT_TM                       IMPT 00000000   2177 
_SELF_TIMING_SIG                          IMPT 00000000   3226 
_SET1_ACCLAT_TIM1                         IMPT 00000000   2709 
_SET1_AMP100P_VLT                         IMPT 00000000   2743 
_SET1_ARACHK_LNG1                         IMPT 00000000   2724 
_SET1_BREAK_DIG                           IMPT 00000000   3007 
_SET1_BREAK_TIM1                          IMPT 00000000   3005 
_SET1_CNT_CNT                             IMPT 00000000   2652 
_SET1_CNT_TIM                             IMPT 00000000   2650 
_SET1_DAIHAI_LNG1                         IMPT 00000000   2735 
_SET1_DAIHAI_LNG2                         IMPT 00000000   2736 
_SET1_DAIHAI_LNG3                         IMPT 00000000   2737 
_SET1_DAIHAI_ORG0                         IMPT 00000000   2754 
_SET1_DAIORG0_CMP1DN                      IMPT 00000000   2756 
_SET1_DAIORG0_CMP1UP                      IMPT 00000000   2755 
_SET1_DAIORG0_CMP2DN                      IMPT 00000000   2758 
_SET1_DAIORG0_CMP2UP                      IMPT 00000000   2757 
_SET1_DAIORG0_CMP3DN                      IMPT 00000000   2760 
_SET1_DAIORG0_CMP3UP                      IMPT 00000000   2759 
_SET1_DAIORG0_CMP4DN                      IMPT 00000000   2762 
_SET1_DAIORG0_CMP4UP                      IMPT 00000000   2761 
*** SuperH RISC engine ASSEMBLER V.7.01.02.000 ***    07/04/21 19:29:06                                                  PAGE    57

*** CROSS REFERENCE LIST

NAME                             SECTION  ATTR VALUE             SEQUENCE

_SET1_DNAREA_INPX                         IMPT 00000000   2712 
_SET1_DNAREA_INPXPLS                      IMPT 00000000   2716 
_SET1_DNAREA_JUDG                         IMPT 00000000   2686 
_SET1_DNDINC_SPD1                         IMPT 00000000   2695 
_SET1_DND_DIGTOP                          IMPT 00000000   3286 
_SET1_DND_PLSTOP                          IMPT 00000000   3287 
_SET1_DND_STOPDIG_UP                      IMPT 00000000   3285 
_SET1_DND_STOP_SW                         IMPT 00000000   3284 
_SET1_DND_UPPLS                           IMPT 00000000   3288 
_SET1_ENC360_HOS1                         IMPT 00000000   2726 
_SET1_FULCLS_MXPLS                        IMPT 00000000   2738 
_SET1_INCDIR_SEL1                         IMPT 00000000   2667 
_SET1_INCENC_ELNG                         IMPT 00000000   2729 
_SET1_INCHEN_ELNG                         IMPT 00000000   2728 
_SET1_INCPLS_1REV                         IMPT 00000000   2664 
_SET1_INCPLS_HOSM                         IMPT 00000000   2669 
_SET1_INCPLS_HOSN                         IMPT 00000000   2668 
_SET1_INCPOS_KP01                         IMPT 00000000   2707 
_SET1_INCREV_ELNG                         IMPT 00000000   2733 
_SET1_INCRNA_ELNG                         IMPT 00000000   2730 
_SET1_INCSTP_ELNG                         IMPT 00000000   2731 
_SET1_INPPOS_TIM1                         IMPT 00000000   2721 
_SET1_KATTCH_SPD                          IMPT 00000000   4067 
_SET1_KJEND_DIG1                          IMPT 00000000   3275 
_SET1_KJEND_STEP1                         IMPT 00000000   3274 
_SET1_KJSTR_DIG1                          IMPT 00000000   3273 
_SET1_KJSTR_STEP1                         IMPT 00000000   3272 
_SET1_LSAABN_AGL1                         IMPT 00000000   3261 
_SET1_LSAABN_AGL2                         IMPT 00000000   3262 
_SET1_MAX_KJYU                            IMPT 00000000   3714 
_SET1_MOTMAX_FREQ                         IMPT 00000000   2681 
_SET1_MOTRPM_MAXM                         IMPT 00000000   2671 
_SET1_MRTION_SEL1                         IMPT 00000000   2764 
_SET1_MTSTEP_MAXM                         IMPT 00000000   2765 
_SET1_NEG_OFS_LNG                         IMPT 00000000   2742 
_SET1_OBJARA_INPX                         IMPT 00000000   2713 
_SET1_OBJARA_INPXPLS                      IMPT 00000000   2717 
_SET1_OBJARA_INPXPSX                      IMPT 00000000   2719 
_SET1_OBJECT_DIG_TOP                      IMPT 00000000   2787 
_SET1_OBJECT_PLS_TOP                      IMPT 00000000   2775 
_SET1_OBJECT_POS_TOP                      IMPT 00000000   2770 
_SET1_OBJECT_SPD_TOP                      IMPT 00000000   2778 
_SET1_OBJECT_TIM_TOP                      IMPT 00000000   2782 
_SET1_OBJ_CAM_DIG_TOP                     IMPT 00000000   2821 
_SET1_OVERLIDE_COF                        IMPT 00000000   3396 
_SET1_PLSAHI_PLS                          IMPT 00000000   3312 
_SET1_PLSALO_PLS                          IMPT 00000000   3311 
_SET1_RCAMON_POS_TOP                      IMPT 00000000   2823 
_SET1_RCAMON_TIM_TOP                      IMPT 00000000   2824 
_SET1_REVDAT_SPD1                         IMPT 00000000   2698 
_SET1_REVDAT_SPD2                         IMPT 00000000   2701 
_SET1_REVDAT_SPD3                         IMPT 00000000   2702 
_SET1_RNADIR_SEL1                         IMPT 00000000   2666 
_SET1_RNAORG_POS1                         IMPT 00000000   2682 
*** SuperH RISC engine ASSEMBLER V.7.01.02.000 ***    07/04/21 19:29:06                                                  PAGE    58

*** CROSS REFERENCE LIST

NAME                             SECTION  ATTR VALUE             SEQUENCE

_SET1_RNAPOS_KP01                         IMPT 00000000   2708 
_SET1_RNAPOS_MAXP                         IMPT 00000000   2683 
_SET1_RNAPOS_MINP                         IMPT 00000000   2684 
_SET1_RNAREV_ELNG                         IMPT 00000000   2734 
_SET1_RNASTP_ELNG                         IMPT 00000000   2732 
_SET1_RPARAM_TOP1                         IMPT 00000000   2660 
_SET1_SSCURV_TIM1                         IMPT 00000000   2710 
_SET1_STDINC_SPD1                         IMPT 00000000   2697 
_SET1_TEPCTL_SPD1                         IMPT 00000000   3319 
_SET1_TEPLAT_DAT1                         IMPT 00000000   2704 
_SET1_TEPLAT_DAT2                         IMPT 00000000   2705 
_SET1_UPAREA_DIG0                         IMPT 00000000   2786 
_SET1_UPAREA_DIG1                         IMPT 00000000   2725 
_SET1_UPAREA_INPX                         IMPT 00000000   2711 
_SET1_UPAREA_INPXPLS                      IMPT 00000000   2715 
_SET1_UPAREA_JUDG                         IMPT 00000000   2685 
_SET1_UPAREA_PLS0                         IMPT 00000000   2773 
_SET1_UPAREA_PLS1                         IMPT 00000000   2774 
_SET1_UPAREA_POS0                         IMPT 00000000   2769 
_SET1_UPAREA_POS1                         IMPT 00000000   2605 
_SET1_UPAREA_SPD0                         IMPT 00000000   2777 
_SET1_UPAREA_SPD1                         IMPT 00000000   2696 
_SET1_UPAREA_TIM0                         IMPT 00000000   2781 
_SET1_UPCLEEP_SPD                         IMPT 00000000   2699 
_SET1_VIB_KJYU_TTL                        IMPT 00000000   3713 
_SET360_UPAREA_DIG1                       IMPT 00000000   3569 
_SET360_UPAREA_PLS1                       IMPT 00000000   3570 
_SETC_KJEND_DIG1                          IMPT 00000000   3652 
_SETC_KJSTR_DIG1                          IMPT 00000000   3651 
_SETD_DEGMAX_LNGTH                        IMPT 00000000   4324 
_SETD_DEGSPD_MAX                          IMPT 00000000   4323 
_SETD_LINK_MAX_SPD_PLS                    IMPT 00000000   3761 
_SETD_MOTRPM_MAXM                         IMPT 00000000   3762 
_SETXY_LINK_UP_POS_DN                     IMPT 00000000   3633 
_SETXY_LINK_UP_POS_UP                     IMPT 00000000   3632 
_SETXY_UPAREA_DIG                         IMPT 00000000   3628 
_SETXY_UPAREA_PLS                         IMPT 00000000   3627 
_SETX_ACCERR2_DLY1                        IMPT 00000000   3973 
_SETX_ACCERR_DLY1                         IMPT 00000000   3967 
_SETX_ACCERR_DLY2                         IMPT 00000000   3968 
_SETX_ACCERR_ERR1DAT                      IMPT 00000000   3960 
_SETX_ACCERR_ERR2DAT                      IMPT 00000000   3961 
_SETX_ACCERR_ERR3DAT                      IMPT 00000000   3962 
_SETX_ACCERR_SEL                          IMPT 00000000   3972 
_SETX_ACCERR_ZEROHAB                      IMPT 00000000   3959 
_SETX_BANK_USELFUL                        IMPT 00000000   3185 
_SETX_BREAK_DIG2                          IMPT 00000000   3698 
_SETX_BREAK_TIM2                          IMPT 00000000   3699 
_SETX_DAIPOS_MAXP                         IMPT 00000000   2691 
_SETX_DAIPOS_MINP                         IMPT 00000000   2692 
_SETX_DNAREA_JG_LNK                       IMPT 00000000   2687 
_SETX_DNAREA_JG_PLS                       IMPT 00000000   2688 
_SETX_FULCLS_AREA_DIG                     IMPT 00000000   2630 
_SETX_FULCLS_AREA_PLS                     IMPT 00000000   2631 
*** SuperH RISC engine ASSEMBLER V.7.01.02.000 ***    07/04/21 19:29:06                                                  PAGE    59

*** CROSS REFERENCE LIST

NAME                             SECTION  ATTR VALUE             SEQUENCE

_SETX_HOLD_CMP1_DEG                       IMPT 00000000   3979 
_SETX_INCPLS_HOSM                         IMPT 00000000   2670 
_SETX_KJEND_DIG1                          IMPT 00000000   3647 
_SETX_KJSTR_DIG1                          IMPT 00000000   3646 
_SETX_LINK_UP_POS_DN                      IMPT 00000000   2274 
_SETX_LINK_UP_POS_UP                      IMPT 00000000   2273 
_SETX_MAX_ACC_LATE                        IMPT 00000000   3958 
_SETX_OUTPLS_HOSA                         IMPT 00000000   2678 
_SETX_OUTPLS_HOSB                         IMPT 00000000   2679 
_SETX_OVERH_AMP                           IMPT 00000000   4196 
_SETX_OVERH_LNGTH                         IMPT 00000000   4195 
_SETX_POS_CTL_MATH                        IMPT 00000000   2307 
_SETX_POS_MOD_FLG1                        IMPT 00000000   2306 
_SETX_POS_SDAT1_CNTSTEP                   IMPT 00000000   2298 
_SETX_POS_SDAT1_INF1                      IMPT 00000000   2299 
_SETX_POS_SDAT1_OFSPOS                    IMPT 00000000   2295 
_SETX_POS_SDAT1_SPD                       IMPT 00000000   2296 
_SETX_POS_SDAT1_TIM                       IMPT 00000000   2297 
_SETX_POS_SDAT2_INF1                      IMPT 00000000   2305 
_SETX_POS_SDAT2_OFSPOS                    IMPT 00000000   2301 
_SETX_POS_STEP_MAX                        IMPT 00000000   2308 
_SETX_RNA_ACC_BEFTIM                      IMPT 00000000   4011 
_SETX_RNA_ACC_CHKPOS                      IMPT 00000000   4012 
_SETX_UPAREA_DIG                          IMPT 00000000   2603 
_SETX_UPAREA_PLS                          IMPT 00000000   2601 
_SETX_UPAREA_RNA                          IMPT 00000000   2602 
_SETX_UPDN_CHK_DN_DIG                     IMPT 00000000   2618 
_SETX_UPDN_CHK_DN_PLS                     IMPT 00000000   2620 
_SETX_UPDN_CHK_UP_DIG                     IMPT 00000000   2617 
_SETX_UPDN_CHK_UP_PLS                     IMPT 00000000   2619 
_SETX_UPERR_ERRCMPDAT                     IMPT 00000000   3978 
_SETY_INCPLS_HOSM0001                     IMPT 00000000   2676 
_SETY_INCPLS_HOSM001                      IMPT 00000000   2675 
_SETY_INCPLS_HOSM01X                      IMPT 00000000   2674 
_SETY_INCPLS_HOSM1XX                      IMPT 00000000   2673 
_SETY_KJEND_DIG1                          IMPT 00000000   3649 
_SETY_KJSTR_DIG1                          IMPT 00000000   3648 
_SET_ACC_OVRLIDE                          IMPT 00000000   3407 
_SET_CLSINC_SPDBAS_PLS                    IMPT 00000000   3375 
_SET_CLS_SPDBAS_PLS                       IMPT 00000000   3373 
_SET_DN_ACC_LATE                          IMPT 00000000   3424 
_SET_GMN_ACC_OVRLIDE                      IMPT 00000000   3399 
_SET_GMN_SPD_OVRLIDE                      IMPT 00000000   3398 
_SET_SEQ_ACC_OVRLIDE                      IMPT 00000000   3387 
_SET_SEQ_SPD_OVRLIDE                      IMPT 00000000   3386 
_SET_SPDBAS_PLS                           IMPT 00000000   3374 
_SET_SPD_OVRLIDE                          IMPT 00000000   3406 
_SET_UP_ACC_LATE                          IMPT 00000000   3423 
_SET_UP_TIM                               IMPT 00000000   2232 
_SFTYCHK_RNA_POS                          IMPT 00000000   2903 
_SFTY_CTL_IN_DAT                          IMPT 00000000   2126 
_SFTY_IN_DAT                              IMPT 00000000   2125 
_SFTY_LOCK_DLYTM                          IMPT 00000000   3506 
_SHOT_MOST_DOWN_POS                       IMPT 00000000   3535 
*** SuperH RISC engine ASSEMBLER V.7.01.02.000 ***    07/04/21 19:29:06                                                  PAGE    60

*** CROSS REFERENCE LIST

NAME                             SECTION  ATTR VALUE             SEQUENCE

_SHOT_MOST_DOWN_POSWK                     IMPT 00000000   3536 
_SICDAR                                   IMPT 00000000     67 
_SICTR                                    IMPT 00000000     68 
_SIFCTR                                   IMPT 00000000     69 
_SIFPR                                    IMPT 00000000     77 
_SIIER                                    IMPT 00000000     71 
_SIMDR                                    IMPT 00000000     63 
_SIRCR                                    IMPT 00000000     75 
_SIRDAR                                   IMPT 00000000     66 
_SIRDR                                    IMPT 00000000     73 
_SISCR                                    IMPT 00000000     64 
_SISTR                                    IMPT 00000000     70 
_SITCR                                    IMPT 00000000     74 
_SITDAR                                   IMPT 00000000     65 
_SITDR                                    IMPT 00000000     72 
_SITMR                                    IMPT 00000000     76 
_SLIDALM_CHK_FLG                          IMPT 00000000   3889 
_SLIDALM_CHK_POS                          IMPT 00000000   3891 
_SLIDALM_CHK_TIM                          IMPT 00000000   3890 
_SLIDALM_POS_MINAS                        IMPT 00000000   3893 
_SLIDALM_POS_PULAS                        IMPT 00000000   3892 
_SMR0                                     IMPT 00000000    203 
_SQ_OVERH_CMP                             IMPT 00000000   4198 
_SQ_RNA_ALMRST_OLD                        IMPT 00000000   3555 
_SRAM_SIZE                                EQU  001FFFFF   1929*
_SRAM_TOP                                 EQU  AC000000   1928*
_SRSTR                                    IMPT 00000000    138 
_SSR0                                     IMPT 00000000    207 
_START_ACK_COD                            EQU  00004321   1849*
_START_FLG_AFTER_EMG                      IMPT 00000000   2885 
_START_REQ_COD                            EQU  00009876   1848*
_STBCR                                    IMPT 00000000    250 
_STBCR2                                   IMPT 00000000    253 
_STBCR3                                   IMPT 00000000    137 
_STOPCHK_INC_POS                          IMPT 00000000   2805 
_STOPCHK_RNA_POS                          IMPT 00000000   2804 
_STOPPING_STOP_POS                        IMPT 00000000   2210 
_STOPPING_STOP_TIM                        IMPT 00000000   2212 
_STOPPING_TIM_FLG                         IMPT 00000000   2211 
_STOPPING_TIM_PV1                         IMPT 00000000   2213 
_STOPPING_TIM_PV2                         IMPT 00000000   2214 
_STOPPING_VLVOFF_POS                      IMPT 00000000   2209 
_STOP_360ENC_DIG                          IMPT 00000000   3585 
_STOP_ERR_LATCH                           IMPT 00000000   3006 
_STOP_LATCH                               IMPT 00000000   2192 
_STOP_LATCH_B                             IMPT 00000000   2193 
_STOP_LATCH_CHK_TIM                       IMPT 00000000   2439 
_STOP_LATCH_ENCPOS                        IMPT 00000000   2437 
_STOP_LATCH_OUTPLS                        IMPT 00000000   2436 
_STOP_LATCH_RNAPOS                        IMPT 00000000   2438 
_STR_ENC3600_DIG                          IMPT 00000000   2356 
_STR_ENC3600_DIG_LNG                      IMPT 00000000   2357 
_SVCHK_SCAN                               IMPT 00000000   4217 
_SVPX_UPAREA_DIG1                         IMPT 00000000   2790 
*** SuperH RISC engine ASSEMBLER V.7.01.02.000 ***    07/04/21 19:29:06                                                  PAGE    61

*** CROSS REFERENCE LIST

NAME                             SECTION  ATTR VALUE             SEQUENCE

_SVX_DNM_MAXSPM                           IMPT 00000000   3770 
_SVX_OVER_ERR_DIG                         IMPT 00000000   3060 
_SVX_OVER_JGSTR_DIG                       IMPT 00000000   3061 
_SV_CHG_FLG1                              IMPT 00000000   2847 
_SV_CHG_FLG2                              IMPT 00000000   2848 
_SV_CONST_SUB_PV                          IMPT 00000000   3475 
_SV_DAT_ERR1                              IMPT 00000000   2849 
_SV_OBJ360                                IMPT 00000000   3032 
_SV_POS_CTL_STEP                          IMPT 00000000   2389 
_SV_REAL_PLS                              IMPT 00000000   3476 
_SV_REAL_SUB_PV                           IMPT 00000000   3477 
_SW_DEV_MASK_FLG                          IMPT 00000000   2201 
_TABLE_ERR_FLG                            IMPT 00000000   2058 
_TBL_ANS_ACCTIM                           IMPT 00000000   3766 
_TBL_ANS_ACC_SEL                          IMPT 00000000   3768 
_TBL_ANS_MAXSPM                           IMPT 00000000   3767 
_TBL_USE_POS0                             IMPT 00000000   3765 
_TCNT0                                    IMPT 00000000    212 
_TCNT1                                    IMPT 00000000    215 
_TCNT2                                    IMPT 00000000    218 
_TCOR0                                    IMPT 00000000    211 
_TCOR1                                    IMPT 00000000    214 
_TCOR2                                    IMPT 00000000    217 
_TCR0                                     IMPT 00000000    213  4590 
_TCR1                                     IMPT 00000000    216  4743 
_TCR2                                     IMPT 00000000    219  4920 
_TDFP                                     IMPT 00000000    126 
_TDR0                                     IMPT 00000000    206 
_TEA                                      IMPT 00000000    276 
_TECH2_KJYU_DIG                           IMPT 00000000   4030 
_TECH2_KJYU_LNG                           IMPT 00000000   4028 
_TECH2_KJYU_LT1KN                         IMPT 00000000   4021 
_TECH2_KJYU_LT1PLS                        IMPT 00000000   4022 
_TECH2_KJYU_LT1PLS_OFS                    IMPT 00000000   4023 
_TECH2_KJYU_LT2KN                         IMPT 00000000   4024 
_TECH2_KJYU_LT2PLS                        IMPT 00000000   4025 
_TECH2_KJYU_LT2PLS_OFS                    IMPT 00000000   4026 
_TECH2_KJYU_PLS                           IMPT 00000000   4029 
_TECH2_KJYU_PLSX                          IMPT 00000000   4027 
_TECH2_KN_FLG                             IMPT 00000000   4031 
_TECH_USED_F                              IMPT 00000000   4068 
_TECH_WK_DIG1                             IMPT 00000000   4061 
_TECH_WK_DIG2                             IMPT 00000000   4062 
_TECH_WK_DIG3                             IMPT 00000000   4063 
_TECH_WK_DIG4                             IMPT 00000000   4064 
_TECH_WK_PLS1                             IMPT 00000000   4060 
_TEPA_PLS_ZERO_TIM                        IMPT 00000000   3927 
_TEP_ADDCHK_SVPLS                         IMPT 00000000   3333 
_TEP_CHG_SPD1                             IMPT 00000000   3337 
_TEP_CHG_SPD2                             IMPT 00000000   3338 
_TEP_CNTSMP_TIM                           IMPT 00000000   4264 
_TEP_DND_SPD_PLS                          IMPT 00000000   4263 
_TEP_INPLS_FLG                            IMPT 00000000   3328 
_TEP_IN_ADD                               IMPT 00000000   3322 
*** SuperH RISC engine ASSEMBLER V.7.01.02.000 ***    07/04/21 19:29:06                                                  PAGE    62

*** CROSS REFERENCE LIST

NAME                             SECTION  ATTR VALUE             SEQUENCE

_TEP_MIN_SPD_FRQ                          IMPT 00000000   3335 
_TEP_MIN_SPD_PLS                          IMPT 00000000   3334 
_TEP_MODE_DRV                             IMPT 00000000   3324 
_TEP_POS_ADD_CNT                          IMPT 00000000   3320 
_TEP_REVPLS_LT_FLG                        IMPT 00000000   4265 
_TEP_STEP_FLG                             IMPT 00000000   3325 
_TEP_STEP_SVSMPTM                         IMPT 00000000   3332 
_TEP_STEP_SVWTTM1                         IMPT 00000000   3331 
_TEP_STEP_WTTM                            IMPT 00000000   3326 
_TIM100US                                 EQU  000007D0   1919*
_TIM1MS                                   EQU  000009C4   1920*
_TRA                                      IMPT 00000000    266 
_TRD_CLR_CMD                              IMPT 00000000   4343 
_TRD_DP_MOV_CNT                           IMPT 00000000   4349 
_TRD_DP_MOV_FLG                           IMPT 00000000   4348 
_TRD_EVENT_COD                            IMPT 00000000   4338 
_TRD_EVENT_LATCH                          IMPT 00000000   4340 
_TRD_LATE_PV                              IMPT 00000000   4345 
_TRD_LATE_SV                              IMPT 00000000   4344 
_TRD_POINT_END                            IMPT 00000000   4342 
_TRD_POINT_EVENT                          IMPT 00000000   4341 
_TRD_SMP_DAT1                             IMPT 00000000   4329 
_TRD_SMP_DAT2                             IMPT 00000000   4330 
_TRD_SMP_DAT3                             IMPT 00000000   4331 
_TRD_SMP_DAT4                             IMPT 00000000   4332 
_TRD_SMP_DAT5                             IMPT 00000000   4333 
_TRD_SMP_DAT6                             IMPT 00000000   4334 
_TRD_SMP_DAT7                             IMPT 00000000   4335 
_TRD_SMP_DAT8                             IMPT 00000000   4336 
_TRD_SMP_FLG                              IMPT 00000000   4346 
_TRD_SMP_POINT                            IMPT 00000000   4337 
_TSTR                                     IMPT 00000000    210 
_TTB                                      IMPT 00000000    275 
_UP360_CHK_LIST                           IMPT 00000000   3567 
_UPLIMIT_START_F                          IMPT 00000000   4228 
_UPLIMIT_SV_SPD                           IMPT 00000000   4227 
_UPMAK2_MOD_USE_SW                        IMPT 00000000   4189 
_UPMSK2_DRVSEL                            IMPT 00000000   4191 
_UPMSK2_MATH                              IMPT 00000000   4190 
_UPMSK2_MOD                               IMPT 00000000   4187 
_UPMSK2_MOD_IN_SW                         IMPT 00000000   4188 
_UP_HOLD_DIG                              IMPT 00000000   2198 
_UP_HOLD_FLG                              IMPT 00000000   2199 
_UP_HOLD_STEP                             IMPT 00000000   2195 
_UP_HOLD_STEP1                            IMPT 00000000   2196 
_UP_HOLD_STEP2                            IMPT 00000000   2197 
_USBDASTS                                 IMPT 00000000    150 
_USBDMA                                   IMPT 00000000    159 
_USBEPDR0I                                IMPT 00000000    144 
_USBEPDR0O                                IMPT 00000000    145 
_USBEPDR0S                                IMPT 00000000    149 
_USBEPDR1                                 IMPT 00000000    156 
_USBEPDR2                                 IMPT 00000000    151 
_USBEPDR3                                 IMPT 00000000    160 
*** SuperH RISC engine ASSEMBLER V.7.01.02.000 ***    07/04/21 19:29:06                                                  PAGE    63

*** CROSS REFERENCE LIST

NAME                             SECTION  ATTR VALUE             SEQUENCE

_USBEPSTL                                 IMPT 00000000    153 
_USBEPSZ0O                                IMPT 00000000    148 
_USBEPSZ1                                 IMPT 00000000    157 
_USBFCLR                                  IMPT 00000000    147 
_USBHBCED                                 IMPT 00000000    172 
_USBHBHED                                 IMPT 00000000    171 
_USBHC                                    IMPT 00000000    162 
_USBHCCED                                 IMPT 00000000    170 
_USBHCHED                                 IMPT 00000000    169 
_USBHCS                                   IMPT 00000000    163 
_USBHDHED                                 IMPT 00000000    173 
_USBHFI                                   IMPT 00000000    174 
_USBHFN                                   IMPT 00000000    176 
_USBHFR                                   IMPT 00000000    175 
_USBHHCCA                                 IMPT 00000000    167 
_USBHID                                   IMPT 00000000    166 
_USBHIE                                   IMPT 00000000    165 
_USBHIS                                   IMPT 00000000    164 
_USBHLST                                  IMPT 00000000    178 
_USBHPCED                                 IMPT 00000000    168 
_USBHPS                                   IMPT 00000000    177 
_USBHR                                    IMPT 00000000    161 
_USBHRDA                                  IMPT 00000000    179 
_USBHRDB                                  IMPT 00000000    180 
_USBHRPS1                                 IMPT 00000000    182 
_USBHRPS2                                 IMPT 00000000    183 
_USBHRS                                   IMPT 00000000    181 
_USBIER0                                  IMPT 00000000    154 
_USBIER1                                  IMPT 00000000    155 
_USBIFR0                                  IMPT 00000000    142 
_USBIFR1                                  IMPT 00000000    143 
_USBISR0                                  IMPT 00000000    152 
_USBISR1                                  IMPT 00000000    158 
_USBTFG                                   IMPT 00000000    146 
_VALV_OFF_DIG_CLANK                       IMPT 00000000   3008 
_VALV_ON_FLG                              IMPT 00000000   3579 
_VIB_DLY_TIM                              IMPT 00000000   3721 
_VIB_GET_SET_TIM                          IMPT 00000000   3718 
_VIB_PV_UP_TIM                            IMPT 00000000   3720 
_VIB_STEP_COM                             IMPT 00000000   3717 
_VIB_STEP_FLG                             IMPT 00000000   3716 
_VIB_USE_SET_TIM                          IMPT 00000000   3719 
_VUPCHECK_EQU                             EQU  11AB3739   1734*
_WCR1                                     IMPT 00000000    241 
_WCR2                                     IMPT 00000000    242 
_WDT_Rifresh                              IMPT 00000000   4392  4753 
_WFSYS_MAX_STEP_SEL                       IMPT 00000000   3040 
_WFSYS_OPT_CNT_SEL                        IMPT 00000000   3039 
_WK_ERR_INFO_CPU_TOP                      IMPT 00000000   3051 
_WPARX_BRKTST_DNDLMT                      IMPT 00000000   4110 
_WPARX_BRKTST_ORGDEGX                     IMPT 00000000   3921 
_WPARX_BRKTST_ORGPLS                      IMPT 00000000   3922 
_WPARX_BRKTST_STPDEGX                     IMPT 00000000   3672 
_WPARX_BRKTST_STPLNG                      IMPT 00000000   3674 
*** SuperH RISC engine ASSEMBLER V.7.01.02.000 ***    07/04/21 19:29:06                                                  PAGE    64

*** CROSS REFERENCE LIST

NAME                             SECTION  ATTR VALUE             SEQUENCE

_WPARX_BRKTST_STPPLS                      IMPT 00000000   3673 
_WPARX_COP_DNDRV1_SDG1                    IMPT 00000000   3639 
_WPARX_COP_DNDRV1_SDG2                    IMPT 00000000   3640 
_WPARX_COP_DNDRV1_ZDG1                    IMPT 00000000   3637 
_WPARX_COP_DNDRV1_ZDG2                    IMPT 00000000   3638 
_WPARX_COP_DNDRV2_SDG1                    IMPT 00000000   3643 
_WPARX_COP_DNDRV2_SDG2                    IMPT 00000000   3644 
_WPARX_COP_DNDRV2_ZDG1                    IMPT 00000000   3641 
_WPARX_COP_DNDRV2_ZDG2                    IMPT 00000000   3642 
_WPARX_ELSE_ORGDEGX                       IMPT 00000000   4210 
_WPARX_ELSE_ORGPLS                        IMPT 00000000   4209 
_WPAR_360STP_HAB                          IMPT 00000000   3564 
_WPAR_ACCTYP_SEL                          IMPT 00000000   3493 
_WPAR_ACC_MATHED                          IMPT 00000000   3733 
_WPAR_ANAIN_SEL                           IMPT 00000000   3491 
_WPAR_BKTMCL_ACCCK                        IMPT 00000000   4157 
_WPAR_BRK1_ACCTM                          IMPT 00000000   2922 
_WPAR_BRK1_DLYTM                          IMPT 00000000   2921 
_WPAR_BRK2_ACCTM                          IMPT 00000000   2923 
_WPAR_BRKTCHK_SPD                         IMPT 00000000   3662 
_WPAR_BRKTOUT_SPD                         IMPT 00000000   3661 
_WPAR_BRKTST_ORGDEG                       IMPT 00000000   3920 
_WPAR_BRK_SEL_SPD                         IMPT 00000000   2920 
_WPAR_CMP_ERR_TIM1                        IMPT 00000000   3814 
_WPAR_CMP_ERR_TIM2                        IMPT 00000000   3815 
_WPAR_COP_CNTROT_SDG1                     IMPT 00000000   2864 
_WPAR_COP_CNTROT_SDG2                     IMPT 00000000   2865 
_WPAR_COP_CNTROT_ZDG1                     IMPT 00000000   2862 
_WPAR_COP_CNTROT_ZDG2                     IMPT 00000000   2863 
_WPAR_COP_DISP_SPM1                       IMPT 00000000   3825 
_WPAR_COP_REVRSE_SDG1                     IMPT 00000000   2869 
_WPAR_COP_REVRSE_SDG2                     IMPT 00000000   2870 
_WPAR_COP_REVRSE_ZDG1                     IMPT 00000000   2867 
_WPAR_COP_REVRSE_ZDG2                     IMPT 00000000   2868 
_WPAR_COP_SDG1                            IMPT 00000000   2874 
_WPAR_COP_SDG2                            IMPT 00000000   2875 
_WPAR_COP_ZDG1                            IMPT 00000000   2872 
_WPAR_COP_ZDG2                            IMPT 00000000   2873 
_WPAR_CUPCHK_SEL                          IMPT 00000000   3563 
_WPAR_DAIHAI_SEL                          IMPT 00000000   3879 
_WPAR_DRVHOS_AVLCNT                       IMPT 00000000   2522 
_WPAR_DRVHOS_DIG1                         IMPT 00000000   2519 
_WPAR_DRVHOS_DIG2                         IMPT 00000000   2520 
_WPAR_DRVHOS_NO_USE                       IMPT 00000000   2523 
_WPAR_DRVHOS_SEL1                         IMPT 00000000   2518 
_WPAR_DRVHOS_WAITCNT                      IMPT 00000000   2521 
_WPAR_ILNGERR_DIG                         IMPT 00000000   2926 
_WPAR_ILNGERR_LNG                         IMPT 00000000   2925 
_WPAR_INCOVER_LNG                         IMPT 00000000   2891 
_WPAR_INCOVER_LNG1                        IMPT 00000000   2892 
_WPAR_INCOVER_LNG2                        IMPT 00000000   2893 
_WPAR_INCREV_EDYTM                        IMPT 00000000   2894 
_WPAR_INCSTP_EDYTM                        IMPT 00000000   2898 
_WPAR_INCSTP_EDYTM1                       IMPT 00000000   2896 
*** SuperH RISC engine ASSEMBLER V.7.01.02.000 ***    07/04/21 19:29:06                                                  PAGE    65

*** CROSS REFERENCE LIST

NAME                             SECTION  ATTR VALUE             SEQUENCE

_WPAR_INCSTP_EDYTM2                       IMPT 00000000   2897 
_WPAR_KJYU_STOPTBL                        IMPT 00000000   3709 
_WPAR_LSA_FILTIM                          IMPT 00000000   3260 
_WPAR_MCNRNA_SEL                          IMPT 00000000   3562 
_WPAR_ORGDRV_MD2                          IMPT 00000000   3844 
_WPAR_ORGMOD2_TIM                         IMPT 00000000   3345 
_WPAR_ORGPOS_LNG1                         IMPT 00000000   3904 
_WPAR_OVRLIDE_GMN                         IMPT 00000000   3394 
_WPAR_RNA_SFTY_LNG1                       IMPT 00000000   2900 
_WPAR_SFYOPT_USEL                         IMPT 00000000   3663 
_WPAR_SLDALM_LNG                          IMPT 00000000   3886 
_WPAR_SLDALM_TIM                          IMPT 00000000   3887 
_WPAR_STOPING_TIM                         IMPT 00000000   3731 
_WPAR_ZERO_SPD                            IMPT 00000000   2919 
_WPVX_KAJLIV_TTL                          IMPT 00000000   3712 
_WPV_ABS_AD_DATA                          IMPT 00000000   3499 
_WPV_AD_DATA                              IMPT 00000000   3498 
_WPV_CB_STS_DAT_TOP                       IMPT 00000000   4326 
_WPV_CB_STS_POINT                         IMPT 00000000   4351 
_WPV_CB_TRD_DAT_TOP                       IMPT 00000000   4327 
_WPV_CB_TRD_POINT                         IMPT 00000000   4352 
_WPV_POWER_MONI                           IMPT 00000000   3500 
_WPV_POWER_ON_CNT                         IMPT 00000000   4353 
_WPV_SCAN_MAX01                           IMPT 00000000   4283 
_WPV_SCAN_MAX10                           IMPT 00000000   4282 
_WPV_SCAN_TIM_AVL                         IMPT 00000000   4279 
_WPV_SCAN_TIM_REAL                        IMPT 00000000   4278 
_WSVXY_CLNK_UP_POS                        IMPT 00000000   3629 
_WSVXY_CLNK_UP_POS_DN                     IMPT 00000000   3631 
_WSVXY_CLNK_UP_POS_UP                     IMPT 00000000   3630 
_WSVX_CLNK_UP_POS                         IMPT 00000000   2270 
_WSVX_CLNK_UP_POS_DN                      IMPT 00000000   2272 
_WSVX_CLNK_UP_POS_UP                      IMPT 00000000   2271 
_WTCNT                                    IMPT 00000000    251 
_WTCSR                                    IMPT 00000000    252 
_WXPV_ERR_DISP                            IMPT 00000000   3170 
_W_PARAM_TOP                              IMPT 00000000   4076 
_cbsys_tbl_err                            IMPT 00000000   3753 
_di1_cb_ctl1                              IMPT 00000000   2063 
_di1_cb_ctl1_dt                           IMPT 00000000   2071 
_di1_cb_ctl1_of                           IMPT 00000000   2073 
_di1_cb_ctl1_on                           IMPT 00000000   2072 
_di2_cb_ctl2                              IMPT 00000000   2064 
_di2_cb_ctl2_dt                           IMPT 00000000   2075 
_di2_cb_ctl2_of                           IMPT 00000000   2077 
_di2_cb_ctl2_on                           IMPT 00000000   2076 
_di3_cb_inp1                              IMPT 00000000   2065 
_di3_cb_inp1_dt                           IMPT 00000000   2069 
_di4_cb_inp2                              IMPT 00000000   2066 
_dio_top1                                 IMPT 00000000   4400 
_dq1_cb_out1                              IMPT 00000000   2067 
_emg_err_flg                              IMPT 00000000   2147 
_emg_lev_flg                              IMPT 00000000   2146 
_exq_err_flg                              IMPT 00000000   2150 
*** SuperH RISC engine ASSEMBLER V.7.01.02.000 ***    07/04/21 19:29:06                                                  PAGE    66

*** CROSS REFERENCE LIST

NAME                             SECTION  ATTR VALUE             SEQUENCE

_exq_lev_flg                              IMPT 00000000   2148 
_hmi1_int3                                IMPT 00000000   4387  4933 
_hmi2_int3                                IMPT 00000000   4388  4937 
_pass_err_flg1                            IMPT 00000000   2144 
_pass_err_flg2                            IMPT 00000000   2145 
_reset_dly_tim                            IMPT 00000000   2168 
_reset_flg                                IMPT 00000000   2167 
*** SuperH RISC engine ASSEMBLER V.7.01.02.000 ***    07/04/21 19:29:06                                                  PAGE    67

*** SECTION DATA LIST

SECTION                          ATTRIBUTE    SIZE             START

Pcall                            REL-CODE    000000434        
P                                REL-CODE    000000184        
