SH SERIES C/C++ Compiler (V.9.04.01.002)                                                         12-Dec-2017 19:19:37  PAGE    1

************ OBJECT LISTING ************

FILE NAME: D:\SIT4S_MC\cpua\cpua\cpua\lowsrc.c

SCT OFFSET   CODE       C LABEL     INSTRUCTION OPERAND    COMMENT

             lowsrc.c          1    /***********************************************************************/
             lowsrc.c          2    /*                                                                     */
             lowsrc.c          3    /*  FILE        :lowsrc.c                                              */
             lowsrc.c          4    /*  DATE        :Fri, May 31, 2002                                     */
             lowsrc.c          5    /*  DESCRIPTION :Program of I/O Stream                                 */
             lowsrc.c          6    /*  CPU TYPE    :SH7750                                                */
             lowsrc.c          7    /*                                                                     */
             lowsrc.c          8    /*  This file is generated by Hitachi Project Generator (Ver.2.1).     */
             lowsrc.c          9    /*                                                                     */
             lowsrc.c         10    /***********************************************************************/
             lowsrc.c         11                      
             lowsrc.c         12    
             lowsrc.c         13    
             lowsrc.c         14    
             lowsrc.c         15    /************************************************************************/
             lowsrc.c         16    /*               lowsrc.c:                                                */
             lowsrc.c         17    /*----------------------------------------------------------------------*/
             lowsrc.c         18    /*         SH-series simulator debugger interface routine             */
             lowsrc.c         19    /*   - Only standard I/O files (stdin, stdout, stderr) are supported    */
             lowsrc.c         20    /************************************************************************/
             lowsrc.c         21    #include <string.h> 
             string.h          1    /***************************************************************************/
             string.h          2    /* Copyright (C) 1992 (1995 - 2010) Renesas Electronics Corporation and    */
             string.h          3    /* Renesas Solutions Corp. All Rights Reserved.                            */
             string.h          4    /***************************************************************************/
             string.h          5    /*****************************************************************/
             string.h          6    /* SPEC ;                                                        */
             string.h          7    /*   NAME = string :                                             */
             string.h          8    /*   FUNC =                                                      */
             string.h          9    /*          ;                                                    */
             string.h         10    /*                                                               */
             string.h         11    /*                                                               */
             string.h         12    /*                                                               */
             string.h         13    /*   CLAS = UNIT ;                                               */
             string.h         14    /*   LINK =                                                      */
             string.h         15    /*   NOTE =                                                      */
             string.h         16    /*          ;                                                    */
             string.h         17    /*                                                               */
             string.h         18    /*   END ;                                                       */
             string.h         19    /*****************************************************************/
             string.h         20    #ifndef _STRING
             string.h         21    #define _STRING
             string.h         22    
             string.h         23    #include <stddef.h>
             stddef.h          1    /***************************************************************************/
             stddef.h          2    /* Copyright (C) 1992 (1995 - 2010) Renesas Electronics Corporation and    */
             stddef.h          3    /* Renesas Solutions Corp. All Rights Reserved.                            */
             stddef.h          4    /***************************************************************************/
             stddef.h          5    /***********************************************************************/
             stddef.h          6    /* SPEC;                                                               */
             stddef.h          7    /*  NAME = stddef :                                                    */
             stddef.h          8    /*                                                                     */
             stddef.h          9    /*  FUNC = this module do the following functions                      */
             stddef.h         10    /*                                                                     */
             stddef.h         11    /*  CLAS = UNIT;                                                       */
             stddef.h         12    /*                                                                     */
             stddef.h         13    /* END;                                                                */
             stddef.h         14    /***********************************************************************/
             stddef.h         15    #ifndef _STDDEF
             stddef.h         16    #define _STDDEF
             stddef.h         17    
             stddef.h         18    #ifndef _PTRDIFF_T
             stddef.h         19    #define _PTRDIFF_T
             stddef.h         20    typedef int ptrdiff_t;
             stddef.h         21    #endif
             stddef.h         22    
             stddef.h         23    #ifndef _SIZE_T
             stddef.h         24    #define _SIZE_T
             stddef.h         25    typedef unsigned long size_t;
             stddef.h         26    #endif
             stddef.h         27    
             stddef.h         28    #ifndef  NULL
             stddef.h         29    #ifdef  __cplusplus
             stddef.h         30 X  #define  NULL           (0)
             stddef.h         31    #else
             stddef.h         32    #define  NULL           ((void *)0)
             stddef.h         33    #endif
             stddef.h         34    #endif
             stddef.h         35    
             stddef.h         36    #ifndef  offsetof
             stddef.h         37    #ifdef __cplusplus
             stddef.h         38 X  #define offsetof(t, memb) ((size_t)(&(((t *)0)->memb)))
             stddef.h         39    #else
             stddef.h         40  E #define offsetof(type,id) ((char *)(&(((type *)NULL)->id))  -                               (char *)((type *)NULL))
             stddef.h         41    #endif
             stddef.h         42    #endif
             stddef.h         43    
             stddef.h         44    #ifndef  errno
             stddef.h         45    #define  errno          _errno
             stddef.h         46    #endif
             stddef.h         47    
             stddef.h         48    #endif
             string.h         24    
             string.h         25    #include <builtin.h>
            builtin.h          1    /***************************************************************************/
            builtin.h          2    /* Copyright (C) 1992 (1995 - 2010) Renesas Electronics Corporation and    */
            builtin.h          3    /* Renesas Solutions Corp. All Rights Reserved.                            */
            builtin.h          4    /***************************************************************************/
            builtin.h          5    /*****************************************************************/
            builtin.h          6    /* SPEC ;                                                        */
            builtin.h          7    /*   NAME = builtin :                                            */
            builtin.h          8    /*                                                               */
            builtin.h          9    /*   FUNC = this header file do the following functions;         */
            builtin.h         10    /*          (1)builtin function prototype define;                */
            builtin.h         11    /*                                                               */
            builtin.h         12    /*   CLAS = UNIT ;                                               */
            builtin.h         13    /*                                                               */
            builtin.h         14    /*   END ;                                                       */
            builtin.h         15    /*****************************************************************/
            builtin.h         16    
            builtin.h         17    #ifndef _BUILTIN
            builtin.h         18    #define _BUILTIN
            builtin.h         19    
            builtin.h         20    #ifdef __cplusplus
            builtin.h         21 X  extern "C" {
            builtin.h         22    #endif
            builtin.h         23    /* follow math.h & mathf.h */
            builtin.h         24    extern float _builtin_fabsf(float);
            builtin.h         25    extern double _builtin_fabs(double);
            builtin.h         26    extern float _builtin_sqrtf(float);
            builtin.h         27    extern double _builtin_sqrt(double);
            builtin.h         28    
            builtin.h         29    /* follow smachine.h */
            builtin.h         30    extern void _builtin_set_imask(int);
            builtin.h         31    extern int _builtin_get_imask(void);
            builtin.h         32    extern void _builtin_set_cr(int);
            builtin.h         33    extern int _builtin_get_cr(void);
            builtin.h         34    extern void _builtin_set_vbr(void *);
            builtin.h         35    extern void *_builtin_get_vbr(void);
            builtin.h         36    extern void _builtin_sleep(void);
            builtin.h         37    extern void _builtin_ldtlb(void);
            builtin.h         38    
            builtin.h         39    /* follow string.h */
            builtin.h         40    extern char *_builtin_strcpy(char *, const char *);
            builtin.h         41    extern int _builtin_strcmp(const char *, const char *);
            builtin.h         42    
            builtin.h         43    /* follow umachine.h */
            builtin.h         44    extern void _builtin_set_gbr(void *);
            builtin.h         45    extern void *_builtin_get_gbr(void);
            builtin.h         46    extern unsigned char _builtin_gbr_read_byte(int);
            builtin.h         47    extern unsigned short _builtin_gbr_read_word(int);
            builtin.h         48    extern unsigned long _builtin_gbr_read_long(int);
            builtin.h         49    extern void _builtin_gbr_write_byte(int, unsigned char);
            builtin.h         50    extern void _builtin_gbr_write_word(int, unsigned short);
            builtin.h         51    extern void _builtin_gbr_write_long(int, unsigned long);
            builtin.h         52    extern void _builtin_gbr_and_byte(int, unsigned char);
            builtin.h         53    extern void _builtin_gbr_or_byte(int, unsigned char);
            builtin.h         54    extern void _builtin_gbr_xor_byte(int, unsigned char);
            builtin.h         55    extern int _builtin_gbr_tst_byte(int, unsigned char);
            builtin.h         56    extern int _builtin_tas(char *);
            builtin.h         57    extern int _builtin_trapa(int);
            builtin.h         58    extern int _builtin_macw(short *, short *, unsigned int);
            builtin.h         59    extern int _builtin_macwl(short *, short *, unsigned int, unsigned int);
            builtin.h         60    extern int _builtin_macl(int *, int *, unsigned int);
            builtin.h         61    extern int _builtin_macll(int *, int *, unsigned int, unsigned int);
            builtin.h         62    extern int _builtin_trapa_svc(int, int, ...);
            builtin.h         63    extern void _builtin_prefetch(void *);
            builtin.h         64    extern void _builtin_set_fpscr(int);
            builtin.h         65    extern int _builtin_get_fpscr(void);
            builtin.h         66    extern float _builtin_fipr(float a1[], float b1[]);
            builtin.h         67    extern void _builtin_ftrv(float a1[], float b1[]);
            builtin.h         68    extern void _builtin_ftrvadd(float a1[], float b1[], float c1[]);
            builtin.h         69    extern void _builtin_ftrvsub(float a1[], float b1[], float c1[]);
            builtin.h         70    extern void _builtin_mtrx4mul(float [][4], float [][4]);
            builtin.h         71    extern void _builtin_mtrx4muladd(float [][4], float [][4], float [][4]);
            builtin.h         72    extern void _builtin_mtrx4mulsub(float [][4], float [][4], float [][4]);
            builtin.h         73    extern void _builtin_ld_ext(float [][4]);
            builtin.h         74    extern void _builtin_st_ext(float [][4]);
            builtin.h         75    extern void _builtin_add4(float a1[], float b1[], float c1[]);
            builtin.h         76    extern void _builtin_sub4(float a1[], float b1[], float c1[]);
            builtin.h         77    extern void _builtin_trace(long);
            builtin.h         78    extern void _builtin_nop(void);
            builtin.h         79    extern unsigned short _builtin_swapb(unsigned short);
            builtin.h         80    extern unsigned long _builtin_swapw(unsigned long);
            builtin.h         81    extern unsigned long _builtin_end_cnvl(unsigned long);
            builtin.h         82    extern unsigned long _builtin_dmulu_h(unsigned long, unsigned long);
            builtin.h         83    extern unsigned long _builtin_dmulu_l(unsigned long, unsigned long);
            builtin.h         84    extern long _builtin_dmuls_h(long, long);
            builtin.h         85    extern unsigned long _builtin_dmuls_l(long, long);
            builtin.h         86    extern void _builtin_fsca(long ,float *,float *);
            builtin.h         87    extern float _builtin_fsrra(float);
            builtin.h         88    extern float _builtin_fsina(int);
            builtin.h         89    extern float _builtin_fcosa(int);
            builtin.h         90    extern void _builtin_icbi(void *);
            builtin.h         91    extern void _builtin_ocbi(void *);
            builtin.h         92    extern void _builtin_ocbp(void *);
            builtin.h         93    extern void _builtin_ocbwb(void *);
            builtin.h         94    extern void _builtin_prefi(void *);
            builtin.h         95    extern void _builtin_sleep_i(unsigned int);
            builtin.h         96    extern void _builtin_synco(void);
            builtin.h         97    extern int _builtin_movt(void);
            builtin.h         98    extern unsigned long _builtin_xtrct(unsigned long, unsigned long);
            builtin.h         99    extern long _builtin_addc(long, long);
            builtin.h        100    extern int _builtin_ovf_addc(long, long);
            builtin.h        101    extern long _builtin_addv(long, long);
            builtin.h        102    extern int _builtin_ovf_addv(long, long);
            builtin.h        103    extern long _builtin_subc(long, long);
            builtin.h        104    extern int _builtin_unf_subc(long, long);
            builtin.h        105    extern long _builtin_subv(long, long);
            builtin.h        106    extern int _builtin_unf_subv(long, long);
            builtin.h        107    extern long _builtin_negc(long);
            builtin.h        108    extern unsigned long _builtin_div1(unsigned long, unsigned long);
            builtin.h        109    extern int _builtin_div0s(long, long);
            builtin.h        110    extern void _builtin_div0u(void);
            builtin.h        111    extern unsigned long _builtin_rotl(unsigned long);
            builtin.h        112    extern unsigned long _builtin_rotr(unsigned long);
            builtin.h        113    extern unsigned long _builtin_rotcl(unsigned long);
            builtin.h        114    extern unsigned long _builtin_rotcr(unsigned long);
            builtin.h        115    extern unsigned long _builtin_shll(unsigned long);
            builtin.h        116    extern unsigned long _builtin_shlr(unsigned long);
            builtin.h        117    extern long _builtin_shar(long);
            builtin.h        118    extern void _builtin_clrt(void);
            builtin.h        119    extern void _builtin_sett(void);
            builtin.h        120    extern long _builtin_clipsb(long);
            builtin.h        121    extern long _builtin_clipsw(long);
            builtin.h        122    extern unsigned long _builtin_clipub(unsigned long);
            builtin.h        123    extern unsigned long _builtin_clipuw(unsigned long);
            builtin.h        124    extern void _builtin_set_tbr(void *);
            builtin.h        125    extern void *_builtin_get_tbr(void);
            builtin.h        126    extern void _builtin_sr_jsr(void *, int);
            builtin.h        127    extern void _builtin_bset(unsigned char *, unsigned char);
            builtin.h        128    extern void _builtin_bclr(unsigned char *, unsigned char);
            builtin.h        129    extern void _builtin_bcopy(unsigned char *, unsigned char,
            builtin.h        130                               unsigned char *, unsigned char);
            builtin.h        131    extern void _builtin_bnotcopy(unsigned char *, unsigned char,
            builtin.h        132                                  unsigned char *, unsigned char);
            builtin.h        133    
            builtin.h        134    #ifdef __cplusplus
            builtin.h        135 X  }
            builtin.h        136    #endif /* #ifdef __cplusplus */
            builtin.h        137    
            builtin.h        138    #endif /* #ifndef _BUILTIN */
             string.h         26    #ifdef __cplusplus
             string.h         27 X  extern "C" {
             string.h         28    #endif
             string.h         29    #ifndef _REENTRANT
             string.h         30    #else
             string.h         31 X  #define _errno (*errno_addr())
             string.h         32 X  int  *errno_addr(void);
             string.h         33    #endif
             string.h         34    #ifndef EMALRESM
             string.h         35    #define EMALRESM 2100
             string.h         36    #endif
             string.h         37    #ifndef ETOKRESM
             string.h         38    #define ETOKRESM 2110
             string.h         39    #endif
             string.h         40    #ifndef EIOBRESM
             string.h         41    #define EIOBRESM 2120
             string.h         42    #endif
             string.h         43    #ifndef EMALFRSM
             string.h         44    #define EMALFRSM 2101
             string.h         45    #endif
             string.h         46    #ifndef ETOKFRSM
             string.h         47    #define ETOKFRSM 2111
             string.h         48    #endif
             string.h         49    #ifndef EIOBFRSM
             string.h         50    #define EIOBFRSM 2121
             string.h         51    #endif
             string.h         52    extern void *memcpy(void *, const void *, size_t);
             string.h         53    extern void *memmove(void *, const void *, size_t);
             string.h         54    #ifdef _DSPC
             string.h         55 X  extern void __X *memcpy__X__X(void __X *, const void __X *, size_t);
             string.h         56 X  extern void __X *memcpy__X__Y(void __X *, const void __Y *, size_t);
             string.h         57 X  extern void __Y *memcpy__Y__X(void __Y *, const void __X *, size_t);
             string.h         58 X  extern void __Y *memcpy__Y__Y(void __Y *, const void __Y *, size_t);
             string.h         59    #endif /* _DSPC */
             string.h         60    extern char *strcpy(char *, const char *);
             string.h         61    extern char *strncpy(char *, const char *, size_t);
             string.h         62    extern char *strcat(char *, const char *);
             string.h         63    extern char *strncat(char *, const char *,size_t);
             string.h         64    extern int  memcmp(const void *, const void *,size_t);
             string.h         65    extern int  strcmp(const char *, const char *);
             string.h         66    extern int  strncmp(const char *, const char *, size_t);
             string.h         67    extern void *memchr(const void *, int, size_t);
             string.h         68    extern char *strchr(const char *, int);
             string.h         69    extern size_t strcspn(const char *, const char *);
             string.h         70    extern char *strpbrk(const char *, const char *);
             string.h         71    extern char *strrchr(const char *, int);
             string.h         72    extern size_t strspn(const char *, const char *);
             string.h         73    extern char *strstr(const char *, const char *);
             string.h         74    extern char *strtok(char *, const char *);
             string.h         75    extern void *memset(void *, int, size_t);
             string.h         76    extern char *strerror(int);
             string.h         77    extern size_t strlen(const char *);
             string.h         78    #ifdef __cplusplus
             string.h         79 X  }
             string.h         80    #endif
             string.h         81    
             string.h         82    #define strcpy(s1,s2) _builtin_strcpy(s1,s2)
             string.h         83    #define strcmp(s1,s2) _builtin_strcmp(s1,s2)
             string.h         84    
             string.h         85    #endif
             lowsrc.c         22    #include <stdio.h>
              stdio.h          1    /***************************************************************************/
              stdio.h          2    /* Copyright (C) 1992 (1995 - 2011) Renesas Electronics Corporation and    */
              stdio.h          3    /* Renesas Solutions Corp. All Rights Reserved.                            */
              stdio.h          4    /***************************************************************************/
              stdio.h          5    /***********************************************************************/
              stdio.h          6    /* SPEC;                                                               */
              stdio.h          7    /*  NAME = stdio : header file for standard I/O function ;             */
              stdio.h          8    /*                                                                     */
              stdio.h          9    /*  FUNC = this header file do the following functions;                */
              stdio.h         10    /*         (1) file entry table define;                                */
              stdio.h         11    /*         (2) I/O macro define;                                       */
              stdio.h         12    /*         (3) symbol define;                                          */
              stdio.h         13    /*  CLAS = UNIT;                                                       */
              stdio.h         14    /*                                                                     */
              stdio.h         15    /* END;                                                                */
              stdio.h         16    /***********************************************************************/
              stdio.h         17    #ifndef _STDIO
              stdio.h         18    #define _STDIO
              stdio.h         19    
              stdio.h         20    #include <stddef.h>
              stdio.h         21    
              stdio.h         22    #ifdef __cplusplus
              stdio.h         23 X  extern "C" {
              stdio.h         24    #endif
              stdio.h         25    
              stdio.h         26    #ifndef _NFILE
              stdio.h         27    #define _NFILE _nfiles
              stdio.h         28    #endif
              stdio.h         29    
              stdio.h         30    #define FOPEN_MAX _nfiles
              stdio.h         31    
              stdio.h         32    extern const int _nfiles;                   
              stdio.h         33    #pragma pack 4
              stdio.h         34    extern struct _iobuf {
              stdio.h         35           unsigned char *_bufptr;          /* buffer pointer              */
              stdio.h         36                    long  _bufcnt;          /* buffer count                */
              stdio.h         37           unsigned char *_bufbase;         /* buffer base pointer         */
              stdio.h         38                    long  _buflen;          /* buffer length               */
              stdio.h         39                    char  _ioflag1;         /* I/O control flag 1          */
              stdio.h         40                    char  _ioflag2;         /* I/O control flag 2          */
              stdio.h         41                    char  _iofd;
              stdio.h         42    }  _iob[];
              stdio.h         43    #pragma unpack
              stdio.h         44    
              stdio.h         45    #ifndef _REENTRANT
              stdio.h         46    extern volatile int         _errno;
              stdio.h         47    #else
              stdio.h         48 X  extern  int *errno_addr(void);
              stdio.h         49 X  #define _errno (*errno_addr())
              stdio.h         50    #endif
              stdio.h         51    
              stdio.h         52    typedef struct _iobuf FILE;             /* define FILE of file-stream    */
              stdio.h         53    
              stdio.h         54                                            /* define function of prototype  */
              stdio.h         55    extern int     _fillbuf(FILE*);
              stdio.h         56    extern int     _flshbuf(int,FILE*);
              stdio.h         57    extern void    _putcsub(FILE*);
              stdio.h         58    extern int     fclose(FILE *);
              stdio.h         59    extern int     fflush(FILE *);
              stdio.h         60    extern FILE   *fopen(const char *, const char *);
              stdio.h         61    extern FILE   *freopen(const char *, const char *, FILE *);
              stdio.h         62    extern void    setbuf(FILE *, char *);
              stdio.h         63    extern int     setvbuf(FILE *, char *, int, size_t);
              stdio.h         64    extern int     fprintf(FILE *, const char *, ...);
              stdio.h         65    extern int     fscanf(FILE *, const char *, ...);
              stdio.h         66    extern int     printf(const char * ,...);
              stdio.h         67    extern int     scanf(const char * ,...);
              stdio.h         68    extern int     sprintf(char *, const char * ,...);
              stdio.h         69    extern int     sscanf(const char *, const char * ,...);
              stdio.h         70    extern int     vfprintf(FILE *, const char *, char *);
              stdio.h         71    extern int     vprintf(const char *, char *);
              stdio.h         72    extern int     vsprintf(char *, const char *, char *);
              stdio.h         73    extern int     fgetc(FILE *);
              stdio.h         74    extern char   *fgets(char *, int, FILE *);
              stdio.h         75    extern int     fputc(int , FILE *);
              stdio.h         76    extern int     fputs(const char *, FILE *);
              stdio.h         77    extern int     getc(FILE *);
              stdio.h         78    extern int     getchar(void);
              stdio.h         79    extern char   *gets(char *);
              stdio.h         80    extern int     putc(int, FILE *);
              stdio.h         81    extern int     putchar(int);
              stdio.h         82    extern int     puts(const char *);
              stdio.h         83    extern int     ungetc(int, FILE *);
              stdio.h         84    extern size_t  fread(void *, size_t, size_t, FILE *);
              stdio.h         85    extern size_t  fwrite(const void *, size_t, size_t, FILE *);
              stdio.h         86    extern int     fseek(FILE *, long int, int);
              stdio.h         87    extern long    ftell(FILE *);
              stdio.h         88    extern void    rewind(FILE *);
              stdio.h         89    extern void    clearerr(FILE *);
              stdio.h         90    extern int     feof(FILE *);
              stdio.h         91    extern int     ferror(FILE *);
              stdio.h         92    extern void    perror(const char *);
              stdio.h         93    #ifdef __cplusplus
              stdio.h         94 X  }
              stdio.h         95    #endif
              stdio.h         96    
              stdio.h         97    #define _IOFBF 1                        /* define _IOFBF of full buffering */
              stdio.h         98    #define _IOLBF 2                        /* define _IOLBF of line buffering */
              stdio.h         99    #define _IONBF 3                        /* define _IONBF of non buffering  */
              stdio.h        100    
              stdio.h        101    #define SEEK_SET 0                      /* allocate top position */
              stdio.h        102    #define SEEK_CUR 1                      /* allocate current position */
              stdio.h        103    #define SEEK_END 2                      /* allocate bottom position */
              stdio.h        104    
              stdio.h        105    #define BUFSIZ 512                      /* default buffer size */
              stdio.h        106    
              stdio.h        107                                            /* error number define */
              stdio.h        108    #ifndef EBADF
              stdio.h        109    #define EBADF  1302                     /* I/O operation error */
              stdio.h        110    #endif
              stdio.h        111    
              stdio.h        112    #ifndef PTRERR
              stdio.h        113    #define PTRERR 1106                     /* fp null */
              stdio.h        114    #endif
              stdio.h        115    
              stdio.h        116    #ifndef ECSPEC
              stdio.h        117    #define ECSPEC 1304                     /* format err */
              stdio.h        118    #endif
              stdio.h        119    
              stdio.h        120    #ifndef NOTOPN
              stdio.h        121    #define NOTOPN 1300                     /* file not open */
              stdio.h        122    #endif
              stdio.h        123    
              stdio.h        124    #ifndef EMALRESM
              stdio.h        125 X  #define EMALRESM 2100                   /* malloc semaphore reserve error */
              stdio.h        126    #endif
              stdio.h        127    #ifndef ETOKRESM
              stdio.h        128 X  #define ETOKRESM 2110                   /* strtok semaphore reserve error */
              stdio.h        129    #endif
              stdio.h        130    #ifndef EIOBRESM
              stdio.h        131 X  #define EIOBRESM 2120                   /* _iob   semaphore reserve error */
              stdio.h        132    #endif
              stdio.h        133    #ifndef EMALFRSM
              stdio.h        134 X  #define EMALFRSM 2101                   /* malloc semaphore free error    */
              stdio.h        135    #endif
              stdio.h        136    #ifndef ETOKFRSM
              stdio.h        137 X  #define ETOKFRSM 2111                   /* strtok semaphore free error    */
              stdio.h        138    #endif
              stdio.h        139    #ifndef EIOBFRSM
              stdio.h        140 X  #define EIOBFRSM 2121                   /* _iob   semaphore free error    */
              stdio.h        141    #endif
              stdio.h        142    
              stdio.h        143                                            /* I/O flags for _ioflag1      */
              stdio.h        144    #define _IOREAD    1                    /* only read or update read    */
              stdio.h        145    #define _IOWRITE   2                    /* only write or update write  */
              stdio.h        146    #define _IORW      4                    /* update file                 */
              stdio.h        147    #define _IOUNBUF   8                    /* unbffering I/O              */
              stdio.h        148    #define _IOBGBUF  16                    /* automatic buffer allocate   */
              stdio.h        149    #define _IOEOF    32                    /* end of file                 */
              stdio.h        150    #define _IOERR    64                    /* I/O error                   */
              stdio.h        151    #define _IOBIN   128                    /* binaly file                 */
              stdio.h        152    #define _UNGTC     1                    /* ungetc issued (_ioflag2)    */
              stdio.h        153    #define _IOLINBUF  2                    /* line buffering              */
              stdio.h        154    
              stdio.h        155    #define EOF     (-1)
              stdio.h        156    #define _EOL    (0X0A)                  /* end of line                 */
              stdio.h        157    
              stdio.h        158    #define stdin       (&_iob[0])          /* standard input file */
              stdio.h        159    #define stdout      (&_iob[1])          /* standard output file */
              stdio.h        160    #define stderr      (&_iob[2])          /* standard error output file */
              stdio.h        161    
              stdio.h        162    #ifndef _REENTRANT
              stdio.h        163  E #define getc(fp) ((fp)->_ioflag2&=~_UNGTC,(((fp)->_ioflag1&(_IORW|_IOWRITE))== (_IORW|_IOWRITE))&&(fp)->_bufcnt==(fp)->_buflen?(_fillbuf(fp)): --(fp)->_bufcnt>=0 ?((int)*(fp)->_bufptr++):_fillbuf(fp))
              stdio.h        164  E #define putc(x,fp) (((((fp)->_ioflag1&_IORW)!=0&&((fp)->_ioflag1&_IOWRITE)==0) ?_putcsub(fp):(void)0),(((fp)->_bufcnt==0||(fp)->_buflen==1 ||(((fp)->_ioflag2&_IOLINBUF)!=0&&(x)==_EOL)) ?_flshbuf((int)(x),(fp)): (((fp)->_bufcnt--),((int)(*(fp)->_bufptr++=(unsigned char)(x))))))
              stdio.h        165    
              stdio.h        166    #define getchar()   getc(stdin)
              stdio.h        167    #define putchar(x)  putc(x,stdout)
              stdio.h        168    
              stdio.h        169    #define feof(fp)    ((fp)->_ioflag1&_IOEOF)
              stdio.h        170    #define ferror(fp)  ((fp)->_ioflag1&_IOERR)
              stdio.h        171    #define clearerr(fp) ((void)((fp)->_ioflag1&=~(_IOEOF|_IOERR)))
              stdio.h        172    #endif
              stdio.h        173    
              stdio.h        174    #endif
             lowsrc.c         23    #include <stddef.h>
             lowsrc.c         24    #include "lowsrc.h"
             lowsrc.h          1    /***********************************************************************/
             lowsrc.h          2    /*                                                                     */
             lowsrc.h          3    /*  FILE        :lowsrc.h                                              */
             lowsrc.h          4    /*  DATE        :Fri, May 31, 2002                                     */
             lowsrc.h          5    /*  DESCRIPTION :Header file of I/O Stream file                        */
             lowsrc.h          6    /*  CPU TYPE    :SH7750                                                */
             lowsrc.h          7    /*                                                                     */
             lowsrc.h          8    /*  This file is generated by Hitachi Project Generator (Ver.2.1).     */
             lowsrc.h          9    /*                                                                     */
             lowsrc.h         10    /***********************************************************************/
             lowsrc.h         11    /*Number of I/O Stream*/
             lowsrc.h         12    #define IOSTREAM 20
             lowsrc.c         25    
             lowsrc.c         26    /* file number */
             lowsrc.c         27    
             lowsrc.c         28    #define STDIN  0                       /* Standard input (console)        */
             lowsrc.c         29    #define STDOUT 1                       /* Standard output (console)       */
             lowsrc.c         30    #define STDERR 2                       /* Standard error output (console) */
             lowsrc.c         31    
             lowsrc.c         32    #define FLMIN  0                       /* Minimum file number             */
             lowsrc.c         33    #define FLMAX  3                       /* Maximum number of files         */
             lowsrc.c         34    
             lowsrc.c         35    /* file flag */
             lowsrc.c         36    
             lowsrc.c         37    #define O_RDONLY 0x0001                /* Read only                       */
             lowsrc.c         38    #define O_WRONLY 0x0002                /* Write only                      */
             lowsrc.c         39    #define O_RDWR   0x0004                /* Both read and write             */
             lowsrc.c         40    
             lowsrc.c         41    /* special character code */
             lowsrc.c         42    
             lowsrc.c         43    #define CR 0x0d                        /* Carriage return                 */
             lowsrc.c         44    #define LF 0x0a                        /* Line feed                       */
             lowsrc.c         45    
             lowsrc.c         46    
             lowsrc.c         47    
             lowsrc.c         48  E const int _nfiles = 20;
             lowsrc.c         49  E struct _iobuf _iob[20];
             lowsrc.c         50  E unsigned char sml_buf[20];
             lowsrc.c         51    
             lowsrc.c         52    
             lowsrc.c         53    /**************************************************************************/
             lowsrc.c         54    /* Declaration of reference function                                      */
             lowsrc.c         55    /* Reference of assembly program in which the simulator debugger input or */
             lowsrc.c         56    /* output characters to the console                                         */
             lowsrc.c         57    /**************************************************************************/
             lowsrc.c         58    extern void charput(char);              /* One character input            */
             lowsrc.c         59    extern char charget(void);              /* One character oputput          */
             lowsrc.c         60    
             lowsrc.c         61    /**************************************************************************/
             lowsrc.c         62    /* Definition of static variable:                                       */
             lowsrc.c         63    /* Definition of static variables used in low-level interface routines    */
             lowsrc.c         64    /**************************************************************************/
             lowsrc.c         65    
             lowsrc.c         66  E char flmod[3];                    
             lowsrc.c         67    
             lowsrc.c         68                                         /*                           by sbrk */
             lowsrc.c         69    /**************************************************************************/
             lowsrc.c         70    /*       open:file open                                                     */
             lowsrc.c         71    /*          Return value:File number (Pass)                                 */
             lowsrc.c         72    /*                       -1          (Failure)                              */
             lowsrc.c         73    /**************************************************************************/
             lowsrc.c         74    int open(char *name,                    /* File name            */
P   00000000              _open:                           ; function: open
                                                           ; frame size=0
             lowsrc.c         75         int mode)                            /* File mode              */
             lowsrc.c         76    {
             lowsrc.c         77    #if 0
             lowsrc.c         78 X  /*************************************************************************** çÌèú  A.Shima
             lowsrc.c         79 X      /* Check mode depending on file name and return file numbers          */
             lowsrc.c         80 X  
             lowsrc.c         81 X       if(strcmp(name,"stdin")==0){       /* Standard input file          */
             lowsrc.c         82 X              if((mode&O_RDONLY)==0)
             lowsrc.c         83 X                       return -1;
             lowsrc.c         84 X        flmod[STDIN]=mode;
             lowsrc.c         85 X        return STDIN;
             lowsrc.c         86 X       }
             lowsrc.c         87 X  
             lowsrc.c         88 X       else if (strcmp(name,"stdout")==0){ /* Standard output file          */
             lowsrc.c         89 X              if((mode&O_WRONLY)==0)
             lowsrc.c         90 X                       return -1;
             lowsrc.c         91 X        flmod[STDOUT]=mode;
             lowsrc.c         92 X        return STDOUT;
             lowsrc.c         93 X       }
             lowsrc.c         94 X  
             lowsrc.c         95 X       else if (strcmp(name,"stderr")==0){ /* Standard error file           */
             lowsrc.c         96 X              if((mode&O_WRONLY)==0)
             lowsrc.c         97 X                       return -1;
             lowsrc.c         98 X        flmod[STDERR]=mode;
             lowsrc.c         99 X        return STDERR;
             lowsrc.c        100 X       }
             lowsrc.c        101 X  
             lowsrc.c        102 X       else
             lowsrc.c        103 X              return -1;                   /* Error           */
             lowsrc.c        104 X  ***************************************************************************/
             lowsrc.c        105    #endif
             lowsrc.c        106    }
    00000000 000B                   RTS
    00000002 0009                   NOP
             lowsrc.c        107    
             lowsrc.c        108    /**************************************************************************/
             lowsrc.c        109    /*   close:File close                                                   */
             lowsrc.c        110    /*       Return value:0 (pass)                                              */
             lowsrc.c        111    /*                    -1 (Failure)                                          */
             lowsrc.c        112    /**************************************************************************/
             lowsrc.c        113    int close(int fileno)                      /* File number       */
    00000004              _close:                          ; function: close
                                                           ; frame size=0
             lowsrc.c        114    {
             lowsrc.c        115  E       if(fileno<0 || 3<fileno)      
    00000004 4411                   CMP/PZ      R4
    00000006 8B02                   BF          L13
    00000008 E103                   MOV         #3,R1      ; H'00000003
    0000000A 3417                   CMP/GT      R1,R4
    0000000C 8B02                   BF          L14
    0000000E              L13:
             lowsrc.c        116               return -1;
    0000000E E2FF                   MOV         #-1,R2     ; H'FFFFFFFF
    00000010 A005                   BRA         L15
    00000012 0009                   NOP
    00000014              L14:
             lowsrc.c        117    
             lowsrc.c        118          flmod[fileno]=0;               /* File mode reset         */
    00000014 D251                   MOV.L       L40+2,R2   ; _flmod
    00000016 E100                   MOV         #0,R1      ; H'00000000
    00000018 6043                   MOV         R4,R0
    0000001A 0214                   MOV.B       R1,@(R0,R2); flmod[]
             lowsrc.c        119          return 0;
    0000001C E200                   MOV         #0,R2      ; H'00000000
    0000001E              L15:
    0000001E 6023                   MOV         R2,R0
             lowsrc.c        120    }
    00000020 000B                   RTS
    00000022 0009                   NOP
             lowsrc.c        121    
             lowsrc.c        122    /**************************************************************************/
             lowsrc.c        123    /* read:Data read                                                           */
             lowsrc.c        124    /*    Return value:Number of read characters (Pass)                         */
             lowsrc.c        125    /*                 -1                        (Failure)                      */
             lowsrc.c        126    /**************************************************************************/
             lowsrc.c        127    int read(int  fileno,                      /* File number       */
    00000024              _read:                           ; function: read
                                                           ; frame size=20
    00000024 2FD6                   MOV.L       R13,@-R15
    00000026 2FE6                   MOV.L       R14,@-R15
    00000028 4F22                   STS.L       PR,@-R15
    0000002A 7FF8                   ADD         #-8,R15
             lowsrc.c        128            char *buf,                         /* Destination buffer address  */
             lowsrc.c        129            unsigned int  count)               /* Number of read characters   */
             lowsrc.c        130    {
             lowsrc.c        131          unsigned int i;
             lowsrc.c        132    
             lowsrc.c        133       /*Check mode according to file name and stores each character in buffer*/
             lowsrc.c        134    
             lowsrc.c        135  E       if(flmod[fileno]&0x0001||flmod[fileno]&0x0004){
    0000002C 6163                   MOV         R6,R1
    0000002E 1F11                   MOV.L       R1,@(4,R15); count
    00000030 6E53                   MOV         R5,R14
    00000032 D64A                   MOV.L       L40+2,R6   ; _flmod
    00000034 6043                   MOV         R4,R0
    00000036 026C                   MOV.B       @(R0,R6),R2; flmod[]
    00000038 602E                   EXTS.B      R2,R0
    0000003A C801                   TST         #1,R0
    0000003C 8B05                   BF          L18
    0000003E D647                   MOV.L       L40+2,R6   ; _flmod
    00000040 6043                   MOV         R4,R0
    00000042 026C                   MOV.B       @(R0,R6),R2; flmod[]
    00000044 602E                   EXTS.B      R2,R0
    00000046 C804                   TST         #4,R0
    00000048 891B                   BT          L19
    0000004A              L18:
             lowsrc.c        136          for(i=count; i>0; --i){
    0000004A 6D13                   MOV         R1,R13
    0000004C E700                   MOV         #0,R7      ; H'00000000
    0000004E 3D76                   CMP/HI      R7,R13
    00000050 8B14                   BF          L20
    00000052              L21:
             lowsrc.c        137            *buf=charget();
    00000052 D343                   MOV.L       L40+6,R3   ; _charget
    00000054 430B                   JSR         @R3
    00000056 0009                   NOP
    00000058 6603                   MOV         R0,R6
    0000005A 026A                   STS         FPSCR,R2
    0000005C D141                   MOV.L       L40+10,R1  ; H'FFE7FFFF
    0000005E 2219                   AND         R1,R2
    00000060 426A                   LDS         R2,FPSCR
    00000062 626E                   EXTS.B      R6,R2
    00000064 2E20                   MOV.B       R2,@R14    ; *(buf)
             lowsrc.c        138  E         if(*buf==0x0d)            
    00000066 622E                   EXTS.B      R2,R2
    00000068 602E                   EXTS.B      R2,R0
    0000006A 880D                   CMP/EQ      #13,R0
    0000006C 8B01                   BF          L23
             lowsrc.c        139  E           *buf=0x0a;
    0000006E E10A                   MOV         #10,R1     ; H'0000000A
    00000070 2E10                   MOV.B       R1,@R14    ; *(buf)
    00000072              L23:
             lowsrc.c        140            buf++;
    00000072 7E01                   ADD         #1,R14
    00000074 7DFF                   ADD         #-1,R13
    00000076 E100                   MOV         #0,R1      ; H'00000000
    00000078 3D16                   CMP/HI      R1,R13
    0000007A 89EA                   BT          L21
    0000007C              L20:
             lowsrc.c        141          }
             lowsrc.c        142          return count;
    0000007C 51F1                   MOV.L       @(4,R15),R1; count
    0000007E A001                   BRA         L24
    00000080 0009                   NOP
    00000082              L19:
             lowsrc.c        143           }
             lowsrc.c        144           else
             lowsrc.c        145                return -1;
    00000082 E1FF                   MOV         #-1,R1     ; H'FFFFFFFF
    00000084              L24:
    00000084 6013                   MOV         R1,R0
    00000086 7F08                   ADD         #8,R15
    00000088 4F26                   LDS.L       @R15+,PR
    0000008A 6EF6                   MOV.L       @R15+,R14
    0000008C 6DF6                   MOV.L       @R15+,R13
             lowsrc.c        146    }
    0000008E 000B                   RTS
    00000090 0009                   NOP
             lowsrc.c        147    
             lowsrc.c        148    /**************************************************************************/
             lowsrc.c        149    /* write:Data write                                                         */
             lowsrc.c        150    /*    Return value:Number of write characters (Pass)                        */
             lowsrc.c        151    /*                 -1                         (Failure)                     */
             lowsrc.c        152    /**************************************************************************/
             lowsrc.c        153    int write(int  fileno,                     /* File number       */
    00000092              _write:                          ; function: write
                                                           ; frame size=24
    00000092 2FD6                   MOV.L       R13,@-R15
    00000094 2FE6                   MOV.L       R14,@-R15
    00000096 4F22                   STS.L       PR,@-R15
    00000098 7FF4                   ADD         #-12,R15
             lowsrc.c        154            char *buf,                         /* Destination buffer address  */
             lowsrc.c        155            unsigned int  count)               /* Number of write characters  */
             lowsrc.c        156    {
             lowsrc.c        157           unsigned int i;
             lowsrc.c        158           char c;
             lowsrc.c        159    
             lowsrc.c        160           /* Check mode according to file name and output each character     */
             lowsrc.c        161    
             lowsrc.c        162  E        if(flmod[fileno]&0x0002 || flmod[fileno]&0x0004){
    0000009A 1F62                   MOV.L       R6,@(8,R15); count
    0000009C 6E53                   MOV         R5,R14
    0000009E D52F                   MOV.L       L40+2,R5   ; _flmod
    000000A0 6043                   MOV         R4,R0
    000000A2 025C                   MOV.B       @(R0,R5),R2; flmod[]
    000000A4 602E                   EXTS.B      R2,R0
    000000A6 C802                   TST         #2,R0
    000000A8 8B05                   BF          L27
    000000AA D52C                   MOV.L       L40+2,R5   ; _flmod
    000000AC 6043                   MOV         R4,R0
    000000AE 025C                   MOV.B       @(R0,R5),R2; flmod[]
    000000B0 602E                   EXTS.B      R2,R0
    000000B2 C804                   TST         #4,R0
    000000B4 8914                   BT          L28
    000000B6              L27:
             lowsrc.c        163                  for(i=count; i>0; --i){
    000000B6 6D63                   MOV         R6,R13
    000000B8 E100                   MOV         #0,R1      ; H'00000000
    000000BA 3D16                   CMP/HI      R1,R13
    000000BC 8B0D                   BF          L29
    000000BE              L30:
             lowsrc.c        164            c=*buf++;
    000000BE 62E3                   MOV         R14,R2
    000000C0 7E01                   ADD         #1,R14
    000000C2 6420                   MOV.B       @R2,R4
             lowsrc.c        165            charput(c);
    000000C4 D328                   MOV.L       L40+14,R3  ; _charput
    000000C6 430B                   JSR         @R3
    000000C8 0009                   NOP
    000000CA 026A                   STS         FPSCR,R2
    000000CC D125                   MOV.L       L40+10,R1  ; H'FFE7FFFF
    000000CE 2219                   AND         R1,R2
    000000D0 426A                   LDS         R2,FPSCR
    000000D2 7DFF                   ADD         #-1,R13
    000000D4 E100                   MOV         #0,R1      ; H'00000000
    000000D6 3D16                   CMP/HI      R1,R13
    000000D8 89F1                   BT          L30
    000000DA              L29:
             lowsrc.c        166          }
             lowsrc.c        167                return count;
    000000DA 56F2                   MOV.L       @(8,R15),R6; count
    000000DC A001                   BRA         L31
    000000DE 0009                   NOP
    000000E0              L28:
             lowsrc.c        168           }
             lowsrc.c        169           else
             lowsrc.c        170                return -1;
    000000E0 E6FF                   MOV         #-1,R6     ; H'FFFFFFFF
    000000E2              L31:
    000000E2 6063                   MOV         R6,R0
    000000E4 7F0C                   ADD         #12,R15
    000000E6 4F26                   LDS.L       @R15+,PR
    000000E8 6EF6                   MOV.L       @R15+,R14
    000000EA 6DF6                   MOV.L       @R15+,R13
             lowsrc.c        171    }
    000000EC 000B                   RTS
    000000EE 0009                   NOP
             lowsrc.c        172    
             lowsrc.c        173    /**************************************************************************/
             lowsrc.c        174    /* lseek:Definition of file read/write position                             */
             lowsrc.c        175    /*    Return value:Offset from the top of file read/whrte position(Pass)    */
             lowsrc.c        176    /*                 -1              (Failure)                                */
             lowsrc.c        177    /*    (lseek is not supported in the console input/output)                  */
             lowsrc.c        178    /**************************************************************************/
             lowsrc.c        179    long lseek(int  fileno,                    /* File number       */
    000000F0              _lseek:                          ; function: lseek
                                                           ; frame size=0
             lowsrc.c        180         long offset,            /* Read/write position     */
             lowsrc.c        181         int  base)              /* Origin of offset        */
             lowsrc.c        182    {
             lowsrc.c        183         return -1;
    000000F0 E2FF                   MOV         #-1,R2     ; H'FFFFFFFF
    000000F2 6023                   MOV         R2,R0
             lowsrc.c        184    }
    000000F4 000B                   RTS
    000000F6 0009                   NOP
             lowsrc.c        185    
             lowsrc.c        186    
             lowsrc.c        187    /****************************************************************************/
             lowsrc.c        188    /* _INIT_IOLIB                                                              */
             lowsrc.c        189    /*    Initialize C library Functions, if necessary.               */
             lowsrc.c        190    /*    Define USES_SIMIO on Assembler Option.                  */
             lowsrc.c        191    /****************************************************************************/
             lowsrc.c        192    void _INIT_IOLIB(void)
    000000F8              __INIT_IOLIB:                    ; function: _INIT_IOLIB
                                                           ; frame size=0
             lowsrc.c        193    {
             lowsrc.c        194    /*************************************************************************** çÌèú  A.Shima
             lowsrc.c        195    FILE *fp;
             lowsrc.c        196    
             lowsrc.c        197      for( fp = _iob; fp < _iob + _nfiles; fp++ )
             lowsrc.c        198       {
             lowsrc.c        199          fp->_bufptr = NULL;
             lowsrc.c        200          fp->_bufcnt = 0;
             lowsrc.c        201          fp->_buflen = 0;
             lowsrc.c        202          fp->_bufbase = NULL;
             lowsrc.c        203          fp->_ioflag1 = 0;
             lowsrc.c        204          fp->_ioflag2 = 0;
             lowsrc.c        205          fp->_iofd = 0;
             lowsrc.c        206       }
             lowsrc.c        207    
             lowsrc.c        208      if(freopen( "stdin", "r", stdin )==NULL)
             lowsrc.c        209          stdin->_ioflag1 = 0xff;
             lowsrc.c        210      stdin->_ioflag1 |= _IOUNBUF;
             lowsrc.c        211      if(freopen( "stdout", "w", stdout )==NULL)
             lowsrc.c        212          stdout->_ioflag1 = 0xff;
             lowsrc.c        213      stdout->_ioflag1 |= _IOUNBUF;
             lowsrc.c        214      if(freopen( "stderr", "w", stderr )==NULL)
             lowsrc.c        215          stderr->_ioflag1 = 0xff;
             lowsrc.c        216      stderr->_ioflag1 |= _IOUNBUF;
             lowsrc.c        217    ***************************************************************************/
             lowsrc.c        218    }
    000000F8 000B                   RTS
    000000FA 0009                   NOP
             lowsrc.c        219    
             lowsrc.c        220    /****************************************************************************/
             lowsrc.c        221    /* _CLOSEALL                                                                */
             lowsrc.c        222    /****************************************************************************/
             lowsrc.c        223    
             lowsrc.c        224    void _CLOSEALL(void)
    000000FC              __CLOSEALL:                      ; function: _CLOSEALL
                                                           ; frame size=12
    000000FC 2FE6                   MOV.L       R14,@-R15
    000000FE 4F22                   STS.L       PR,@-R15
    00000100 7FFC                   ADD         #-4,R15
             lowsrc.c        225    {
             lowsrc.c        226    int i;
             lowsrc.c        227    
             lowsrc.c        228      for( i=0; i < _nfiles; i++ )
    00000102 EE00                   MOV         #0,R14     ; H'00000000
    00000104 D119                   MOV.L       L40+18,R1  ; __nfiles
    00000106 6712                   MOV.L       @R1,R7     ; _nfiles
    00000108 3E73                   CMP/GE      R7,R14
    0000010A 8921                   BT          L36
    0000010C              L37:
             lowsrc.c        229  E       if( _iob[i]._ioflag1 & (1 | 2 | 4 ) )
    0000010C D418                   MOV.L       L40+22,R4  ; __iob
    0000010E 62E3                   MOV         R14,R2
    00000110 6623                   MOV         R2,R6
    00000112 4208                   SHLL2       R2
    00000114 4208                   SHLL2       R2
    00000116 4608                   SHLL2       R6
    00000118 326C                   ADD         R6,R2
    0000011A 6543                   MOV         R4,R5
    0000011C 7510                   ADD         #16,R5
    0000011E 6023                   MOV         R2,R0
    00000120 065C                   MOV.B       @(R0,R5),R6; _iob[]._ioflag1
    00000122 606E                   EXTS.B      R6,R0
    00000124 C807                   TST         #7,R0
    00000126 890E                   BT          L39
             lowsrc.c        230              fclose( & _iob[i] );
    00000128 D411                   MOV.L       L40+22,R4  ; __iob
    0000012A 62E3                   MOV         R14,R2
    0000012C 6623                   MOV         R2,R6
    0000012E 4208                   SHLL2       R2
    00000130 4208                   SHLL2       R2
    00000132 4608                   SHLL2       R6
    00000134 326C                   ADD         R6,R2
    00000136 342C                   ADD         R2,R4
    00000138 D30E                   MOV.L       L40+26,R3  ; _fclose
    0000013A 430B                   JSR         @R3
    0000013C 0009                   NOP
    0000013E 026A                   STS         FPSCR,R2
    00000140 D108                   MOV.L       L40+10,R1  ; H'FFE7FFFF
    00000142 2219                   AND         R1,R2
    00000144 426A                   LDS         R2,FPSCR
    00000146              L39:
    00000146 7E01                   ADD         #1,R14
    00000148 D108                   MOV.L       L40+18,R1  ; __nfiles
    0000014A 6712                   MOV.L       @R1,R7     ; _nfiles
    0000014C 3E73                   CMP/GE      R7,R14
    0000014E 8BDD                   BF          L37
    00000150              L36:
    00000150 7F04                   ADD         #4,R15
    00000152 4F26                   LDS.L       @R15+,PR
    00000154 6EF6                   MOV.L       @R15+,R14
             lowsrc.c        231    }
    00000156 000B                   RTS
    00000158 0009                   NOP
    0000015A              L40:
    0000015A 00000002               .RES.W      1
    0000015C <00000000>             .DATA.L     _flmod
    00000160 <00000000>             .DATA.L     _charget
    00000164 FFE7FFFF               .DATA.L     H'FFE7FFFF
    00000168 <00000000>             .DATA.L     _charput
    0000016C <00000000>             .DATA.L     __nfiles
    00000170 <00000000>             .DATA.L     __iob
    00000174 <00000000>             .DATA.L     _fclose
             lowsrc.c        232    
             lowsrc.c        233    
C   00000000              __nfiles:                        ; static: _nfiles
    00000000 00000014               .DATA.L     H'00000014
B   00000000              __iob:                           ; static: _iob
    00000000 00000004               .RES.L      100
    00000190              _sml_buf:                        ; static: sml_buf
    00000190 00000001               .RES.B      20
    000001A4              _flmod:                          ; static: flmod
    000001A4 00000001               .RES.B      3
SH SERIES C/C++ Compiler (V.9.04.01.002)                                                         12-Dec-2017 19:19:37  PAGE    1


******** STATISTICS INFORMATION ********


********** ERROR INFORMATION ***********

NUMBER OF ERRORS:           0
NUMBER OF WARNINGS:         0




******* SOURCE LINE INFORMATION ********

COMPILED SOURCE LINE:      233



******* SECTION SIZE INFORMATION *******

PROGRAM  SECTION (P):                                 00000178 Byte(s)
CONSTANT SECTION (C):                                 00000004 Byte(s)
DATA     SECTION (D):                                 00000000 Byte(s)
BSS      SECTION (B):                                 000001A7 Byte(s)

TOTAL PROGRAM  SECTION: 00000178 Byte(s)
TOTAL CONSTANT SECTION: 00000004 Byte(s)
TOTAL DATA     SECTION: 00000000 Byte(s)
TOTAL BSS      SECTION: 000001A7 Byte(s)

    TOTAL PROGRAM SIZE: 00000323 Byte(s)



********** LABEL INFORMATION ***********

NUMBER OF EXTERNAL REFERENCE SYMBOLS:            3
NUMBER OF EXTERNAL DEFINITION SYMBOLS:          11
NUMBER OF INTERNAL/EXTERNAL SYMBOLS:            32



*** COMMAND PARAMETER ***

-subcommand=D:\SIT4S_MC\cpua\cpua\cpua\Debug\lowsrc.shc
-cpu=sh4
-include="D:\SIT4S_MC\cpua\cpua\HW_SRC","D:\SIT4S_MC\comon","D:\SIT4S_MC\cpua\cpua","D:\SIT4S_MC\cpua\cpua\SEQ_SRC","D:\SIT4S_MC\cpua\cpua\cb_src\COMON","D:\SIT4S_MC\cpua\cpua\cb_src\K_SRC","D:\SIT4S_MC\comon\cpua_inc"
-object="D:\SIT4S_MC\cpua\cpua\cpua\Debug\lowsrc.obj"
-debug
-listfile="D:\SIT4S_MC\cpua\cpua\cpua\Debug\lowsrc.lst"
-show=source,include,expansion,tab=4
-optimize=0
-noinline
-gbr=auto
-chgincpath
-errorpath
"D:\SIT4S_MC\cpua\cpua\cpua\lowsrc.c"
-global_volatile=0
-opt_range=all
-infinite_loop=0
-del_vacant_loop=0
-struct_alloc=1
-lang=c
-nologo
