*** SuperH RISC engine ASSEMBLER V.7.01.02.000 ***    12/12/17 19:20:07                                                  PAGE     1
PROGRAM NAME =

    1                               1     ;------------------------------------------------------------------------
    2                               2     ;                                                                       |
    3                               3     ;   FILE        :resetprg.src                                           |
    4                               4     ;   DATE        :Mon, Jun 24, 2002                                      |
    5                               5     ;   DESCRIPTION :Reset Program                                          |
    6                               6     ;   CPU TYPE    :SH7750                                                 |
    7                               7     ;                                                                       |
    8                               8     ;   This file is generated by Hitachi Project Generator (Ver.1.1).      |
    9                               9     ;                                                                       |
   10                              10     ;------------------------------------------------------------------------
 1867                              17     
 1868                              18                     .import _PowerON_Reset_SP
 1869                              19                     .import INTHandlerPRG
 1870                              20                     .import __INITSCT
 1871                              21                     .import _main
 1872                              22     
 1873                              23                     .import __INIT_IOLIB            ; Remove the comment when you use SIM I/O
 1874                              24                     .import __CLOSEALL
 1875                              25     
 1876                              26     ;               .import __INIT_OTHERLIB         ; Remove the comment when you use rand(),s
                                          trtok()
 1877                              27     
 1878                              28     
 1879                              29     ;               .import __call_init                     ; Remove the comment when you use
                                          __call_init
 1880                              30     ;               .import __call_end                      ; Remove the comment when you use
                                          __call_end
 1881                              31     
 1882                              32                     .import _IRAM_CLR;
 1883                              33                     .import _WORK_MEM1_CHK;
 1884                              34     ;;;;;           //.import       _DP_MEM_CHK;
 1885                              35                     .import _HardwareSetup1;
 1886                              36                     .import _HardwareSetup2;
 1887                              37     
 1888                              38                     .import _CASH_ENB
 1889                              39     
 1890                              40                     .import _P_TO_PRAM_COPY                 ; P -> PRAM
 1891                              41                     .import _PC_TO_PCRAM_COPY               ; Pcall -> PcallRAM
 1892                              42     
 1893                              43             .import         _VUP_PRO_ROM_TO_RAM;
 1894                              44             .import         _ASM_VUP_MAIN;
 1895                              45             .import         _VUPCHECK_DATA
 1896                              46     
 1897 00000000                     47                     .section PResetPRG,code
 1898 00000000                     48     _PowerON_Reset:
 1899 00000000                     49     _Manual_Reset:
 1900 00000000 DF0E                50                     mov.l   #_PowerON_Reset_SP, R15  ; Initialize SP
 1901 00000002 D00F                51                     mov.l   #INTHandlerPRG,r0
 1902 00000004 D10F                52                     mov.l   #H'100,r1
 1903 00000006 3018                53                     sub.l   r1,r0
 1904 00000008 402E                54                     ldc             r0,vbr                  ; VBR addr set
 1905                              55     
 1906 0000000A D00F                56                     mov.l   #_CCR,r0        ;
 1907 0000000C D10F                57                     mov.l   #h'0021,r1      ;               ; すぐに内蔵RAMを有効にする。
 1908 0000000E 2012                58                     mov.l   r1,@r0          ;
 1909                              59     
 1910                              60     ;;;;;;          mov.l   #__INITSCT,r1
*** SuperH RISC engine ASSEMBLER V.7.01.02.000 ***    12/12/17 19:20:07                                                  PAGE     2
PROGRAM NAME =

 1911                              61     ;;;;;;          jsr     @r1
 1912                              62     ;;;;;;          nop
 1913                              63     
 1914                              64     ;;;;;           mov.l   #__INIT_IOLIB,r1                ; Remove the comment when you use
                                          SIM I/O
 1915                              65     ;;;;;           jsr     @r1
 1916                              66     ;;;;;           nop
 1917                              67     
 1918                              68     ;;;;;;          mov.l   #__INIT_OTHERLIB,r1             ; Remove the comment when you use
                                          rand(),strtok()
 1919                              69     ;;;;;;          jsr     @r1
 1920                              70     ;;;;;;          nop
 1921                              71     
 1922 00000010 D10F                72                     mov.l   #_HardwareSetup1,r1             ; Use Hardware Setup
 1923 00000012 410B                73                     jsr     @r1
 1924 00000014 0009                74                     nop
 1925                              75     
 1926 00000016 D10F                76                     MOV.L   #_IRAM_CLR,R1                   ;// IRAM CLEAR
 1927 00000018 410B                77                     JSR     @R1
 1928 0000001A 0009                78                     NOP
 1929                              79     
 1930 0000001C D10E                80                     MOV.L   #_WORK_MEM1_CHK,R1              ;// SDRAM       CHECK & CLEAR
 1931 0000001E 410B                81                     JSR     @R1
 1932 00000020 0009                82                     NOP
 1933                              83     
 1934 00000022 D10E                84             mov.l   #_VUP_PRO_ROM_TO_RAM,r1         ;
 1935 00000024 410B                85             jsr     @r1
 1936 00000026 0009                86             nop
 1937                              87     
 1938                              88     ;//     *********************************************************************
 1939                              89     ;//     *****   最終ｾｸｼｮﾝに固定ﾃﾞｰﾀが入っているかどうか確認             *****
 1940                              90     ;//     *****   入っていなければﾊﾞｰｼﾞｮﾝUP待ち状態にする。               *****
 1941                              91     ;//     *****   ﾊﾞｰｼﾞｮﾝUPする時は、必ず最初に最終ｾｸｼｮﾝを消去            *****
 1942                              92     ;//     *********************************************************************
 1943 00000028 D10D                93             MOV.L   #_VUPCHECK_DATA,R1
 1944 0000002A 6012                94             MOV.L   @R1,R0
 1945 0000002C D10D                95             MOV.L   #_VUPCHECK_EQU,R1
 1946 0000002E 3010                96             CMP/EQ  R1,R0                                   ; 前回のﾌﾟﾛｸﾞﾗﾑﾊﾞｰｼﾞｮﾝUPは正常？
 1947 00000030 891C                97             BT      _PONR_100                               ; はい
 1948                              98     
 1949 00000032                     99     _PONR_050:
 1950                             100             FAR_JSR #_ASM_VUP_MAIN,R0
 1951 00000032 D00D                   M           MOV.L   #_ASM_VUP_MAIN,R0               ;ﾃｰﾌﾞﾙｱﾄﾞﾚｽの内容をREGへ
 1952 00000034 400B                   M           JSR     @R0                     ;
 1953 00000036 0009                   M           NOP                                     ;
 1954                             101             M_BRA   _PONR_050
 1955 00000038 AFFB                   M           BRA     _PONR_050
 1956 0000003A 0009                   M           NOP
 1957                             102     
 1958                                     ***** BEGIN-POOL *****
 1959 0000003C 00000000                   DATA FOR SOURCE-LINE 50
 1960 00000040 00000000                   DATA FOR SOURCE-LINE 51
 1961 00000044 00000100                   DATA FOR SOURCE-LINE 52
 1962 00000048 00000000                   DATA FOR SOURCE-LINE 56
 1963 0000004C 00000021                   DATA FOR SOURCE-LINE 57
 1964 00000050 00000000                   DATA FOR SOURCE-LINE 72
 1965 00000054 00000000                   DATA FOR SOURCE-LINE 76
*** SuperH RISC engine ASSEMBLER V.7.01.02.000 ***    12/12/17 19:20:07                                                  PAGE     3
PROGRAM NAME =

 1966 00000058 00000000                   DATA FOR SOURCE-LINE 80
 1967 0000005C 00000000                   DATA FOR SOURCE-LINE 84
 1968 00000060 00000000                   DATA FOR SOURCE-LINE 93
 1969 00000064 11AB3739                   DATA FOR SOURCE-LINE 95
 1970 00000068 00000000                   DATA FOR SOURCE-LINE 100
 1971                                     ***** END-POOL *****
 1972 0000006C                    103     _PONR_100:
 1973                             104     ;               mov.l   #__call_init,r1                 ; Remove the comment when you use
                                          global class object
 1974                             105     ;               jsr     @r1                                             ; See initsct.c an
                                          d dbsct.src
 1975                             106     ;               nop
 1976                             107     
 1977                             108     ;;;;;           mov.l   #SR_Init,r0
 1978                             109     ;;;;;           mov.l   #_main,r8
 1979                             110     ;;;;;           ldc             r0,sr                                   ; SR set (User AP
                                          mode)
 1980                             111     ;;;;;           jsr             @r8
 1981 0000006C 0009               112                     nop
 1982                             113     
 1983                             114     ;               mov.l   #__call_end,r1                  ; Remove the comment when you use
                                          global class object
 1984                             115     ;               jsr     @r1                                             ; See initsct.c an
                                          d dbsct.src
 1985                             116     ;               nop
 1986                             117     
 1987                             118     ;               mov.l   #__CLOSEALL,r1                  ; Remove the comment when you use
                                          SIM I/O
 1988                             119     ;               jsr     @r1
 1989                             120     ;               nop
 1990                             121     
 1991 0000006E D103               122                     MOV.L   #_Pstart,R1                     ;
 1992 00000070 410B               123                     JSR     @R1
 1993 00000072 0009               124                     NOP
 1994                             125     
 1995                             126     
 1996 00000074 001B               127                     sleep
 1997 00000076 0009               128                     nop
 1998                             129                     .pool
 1999                                     ***** BEGIN-POOL *****
 2000 00000078 A002                       BRA TO END-POOL
 2001 0000007A 0009                       NOP
 2002 0000007C 00000000                   DATA FOR SOURCE-LINE 122
 2003                                     ***** END-POOL *****
 2004                             130     
 2005                             131     
 2006 00000000                    132             .SECTION        Pstart,CODE                     ;
 2007 00000000                    133     _Pstart:
 2008                             134     
 2009 00000000 D120               135             MOV.L   #_HardwareSetup2,R1                     ;// Use Hardware Setup
 2010 00000002 410B               136             JSR     @R1
 2011 00000004 0009               137             NOP
 2012                             138     
 2013 00000006 D120               139             MOV.L   #_CASH_ENB,R1                   ;
 2014 00000008 410B               140             jsr     @r1
 2015 0000000A 0009               141             nop
 2016                             142     
*** SuperH RISC engine ASSEMBLER V.7.01.02.000 ***    12/12/17 19:20:07                                                  PAGE     4
PROGRAM NAME =

 2017 0000000C D11F               143             mov.l   #_P_TO_PRAM_COPY,r1             ; P -> PRAM
 2018 0000000E 410B               144             jsr     @r1
 2019 00000010 0009               145             nop
 2020                             146     
 2021 00000012 D11F               147             mov.l   #_PC_TO_PCRAM_COPY,r1           ; Pcall -> PcallRAM
 2022 00000014 410B               148             jsr     @r1
 2023 00000016 0009               149             nop
 2024                             150     
 2025                             151     ;       -----------2007-11-26ｽﾀｯｸﾁｪｯｸｺｰﾄﾞ--------------
 2026 00000018 D11E               152             MOV.L   #_PowerON_Reset_SP-H'7F0+H'10,R1;STACK TOP
 2027 0000001A 9029               153             MOV.W   #H'5AA5,R0                      ;
 2028 0000001C 2101               154             MOV.W   R0,@R1                          ;7F0,7F1
 2029 0000001E 7102               155             ADD     #2,R1
 2030 00000020 9027               156             MOV.W   #H'1234,R0                      ;
 2031 00000022 2101               157             MOV.W   R0,@R1                          ;7F2,7F3
 2032 00000024 7102               158             ADD     #2,R1
 2033 00000026 9025               159             MOV.W   #H'5678,R0                      ;
 2034 00000028 2101               160             MOV.W   R0,@R1                          ;7F4,7F5
 2035 0000002A 7102               161             ADD     #2,R1
 2036 0000002C 9023               162             MOV.W   #H'9ABC,R0                      ;
 2037 0000002E 2101               163             MOV.W   R0,@R1                          ;7F6,7F7
 2038 00000030 7102               164             ADD     #2,R1
 2039 00000032 9021               165             MOV.W   #H'DEF0,R0                      ;
 2040 00000034 2101               166             MOV.W   R0,@R1                          ;7F8,7F9
 2041 00000036 7102               167             ADD     #2,R1
 2042                             168     
 2043                             169     ;       -----------2007-11-26ｽﾀｯｸﾁｪｯｸｺｰﾄﾞ--------------
 2044 00000038 D117               170             MOV.L   #_PowerON_Reset_SP-H'7F0+H'100,R1       ;STACK TOP
 2045 0000003A 901E               171             MOV.W   #H'A55A,R0                              ;
 2046 0000003C 2101               172             MOV.W   R0,@R1                                  ;7F0,7F1
 2047 0000003E 7102               173             ADD     #2,R1
 2048 00000040 901C               174             MOV.W   #H'4321,R0                              ;
 2049 00000042 2101               175             MOV.W   R0,@R1                                  ;7F2,7F3
 2050 00000044 7102               176             ADD     #2,R1
 2051 00000046 901A               177             MOV.W   #H'8765,R0                              ;
 2052 00000048 2101               178             MOV.W   R0,@R1                                  ;7F4,7F5
 2053 0000004A 7102               179             ADD     #2,R1
 2054 0000004C 9018               180             MOV.W   #H'CBA9,R0                              ;
 2055 0000004E 2101               181             MOV.W   R0,@R1                                  ;7F6,7F7
 2056 00000050 7102               182             ADD     #2,R1
 2057 00000052 9016               183             MOV.W   #H'0FED,R0                              ;
 2058 00000054 2101               184             MOV.W   R0,@R1                                  ;7F8,7F9
 2059                             185     ;       ----------------------------------------------
 2060                             186     
 2061                             187     ;;;;;   nop();
 2062 00000056 D011               188             MOV.L   #H'0040001,R0
 2063 00000058 406A               189             LDS     R0,FPSCR
 2064                             190     
 2065                             191     ;;;だめ MOV.L   #_main,R1                               ;
 2066                             192     ;;;だめ JSR     @R1
 2067                             193     ;;;だめ NOP
 2068                             194     ;       ========= このソフトのＣがR1をいきなりFPSCRに入れている==
 2069                             195     
 2070                             196     ;       -----------------------------------------
 2071                             197             .IMPORT _CALCLATION_CHK
 2072                             198     
 2073                             199     ;;;;    STS     FPSCR,R1
*** SuperH RISC engine ASSEMBLER V.7.01.02.000 ***    12/12/17 19:20:07                                                  PAGE     5
PROGRAM NAME =

 2074                             200     ;;;;    MOV.L   #_CALCLATION_CHK,R8
 2075                             201     ;;;;    JSR     @R8
 2076                             202     ;;;;    NOP
 2077                             203     
 2078                             204     
 2079                             205     ;       -----------------------------------------
 2080                             206     
 2081                             207     
 2082                             208     
 2083                             209     
 2084 0000005A 016A               210             STS     FPSCR,R1
 2085 0000005C D810               211             MOV.L   #_main,R8                               ;
 2086 0000005E 480B               212             JSR     @R8
 2087 00000060 0009               213             NOP
 2088                             214     
 2089 00000062 D110               215             MOV.L   #__CLOSEALL,R1                          ;// Use SIM I/O
 2090 00000064 410B               216             JSR     @R1                                     ;
 2091 00000066 0009               217             NOP
 2092                             218     
 2093                             219     ;;;;;// _CALL_END();                                    // Remove the comment when you use
                                           global class object
 2094                             220     
 2095 00000068 001B               221             sleep
 2096 0000006A 0009               222             nop
 2097                             223     
 2098                             224                     .pool
 2099                                     ***** BEGIN-POOL *****
 2100 0000006C A01C                       BRA TO END-POOL
 2101 0000006E 0009                       NOP
 2102 00000070 5AA5                       DATA FOR SOURCE-LINE 153
 2103 00000072 1234                       DATA FOR SOURCE-LINE 156
 2104 00000074 5678                       DATA FOR SOURCE-LINE 159
 2105 00000076 9ABC                       DATA FOR SOURCE-LINE 162
 2106 00000078 DEF0                       DATA FOR SOURCE-LINE 165
 2107 0000007A A55A                       DATA FOR SOURCE-LINE 171
 2108 0000007C 4321                       DATA FOR SOURCE-LINE 174
 2109 0000007E 8765                       DATA FOR SOURCE-LINE 177
 2110 00000080 CBA9                       DATA FOR SOURCE-LINE 180
 2111 00000082 0FED                       DATA FOR SOURCE-LINE 183
 2112 00000084 00000000                   DATA FOR SOURCE-LINE 135
 2113 00000088 00000000                   DATA FOR SOURCE-LINE 139
 2114 0000008C 00000000                   DATA FOR SOURCE-LINE 143
 2115 00000090 00000000                   DATA FOR SOURCE-LINE 147
 2116 00000094 00000000                   DATA FOR SOURCE-LINE 152
 2117 00000098 00000000                   DATA FOR SOURCE-LINE 170
 2118 0000009C 00040001                   DATA FOR SOURCE-LINE 188
 2119 000000A0 00000000                   DATA FOR SOURCE-LINE 211
 2120 000000A4 00000000                   DATA FOR SOURCE-LINE 215
 2121                                     ***** END-POOL *****
 2122                             225     
 2123                             226     
 2124                             227                     .end
  *****TOTAL ERRORS       0
  *****TOTAL WARNINGS     0
*** SuperH RISC engine ASSEMBLER V.7.01.02.000 ***    12/12/17 19:20:07                                                  PAGE     6

*** CROSS REFERENCE LIST

NAME                             SECTION  ATTR VALUE             SEQUENCE

BIT0                                      EQU  00000001    292*
BIT1                                      EQU  00000002    293*
BIT10                                     EQU  00000400    302*
BIT11                                     EQU  00000800    303*
BIT12                                     EQU  00001000    304*
BIT13                                     EQU  00002000    305*
BIT14                                     EQU  00004000    306*
BIT15                                     EQU  00008000    307*
BIT16                                     EQU  00010000    308*
BIT17                                     EQU  00020000    309*
BIT18                                     EQU  00040000    310*
BIT19                                     EQU  00080000    311*
BIT2                                      EQU  00000004    294*
BIT20                                     EQU  00100000    312*
BIT21                                     EQU  00200000    313*
BIT22                                     EQU  00400000    314*
BIT23                                     EQU  00800000    315*
BIT24                                     EQU  01000000    316*
BIT25                                     EQU  02000000    317*
BIT26                                     EQU  04000000    318*
BIT27                                     EQU  08000000    319*
BIT28                                     EQU  10000000    320*
BIT29                                     EQU  20000000    321*
BIT3                                      EQU  00000008    295*
BIT30                                     EQU  40000000    322*
BIT31                                     EQU  80000000    323*
BIT4                                      EQU  00000010    296*
BIT5                                      EQU  00000020    297*
BIT6                                      EQU  00000040    298*
BIT7                                      EQU  00000080    299*
BIT8                                      EQU  00000100    300*
BIT9                                      EQU  00000200    301*
H_BYTE                                    EQU  00000000    359*
INTHandlerPRG                             IMPT 00000000   1869  1901 
L_BYTE                                    EQU  00000001    358*
NBIT0                                     EQU  000000FE    326*
NBIT1                                     EQU  000000FD    327*
NBIT10                                    EQU  0000FBFF    337*
NBIT11                                    EQU  0000F7FF    338*
NBIT12                                    EQU  0000EFFF    339*
NBIT13                                    EQU  0000DFFF    340*
NBIT14                                    EQU  0000BFFF    341*
NBIT15                                    EQU  00007FFF    342*
NBIT2                                     EQU  000000FB    328*
NBIT3                                     EQU  000000F7    329*
NBIT4                                     EQU  000000EF    330*
NBIT5                                     EQU  000000DF    331*
NBIT6                                     EQU  000000BF    332*
NBIT7                                     EQU  0000007F    333*
NBIT8                                     EQU  0000FEFF    335*
NBIT9                                     EQU  0000FDFF    336*
PResetPRG                        PResetPR SCT  00000000   1897*
Pstart                           Pstart   SCT  00000000   2006*
SR_Init                                   EQU  000000F0     26*
*** SuperH RISC engine ASSEMBLER V.7.01.02.000 ***    12/12/17 19:20:07                                                  PAGE     7

*** CROSS REFERENCE LIST

NAME                             SECTION  ATTR VALUE             SEQUENCE

SR_Init_DI                                EQU  400000F0     27*
XBIT0                                     EQU  00000000    345*
XBIT1                                     EQU  00000001    346*
XBIT2                                     EQU  00000002    347*
XBIT3                                     EQU  00000003    348*
XBIT4                                     EQU  00000004    349*
XBIT5                                     EQU  00000005    350*
XBIT6                                     EQU  00000006    351*
XBIT7                                     EQU  00000007    352*
_ASM_VUP_MAIN                             IMPT 00000000   1894  1951 
_BAMRA                                    IMPT 00000000    190 
_BAMRB                                    IMPT 00000000    193 
_BARA                                     IMPT 00000000    189 
_BARB                                     IMPT 00000000    192 
_BASRA                                    IMPT 00000000    178 
_BASRB                                    IMPT 00000000    179 
_BBRA                                     IMPT 00000000    191 
_BBRB                                     IMPT 00000000    194 
_BCR1                                     IMPT 00000000    200 
_BCR2                                     IMPT 00000000    201 
_BDMRB                                    IMPT 00000000    196 
_BDRB                                     IMPT 00000000    195 
_BRCR                                     IMPT 00000000    197 
_CALCLATION_CHK                           IMPT 00000000   2071 
_CASH_ENB                                 IMPT 00000000   1888  2013 
_CB_BAKUP_CMD1                            EQU  00005678    391*
_CB_BAKUP_CMD2                            EQU  00001234    392*
_CB_BAK_SUM_COD1                          EQU  5AA51234    389*
_CB_BAK_SUM_COD2                          EQU  A55A4321    390*
_CB_ERR_INFO_MEM                          EQU  00000040    414*
_CB_STS_BUF_1BLK                          EQU  00000040    394*  396 
_CB_STS_BUF_BLKMAX                        EQU  00000008    395*  396 
_CB_STS_BUF_MAX                           EQU  00000200    396*
_CB_TRD_BEFORE                            EQU  00000060    404*
_CB_TRD_BUF_DP_MAX                        EQU  00000080    408*
_CB_TRD_BUF_MAX                           EQU  00000800    405*
_CB_TRD_DP_1CNT                           EQU  00000008    407*
_CB_TRD_DP_CH                             EQU  00000004    400*
_CB_TRD_SMP_CNT                           EQU  00000080    403*
_CCR                                      IMPT 00000000    180  1906 
_CHCR0                                    IMPT 00000000    221 
_CHCR1                                    IMPT 00000000    225 
_CHCR2                                    IMPT 00000000    229 
_CHCR3                                    IMPT 00000000    233 
_DAR0                                     IMPT 00000000    219 
_DAR1                                     IMPT 00000000    223 
_DAR2                                     IMPT 00000000    227 
_DAR3                                     IMPT 00000000    231 
_DMAOR                                    IMPT 00000000    234 
_DMATCR0                                  IMPT 00000000    220 
_DMATCR1                                  IMPT 00000000    224 
_DMATCR2                                  IMPT 00000000    228 
_DMATCR3                                  IMPT 00000000    232 
_DUMMY_SUM_CODE                           EQU  5AA53CC3    382*
*** SuperH RISC engine ASSEMBLER V.7.01.02.000 ***    12/12/17 19:20:07                                                  PAGE     8

*** CROSS REFERENCE LIST

NAME                             SECTION  ATTR VALUE             SEQUENCE

_EXPEVT                                   IMPT 00000000    182 
_FRQCR                                    IMPT 00000000    237 
_GPIOIC                                   IMPT 00000000    215 
_HardwareSetup1                           IMPT 00000000   1885  1922 
_HardwareSetup2                           IMPT 00000000   1886  2009 
_ICR                                      IMPT 00000000    244 
_INTEVT                                   IMPT 00000000    183 
_INT_Address_load                         IMPT 00000000     53 
_INT_Address_store                        IMPT 00000000     55 
_INT_DMAC_DMAE                            IMPT 00000000    147 
_INT_DMAC_DMTE0                           IMPT 00000000    139 
_INT_DMAC_DMTE1                           IMPT 00000000    141 
_INT_DMAC_DMTE2                           IMPT 00000000    143 
_INT_DMAC_DMTE3                           IMPT 00000000    145 
_INT_Extern_0000                          IMPT 00000000     71 
_INT_Extern_0001                          IMPT 00000000     73 
_INT_Extern_0010                          IMPT 00000000     75 
_INT_Extern_0011                          IMPT 00000000     77 
_INT_Extern_0100                          IMPT 00000000     79 
_INT_Extern_0101                          IMPT 00000000     81 
_INT_Extern_0110                          IMPT 00000000     83 
_INT_Extern_0111                          IMPT 00000000     85 
_INT_Extern_1000                          IMPT 00000000     87 
_INT_Extern_1001                          IMPT 00000000     89 
_INT_Extern_1010                          IMPT 00000000     91 
_INT_Extern_1011                          IMPT 00000000     93 
_INT_Extern_1100                          IMPT 00000000     95 
_INT_Extern_1101                          IMPT 00000000     97 
_INT_Extern_1110                          IMPT 00000000     99 
_INT_FPU                                  IMPT 00000000     57 
_INT_HUDI                                 IMPT 00000000    135 
_INT_Illegal_FPU                          IMPT 00000000    167 
_INT_Illegal_code                         IMPT 00000000     63 
_INT_Illegal_slot                         IMPT 00000000     65 
_INT_Illegal_slot_FPU                     IMPT 00000000    169 
_INT_Input_Capture                        IMPT 00000000    109 
_INT_NMI                                  IMPT 00000000     67 
_INT_REF_RCMI                             IMPT 00000000    127 
_INT_REF_ROVI                             IMPT 00000000    129 
_INT_RTC_ATI                              IMPT 00000000    111 
_INT_RTC_CUI                              IMPT 00000000    115 
_INT_RTC_PRI                              IMPT 00000000    113 
_INT_Reserved140                          IMPT 00000000     59 
_INT_Reserved3E0                          IMPT 00000000    101 
_INT_Reserved5C0                          IMPT 00000000    131 
_INT_Reserved5E0                          IMPT 00000000    133 
_INT_Reserved620                          IMPT 00000000    137 
_INT_Reserved6E0                          IMPT 00000000    149 
_INT_Reserved780                          IMPT 00000000    159 
_INT_Reserved7A0                          IMPT 00000000    161 
_INT_Reserved7C0                          IMPT 00000000    163 
_INT_Reserved7E0                          IMPT 00000000    165 
_INT_SCIF_BRI                             IMPT 00000000    155 
_INT_SCIF_ERI                             IMPT 00000000    151 
*** SuperH RISC engine ASSEMBLER V.7.01.02.000 ***    12/12/17 19:20:07                                                  PAGE     9

*** CROSS REFERENCE LIST

NAME                             SECTION  ATTR VALUE             SEQUENCE

_INT_SCIF_RXI                             IMPT 00000000    153 
_INT_SCIF_TXI                             IMPT 00000000    157 
_INT_SCI_ERI                              IMPT 00000000    117 
_INT_SCI_RXI                              IMPT 00000000    119 
_INT_SCI_TEI                              IMPT 00000000    123 
_INT_SCI_TXI                              IMPT 00000000    121 
_INT_TLBInitial_Page                      IMPT 00000000     47 
_INT_TLBMiss_Load                         IMPT 00000000     43 
_INT_TLBMiss_Store                        IMPT 00000000     45 
_INT_TLBProtect_Load                      IMPT 00000000     49 
_INT_TLBProtect_Store                     IMPT 00000000     51 
_INT_TRAPA                                IMPT 00000000     61 
_INT_Timer_Under_0                        IMPT 00000000    103 
_INT_Timer_Under_1                        IMPT 00000000    105 
_INT_Timer_Under_2                        IMPT 00000000    107 
_INT_User_Break                           IMPT 00000000     69 
_INT_WDT                                  IMPT 00000000    125 
_IPRA                                     IMPT 00000000    245 
_IPRB                                     IMPT 00000000    246 
_IPRC                                     IMPT 00000000    247 
_IPRD                                     IMPT 00000000    248 
_IRAM_CLR                                 IMPT 00000000   1882  1926 
_MCR                                      IMPT 00000000    205 
_MMUCR                                    IMPT 00000000    177 
_Manual_Reset                    PResetPR EXPT 00000000     35  1899*
_PCR                                      IMPT 00000000    206 
_PCTRA                                    IMPT 00000000    211 
_PCTRB                                    IMPT 00000000    213 
_PC_TO_PCRAM_COPY                         IMPT 00000000   1891  2021 
_PDTRA                                    IMPT 00000000    212 
_PDTRB                                    IMPT 00000000    214 
_PONR_050                        PResetPR      00000032   1949* 1955 
_PONR_100                        PResetPR      0000006C   1947  1972*
_PTEA                                     IMPT 00000000    184 
_PTEH                                     IMPT 00000000    173 
_PTEL                                     IMPT 00000000    174 
_P_TO_PRAM_COPY                           IMPT 00000000   1890  2017 
_PowerON_Reset                   PResetPR EXPT 00000000     31  1898*
_PowerON_Reset_SP                         IMPT 00000000   1868  1900  2026  2044 
_Pstart                          Pstart        00000000   1991  2007*
_QACR0                                    IMPT 00000000    185 
_QACR1                                    IMPT 00000000    186 
_RFCR                                     IMPT 00000000    210 
_RTCNT                                    IMPT 00000000    208 
_RTCOR                                    IMPT 00000000    209 
_RTCSR                                    IMPT 00000000    207 
_SAR0                                     IMPT 00000000    218 
_SAR1                                     IMPT 00000000    222 
_SAR2                                     IMPT 00000000    226 
_SAR3                                     IMPT 00000000    230 
_SCBRR1                                   IMPT 00000000    266 
_SCBRR2                                   IMPT 00000000    276 
_SCFCR2                                   IMPT 00000000    281 
_SCFDR2                                   IMPT 00000000    282 
*** SuperH RISC engine ASSEMBLER V.7.01.02.000 ***    12/12/17 19:20:07                                                  PAGE    10

*** CROSS REFERENCE LIST

NAME                             SECTION  ATTR VALUE             SEQUENCE

_SCFRDR2                                  IMPT 00000000    280 
_SCFSR2                                   IMPT 00000000    279 
_SCFTDR2                                  IMPT 00000000    278 
_SCLSR2                                   IMPT 00000000    284 
_SCRDR1                                   IMPT 00000000    270 
_SCSCMR1                                  IMPT 00000000    271 
_SCSCR1                                   IMPT 00000000    267 
_SCSCR2                                   IMPT 00000000    277 
_SCSMR1                                   IMPT 00000000    265 
_SCSMR2                                   IMPT 00000000    275 
_SCSPTR1                                  IMPT 00000000    272 
_SCSPTR2                                  IMPT 00000000    283 
_SCSSR1                                   IMPT 00000000    269 
_SCTDR1                                   IMPT 00000000    268 
_START_ACK_COD                            EQU  00004321    488*
_START_REQ_COD                            EQU  00009876    487*
_STBCR                                    IMPT 00000000    238 
_STBCR2                                   IMPT 00000000    241 
_TBL_Reset                                IMPT 00000000     39 
_TCNT0                                    IMPT 00000000    254 
_TCNT1                                    IMPT 00000000    257 
_TCNT2                                    IMPT 00000000    260 
_TCOR0                                    IMPT 00000000    253 
_TCOR1                                    IMPT 00000000    256 
_TCOR2                                    IMPT 00000000    259 
_TCPR2                                    IMPT 00000000    262 
_TCR0                                     IMPT 00000000    255 
_TCR1                                     IMPT 00000000    258 
_TCR2                                     IMPT 00000000    261 
_TEA                                      IMPT 00000000    176 
_TOCR                                     IMPT 00000000    251 
_TRA                                      IMPT 00000000    181 
_TSTR                                     IMPT 00000000    252 
_TTB                                      IMPT 00000000    175 
_VUPCHECK_DATA                            IMPT 00000000   1895  1943 
_VUPCHECK_EQU                             EQU  11AB3739    375* 1945 
_VUP_PRO_ROM_TO_RAM                       IMPT 00000000   1893  1934 
_WCR1                                     IMPT 00000000    202 
_WCR2                                     IMPT 00000000    203 
_WCR3                                     IMPT 00000000    204 
_WORK_MEM1_CHK                            IMPT 00000000   1883  1930 
_WTCNT                                    IMPT 00000000    239 
_WTCSR                                    IMPT 00000000    240 
__CLOSEALL                                IMPT 00000000   1874  2089 
__INITSCT                                 IMPT 00000000   1870 
__INIT_IOLIB                              IMPT 00000000   1873 
_main                                     IMPT 00000000   1871  2085 
*** SuperH RISC engine ASSEMBLER V.7.01.02.000 ***    12/12/17 19:20:07                                                  PAGE    11

*** SECTION DATA LIST

SECTION                          ATTRIBUTE    SIZE             START

PResetPRG                        REL-CODE    000000080        
Pstart                           REL-CODE    0000000A8        
