*** SuperH RISC engine ASSEMBLER V.7.01.02.000 ***    12/12/17 19:19:44                                                  PAGE     1
PROGRAM NAME =

    1                               1     ;       ***************************************************
    2                               2     ;       ***                                             ***
    3                               3     ;       ***                                             ***
    4                               4     ;       ***     クラッチ定周期処理メイン                ***
    5                               5     ;       ***                                             ***
    6                               6     ;       ***                                             ***
    7                               7     ;       ***************************************************
 5459                              18     
 5460 00000000                     19             .SECTION        P,CODE                  ;
 5461                              20     
 5462                              21     ;       //      ***********************************
 5463                              22     ;       //      ***     EXTERN 宣言 PROGRAM     ***
 5464                              23     ;       //      ***********************************
 5465                              24             .INCLUDE        "ssa_krom.ext"          ; //
 5466                               1 I1  ;       ***************************
 5467                               2 I1  ;       ***     汎用ルーチン    ***
 5468                               3 I1  ;       ***************************
 5469                               4 I1          .GLOBAL         _EMG_OUT                ;ssa_khad.src
 5470                               5 I1          .GLOBAL         _EXQ_OUT                ;ssa_khad.src
 5471                               6 I1          .GLOBAL         _RESET_OUT              ;ssa_khad.src
 5472                               7 I1          .GLOBAL         _RESET_END_OUT          ;ssa_khad.src
 5473                               8 I1          .GLOBAL         _VON1_ON                ;ssa_khad.src
 5474                               9 I1          .GLOBAL         _VON1_OF                ;ssa_khad.src
 5475                              10 I1          .GLOBAL         _VON2_ON                ;ssa_khad.src
 5476                              11 I1          .GLOBAL         _VON2_OF                ;ssa_khad.src
 5477                              12 I1          .GLOBAL         _VON3_ON                ;ssa_khad.src
 5478                              13 I1          .GLOBAL         _VON3_OF                ;ssa_khad.src
 5479                              14 I1          .GLOBAL         _RDY_ON                 ;ssa_khad.src
 5480                              15 I1          .GLOBAL         _RDY_OF                 ;ssa_khad.src
 5481                              16 I1          .GLOBAL         _ANTI_ON                ;ssa_khad.src
 5482                              17 I1          .GLOBAL         _ANTI_OF                ;ssa_khad.src
 5483                              18 I1          .GLOBAL         _AUTO_ON                ;ssa_khad.src
 5484                              19 I1          .GLOBAL         _AUTO_OF                ;ssa_khad.src
 5485                              20 I1          .GLOBAL         _FRCYCL_OF              ;ssa_khad.src
 5486                              21 I1          .GLOBAL         _FRCYCL_ON              ;ssa_khad.src
 5487                              22 I1  
 5488                              23 I1  ;       *******************************************
 5489                              24 I1  ;       ***                                     ***
 5490                              25 I1  ;       ***     各状態ハンドシェイクと処理      ***
 5491                              26 I1  ;       ***                                     ***
 5492                              27 I1  ;       *******************************************
 5493                              28 I1  ;_SH4_HD_CTRL_REDY      .SRES   2       ;準備完了にしたい
 5494                              29 I1  ;_SH2_HD_CTRL_REDY      .SRES   2       ;準備完了にしたい
 5495                              30 I1  ;_SH4_HD_CTRL_BUSY      .SRES   2       ;準備未完了にしたい
 5496                              31 I1  ;_SH2_HD_CTRL_BUSY      .SRES   2       ;準備未完了にしたい
 5497                              32 I1  ;_SH4_HD_POS_START      .SRES   2       ;起動したい
 5498                              33 I1  ;_SH2_HD_POS_START      .SRES   2       ;起動したい
 5499                              34 I1  ;_SH4_HD_SFTY_AUTO      .SRES   2       ;AUTOにしたい/安全一工程,連続ｶｳﾝﾀ
 5500                              35 I1  ;_SH2_HD_SFTY_AUTO      .SRES   2       ;AUTOにしたい/安全一工程,連続ｶｳﾝﾀ
 5501                              36 I1  ;_SH4_HD_NEAR_ZERO      .SRES   2       ;ﾆｱｾﾞﾛ処理を行いたい
 5502                              37 I1  ;_SH2_HD_NEAR_ZERO      .SRES   2       ;ﾆｱｾﾞﾛ処理を行いたい
 5503                              38 I1  ;_SH4_HD_CNT_STOP       .SRES   2       ;連続停止
 5504                              39 I1  ;_SH2_HD_CNT_STOP       .SRES   2       ;連続停止
 5505                              40 I1  ;_SH4_HD_STEP_END       .SRES   2       ;位置決め完了としたい
 5506                              41 I1  ;_SH2_HD_STEP_END       .SRES   2       ;位置決め完了としたい
 5507                              42 I1  
 5508                              43 I1  
*** SuperH RISC engine ASSEMBLER V.7.01.02.000 ***    12/12/17 19:19:44                                                  PAGE     2
PROGRAM NAME =

 5509                              44 I1  ;       ***********************************
 5510                              45 I1  ;       ***                             ***
 5511                              46 I1  ;       ***     READY 準備完了          ***
 5512                              47 I1  ;       ***                             ***
 5513                              48 I1  ;       ***********************************
 5514                              49 I1          .GLOBAL _CPU_AB_RDY_OF_OUT
 5515                              50 I1          .GLOBAL _CPU_BA_RDY_OF_OUT
 5516                              51 I1          .GLOBAL _CPU_AB_RDY_ON_OUT
 5517                              52 I1          .GLOBAL _CPU_BA_RDY_ON_JG
 5518                              53 I1          .GLOBAL _CPU_AB_RDY_OF_JG
 5519                              54 I1  
 5520                              55 I1  ;       ***********************************
 5521                              56 I1  ;       ***                             ***
 5522                              57 I1  ;       ***     BUSY 準備未完了         ***
 5523                              58 I1  ;       ***                             ***
 5524                              59 I1  ;       ***********************************
 5525                              60 I1          .GLOBAL _CPU_AB_BSY_OF_OUT
 5526                              61 I1          .GLOBAL _CPU_BA_BSY_OF_OUT
 5527                              62 I1          .GLOBAL _CPU_AB_BSY_ON_OUT
 5528                              63 I1          .GLOBAL _CPU_BA_BSY_ON_JG
 5529                              64 I1          .GLOBAL _CPU_AB_BSY_OF_JG
 5530                              65 I1  
 5531                              66 I1  ;       ***********************************
 5532                              67 I1  ;       ***                             ***
 5533                              68 I1  ;       ***     STR 運転開始            ***
 5534                              69 I1  ;       ***                             ***
 5535                              70 I1  ;       ***********************************
 5536                              71 I1          .GLOBAL _CPU_AB_STR_OF_OUT
 5537                              72 I1          .GLOBAL _CPU_BA_STR_OF_OUT
 5538                              73 I1          .GLOBAL _CPU_AB_STR_ON_OUT
 5539                              74 I1          .GLOBAL _CPU_BA_STR_ON_JG
 5540                              75 I1          .GLOBAL _CPU_AB_STR_OF_JG
 5541                              76 I1  
 5542                              77 I1  ;       ***********************************
 5543                              78 I1  ;       ***                             ***
 5544                              79 I1  ;       ***     AUTO    開始            ***
 5545                              80 I1  ;       ***                             ***
 5546                              81 I1  ;       ***********************************
 5547                              82 I1          .GLOBAL _CPU_AB_DRVSTOP_OF_OUT
 5548                              83 I1          .GLOBAL _CPU_AB_DRVSTOP_ON_OUT  ;
 5549                              84 I1          .GLOBAL _CPU_BA_DRVSTOP_ON_JG   ;
 5550                              85 I1          .GLOBAL _CPU_BA_DRVSTOP_OF_OUT  ;
 5551                              86 I1  
 5552                              87 I1  ;;2007-03-02    .GLOBAL _CPU_AB_ATO_OF_OUT
 5553                              88 I1  ;;2007-03-02    .GLOBAL _CPU_BA_ATO_OF_OUT
 5554                              89 I1  ;;2007-03-02    .GLOBAL _CPU_AB_ATO_ON_OUT
 5555                              90 I1  ;;2007-03-02    .GLOBAL _CPU_BA_ATO_ON_JG
 5556                              91 I1  ;;2007-03-02    .GLOBAL _CPU_AB_ATO_OF_JG
 5557                              92 I1  
 5558                              93 I1  ;       ***********************************
 5559                              94 I1  ;       ***                             ***
 5560                              95 I1  ;       ***     ニアゼロ開始            ***
 5561                              96 I1  ;       ***                             ***
 5562                              97 I1  ;       ***********************************
 5563                              98 I1          .GLOBAL _CPU_AB_NZR_OF_OUT
 5564                              99 I1          .GLOBAL _CPU_BA_NZR_OF_OUT
 5565                             100 I1          .GLOBAL _CPU_AB_NZR_ON_OUT
*** SuperH RISC engine ASSEMBLER V.7.01.02.000 ***    12/12/17 19:19:44                                                  PAGE     3
PROGRAM NAME =

 5566                             101 I1          .GLOBAL _CPU_BA_NZR_ON_JG
 5567                             102 I1          .GLOBAL _CPU_AB_NZR_OF_JG
 5568                             103 I1  
 5569                             104 I1  
 5570                             105 I1  ;       ***********************************
 5571                             106 I1  ;       ***                             ***
 5572                             107 I1  ;       ***     連続停止                ***
 5573                             108 I1  ;       ***                             ***
 5574                             109 I1  ;       ***********************************
 5575                             110 I1          .GLOBAL _CPU_AB_CST_OF_OUT1     ;
 5576                             111 I1          .GLOBAL _CPU_AB_CST_OF_OUT2     ;
 5577                             112 I1          .GLOBAL _CPU_BA_CST_OF_OUT
 5578                             113 I1          .GLOBAL _CPU_AB_CST_ON_OUT1
 5579                             114 I1          .GLOBAL _CPU_AB_CST_ON_OUT2
 5580                             115 I1          .GLOBAL _CPU_BA_CST_ON_JG
 5581                             116 I1          .GLOBAL _CPU_AB_CST_OF_JG
 5582                             117 I1  
 5583                             118 I1  ;       ***********************************
 5584                             119 I1  ;       ***                             ***
 5585                             120 I1  ;       ***     ステップ停止            ***
 5586                             121 I1  ;       ***                             ***
 5587                             122 I1  ;       ***********************************
 5588                             123 I1          .GLOBAL _CPU_AB_CED_OF_OUT
 5589                             124 I1          .GLOBAL _CPU_BA_CED_OF_OUT
 5590                             125 I1          .GLOBAL _CPU_AB_CED_ON_OUT
 5591                             126 I1          .GLOBAL _CPU_BA_CED_ON_JG
 5592                             127 I1          .GLOBAL _CPU_AB_CED_OF_JG
 5593                             128 I1  
 5594                             129 I1  ;       ***********************************
 5595                             130 I1  ;       ***                             ***
 5596                             131 I1  ;       ***     相手CPUの工程をROへ     ***
 5597                             132 I1  ;       ***                             ***
 5598                             133 I1  ;       ***********************************
 5599                             134 I1          .GLOBAL _CPU_BA_STEP_LOAD
 5600                             135 I1  
 5601                             136 I1  ;       ***********************************
 5602                             137 I1  ;       ***                             ***
 5603                             138 I1  ;       ***     ｽﾗｲﾄﾞ自動待機(hold)     ***
 5604                             139 I1  ;       ***                             ***
 5605                             140 I1  ;       ***********************************
 5606                             141 I1          .GLOBAL _CPU_AB_DRVHLDSTOP_ON_OUT       ;
 5607                             142 I1          .GLOBAL _CPU_AB_DRVHLDSTOP_OF_OUT       ;
 5608                             143 I1          .GLOBAL _CPU_BA_DRVHLDSTOP_ON_JG        ;
 5609                             144 I1          .GLOBAL _CPU_BA_DRVHLDSTOP_OF_JG        ;
 5610                             145 I1  
 5611                             146 I1  ;       *******************************************
 5612                             147 I1  ;       ***             ssa_com1.src            ***
 5613                             148 I1  ;       *******************************************
 5614                             149 I1          .GLOBAL         _DIVS_32REG2_32REG1_R4_32REG2_R2        ;(R2/R4-->R2)
 5615                             150 I1          .GLOBAL         _DIVS_64R1R2_32R4_32R2                  ;(R1,R2/R4-->R2)
 5616                             151 I1          .GLOBAL         _DIVU_64R1R2_32R4_32R2                  ;
 5617                             152 I1          .GLOBAL         _HIGH_DIVS_32REG2_16REG1_R4_16REG2_R2   ;(R2/R4-->R2)
 5618                             153 I1          .GLOBAL         _HIGH_S32R2_MUL_S32R1_DIV_S32R4_S32R2   ;(R2*R1/R4-->R2)
 5619                             154 I1          .GLOBAL         _FPU_R2_MUL_R1_DIV_R4                   ;
 5620                             155 I1          .GLOBAL         _FPU_R2_MUL_R1_R3_DIV_R4                ;
 5621                             156 I1          .GLOBAL         _FPU_DIVS_32REG2_32REG1_R4_32REG2_R2    ;
 5622                             157 I1          .GLOBAL         _FPU_DIVS_32REG2_DIV_32REG4_R2_MOD_R1   ;
*** SuperH RISC engine ASSEMBLER V.7.01.02.000 ***    12/12/17 19:19:44                                                  PAGE     4
PROGRAM NAME =

 5623                             158 I1  
 5624                             159 I1          .GLOBAL         _MULDIV_R2S32mR1S32dR4S32aR1R2S64;
 5625                             160 I1          .GLOBAL         _MULDIV_R1R2S64mR3S32dR4S32aR1R2S64
 5626                             161 I1          .GLOBAL         _MUL_R1R2S64mR3S32aR1R2S64              ;
 5627                             162 I1  
 5628                             163 I1          .GLOBAL         _DIVS_64R1R2_32R4_64R1R2        ;
 5629                             164 I1          .GLOBAL         _DIVU_64R1R2_32R4_64R1R2        ;
 5630                             165 I1  
 5631                             166 I1          .GLOBAL         _DIG_AREA_CHK0
 5632                             167 I1          .GLOBAL         _DIG_AREA_CHK1
 5633                             168 I1  
 5634                             169 I1          .GLOBAL         _FPU_POS_HOKAN1
 5635                             170 I1          .GLOBAL         _FPU_TIM_HOKAN1
 5636                             171 I1          .GLOBAL         _X_R2_MUL_R1_DIV_R4
 5637                              25             .IMPORT         _DI_LOAD        ;ssa_khad.src(ssa_khd2/ssa_khd4.inc)
 5638                              26             .IMPORT         _ENC360_LOAD    ;
 5639                              27     
 5640                              28             .IMPORT         _ERR_EMG_INPUT          ;ssa_err1.src BIT0 非常停止,VS_ERR,OT
 5641                              29             .IMPORT         _ERR_EMG_INPUT_SLW1     ;
 5642                              30             .IMPORT         _ERR_EMG_INPUT_SLW2     ;
 5643                              31             .IMPORT         _EMG_PASS_FLG_SET       ;
 5644                              32     
 5645                              33             .IMPORT         _ERR_SWIN               ;ssa_err1.src BIT1 入力論理,ﾊﾞﾙﾌﾞ
 5646                              34             .IMPORT         _ERR_SRC                ;ssa_err1.src BIT2 二重回路
 5647                              35             .IMPORT         _ERR_CHGSW              ;ssa_err1.src BIT3 ﾓｰﾄﾞ変更等
 5648                              36             .IMPORT         _ERR_EXQ_INPUT          ;ssa_err1.src BIT4 急停止ﾚﾍﾞﾙ
 5649                              37             .IMPORT         _ERR_SFT_INPUT          ;ssa_err1.src BIT5
 5650                              38             .IMPORT         _ERR_POS_CHEAK          ;ssa_err1.src BIT6 位置決め関連
 5651                              39             .IMPORT         _EMG_STOP               ;ssa_err1.src
 5652                              40             .IMPORT         _EXQ_STOP               ;ssa_err1.src
 5653                              41             .IMPORT         _SFTY_STOP              ;ssa_err1.src
 5654                              42             .IMPORT         _MOTER_MOVING_ERR       ;
 5655                              43             .IMPORT         _ERR_LEV_CLR
 5656                              44             .IMPORT         _ERR_LEV_SET
 5657                              45     
 5658                              46     
 5659                              47             .IMPORT         _RESET_CHEAK            ;ssa_ctrl.src
 5660                              48             .IMPORT         _MODE_CHANGE            ;ssa_ctrl.src 各ﾓｰﾄﾞ状態作成(非常停止を作
                                          成しない[CHGSWで作成])
 5661                              49             .IMPORT         _MODE_CTRL              ;ssa_ctrl.src
 5662                              50             .IMPORT         _MODE_AREA_MAKE         ;ssa_ctrl.src 待機点AREA作成
 5663                              51     
 5664                              52             .IMPORT         _SELF_CHEAK             ;ssa_self.src
 5665                              53     
 5666                              54             .IMPORT         _SEQ_IN1                ;ssa_else1.src
 5667                              55             .IMPORT         _SEQ_VALV_ON            ;ssa_else1.src
 5668                              56     
 5669                              57             .IMPORT         _OUT_UP_DN_TOTAL_CNT    ;
 5670                              58             .IMPORT         _INT_POS_DATA_REF       ;ssa_pos1.src
 5671                              59             .IMPORT         _POS_LSI_ENC_LOD        ;ssa_pos1.src
 5672                              60             .IMPORT         _ORGIN_POS_PLS_SET1     ;ssa_dtmk.src
 5673                              61     
 5674                              62             .IMPORT         _RNA_POS_MAK            ;ssa_had1.src
 5675                              63             .IMPORT         _CB_SEQ_DATA_MAKE1      ;ssa_else.src
 5676                              64             .IMPORT         _DAI_POS_ERR_POSCHK     ;ssa_else.src
 5677                              65             .IMPORT         _DAI_HOSEI1_CTRL        ;ssa_else.src
 5678                              66             .IMPORT         _NOW_INC_DIG_MAK        ;ssa_dtmk.src
*** SuperH RISC engine ASSEMBLER V.7.01.02.000 ***    12/12/17 19:19:44                                                  PAGE     5
PROGRAM NAME =

 5679                              67             .IMPORT         _NOW_RNA_DIG_MAK        ;ssa_scal.src
 5680                              68             .IMPORT         _NOW_INCPLS_CHG_MM_MAK  ;ssa_scal.src
 5681                              69     
 5682                              70             .IMPORT         _ERR_ACT1               ;異常処理 2002-08-23 SAITO
 5683                              71             .IMPORT         _UP_AREA_INPCHK         ;ssa_else
 5684                              72             .IMPORT         _UP_AREA_INP360ENCCHK   ;
 5685                              73             .IMPORT         _STOPPING_TIM_CHK
 5686                              74     
 5687                              75             .IMPORT         _MOTOR_MOV_STOP_CHK     ;ssa_else
 5688                              76     
 5689                              77     ;;;pg容量確保[2012-03-06]       .IMPORT         _SMPLE_HIST_DATA_SET1   ;SSA_TDBK.SRC
 5690                              78     ;;;pg容量確保[2012-03-06]       .IMPORT         _SMPLE_HIST_CLR         ;
 5691                              79     
 5692                              80             .IMPORT         _OUT_PLS_SPD_CALC       ;2003-07-01 ssa_pos1.SRC
 5693                              81             .IMPORT         _ENC_PLS_SPD_CALC       ;2003-07-01 ssa_pos1.SRC
 5694                              82             .IMPORT         _LINK_CLANK_DIG_MAK     ;2003-07-09
 5695                              83     
 5696                              84     ;;;pg容量確保[2012-03-06]       .IMPORT         _TRD_SMP_INT_MAIN       ;
 5697                              85     
 5698                              86             .IMPORT         _KAJYUU_REFLASH         ;2004-07-05
 5699                              87             .IMPORT         _LSA_ERRCLR_INI         ;2006-07-16 SSA_ERR1.SRC
 5700                              88     
 5701                              89             .IMPORT         _DNM_MATH_ELSE_DAT_MAKE ;2009-10-07下振子
 5702                              90     
 5703                              91             .IMPORT         _RNA_ERR_RSTCHK         ;2008-11-11
 5704                              92     
 5705                              93     
 5706                              94             .AIF    0 EQ    0       ;
 5707                              95 C   
 5708                              96 C           .IMPORT         _VAIBU_CTRL             ;2010-08-23 加振動制御(ssa_kjyu.inc)
 5709                              97 C           .IMPORT         _SLID_ALM_ELSE_CHK      ;2011-03-22 ｽﾗｲﾄﾞ関連ﾁｪｯｸ　SSA_ELSE1.SRC
 5710                              98 C           .IMPORT         _INSERT_TEACH_POS       ;2011-08-01
 5711                              99 C           .IMPORT         _TRQ_OVERHEAT_CALC      ;2012-09-25
 5712                             100 C           .IMPORT         _POSITIONER_DAIHAITO    ;
 5713                             101 C   
 5714                             102             .AENDI
 5715                             103     
 5716                             104     
 5717                             105             .IMPORT         _BRKTMCAL_MAIN          ;2012-03-06
 5718                             106             .IMPORT         _CPU_DEBUG_MONITOR      ;2013-06-20
 5719                             107     
 5720                             108     
 5721                             109     ;       //      ***********************************
 5722                             110     ;       //      ***     EXTERN 宣言 MEMORY,HARD ***
 5723                             111     ;       //      ***********************************
 5724                             112             .GLOBAL         _SH2_STEP_NO            ;工程二重回路ﾁｪｯｸ用
 5725                             113             .GLOBAL         _SH4_STEP_NO            ;
 5726                             114     
 5727                             115             .GLOBAL         _SH4_POS_STS1   ;上記信号 SH4==> WRITE SH2 ==>BIT7 CLR
 5728                             116             .GLOBAL         _SH4_CMP_STS1   ;(二重化異常信号 203同様      生)
 5729                             117             .GLOBAL         _SH4_CMP_STS2   ;(二重化異常信号 BIT0位置決中 生)
 5730                             118     
 5731                             119             .GLOBAL         _SH2_POS_STS1   ;上記信号 SH2==> WRITE SH4 ==>BIT7 CLR
 5732                             120             .GLOBAL         _SH2_CMP_STS1   ;(二重化異常信号 273同様      生)
 5733                             121             .GLOBAL         _SH2_CMP_STS2   ;(二重化異常信号 BIT8位置決中 生)
 5734                             122     
 5735                             123     
*** SuperH RISC engine ASSEMBLER V.7.01.02.000 ***    12/12/17 19:19:44                                                  PAGE     6
PROGRAM NAME =

 5736                             124     ;       //      ***********************************
 5737                             125     ;       //      ***     PUBLIC 宣言 PROGRAM     ***
 5738                             126     ;       //      ***********************************
 5739                             127             .EXPORT         _CB_INT_MAIN    ;ｸﾗｯﾁ制御
 5740                             128     
 5741                             129     ;       *******************************************
 5742                             130     ;       ***                                     ***
 5743                             131     ;       ***     クラッチの定周期メイン制御      ***
 5744                             132     ;       ***     1msec                           ***
 5745                             133     ;       *******************************************
 5746                             134     ;
 5747 00000000                    135     _CB_INT_MAIN:
 5748                             136             SUB_START
 5749 00000000 4F22                   M           STS.L   PR,@-R15                ;[必要]
 5750                                 M   ;;;;;;; ADD     #-4,R15                 ;[不要?]
 5751                             137             PUSH_ALL
 5752                                 M           PUSH_REG1       R0      ;
 5753 00000002 2F06                   M           MOV.L   R0,@-R15                ;PUSH=SP-4
 5754                                 M                                           ;REG=>[SP]
 5755                                 M                                           ;"-4" FF,FF,FF,FC
 5756                                 M           PUSH_REG1       R1      ;
 5757 00000004 2F16                   M           MOV.L   R1,@-R15                ;PUSH=SP-4
 5758                                 M                                           ;REG=>[SP]
 5759                                 M                                           ;"-4" FF,FF,FF,FC
 5760                                 M           PUSH_REG1       R2      ;
 5761 00000006 2F26                   M           MOV.L   R2,@-R15                ;PUSH=SP-4
 5762                                 M                                           ;REG=>[SP]
 5763                                 M                                           ;"-4" FF,FF,FF,FC
 5764                                 M           PUSH_REG1       R3      ;
 5765 00000008 2F36                   M           MOV.L   R3,@-R15                ;PUSH=SP-4
 5766                                 M                                           ;REG=>[SP]
 5767                                 M                                           ;"-4" FF,FF,FF,FC
 5768                                 M           PUSH_REG1       R4      ;
 5769 0000000A 2F46                   M           MOV.L   R4,@-R15                ;PUSH=SP-4
 5770                                 M                                           ;REG=>[SP]
 5771                                 M                                           ;"-4" FF,FF,FF,FC
 5772                                 M           PUSH_REG1       R5      ;
 5773 0000000C 2F56                   M           MOV.L   R5,@-R15                ;PUSH=SP-4
 5774                                 M                                           ;REG=>[SP]
 5775                                 M                                           ;"-4" FF,FF,FF,FC
 5776                                 M           PUSH_REG1       R6      ;
 5777 0000000E 2F66                   M           MOV.L   R6,@-R15                ;PUSH=SP-4
 5778                                 M                                           ;REG=>[SP]
 5779                                 M                                           ;"-4" FF,FF,FF,FC
 5780                                 M           PUSH_REG1       R7      ;
 5781 00000010 2F76                   M           MOV.L   R7,@-R15                ;PUSH=SP-4
 5782                                 M                                           ;REG=>[SP]
 5783                                 M                                           ;"-4" FF,FF,FF,FC
 5784                                 M           PUSH_REG1       R8      ;
 5785 00000012 2F86                   M           MOV.L   R8,@-R15                ;PUSH=SP-4
 5786                                 M                                           ;REG=>[SP]
 5787                                 M                                           ;"-4" FF,FF,FF,FC
 5788                                 M           PUSH_REG1       R9      ;
 5789 00000014 2F96                   M           MOV.L   R9,@-R15                ;PUSH=SP-4
 5790                                 M                                           ;REG=>[SP]
 5791                                 M                                           ;"-4" FF,FF,FF,FC
 5792                                 M           PUSH_REG1       R10     ;
*** SuperH RISC engine ASSEMBLER V.7.01.02.000 ***    12/12/17 19:19:44                                                  PAGE     7
PROGRAM NAME =

 5793 00000016 2FA6                   M           MOV.L   R10,@-R15               ;PUSH=SP-4
 5794                                 M                                           ;REG=>[SP]
 5795                                 M                                           ;"-4" FF,FF,FF,FC
 5796                                 M           PUSH_REG1       R11     ;
 5797 00000018 2FB6                   M           MOV.L   R11,@-R15               ;PUSH=SP-4
 5798                                 M                                           ;REG=>[SP]
 5799                                 M                                           ;"-4" FF,FF,FF,FC
 5800                                 M           PUSH_REG1       R12     ;
 5801 0000001A 2FC6                   M           MOV.L   R12,@-R15               ;PUSH=SP-4
 5802                                 M                                           ;REG=>[SP]
 5803                                 M                                           ;"-4" FF,FF,FF,FC
 5804                                 M           PUSH_REG1       R13     ;
 5805 0000001C 2FD6                   M           MOV.L   R13,@-R15               ;PUSH=SP-4
 5806                                 M                                           ;REG=>[SP]
 5807                                 M                                           ;"-4" FF,FF,FF,FC
 5808                                 M           PUSH_REG1       R14     ;
 5809 0000001E 2FE6                   M           MOV.L   R14,@-R15               ;PUSH=SP-4
 5810                                 M                                           ;REG=>[SP]
 5811                                 M                                           ;"-4" FF,FF,FF,FC
 5812                                 M           PUSH_MACHL              ;
 5813 00000020 4F02                   M           STS.L   MACH,@-R15
 5814 00000022 4F12                   M           STS.L   MACL,@-R15
 5815                                 M           PUSH_SYS_REG    GBR     ;
 5816 00000024 4F13                   M           STC.L   GBR,@-R15
 5817                                 M           .AIF    2 EQ 3
 5818                                             .AELSE
 5819                                 C           PUSH_FPU_ALL            ;2001-07-08
 5820                                 M                   PUSH_SYS_FPU            ;2001-07-08 koma add
 5821 00000026 4F52                   M           STS.L   FPUL,@-R15
 5822 00000028 4F62                   M           STS.L   FPSCR,@-R15
 5823                                 M                   PUSH_FPU_REG1 FR0       ;
 5824 0000002A FF0B                   M           FMOV.S  FR0,@-R15
 5825                                 M                   PUSH_FPU_REG1 FR1       ;
 5826 0000002C FF1B                   M           FMOV.S  FR1,@-R15
 5827                                 M                   PUSH_FPU_REG1 FR2       ;
 5828 0000002E FF2B                   M           FMOV.S  FR2,@-R15
 5829                                 M                   PUSH_FPU_REG1 FR3       ;
 5830 00000030 FF3B                   M           FMOV.S  FR3,@-R15
 5831                                 M                   PUSH_FPU_REG1 FR4       ;
 5832 00000032 FF4B                   M           FMOV.S  FR4,@-R15
 5833                                 M           .AENDI
 5834                             138     
 5835                             139             .AIF    0 EQ 0
 5836                             140 C   ;       *** ﾘﾆｱｾﾝｻ受信ﾃﾞｰﾀ取り込み ***
 5837                             141 C           .IMPORT _RCIVE2_READ                    ;2msec(受信ﾃﾞｰﾀ)
 5838                             142 C           .IMPORT _SEND2_SEND                     ;2msec(送信)
 5839                             143 C           FAR_JSR #_RCIVE2_READ,R0                ;2msec(受信ﾃﾞｰﾀ)
 5840 00000034 D011                   M           MOV.L   #_RCIVE2_READ,R0                ;ﾃｰﾌﾞﾙｱﾄﾞﾚｽの内容をREGへ
 5841 00000036 400B                   M           JSR     @R0                     ;
 5842 00000038 0009                   M           NOP                                     ;
 5843                             144 C           FAR_JSR #_SEND2_SEND,R0                 ;2msec(送信)
 5844 0000003A D011                   M           MOV.L   #_SEND2_SEND,R0         ;ﾃｰﾌﾞﾙｱﾄﾞﾚｽの内容をREGへ
 5845 0000003C 400B                   M           JSR     @R0                     ;
 5846 0000003E 0009                   M           NOP                                     ;
 5847                             145             .AENDI
 5848                             146     
 5849                             147     ;       *******************************************
*** SuperH RISC engine ASSEMBLER V.7.01.02.000 ***    12/12/17 19:19:44                                                  PAGE     8
PROGRAM NAME =

 5850                             148     ;       ***     定周期処理まにあわない異常検出  ***
 5851                             149     ;       *******************************************
 5852 00000040 D110               150             mov.l   #_pass_err_flg1,r1                                      ;//異常ﾙｰﾁﾝ(電源投
                                          入時)
 5853 00000042 6011               151             mov.w   @r1,r0                                                  ;
 5854 00000044 88FF               152             cmp/eq  #-1,r0                                                  ;
 5855 00000046 8908               153             bt      CB_INT_MN_0050                                          ;
 5856                             154             MEM1_BIT0_F_ORSET MEM=_SQ_CBWK_TOP+_WKSQCB214,LG=W,BIT=(BIT5),WKRG1=R1,WKRG2=R4 ;S
                                          EQ ADD
 5857 00000048 D10F                   M           MOV.L   #_SQ_CBWK_TOP+_WKSQCB214,R1             ;
 5858 0000004A 6011                   M           MOV.W   @R1,R0          ;
 5859 0000004C 9414                   M           MOV.W   #(BIT5),R4              ;
 5860 0000004E 204B                   M           OR      R4,R0           ;
 5861 00000050 2101                   M           MOV.W   R0,@R1          ;
 5862 00000052 9412               155             MOV.W   #H'2145,R4              ;2010-12-21
 5863                             156             FAR_JSR #_EMG_STOP,R0                                                   ;
 5864 00000054 D00D                   M           MOV.L   #_EMG_STOP,R0           ;ﾃｰﾌﾞﾙｱﾄﾞﾚｽの内容をREGへ
 5865 00000056 400B                   M           JSR     @R0                     ;
 5866 00000058 0009                   M           NOP                                     ;
 5867 0000005A                    157     CB_INT_MN_0050:                                                                 ;
 5868 0000005A D10D               158             mov.l   #_pass_err_flg2,r1                                              ;//制御ﾙｰﾁ
                                          ﾝ
 5869 0000005C 6011               159             mov.w   @r1,r0                                                                  ;
 5870 0000005E 88FF               160             cmp/eq  #-1,r0                                                                  ;
 5871 00000060 8908               161             bt      CB_INT_MN_0100                                                          ;
 5872                             162             MEM1_BIT0_F_ORSET MEM=_SQ_CBWK_TOP+_WKSQCB214,LG=W,BIT=(BIT5),WKRG1=R1,WKRG2=R4 ;
 5873 00000062 D109                   M           MOV.L   #_SQ_CBWK_TOP+_WKSQCB214,R1             ;
 5874 00000064 6011                   M           MOV.W   @R1,R0          ;
 5875 00000066 9407                   M           MOV.W   #(BIT5),R4              ;
 5876 00000068 204B                   M           OR      R4,R0           ;
 5877 0000006A 2101                   M           MOV.W   R0,@R1          ;
 5878 0000006C 9405               163             MOV.W   #H'2145,R4              ;2010-12-21
 5879                             164             FAR_JSR #_EMG_STOP,R0                                                           ;
 5880 0000006E D007                   M           MOV.L   #_EMG_STOP,R0           ;ﾃｰﾌﾞﾙｱﾄﾞﾚｽの内容をREGへ
 5881 00000070 400B                   M           JSR     @R0                     ;
 5882 00000072 0009                   M           NOP                                     ;
 5883 00000074                    165     CB_INT_MN_0100:                                                                         ;
 5884                             166             M_BRA   CB_INT_MN_0110
 5885 00000074 A00E                   M           BRA     CB_INT_MN_0110
 5886 00000076 0009                   M           NOP
 5887                                     ***** BEGIN-POOL *****
 5888 00000078 0020                       DATA FOR SOURCE-LINE 154,162
 5889 0000007A 2145                       DATA FOR SOURCE-LINE 155,163
 5890 0000007C 00000000                   DATA FOR SOURCE-LINE 143
 5891 00000080 00000000                   DATA FOR SOURCE-LINE 144
 5892 00000084 00000000                   DATA FOR SOURCE-LINE 150
 5893 00000088 00000000                   DATA FOR SOURCE-LINE 154,162
 5894 0000008C 00000000                   DATA FOR SOURCE-LINE 156,164
 5895 00000090 00000000                   DATA FOR SOURCE-LINE 158
 5896                                     ***** END-POOL *****
 5897 00000094                    167     CB_INT_MN_0110
 5898                             168     
 5899 00000094 200A               169             xor     r0,r0
 5900 00000096 D103               170             mov.l   #_pass_err_flg1,r1      ;//異常ﾙｰﾁﾝ
 5901 00000098 2101               171             mov.w   r0,@r1                  ;
 5902                             172             FAR_JSR #_CPU_A_B_STS_IF,R0     ;
 5903 0000009A D003                   M           MOV.L   #_CPU_A_B_STS_IF,R0             ;ﾃｰﾌﾞﾙｱﾄﾞﾚｽの内容をREGへ
*** SuperH RISC engine ASSEMBLER V.7.01.02.000 ***    12/12/17 19:19:44                                                  PAGE     9
PROGRAM NAME =

 5904 0000009C 400B                   M           JSR     @R0                     ;
 5905 0000009E 0009                   M           NOP                                     ;
 5906                             173             M_BRA   CB_INT_MN_0150          ;
 5907 000000A0 A004                   M           BRA     CB_INT_MN_0150
 5908 000000A2 0009                   M           NOP
 5909                                     ***** BEGIN-POOL *****
 5910 000000A4 00000000                   DATA FOR SOURCE-LINE 170
 5911 000000A8 00000000                   DATA FOR SOURCE-LINE 172
 5912                                     ***** END-POOL *****
 5913 000000AC                    174     CB_INT_MN_0150:                         ;
 5914                             175     
 5915                             176     
 5916 000000AC D512               177             MOV.L   #_ORG_PRESET_TIM,R5     ;
 5917 000000AE 6051               178             MOV.W   @R5,R0                  ;
 5918 000000B0 2008               179             TST     R0,R0                   ;
 5919                             180             TST_BIT_OF CB_INT_MNORG_050     ;
 5920 000000B2 8907                   M           BT      CB_INT_MNORG_050
 5921 000000B4 70FF               181             ADD     #-1,R0                  ;
 5922 000000B6 2501               182             MOV.W   R0,@R5                  ;
 5923                             183             FAR_JSR #_ORGIN_POS_PLS_SET1,R0 ;ssa_dtmk.src
 5924 000000B8 D010                   M           MOV.L   #_ORGIN_POS_PLS_SET1,R0         ;ﾃｰﾌﾞﾙｱﾄﾞﾚｽの内容をREGへ
 5925 000000BA 400B                   M           JSR     @R0                     ;
 5926 000000BC 0009                   M           NOP                                     ;
 5927                             184             FAR_JSR #_LSA_ERRCLR_INI,R0     ;2006-07-16
 5928 000000BE D010                   M           MOV.L   #_LSA_ERRCLR_INI,R0             ;ﾃｰﾌﾞﾙｱﾄﾞﾚｽの内容をREGへ
 5929 000000C0 400B                   M           JSR     @R0                     ;
 5930 000000C2 0009                   M           NOP                                     ;
 5931 000000C4                    185     CB_INT_MNORG_050:
 5932                             186     
 5933                             187     ;;      .AIF    0 EQ    1
 5934                             188     ;;      MOV.L   #_INT1MS_SCAN_05MS1,R1  ;
 5935                             189     ;;      MOV.W   @R1,R0                  ;
 5936                             190     ;;      TST     R0,R0                   ;
 5937                             191     ;;      TST_BIT_ON CPUB_SCAN_050
 5938                             192     ;;      .AENDI
 5939                             193     ;;
 5940                             194     ;;      FAR_JSR #_CB_SEQ_DATA_MAKE1,R0  ;
 5941                             195     ;;
 5942                             196     ;;CPUB_SCAN_050:
 5943                             197     
 5944                             198     ;       -----------------------------------------------------------
 5945                             199     ;       ---     EMG+SLID調整時に処理短縮(CPUBの表示ため)        ---
 5946                             200     ;       -----------------------------------------------------------
 5947                             201     ;;まだやらない  .AIF    0 EQ    1
 5948                             202     ;;まだやらない  FAR_JSR #_SILD_SIG_MAK,R0       ;2013-07-22
 5949                             203     ;;まだやらない  .AENDI
 5950                             204     ;;まだやらない
 5951                             205     ;;まだやらない  MOV.L   #_EMG_SCANCUT_FLG,R1    ;
 5952                             206     ;;まだやらない  MOV.W   @R1,R0                  ;BIT0･･1/2ｽｷｬﾝ
 5953                             207     ;;まだやらない  TST     #BIT0,R0                ;
 5954                             208     ;;まだやらない  TST_BIT_ON CB_INT_MNJMP_100     ;
 5955                             209     
 5956                             210             FAR_JSR #_RNA_POS_MAK,R0        ;できるだけ同一ﾀｲﾐﾝｸﾞで読み出す
 5957 000000C4 D00F                   M           MOV.L   #_RNA_POS_MAK,R0                ;ﾃｰﾌﾞﾙｱﾄﾞﾚｽの内容をREGへ
 5958 000000C6 400B                   M           JSR     @R0                     ;
 5959 000000C8 0009                   M           NOP                                     ;
 5960                             211             FAR_JSR #_POS_LSI_ENC_LOD,R0    ;
*** SuperH RISC engine ASSEMBLER V.7.01.02.000 ***    12/12/17 19:19:44                                                  PAGE    10
PROGRAM NAME =

 5961 000000CA D00F                   M           MOV.L   #_POS_LSI_ENC_LOD,R0            ;ﾃｰﾌﾞﾙｱﾄﾞﾚｽの内容をREGへ
 5962 000000CC 400B                   M           JSR     @R0                     ;
 5963 000000CE 0009                   M           NOP                                     ;
 5964                             212             FAR_JSR #_ENC360_LOAD,R0        ;これは基本的に３つとも200usec
 5965 000000D0 D00E                   M           MOV.L   #_ENC360_LOAD,R0                ;ﾃｰﾌﾞﾙｱﾄﾞﾚｽの内容をREGへ
 5966 000000D2 400B                   M           JSR     @R0                     ;
 5967 000000D4 0009                   M           NOP                                     ;
 5968                             213             FAR_JSR #_NOW_INC_DIG_MAK,R0            ;
 5969 000000D6 D00E                   M           MOV.L   #_NOW_INC_DIG_MAK,R0            ;ﾃｰﾌﾞﾙｱﾄﾞﾚｽの内容をREGへ
 5970 000000D8 400B                   M           JSR     @R0                     ;
 5971 000000DA 0009                   M           NOP                                     ;
 5972                             214             FAR_JSR #_NOW_RNA_DIG_MAK,R0            ;
 5973 000000DC D00D                   M           MOV.L   #_NOW_RNA_DIG_MAK,R0            ;ﾃｰﾌﾞﾙｱﾄﾞﾚｽの内容をREGへ
 5974 000000DE 400B                   M           JSR     @R0                     ;
 5975 000000E0 0009                   M           NOP                                     ;
 5976                             215             FAR_JSR #_NOW_INCPLS_CHG_MM_MAK,R0      ;ssa_scal.src
 5977 000000E2 D00D                   M           MOV.L   #_NOW_INCPLS_CHG_MM_MAK,R0              ;ﾃｰﾌﾞﾙｱﾄﾞﾚｽの内容をREGへ
 5978 000000E4 400B                   M           JSR     @R0                     ;
 5979 000000E6 0009                   M           NOP                                     ;
 5980                             216             FAR_JSR #_OUT_UP_DN_TOTAL_CNT,R0        ;
 5981 000000E8 D00C                   M           MOV.L   #_OUT_UP_DN_TOTAL_CNT,R0                ;ﾃｰﾌﾞﾙｱﾄﾞﾚｽの内容をREGへ
 5982 000000EA 400B                   M           JSR     @R0                     ;
 5983 000000EC 0009                   M           NOP                                     ;
 5984                             217     
 5985                             218     ;       --2009-07-17 add[不具合対策 ﾌﾞﾚｰｷ角度ｵｰﾊﾞ　4]---
 5986                             219             FAR_JSR #_LINK_CLANK_DIG_MAK,R0         ;
 5987 000000EE D00C                   M           MOV.L   #_LINK_CLANK_DIG_MAK,R0         ;ﾃｰﾌﾞﾙｱﾄﾞﾚｽの内容をREGへ
 5988 000000F0 400B                   M           JSR     @R0                     ;
 5989 000000F2 0009                   M           NOP                                     ;
 5990                             220             M_BRA   CB_INT_MNJMP_100                ;2007-11-28
 5991 000000F4 A016                   M           BRA     CB_INT_MNJMP_100
 5992 000000F6 0009                   M           NOP
 5993                             221     
 5994                             222     
 5995                                     ***** BEGIN-POOL *****
 5996 000000F8 00000000                   DATA FOR SOURCE-LINE 177
 5997 000000FC 00000000                   DATA FOR SOURCE-LINE 183
 5998 00000100 00000000                   DATA FOR SOURCE-LINE 184
 5999 00000104 00000000                   DATA FOR SOURCE-LINE 210
 6000 00000108 00000000                   DATA FOR SOURCE-LINE 211
 6001 0000010C 00000000                   DATA FOR SOURCE-LINE 212
 6002 00000110 00000000                   DATA FOR SOURCE-LINE 213
 6003 00000114 00000000                   DATA FOR SOURCE-LINE 214
 6004 00000118 00000000                   DATA FOR SOURCE-LINE 215
 6005 0000011C 00000000                   DATA FOR SOURCE-LINE 216
 6006 00000120 00000000                   DATA FOR SOURCE-LINE 219
 6007                                     ***** END-POOL *****
 6008 00000124                    223     CB_INT_MNJMP_100:
 6009                             224     ;       === 2003-07-01 ==
 6010                             225             FAR_JSR #_OUT_PLS_SPD_CALC,R0           ;時間の次元有り
 6011 00000124 D029                   M           MOV.L   #_OUT_PLS_SPD_CALC,R0           ;ﾃｰﾌﾞﾙｱﾄﾞﾚｽの内容をREGへ
 6012 00000126 400B                   M           JSR     @R0                     ;
 6013 00000128 0009                   M           NOP                                     ;
 6014                             226             FAR_JSR #_ENC_PLS_SPD_CALC,R0
 6015 0000012A D029                   M           MOV.L   #_ENC_PLS_SPD_CALC,R0           ;ﾃｰﾌﾞﾙｱﾄﾞﾚｽの内容をREGへ
 6016 0000012C 400B                   M           JSR     @R0                     ;
 6017 0000012E 0009                   M           NOP                                     ;
*** SuperH RISC engine ASSEMBLER V.7.01.02.000 ***    12/12/17 19:19:44                                                  PAGE    11
PROGRAM NAME =

 6018                             227     
 6019                             228             FAR_JSR #_INT_POS_DATA_REF,R0   ;
 6020 00000130 D028                   M           MOV.L   #_INT_POS_DATA_REF,R0           ;ﾃｰﾌﾞﾙｱﾄﾞﾚｽの内容をREGへ
 6021 00000132 400B                   M           JSR     @R0                     ;
 6022 00000134 0009                   M           NOP                                     ;
 6023                             229             FAR_JSR #_SEQ_IN1,R0            ;指令,SWの取込
 6024 00000136 D028                   M           MOV.L   #_SEQ_IN1,R0            ;ﾃｰﾌﾞﾙｱﾄﾞﾚｽの内容をREGへ
 6025 00000138 400B                   M           JSR     @R0                     ;
 6026 0000013A 0009                   M           NOP                                     ;
 6027                             230             FAR_JSR #_DI_LOAD,R0            ;(SEQ/SW)
 6028 0000013C D027                   M           MOV.L   #_DI_LOAD,R0            ;ﾃｰﾌﾞﾙｱﾄﾞﾚｽの内容をREGへ
 6029 0000013E 400B                   M           JSR     @R0                     ;
 6030 00000140 0009                   M           NOP                                     ;
 6031                             231             FAR_JSR #_CB_TIME_CNT,R0        ;ﾀｲﾏｶｳﾝﾄ 1msec/10msec/100msec
 6032 00000142 D027                   M           MOV.L   #_CB_TIME_CNT,R0                ;ﾃｰﾌﾞﾙｱﾄﾞﾚｽの内容をREGへ
 6033 00000144 400B                   M           JSR     @R0                     ;
 6034 00000146 0009                   M           NOP                                     ;
 6035                             232     
 6036                             233     
 6037                             234     ;       ==============================
 6038                             235     ;       ------ [2009-10-07下振子]---------
 6039                             236             FAR_JSR #_DNM_MATH_ELSE_DAT_MAKE,R0
 6040 00000148 D026                   M           MOV.L   #_DNM_MATH_ELSE_DAT_MAKE,R0             ;ﾃｰﾌﾞﾙｱﾄﾞﾚｽの内容をREGへ
 6041 0000014A 400B                   M           JSR     @R0                     ;
 6042 0000014C 0009                   M           NOP                                     ;
 6043                             237     
 6044                             238     
 6045                             239     
 6046                             240     
 6047                             241     ;       ========================================
 6048                             242     ;       --------2010-12-08 CPUB-SCAN 短縮-----
 6049                             243             .AIF    0 EQ    0       ;
 6050                             244 C           FAR_JSR #_RNA_ERR_RSTCHK,R0             ;2008-11-11(ｼｰｹﾝｽからﾘｾｯﾄ)
 6051 0000014E D026                   M           MOV.L   #_RNA_ERR_RSTCHK,R0             ;ﾃｰﾌﾞﾙｱﾄﾞﾚｽの内容をREGへ
 6052 00000150 400B                   M           JSR     @R0                     ;
 6053 00000152 0009                   M           NOP                                     ;
 6054                             245             .AENDI                                  ;
 6055                             246     
 6056                             247             FAR_JSR #_RESET_CHEAK,R0                ;BIT7~BIT15
 6057 00000154 D025                   M           MOV.L   #_RESET_CHEAK,R0                ;ﾃｰﾌﾞﾙｱﾄﾞﾚｽの内容をREGへ
 6058 00000156 400B                   M           JSR     @R0                     ;
 6059 00000158 0009                   M           NOP                                     ;
 6060                             248                                                     ;
 6061                             249     ;       =======================================
 6062                             250     
 6063                             251     
 6064                             252             FAR_JSR #_ERR_CHGSW,R0          ;BIT3 ﾓｰﾄﾞ変更等[ﾀｲﾏなし]
 6065 0000015A D025                   M           MOV.L   #_ERR_CHGSW,R0          ;ﾃｰﾌﾞﾙｱﾄﾞﾚｽの内容をREGへ
 6066 0000015C 400B                   M           JSR     @R0                     ;
 6067 0000015E 0009                   M           NOP                                     ;
 6068                             253             FAR_JSR #_ERR_SFT_INPUT,R0      ;BIT5 安全装置[ﾀｲﾏなし]
 6069 00000160 D024                   M           MOV.L   #_ERR_SFT_INPUT,R0              ;ﾃｰﾌﾞﾙｱﾄﾞﾚｽの内容をREGへ
 6070 00000162 400B                   M           JSR     @R0                     ;
 6071 00000164 0009                   M           NOP                                     ;
 6072                             254             FAR_JSR #_ERR_EXQ_INPUT,R0      ;BIT4 急停止ﾚﾍﾞﾙ[ﾀｲﾏなし]
 6073 00000166 D024                   M           MOV.L   #_ERR_EXQ_INPUT,R0              ;ﾃｰﾌﾞﾙｱﾄﾞﾚｽの内容をREGへ
 6074 00000168 400B                   M           JSR     @R0                     ;
*** SuperH RISC engine ASSEMBLER V.7.01.02.000 ***    12/12/17 19:19:44                                                  PAGE    12
PROGRAM NAME =

 6075 0000016A 0009                   M           NOP                                     ;
 6076                             255     
 6077                             256     
 6078                             257     ;       ------ 2014-09-16 2つは取り出す------------
 6079                             258             FAR_JSR #_ERR_EMG_INPUT,R0      ;BIT0 非常停止,VS_ERR,OT[ﾀｲﾏなし]
 6080 0000016C D023                   M           MOV.L   #_ERR_EMG_INPUT,R0              ;ﾃｰﾌﾞﾙｱﾄﾞﾚｽの内容をREGへ
 6081 0000016E 400B                   M           JSR     @R0                     ;
 6082 00000170 0009                   M           NOP                                     ;
 6083                             259             FAR_JSR #_ERR_SWIN,R0           ;BIT1 LSA異常+相手CPU非常高速性が必要[ﾀｲﾏなし,DEF
                                          のみあり]
 6084 00000172 D023                   M           MOV.L   #_ERR_SWIN,R0           ;ﾃｰﾌﾞﾙｱﾄﾞﾚｽの内容をREGへ
 6085 00000174 400B                   M           JSR     @R0                     ;
 6086 00000176 0009                   M           NOP                                     ;
 6087                             260     
 6088                             261     ;       --------2010-12-08 CPUB-SCAN 短縮[CPUB=3msec]-----
 6089                             262             .AIF    0 EQ    1
 6090                             263             MOV.L   #_INT1MS_SCAN_03MS,R1   ;
 6091                             264             MOV.W   @R1,R0                  ;
 6092                             265             TST     R0,R0                   ;
 6093                             266             TST_BIT_ON CPUB_SCAN_100
 6094                             267             .AENDI
 6095                             268     
 6096 00000178 D522               269             MOV.L   #_ERR_LEV_IN2,R5        ;
 6097                             270             FAR_JSR #_ERR_LEV_CLR,R0
 6098 0000017A D023                   M           MOV.L   #_ERR_LEV_CLR,R0                ;ﾃｰﾌﾞﾙｱﾄﾞﾚｽの内容をREGへ
 6099 0000017C 400B                   M           JSR     @R0                     ;
 6100 0000017E 0009                   M           NOP                                     ;
 6101                             271     
 6102                             272     ;;;;;;; FAR_JSR #_ERR_EMG_INPUT,R0      ;BIT0 非常停止,VS_ERR,OT[ﾀｲﾏなし]
 6103                             273     ;;;;;;; FAR_JSR #_ERR_SWIN,R0           ;BIT1 LSA異常+相手CPU非常高速性が必要[ﾀｲﾏなし,DEF
                                          のみあり]
 6104                             274     
 6105 00000180 D520               275             MOV.L   #_ERR_LEV_IN2,R5        ;
 6106                             276             FAR_JSR #_ERR_LEV_SET,R0
 6107 00000182 D022                   M           MOV.L   #_ERR_LEV_SET,R0                ;ﾃｰﾌﾞﾙｱﾄﾞﾚｽの内容をREGへ
 6108 00000184 400B                   M           JSR     @R0                     ;
 6109 00000186 0009                   M           NOP                                     ;
 6110                             277     
 6111 00000188                    278     CPUB_SCAN_100:
 6112                             279     
 6113                             280     ;       --------2010-12-08 CPUB-SCAN 短縮-----
 6114                             281             .AIF    0 EQ    1
 6115                             282             MOV.L   #_INT1MS_SCAN_05MS2,R1  ;
 6116                             283             MOV.W   @R1,R0                  ;
 6117                             284             TST     R0,R0                   ;
 6118                             285             TST_BIT_ON CPUB_SCAN_200
 6119                             286             .AENDI
 6120                             287     
 6121 00000188 D521               288             MOV.L   #_ERR_LEV_IN3,R5        ;
 6122                             289             FAR_JSR #_ERR_LEV_CLR,R0
 6123 0000018A D01F                   M           MOV.L   #_ERR_LEV_CLR,R0                ;ﾃｰﾌﾞﾙｱﾄﾞﾚｽの内容をREGへ
 6124 0000018C 400B                   M           JSR     @R0                     ;
 6125 0000018E 0009                   M           NOP                                     ;
 6126                             290     
 6127                             291             FAR_JSR #_ERR_EMG_INPUT_SLW2,R0         ;ビット飛び、通信異常[ﾀｲﾏなし]
 6128 00000190 D020                   M           MOV.L   #_ERR_EMG_INPUT_SLW2,R0         ;ﾃｰﾌﾞﾙｱﾄﾞﾚｽの内容をREGへ
 6129 00000192 400B                   M           JSR     @R0                     ;
*** SuperH RISC engine ASSEMBLER V.7.01.02.000 ***    12/12/17 19:19:44                                                  PAGE    13
PROGRAM NAME =

 6130 00000194 0009                   M           NOP                                     ;
 6131                             292             FAR_JSR #_ERR_SRC,R0                    ;BIT2 二重回路[ﾀｲﾏあり 2個OK]
 6132 00000196 D020                   M           MOV.L   #_ERR_SRC,R0            ;ﾃｰﾌﾞﾙｱﾄﾞﾚｽの内容をREGへ
 6133 00000198 400B                   M           JSR     @R0                     ;
 6134 0000019A 0009                   M           NOP                                     ;
 6135                             293             FAR_JSR #_ERR_POS_CHEAK,R0              ;BIT6 位置決め関連[ﾀｲﾏなし]
 6136 0000019C D01F                   M           MOV.L   #_ERR_POS_CHEAK,R0              ;ﾃｰﾌﾞﾙｱﾄﾞﾚｽの内容をREGへ
 6137 0000019E 400B                   M           JSR     @R0                     ;
 6138 000001A0 0009                   M           NOP                                     ;
 6139                             294             FAR_JSR #_ERR_ACT1,R0                   ;異常処理 2002-08-23 SAITO
 6140 000001A2 D01F                   M           MOV.L   #_ERR_ACT1,R0           ;ﾃｰﾌﾞﾙｱﾄﾞﾚｽの内容をREGへ
 6141 000001A4 400B                   M           JSR     @R0                     ;
 6142 000001A6 0009                   M           NOP                                     ;
 6143                             295     
 6144 000001A8 D519               296             MOV.L   #_ERR_LEV_IN3,R5        ;
 6145                             297             FAR_JSR #_ERR_LEV_SET,R0
 6146 000001AA D018                   M           MOV.L   #_ERR_LEV_SET,R0                ;ﾃｰﾌﾞﾙｱﾄﾞﾚｽの内容をREGへ
 6147 000001AC 400B                   M           JSR     @R0                     ;
 6148 000001AE 0009                   M           NOP                                     ;
 6149                             298     
 6150 000001B0                    299     CPUB_SCAN_200:
 6151                             300     
 6152                             301     ;;[[2015-07-14]];       --------2010-12-08 CPUB-SCAN 短縮-----
 6153                             302     ;;[[2015-07-14]]        .AIF    0 EQ    1
 6154                             303     ;;[[2015-07-14]]        MOV.L   #_INT1MS_SCAN_10MS,R1   ;
 6155                             304     ;;[[2015-07-14]]        MOV.W   @R1,R0                  ;
 6156                             305     ;;[[2015-07-14]]        TST     R0,R0                   ;
 6157                             306     ;;[[2015-07-14]]        TST_BIT_ON CPUB_SCAN_300
 6158                             307     ;;[[2015-07-14]]        .AENDI
 6159                             308     
 6160 000001B0 D51C               309             MOV.L   #_ERR_LEV_IN4,R5        ;
 6161                             310             FAR_JSR #_ERR_LEV_CLR,R0
 6162 000001B2 D015                   M           MOV.L   #_ERR_LEV_CLR,R0                ;ﾃｰﾌﾞﾙｱﾄﾞﾚｽの内容をREGへ
 6163 000001B4 400B                   M           JSR     @R0                     ;
 6164 000001B6 0009                   M           NOP                                     ;
 6165                             311     
 6166                             312             FAR_JSR #_ERR_EMG_INPUT_SLW1,R0         ;設定異常[ﾀｲﾏなし]
 6167 000001B8 D01B                   M           MOV.L   #_ERR_EMG_INPUT_SLW1,R0         ;ﾃｰﾌﾞﾙｱﾄﾞﾚｽの内容をREGへ
 6168 000001BA 400B                   M           JSR     @R0                     ;
 6169 000001BC 0009                   M           NOP                                     ;
 6170                             313     
 6171 000001BE D519               314             MOV.L   #_ERR_LEV_IN4,R5        ;
 6172                             315             FAR_JSR #_ERR_LEV_SET,R0
 6173 000001C0 D012                   M           MOV.L   #_ERR_LEV_SET,R0                ;ﾃｰﾌﾞﾙｱﾄﾞﾚｽの内容をREGへ
 6174 000001C2 400B                   M           JSR     @R0                     ;
 6175 000001C4 0009                   M           NOP                                     ;
 6176                             316     
 6177 000001C6                    317     CPUB_SCAN_300:
 6178                             318     
 6179                             319             .AIF    0 EQ    1
 6180                             320             FAR_JSR #_EMG_PASS_FLG_SET,R0           ;2010-12-08 PASS強制ｾｯﾄ
 6181                             321             .AENDI
 6182                             322     
 6183                             323             M_BRA   CB_INT_MNJMP_200                ;2007-11-28
 6184 000001C6 A031                   M           BRA     CB_INT_MNJMP_200
 6185 000001C8 0009                   M           NOP
 6186                             324     
*** SuperH RISC engine ASSEMBLER V.7.01.02.000 ***    12/12/17 19:19:44                                                  PAGE    14
PROGRAM NAME =

 6187                             325     
 6188                                     ***** BEGIN-POOL *****
 6189 000001CA 0000                       ALIGNMENT CODE
 6190 000001CC 00000000                   DATA FOR SOURCE-LINE 225
 6191 000001D0 00000000                   DATA FOR SOURCE-LINE 226
 6192 000001D4 00000000                   DATA FOR SOURCE-LINE 228
 6193 000001D8 00000000                   DATA FOR SOURCE-LINE 229
 6194 000001DC 00000000                   DATA FOR SOURCE-LINE 230
 6195 000001E0 00000000                   DATA FOR SOURCE-LINE 231
 6196 000001E4 00000000                   DATA FOR SOURCE-LINE 236
 6197 000001E8 00000000                   DATA FOR SOURCE-LINE 244
 6198 000001EC 00000000                   DATA FOR SOURCE-LINE 247
 6199 000001F0 00000000                   DATA FOR SOURCE-LINE 252
 6200 000001F4 00000000                   DATA FOR SOURCE-LINE 253
 6201 000001F8 00000000                   DATA FOR SOURCE-LINE 254
 6202 000001FC 00000000                   DATA FOR SOURCE-LINE 258
 6203 00000200 00000000                   DATA FOR SOURCE-LINE 259
 6204 00000204 00000000                   DATA FOR SOURCE-LINE 269,275
 6205 00000208 00000000                   DATA FOR SOURCE-LINE 270,289,310
 6206 0000020C 00000000                   DATA FOR SOURCE-LINE 276,297,315
 6207 00000210 00000000                   DATA FOR SOURCE-LINE 288,296
 6208 00000214 00000000                   DATA FOR SOURCE-LINE 291
 6209 00000218 00000000                   DATA FOR SOURCE-LINE 292
 6210 0000021C 00000000                   DATA FOR SOURCE-LINE 293
 6211 00000220 00000000                   DATA FOR SOURCE-LINE 294
 6212 00000224 00000000                   DATA FOR SOURCE-LINE 309,314
 6213 00000228 00000000                   DATA FOR SOURCE-LINE 312
 6214                                     ***** END-POOL *****
 6215 0000022C                    326     CB_INT_MNJMP_200:
 6216                             327     
 6217                             328             FAR_JSR #_MODE_CHANGE,R0        ;各ﾓｰﾄﾞ状態作成(非常停止を作成しない[CHGSWで作成])
 6218 0000022C D00B                   M           MOV.L   #_MODE_CHANGE,R0                ;ﾃｰﾌﾞﾙｱﾄﾞﾚｽの内容をREGへ
 6219 0000022E 400B                   M           JSR     @R0                     ;
 6220 00000230 0009                   M           NOP                                     ;
 6221                             329             FAR_JSR #_MODE_AREA_MAKE,R0     ;待機点AREA作成
 6222 00000232 D00B                   M           MOV.L   #_MODE_AREA_MAKE,R0             ;ﾃｰﾌﾞﾙｱﾄﾞﾚｽの内容をREGへ
 6223 00000234 400B                   M           JSR     @R0                     ;
 6224 00000236 0009                   M           NOP                                     ;
 6225                             330     
 6226                             331             FAR_JSR #_SEQ_VALV_ON,R0        ;
 6227 00000238 D00A                   M           MOV.L   #_SEQ_VALV_ON,R0                ;ﾃｰﾌﾞﾙｱﾄﾞﾚｽの内容をREGへ
 6228 0000023A 400B                   M           JSR     @R0                     ;
 6229 0000023C 0009                   M           NOP                                     ;
 6230                             332             FAR_JSR #_UP_AREA_INPCHK,R0
 6231 0000023E D00A                   M           MOV.L   #_UP_AREA_INPCHK,R0             ;ﾃｰﾌﾞﾙｱﾄﾞﾚｽの内容をREGへ
 6232 00000240 400B                   M           JSR     @R0                     ;
 6233 00000242 0009                   M           NOP                                     ;
 6234                             333             FAR_JSR #_UP_AREA_INP360ENCCHK,R0
 6235 00000244 D009                   M           MOV.L   #_UP_AREA_INP360ENCCHK,R0               ;ﾃｰﾌﾞﾙｱﾄﾞﾚｽの内容をREGへ
 6236 00000246 400B                   M           JSR     @R0                     ;
 6237 00000248 0009                   M           NOP                                     ;
 6238                             334     
 6239                             335     ;;;;    --------2010-12-08 CPUB-SCAN 短縮-----
 6240                             336     ;;;;    .AIF    0 EQ    0       ;
 6241                             337     ;;;;    FAR_JSR #_RNA_ERR_RSTCHK,R0             ;2008-11-11(ｼｰｹﾝｽからﾘｾｯﾄ)
 6242                             338     ;;;;    .AENDI                                  ;
 6243                             339     
*** SuperH RISC engine ASSEMBLER V.7.01.02.000 ***    12/12/17 19:19:44                                                  PAGE    15
PROGRAM NAME =

 6244                             340     ;;;;    FAR_JSR #_RESET_CHEAK,R0                ;BIT7~BIT15
 6245                             341     
 6246                             342             FAR_JSR #_DAI_POS_ERR_POSCHK,R0         ;
 6247 0000024A D009                   M           MOV.L   #_DAI_POS_ERR_POSCHK,R0         ;ﾃｰﾌﾞﾙｱﾄﾞﾚｽの内容をREGへ
 6248 0000024C 400B                   M           JSR     @R0                     ;
 6249 0000024E 0009                   M           NOP                                     ;
 6250                             343             FAR_JSR #_DAI_HOSEI1_CTRL,R0            ;CPUA,B必要　手動ﾀﾞｲﾊｲﾄ補正
 6251 00000250 D008                   M           MOV.L   #_DAI_HOSEI1_CTRL,R0            ;ﾃｰﾌﾞﾙｱﾄﾞﾚｽの内容をREGへ
 6252 00000252 400B                   M           JSR     @R0                     ;
 6253 00000254 0009                   M           NOP                                     ;
 6254                             344             M_BRA   CB_INT_MNJMP_250
 6255 00000256 A00F                   M           BRA     CB_INT_MNJMP_250
 6256 00000258 0009                   M           NOP
 6257                             345     
 6258                                     ***** BEGIN-POOL *****
 6259 0000025A 0000                       ALIGNMENT CODE
 6260 0000025C 00000000                   DATA FOR SOURCE-LINE 328
 6261 00000260 00000000                   DATA FOR SOURCE-LINE 329
 6262 00000264 00000000                   DATA FOR SOURCE-LINE 331
 6263 00000268 00000000                   DATA FOR SOURCE-LINE 332
 6264 0000026C 00000000                   DATA FOR SOURCE-LINE 333
 6265 00000270 00000000                   DATA FOR SOURCE-LINE 342
 6266 00000274 00000000                   DATA FOR SOURCE-LINE 343
 6267                                     ***** END-POOL *****
 6268 00000278                    346     CB_INT_MNJMP_250
 6269                             347     
 6270                             348             .AIF    0 EQ    0       ;
 6271                             349 C           FAR_JSR #_SLID_ALM_ELSE_CHK,R0          ;2011-03-22
 6272 00000278 D015                   M           MOV.L   #_SLID_ALM_ELSE_CHK,R0          ;ﾃｰﾌﾞﾙｱﾄﾞﾚｽの内容をREGへ
 6273 0000027A 400B                   M           JSR     @R0                     ;
 6274 0000027C 0009                   M           NOP                                     ;
 6275                             350 C           FAR_JSR #_INSERT_TEACH_POS,R0           ;2011-08-01
 6276 0000027E D015                   M           MOV.L   #_INSERT_TEACH_POS,R0           ;ﾃｰﾌﾞﾙｱﾄﾞﾚｽの内容をREGへ
 6277 00000280 400B                   M           JSR     @R0                     ;
 6278 00000282 0009                   M           NOP                                     ;
 6279                             351 C           FAR_JSR #_TRQ_OVERHEAT_CALC,R0          ;2012-09-25
 6280 00000284 D014                   M           MOV.L   #_TRQ_OVERHEAT_CALC,R0          ;ﾃｰﾌﾞﾙｱﾄﾞﾚｽの内容をREGへ
 6281 00000286 400B                   M           JSR     @R0                     ;
 6282 00000288 0009                   M           NOP                                     ;
 6283                             352 C   
 6284                             353             .AENDI                                  ;
 6285                             354     
 6286                             355     
 6287                             356     
 6288                             357     ;       --------2010-12-08 CPUB-SCAN 短縮-----
 6289                             358             .AIF    0 EQ    1
 6290                             359             MOV.L   #_INT1MS_SCAN_05MS2,R1  ;
 6291                             360             MOV.W   @R1,R0                  ;
 6292                             361             TST     R0,R0                   ;
 6293                             362             TST_BIT_ON CPUB_SCAN_500
 6294                             363             .AENDI
 6295                             364     
 6296 0000028A D514               365             MOV.L   #_ERR_LEV_IN5,R5        ;
 6297                             366             FAR_JSR #_ERR_LEV_CLR,R0
 6298 0000028C D014                   M           MOV.L   #_ERR_LEV_CLR,R0                ;ﾃｰﾌﾞﾙｱﾄﾞﾚｽの内容をREGへ
 6299 0000028E 400B                   M           JSR     @R0                     ;
 6300 00000290 0009                   M           NOP                                     ;
*** SuperH RISC engine ASSEMBLER V.7.01.02.000 ***    12/12/17 19:19:44                                                  PAGE    16
PROGRAM NAME =

 6301                             367     
 6302                             368             FAR_JSR #_MOTER_MOVING_ERR,R0   ;[ｴﾝｺｰﾀﾞ停止異常の停止測定ﾀｲﾏ///だめ
 6303 00000292 D014                   M           MOV.L   #_MOTER_MOVING_ERR,R0           ;ﾃｰﾌﾞﾙｱﾄﾞﾚｽの内容をREGへ
 6304 00000294 400B                   M           JSR     @R0                     ;
 6305 00000296 0009                   M           NOP                                     ;
 6306                             369     
 6307 00000298 D510               370             MOV.L   #_ERR_LEV_IN5,R5        ;
 6308                             371             FAR_JSR #_ERR_LEV_SET,R0
 6309 0000029A D013                   M           MOV.L   #_ERR_LEV_SET,R0                ;ﾃｰﾌﾞﾙｱﾄﾞﾚｽの内容をREGへ
 6310 0000029C 400B                   M           JSR     @R0                     ;
 6311 0000029E 0009                   M           NOP                                     ;
 6312                             372     
 6313 000002A0                    373     CPUB_SCAN_500:
 6314                             374     
 6315                             375     ;       --2009-07-17 add[不具合対策 ﾌﾞﾚｰｷ角度ｵｰﾊﾞ2]---
 6316                             376     ;;---2009-07-16 FAR_JSR #_LINK_CLANK_DIG_MAK,R0 ;2003-07-09
 6317                             377     
 6318                             378     
 6319                             379             FAR_JSR #_STOPPING_TIM_CHK,R0   ;
 6320 000002A0 D012                   M           MOV.L   #_STOPPING_TIM_CHK,R0           ;ﾃｰﾌﾞﾙｱﾄﾞﾚｽの内容をREGへ
 6321 000002A2 400B                   M           JSR     @R0                     ;
 6322 000002A4 0009                   M           NOP                                     ;
 6323                             380             FAR_JSR #_BRKTMCAL_MAIN,R0      ;2012-03-06
 6324 000002A6 D012                   M           MOV.L   #_BRKTMCAL_MAIN,R0              ;ﾃｰﾌﾞﾙｱﾄﾞﾚｽの内容をREGへ
 6325 000002A8 400B                   M           JSR     @R0                     ;
 6326 000002AA 0009                   M           NOP                                     ;
 6327                             381     
 6328                             382             FAR_JSR #_MOTOR_MOV_STOP_CHK,R0 ;ssa_else
 6329 000002AC D011                   M           MOV.L   #_MOTOR_MOV_STOP_CHK,R0         ;ﾃｰﾌﾞﾙｱﾄﾞﾚｽの内容をREGへ
 6330 000002AE 400B                   M           JSR     @R0                     ;
 6331 000002B0 0009                   M           NOP                                     ;
 6332                             383     
 6333                             384     ;;;pg容量確保[2012-03-06]       FAR_JSR #_TRD_SMP_INT_MAIN,R0
 6334                             385     
 6335                             386     ;       ---- 2006-07-14 ----NEW----------
 6336                             387             .AIF    0 EQ    0
 6337                             388 C           .IMPORT _CPUA_TREND_SMPLING
 6338                             389 C           FAR_JSR #_CPUA_TREND_SMPLING,R0
 6339 000002B2 D011                   M           MOV.L   #_CPUA_TREND_SMPLING,R0         ;ﾃｰﾌﾞﾙｱﾄﾞﾚｽの内容をREGへ
 6340 000002B4 400B                   M           JSR     @R0                     ;
 6341 000002B6 0009                   M           NOP                                     ;
 6342                             390             .AENDI
 6343                             391     
 6344                             392     ;       =================================
 6345 000002B8 200A               393             xor     r0,r0
 6346 000002BA D110               394             mov.l   #_pass_err_flg2,r1      ;//制御ﾙｰﾁﾝ
 6347 000002BC 2101               395             mov.w   r0,@r1                  ;
 6348                             396             FAR_JSR #_SELF_CHEAK,R0         ;
 6349 000002BE D010                   M           MOV.L   #_SELF_CHEAK,R0         ;ﾃｰﾌﾞﾙｱﾄﾞﾚｽの内容をREGへ
 6350 000002C0 400B                   M           JSR     @R0                     ;
 6351 000002C2 0009                   M           NOP                                     ;
 6352                             397     
 6353                             398             FAR_JSR #_MODE_CTRL,R0          ;
 6354 000002C4 D00F                   M           MOV.L   #_MODE_CTRL,R0          ;ﾃｰﾌﾞﾙｱﾄﾞﾚｽの内容をREGへ
 6355 000002C6 400B                   M           JSR     @R0                     ;
 6356 000002C8 0009                   M           NOP                                     ;
 6357                             399     
*** SuperH RISC engine ASSEMBLER V.7.01.02.000 ***    12/12/17 19:19:44                                                  PAGE    17
PROGRAM NAME =

 6358                             400     ;       ===== 二重回路対象外ソフト=======
 6359                             401     ;       過負荷・タイマカム
 6360                             402     ;
 6361                             403             M_BRA   CB_INT_MNJMP_300                ;2007-11-28
 6362 000002CA A01D                   M           BRA     CB_INT_MNJMP_300
 6363 000002CC 0009                   M           NOP
 6364                             404     
 6365                             405     
 6366                                     ***** BEGIN-POOL *****
 6367 000002CE 0000                       ALIGNMENT CODE
 6368 000002D0 00000000                   DATA FOR SOURCE-LINE 349
 6369 000002D4 00000000                   DATA FOR SOURCE-LINE 350
 6370 000002D8 00000000                   DATA FOR SOURCE-LINE 351
 6371 000002DC 00000000                   DATA FOR SOURCE-LINE 365,370
 6372 000002E0 00000000                   DATA FOR SOURCE-LINE 366
 6373 000002E4 00000000                   DATA FOR SOURCE-LINE 368
 6374 000002E8 00000000                   DATA FOR SOURCE-LINE 371
 6375 000002EC 00000000                   DATA FOR SOURCE-LINE 379
 6376 000002F0 00000000                   DATA FOR SOURCE-LINE 380
 6377 000002F4 00000000                   DATA FOR SOURCE-LINE 382
 6378 000002F8 00000000                   DATA FOR SOURCE-LINE 389
 6379 000002FC 00000000                   DATA FOR SOURCE-LINE 394
 6380 00000300 00000000                   DATA FOR SOURCE-LINE 396
 6381 00000304 00000000                   DATA FOR SOURCE-LINE 398
 6382                                     ***** END-POOL *****
 6383 00000308                    406     CB_INT_MNJMP_300:
 6384                             407     
 6385                             408             DN_TIME LG=W,MEM_ADR=_BASE_TIM010MS     ,WKREG1=R1,WKREG2=R2    ;10msec 定周期
 6386 00000308 D12A                   M           MOV.L   #_BASE_TIM010MS,R1              ;SORCE ADRESS SET
 6387 0000030A 6211                   M           MOV.W   @R1,R2          ;
 6388 0000030C 2228                   M           TST     R2,R2                   ;
 6389 0000030E 8901                   M           BT      JMP_0100000                     ;ZERO THEN JUMP
 6390 00000310 4210                   M           DT      R2                              ;
 6391 00000312 2121                   M           MOV.W   R2,@R1          ;STORE
 6392 00000314                        M   JMP_0100000:
 6393 00000314 D527               409             MOV.L   #_BASE_TIM010MS,R5      ;
 6394 00000316 6051               410             MOV.W   @R5,R0                  ;
 6395 00000318 2008               411             TST     R0,R0                   ;
 6396                             412             TST_BIT_ON CB_INT_CNT010MS_050  ;
 6397 0000031A 8B04                   M           BF      CB_INT_CNT010MS_050
 6398                             413     
 6399 0000031C D026               414             MOV.L   #_TIM_CNT010MS_DT,R0            ;
 6400 0000031E 2501               415             MOV.W   R0,@R5                          ;
 6401                             416             FAR_JSR #_CB_010MSEC_TIME_CNT,R0        ;
 6402 00000320 D026                   M           MOV.L   #_CB_010MSEC_TIME_CNT,R0                ;ﾃｰﾌﾞﾙｱﾄﾞﾚｽの内容をREGへ
 6403 00000322 400B                   M           JSR     @R0                     ;
 6404 00000324 0009                   M           NOP                                     ;
 6405                             417     
 6406                             418     ;;;;;   -------------- EPﾁｪｯｸ 2013-09-30 ------------
 6407                             419     ;;;;;   .IMPORT _EPSENCER_CHECK
 6408                             420     ;;;;;   FAR_JSR #_EPSENCER_CHECK,R0     ;2013-09-30
 6409                             421     
 6410                             422     
 6411                             423     
 6412 00000326                    424     CB_INT_CNT010MS_050:                            ;
 6413                             425     
 6414                             426             DN_TIME LG=W,MEM_ADR=_BASE_TIM100MS     ,WKREG1=R1,WKREG2=R2    ;100msec 定周期
*** SuperH RISC engine ASSEMBLER V.7.01.02.000 ***    12/12/17 19:19:44                                                  PAGE    18
PROGRAM NAME =

 6415 00000326 D126                   M           MOV.L   #_BASE_TIM100MS,R1              ;SORCE ADRESS SET
 6416 00000328 6211                   M           MOV.W   @R1,R2          ;
 6417 0000032A 2228                   M           TST     R2,R2                   ;
 6418 0000032C 8901                   M           BT      JMP_0100001                     ;ZERO THEN JUMP
 6419 0000032E 4210                   M           DT      R2                              ;
 6420 00000330 2121                   M           MOV.W   R2,@R1          ;STORE
 6421 00000332                        M   JMP_0100001:
 6422 00000332 D523               427             MOV.L   #_BASE_TIM100MS,R5                              ;2003-02-22
 6423 00000334 6051               428             MOV.W   @R5,R0                                          ;
 6424 00000336 2008               429             TST     R0,R0                                           ;
 6425                             430             TST_BIT_ON CB_INT_CNT100MS_050                          ;
 6426 00000338 8B04                   M           BF      CB_INT_CNT100MS_050
 6427 0000033A D022               431             MOV.L   #_TIM_CNT100MS_DT,R0                            ;
 6428 0000033C 2501               432             MOV.W   R0,@R5
 6429                             433             FAR_JSR #_CB_100MSEC_TIME_CNT,R0
 6430 0000033E D022                   M           MOV.L   #_CB_100MSEC_TIME_CNT,R0                ;ﾃｰﾌﾞﾙｱﾄﾞﾚｽの内容をREGへ
 6431 00000340 400B                   M           JSR     @R0                     ;
 6432 00000342 0009                   M           NOP                                     ;
 6433                             434     
 6434 00000344                    435     CB_INT_CNT100MS_050:
 6435                             436     
 6436                             437             FAR_JSR #_KAJYUU_REFLASH,R0
 6437 00000344 D021                   M           MOV.L   #_KAJYUU_REFLASH,R0             ;ﾃｰﾌﾞﾙｱﾄﾞﾚｽの内容をREGへ
 6438 00000346 400B                   M           JSR     @R0                     ;
 6439 00000348 0009                   M           NOP                                     ;
 6440                             438     
 6441                             439     ;       --------2010-12-08 CPUB-SCAN 短縮-----
 6442                             440             .AIF    0 EQ    0
 6443                             441 C   
 6444                             442 C           FAR_JSR #_VAIBU_CTRL,R0         ;加振動制御
 6445 0000034A D021                   M           MOV.L   #_VAIBU_CTRL,R0         ;ﾃｰﾌﾞﾙｱﾄﾞﾚｽの内容をREGへ
 6446 0000034C 400B                   M           JSR     @R0                     ;
 6447 0000034E 0009                   M           NOP                                     ;
 6448                             443 C           FAR_JSR #_POSITIONER_DAIHAITO,R0
 6449 00000350 D020                   M           MOV.L   #_POSITIONER_DAIHAITO,R0                ;ﾃｰﾌﾞﾙｱﾄﾞﾚｽの内容をREGへ
 6450 00000352 400B                   M           JSR     @R0                     ;
 6451 00000354 0009                   M           NOP                                     ;
 6452                             444 C   
 6453                             445             .AENDI
 6454                             446     
 6455                             447     
 6456                             448     
 6457                             449             .AIF    0 EQ    1
 6458                             450             MOV.L   #_INT1MS_SCAN_05MS1,R1  ;
 6459                             451             MOV.W   @R1,R0                  ;
 6460                             452             TST     R0,R0                   ;
 6461                             453             TST_BIT_ON CPUB_SCAN_600
 6462                             454             .AENDI
 6463                             455     
 6464                             456             FAR_JSR #_CB_SEQ_DATA_MAKE1,R0  ;
 6465 00000356 D020                   M           MOV.L   #_CB_SEQ_DATA_MAKE1,R0          ;ﾃｰﾌﾞﾙｱﾄﾞﾚｽの内容をREGへ
 6466 00000358 400B                   M           JSR     @R0                     ;
 6467 0000035A 0009                   M           NOP                                     ;
 6468                             457     
 6469 0000035C                    458     CPUB_SCAN_600:
 6470                             459     
 6471                             460     ;       ------- 2011------------------------
*** SuperH RISC engine ASSEMBLER V.7.01.02.000 ***    12/12/17 19:19:44                                                  PAGE    19
PROGRAM NAME =

 6472                             461             .IMPORT _BIBUN_DATA_MAKE        ;
 6473                             462             FAR_JSR #_BIBUN_DATA_MAKE,R0
 6474 0000035C D01F                   M           MOV.L   #_BIBUN_DATA_MAKE,R0            ;ﾃｰﾌﾞﾙｱﾄﾞﾚｽの内容をREGへ
 6475 0000035E 400B                   M           JSR     @R0                     ;
 6476 00000360 0009                   M           NOP                                     ;
 6477                             463     
 6478                             464     ;       ====== 2014-02-20 外部運転釦============--
 6479                             465             .IMPORT _EXT_DRVBTTN_MODE       ;
 6480                             466             FAR_JSR #_EXT_DRVBTTN_MODE,R0   ;
 6481 00000362 D01F                   M           MOV.L   #_EXT_DRVBTTN_MODE,R0           ;ﾃｰﾌﾞﾙｱﾄﾞﾚｽの内容をREGへ
 6482 00000364 400B                   M           JSR     @R0                     ;
 6483 00000366 0009                   M           NOP                                     ;
 6484                             467     
 6485                             468     
 6486                             469     
 6487 00000368 9023               470             MOV.W   #H'FFFF,R0              ;
 6488 0000036A D11E               471             mov.l   #_pass_err_flg2,r1      ;//制御ﾙｰﾁﾝ
 6489 0000036C 2101               472             mov.w   r0,@r1                  ;
 6490                             473     
 6491                             474             .AIF    0 EQ    1
 6492                             475             .IMPORT _CBB_STS_BKUP_SAVE      ;
 6493                             476             FAR_JSR #_CBB_STS_BKUP_SAVE,R0  ;2011-09-14 ﾊﾞｯｸｱｯﾌﾟ
 6494                             477             .AENDI
 6495                             478     
 6496                             479     
 6497                             480             FAR_JSR #_CPU_DEBUG_MONITOR,R0  ;2013-06-20
 6498 0000036E D01E                   M           MOV.L   #_CPU_DEBUG_MONITOR,R0          ;ﾃｰﾌﾞﾙｱﾄﾞﾚｽの内容をREGへ
 6499 00000370 400B                   M           JSR     @R0                     ;
 6500 00000372 0009                   M           NOP                                     ;
 6501                             481     
 6502                             482     
 6503                             483     ;       ======== 2013-07-18 ﾒｲﾝｽｷｬﾝ測定(CPUBの表示処理時間用) ====
 6504                             484             .AIF    0 EQ    0
 6505                             485 C           FAR_JSR #_CPU_MAIN_SCAN_CALC,R0 ;cpubのﾒｲﾝ時間測定
 6506 00000374 D01D                   M           MOV.L   #_CPU_MAIN_SCAN_CALC,R0         ;ﾃｰﾌﾞﾙｱﾄﾞﾚｽの内容をREGへ
 6507 00000376 400B                   M           JSR     @R0                     ;
 6508 00000378 0009                   M           NOP                                     ;
 6509                             486             .AENDI
 6510                             487     
 6511                             488     
 6512                             489             POP_ALL
 6513                                 M           .AIF    2 EQ 3
 6514                                             .AELSE
 6515                                 C           POP_FPU_ALL             ;2001-07-08
 6516                                 M                   POP_FPU_REG1 FR4        ;2001-07-08 koma add
 6517 0000037A F4F9                   M           FMOV.S  @R15+,FR4
 6518                                 M                   POP_FPU_REG1 FR3        ;
 6519 0000037C F3F9                   M           FMOV.S  @R15+,FR3
 6520                                 M                   POP_FPU_REG1 FR2        ;
 6521 0000037E F2F9                   M           FMOV.S  @R15+,FR2
 6522                                 M                   POP_FPU_REG1 FR1        ;
 6523 00000380 F1F9                   M           FMOV.S  @R15+,FR1
 6524                                 M                   POP_FPU_REG1 FR0        ;
 6525 00000382 F0F9                   M           FMOV.S  @R15+,FR0
 6526                                 M                   POP_SYS_FPU             ;
 6527 00000384 4F66                   M           LDS.L   @R15+,FPSCR
 6528 00000386 4F56                   M           LDS.L   @R15+,FPUL
*** SuperH RISC engine ASSEMBLER V.7.01.02.000 ***    12/12/17 19:19:44                                                  PAGE    20
PROGRAM NAME =

 6529                                 M           .AENDI
 6530                                 M           POP_SYS_REG     GBR     ;
 6531 00000388 4F17                   M           LDC.L   @R15+,GBR
 6532                                 M           POP_MACHL               ;
 6533 0000038A 4F16                   M           LDS.L   @R15+,MACL
 6534 0000038C 4F06                   M           LDS.L   @R15+,MACH
 6535                                 M           POP_REG1        R14     ;
 6536                                 M                                   ; RE"+4" 00,00,00,04
 6537 0000038E 6EF6                   M           MOV.L   @R15+,R14        ;
 6538                                 M           POP_REG1        R13     ;
 6539                                 M                                   ; RE"+4" 00,00,00,04
 6540 00000390 6DF6                   M           MOV.L   @R15+,R13        ;
 6541                                 M           POP_REG1        R12     ;
 6542                                 M                                   ; RE"+4" 00,00,00,04
 6543 00000392 6CF6                   M           MOV.L   @R15+,R12        ;
 6544                                 M           POP_REG1        R11     ;
 6545                                 M                                   ; RE"+4" 00,00,00,04
 6546 00000394 6BF6                   M           MOV.L   @R15+,R11        ;
 6547                                 M           POP_REG1        R10     ;
 6548                                 M                                   ; RE"+4" 00,00,00,04
 6549 00000396 6AF6                   M           MOV.L   @R15+,R10        ;
 6550                                 M           POP_REG1        R9      ;
 6551                                 M                                   ; RE"+4" 00,00,00,04
 6552 00000398 69F6                   M           MOV.L   @R15+,R9        ;
 6553                                 M           POP_REG1        R8      ;
 6554                                 M                                   ; RE"+4" 00,00,00,04
 6555 0000039A 68F6                   M           MOV.L   @R15+,R8        ;
 6556                                 M           POP_REG1        R7      ;
 6557                                 M                                   ; RE"+4" 00,00,00,04
 6558 0000039C 67F6                   M           MOV.L   @R15+,R7        ;
 6559                                 M           POP_REG1        R6      ;
 6560                                 M                                   ; RE"+4" 00,00,00,04
 6561 0000039E 66F6                   M           MOV.L   @R15+,R6        ;
 6562                                 M           POP_REG1        R5      ;
 6563                                 M                                   ; RE"+4" 00,00,00,04
 6564 000003A0 65F6                   M           MOV.L   @R15+,R5        ;
 6565                                 M           POP_REG1        R4      ;
 6566                                 M                                   ; RE"+4" 00,00,00,04
 6567 000003A2 64F6                   M           MOV.L   @R15+,R4        ;
 6568                                 M           POP_REG1        R3      ;
 6569                                 M                                   ; RE"+4" 00,00,00,04
 6570 000003A4 63F6                   M           MOV.L   @R15+,R3        ;
 6571                                 M           POP_REG1        R2      ;
 6572                                 M                                   ; RE"+4" 00,00,00,04
 6573 000003A6 62F6                   M           MOV.L   @R15+,R2        ;
 6574                                 M           POP_REG1        R1      ;
 6575                                 M                                   ; RE"+4" 00,00,00,04
 6576 000003A8 61F6                   M           MOV.L   @R15+,R1        ;
 6577                                 M           POP_REG1        R0      ;
 6578                                 M                                   ; RE"+4" 00,00,00,04
 6579 000003AA 60F6                   M           MOV.L   @R15+,R0        ;
 6580                             490             SUB_END
 6581                                 M   ;;;;;;; ADD     #4,R15                  ;[不要?]
 6582 000003AC 4F26                   M           LDS.L   @R15+,PR                ;[必要]
 6583                             491             M_RTS
 6584 000003AE 000B                   M           RTS                             ;RTSの後ろの
 6585 000003B0 0009                   M           NOP                             ;@R15+,PRはﾀﾞﾒ
*** SuperH RISC engine ASSEMBLER V.7.01.02.000 ***    12/12/17 19:19:44                                                  PAGE    21
PROGRAM NAME =

 6586                             492     
 6587                             493     ;di1_cb_ctl1[4];//+0:DI(使用)+1　+2()　+3(生) 運転釦(200.*)
 6588                             494     ;di2_cb_ctl2[4];//+0:DI(使用)+1　+2()　+3(生) LSA,WT1~3(201.*)
 6589                             495     ;di3_cb_inp1;//+0:遮光、ﾌｨｰﾄﾞﾊﾞｯｸ(202)
 6590                             496     ;dq1_cb_out1;//+0:制御出力(203)
 6591                             497     
 6592                             498     ;       *******************************************
 6593                             499     ;       ***                                     ***
 6594                             500     ;       ***     クラッチ定周期タイマ            ***
 6595                             501     ;       ***                                     ***
 6596                             502     ;       *******************************************
 6597                             503             .EXPORT _CB_TIME_CNT            ;
 6598                                     ***** BEGIN-POOL *****
 6599 000003B2 FFFF                       DATA FOR SOURCE-LINE 470
 6600 000003B4 00000000                   DATA FOR SOURCE-LINE 408,409
 6601 000003B8 0000000A                   DATA FOR SOURCE-LINE 414
 6602 000003BC 00000000                   DATA FOR SOURCE-LINE 416
 6603 000003C0 00000000                   DATA FOR SOURCE-LINE 426,427
 6604 000003C4 00000064                   DATA FOR SOURCE-LINE 431
 6605 000003C8 00000000                   DATA FOR SOURCE-LINE 433
 6606 000003CC 00000000                   DATA FOR SOURCE-LINE 437
 6607 000003D0 00000000                   DATA FOR SOURCE-LINE 442
 6608 000003D4 00000000                   DATA FOR SOURCE-LINE 443
 6609 000003D8 00000000                   DATA FOR SOURCE-LINE 456
 6610 000003DC 00000000                   DATA FOR SOURCE-LINE 462
 6611 000003E0 00000000                   DATA FOR SOURCE-LINE 466
 6612 000003E4 00000000                   DATA FOR SOURCE-LINE 471
 6613 000003E8 00000000                   DATA FOR SOURCE-LINE 480
 6614 000003EC 00000000                   DATA FOR SOURCE-LINE 485
 6615                                     ***** END-POOL *****
 6616 000003F0                    504     _CB_TIME_CNT:
 6617                             505             SUB_START
 6618 000003F0 4F22                   M           STS.L   PR,@-R15                ;[必要]
 6619                                 M   ;;;;;;; ADD     #-4,R15                 ;[不要?]
 6620                             506     
 6621                             507     ;       ===== ﾘｾｯﾄ処理 =====
 6622                             508             DN_TIME LG=W,MEM_ADR=_reset_dly_tim     ,WKREG1=R1,WKREG2=R2    ;
 6623 000003F2 D127                   M           MOV.L   #_reset_dly_tim,R1              ;SORCE ADRESS SET
 6624 000003F4 6211                   M           MOV.W   @R1,R2          ;
 6625 000003F6 2228                   M           TST     R2,R2                   ;
 6626 000003F8 8901                   M           BT      JMP_0100002                     ;ZERO THEN JUMP
 6627 000003FA 4210                   M           DT      R2                              ;
 6628 000003FC 2121                   M           MOV.W   R2,@R1          ;STORE
 6629 000003FE                        M   JMP_0100002:
 6630                             509     
 6631                             510     ;       ==== 起動部===
 6632                             511             DN_TIME LG=W,MEM_ADR=_SAME_TIM          ,WKREG1=R1,WKREG2=R2    ;運転同時釦
 6633 000003FE D125                   M           MOV.L   #_SAME_TIM,R1           ;SORCE ADRESS SET
 6634 00000400 6211                   M           MOV.W   @R1,R2          ;
 6635 00000402 2228                   M           TST     R2,R2                   ;
 6636 00000404 8901                   M           BT      JMP_0100003                     ;ZERO THEN JUMP
 6637 00000406 4210                   M           DT      R2                              ;
 6638 00000408 2121                   M           MOV.W   R2,@R1          ;STORE
 6639 0000040A                        M   JMP_0100003:
 6640                             512             DN_TIME LG=W,MEM_ADR=_SET_UP_TIM        ,WKREG1=R1,WKREG2=R2    ;ｾｯﾄｱｯﾌﾟ
 6641 0000040A D123                   M           MOV.L   #_SET_UP_TIM,R1         ;SORCE ADRESS SET
 6642 0000040C 6211                   M           MOV.W   @R1,R2          ;
*** SuperH RISC engine ASSEMBLER V.7.01.02.000 ***    12/12/17 19:19:44                                                  PAGE    22
PROGRAM NAME =

 6643 0000040E 2228                   M           TST     R2,R2                   ;
 6644 00000410 8901                   M           BT      JMP_0100004                     ;ZERO THEN JUMP
 6645 00000412 4210                   M           DT      R2                              ;
 6646 00000414 2121                   M           MOV.W   R2,@R1          ;STORE
 6647 00000416                        M   JMP_0100004:
 6648                             513     
 6649                             514     ;       ==== 位置決め部 ====
 6650                             515     ;;;;2014-05-30 個別     DN_TIME LG=L,MEM_ADR=_SDAT_WAIT_PVTIM   ,WKREG1=R1,WKREG2=R2    ;
                                          次運転
 6651                             516     
 6652                             517     
 6653                             518     ;       === SEQ部 2006-11-21==
 6654                             519     ;2015-09-06_BRK_SADOU_CHG EQ 1
 6655                             520     ;;2015-09-6廃止 DN_TIME LG=W,MEM_ADR=_SFTY_LOCK_DLYTM           ,WKREG1=R1,WKREG2=R2    ;(
                                          上昇ﾎｰﾙﾄﾞ無効)
 6656                             521     
 6657                             522     
 6658                             523     ;2015-09-06_BRK_SADOU_CHG EQ 1
 6659                             524     ;       -------- 2015-07-14 ----------
 6660                             525     ;       -------- 位置決め完了[ｲﾝﾎﾟｼﾞ〜ﾌﾞﾚ-ｷﾛｯｸ]を遅延させる---
 6661                             526             DN_TIME LG=W,MEM_ADR=_POS_END_WAIT_TIM          ,WKREG1=R1,WKREG2=R2    ;
 6662 00000416 D121                   M           MOV.L   #_POS_END_WAIT_TIM,R1           ;SORCE ADRESS SET
 6663 00000418 6211                   M           MOV.W   @R1,R2          ;
 6664 0000041A 2228                   M           TST     R2,R2                   ;
 6665 0000041C 8901                   M           BT      JMP_0100005                     ;ZERO THEN JUMP
 6666 0000041E 4210                   M           DT      R2                              ;
 6667 00000420 2121                   M           MOV.W   R2,@R1          ;STORE
 6668 00000422                        M   JMP_0100005:
 6669                             527             DN_TIME LG=W,MEM_ADR=_POS_END_MYUTIG_STOPTIM    ,WKREG1=R1,WKREG2=R2    ;終了後こ
                                          の時間であれば動力遮断する時間
 6670 00000422 D11F                   M           MOV.L   #_POS_END_MYUTIG_STOPTIM,R1             ;SORCE ADRESS SET
 6671 00000424 6211                   M           MOV.W   @R1,R2          ;
 6672 00000426 2228                   M           TST     R2,R2                   ;
 6673 00000428 8901                   M           BT      JMP_0100006                     ;ZERO THEN JUMP
 6674 0000042A 4210                   M           DT      R2                              ;
 6675 0000042C 2121                   M           MOV.W   R2,@R1          ;STORE
 6676 0000042E                        M   JMP_0100006:
 6677                             528             DN_TIME LG=W,MEM_ADR=_POS_END_MYUTIG_KEEPTIM    ,WKREG1=R1,WKREG2=R2    ;終了後上
                                          昇無効を継続する時間
 6678 0000042E D11D                   M           MOV.L   #_POS_END_MYUTIG_KEEPTIM,R1             ;SORCE ADRESS SET
 6679 00000430 6211                   M           MOV.W   @R1,R2          ;
 6680 00000432 2228                   M           TST     R2,R2                   ;
 6681 00000434 8901                   M           BT      JMP_0100007                     ;ZERO THEN JUMP
 6682 00000436 4210                   M           DT      R2                              ;
 6683 00000438 2121                   M           MOV.W   R2,@R1          ;STORE
 6684 0000043A                        M   JMP_0100007:
 6685                             529     
 6686                             530     
 6687                             531     ;       ==== 表示===
 6688 0000043A D11B               532             MOV.L   #_CYCLE_TIME_FLG,R1     ;//(ﾌﾗｸﾞON)
 6689 0000043C 6011               533             MOV.W   @R1,R0                  ;
 6690 0000043E C801               534             TST     #BIT0,R0                ;
 6691                             535             TST_BIT_OF CB_TIME_CYCL50       ;
 6692 00000440 8905                   M           BT      CB_TIME_CYCL50
 6693                             536             UP_TIME LG=L,MEM_ADR=_CYCLE_TIME_DAT,WKREG1=R1,WKREG2=R2
 6694 00000442 D11A                   M           MOV.L   #_CYCLE_TIME_DAT,R1             ;SORCE ADRESS SET
 6695 00000444 6212                   M           MOV.L   @R1,R2          ;
*** SuperH RISC engine ASSEMBLER V.7.01.02.000 ***    12/12/17 19:19:44                                                  PAGE    23
PROGRAM NAME =

 6696 00000446 7201                   M           ADD     #1,R2                   ;
 6697 00000448 2228                   M           TST     R2,R2                   ;
 6698                                 M           TST_BIT_OF JMP_0100008                  ;ZERO THEN JUMP
 6699 0000044A 8900                   M           BT      JMP_0100008
 6700 0000044C 2122                   M           MOV.L   R2,@R1          ;STORE
 6701 0000044E                        M   JMP_0100008:                                    ;
 6702 0000044E                    537     CB_TIME_CYCL50:
 6703                             538     
 6704                             539     
 6705                             540             DN_TIME LG=L,MEM_ADR=_CONT_MOD_TIM_PV   ,WKREG1=R1,WKREG2=R2    ;連続ﾀｲﾏ1msec
 6706 0000044E D118                   M           MOV.L   #_CONT_MOD_TIM_PV,R1            ;SORCE ADRESS SET
 6707 00000450 6212                   M           MOV.L   @R1,R2          ;
 6708 00000452 2228                   M           TST     R2,R2                   ;
 6709 00000454 8901                   M           BT      JMP_0100009                     ;ZERO THEN JUMP
 6710 00000456 4210                   M           DT      R2                              ;
 6711 00000458 2122                   M           MOV.L   R2,@R1          ;STORE
 6712 0000045A                        M   JMP_0100009:
 6713                             541     
 6714                             542             DN_TIME LG=W,MEM_ADR=_PVX_INPPOS_TIM1   ,WKREG1=R1,WKREG2=R2    ;連続ﾀｲﾏ1msec
 6715 0000045A D116                   M           MOV.L   #_PVX_INPPOS_TIM1,R1            ;SORCE ADRESS SET
 6716 0000045C 6211                   M           MOV.W   @R1,R2          ;
 6717 0000045E 2228                   M           TST     R2,R2                   ;
 6718 00000460 8901                   M           BT      JMP_0100010                     ;ZERO THEN JUMP
 6719 00000462 4210                   M           DT      R2                              ;
 6720 00000464 2121                   M           MOV.W   R2,@R1          ;STORE
 6721 00000466                        M   JMP_0100010:
 6722                             543     
 6723                             544     
 6724                             545     ;       ====== ｾﾙﾌﾁｪｯｸ ====
 6725                             546             DN_TIME LG=W,MEM_ADR=_SELF_START_WAIT_TM        ,WKREG1=R1,WKREG2=R2    ;ｾﾙﾌﾁｪｯｸWA
                                          IT
 6726 00000466 D114                   M           MOV.L   #_SELF_START_WAIT_TM,R1         ;SORCE ADRESS SET
 6727 00000468 6211                   M           MOV.W   @R1,R2          ;
 6728 0000046A 2228                   M           TST     R2,R2                   ;
 6729 0000046C 8901                   M           BT      JMP_0100011                     ;ZERO THEN JUMP
 6730 0000046E 4210                   M           DT      R2                              ;
 6731 00000470 2121                   M           MOV.W   R2,@R1          ;STORE
 6732 00000472                        M   JMP_0100011:
 6733                             547     
 6734                             548     ;       --- 2006-04-10
 6735                             549             DN_TIME LG=W,MEM_ADR=_RDY_SFTY_WAIT_TIM ,WKREG1=R1,WKREG2=R2    ;
 6736 00000472 D112                   M           MOV.L   #_RDY_SFTY_WAIT_TIM,R1          ;SORCE ADRESS SET
 6737 00000474 6211                   M           MOV.W   @R1,R2          ;
 6738 00000476 2228                   M           TST     R2,R2                   ;
 6739 00000478 8901                   M           BT      JMP_0100012                     ;ZERO THEN JUMP
 6740 0000047A 4210                   M           DT      R2                              ;
 6741 0000047C 2121                   M           MOV.W   R2,@R1          ;STORE
 6742 0000047E                        M   JMP_0100012:
 6743                             550     
 6744                             551              .AIF   1 EQ 1  ;
 6745                             552 C   ;       -------- 2016-10-31 ADD 二重回路対策
 6746                             553              .AENDI
 6747                             554     ;       ---- 連続停止釦検知遅延 2016-10-31(2016-08-11)--------
 6748                             555             DN_TIME LG=W,MEM_ADR=_CNT_STOP_WAIT_TIM,WKREG1=R1,WKREG2=R2     ;
 6749 0000047E D110                   M           MOV.L   #_CNT_STOP_WAIT_TIM,R1          ;SORCE ADRESS SET
 6750 00000480 6211                   M           MOV.W   @R1,R2          ;
 6751 00000482 2228                   M           TST     R2,R2                   ;
*** SuperH RISC engine ASSEMBLER V.7.01.02.000 ***    12/12/17 19:19:44                                                  PAGE    24
PROGRAM NAME =

 6752 00000484 8901                   M           BT      JMP_0100013                     ;ZERO THEN JUMP
 6753 00000486 4210                   M           DT      R2                              ;
 6754 00000488 2121                   M           MOV.W   R2,@R1          ;STORE
 6755 0000048A                        M   JMP_0100013:
 6756                             556     
 6757                             557     
 6758                             558             SUB_END
 6759                                 M   ;;;;;;; ADD     #4,R15                  ;[不要?]
 6760 0000048A 4F26                   M           LDS.L   @R15+,PR                ;[必要]
 6761                             559             M_RTS
 6762 0000048C 000B                   M           RTS                             ;RTSの後ろの
 6763 0000048E 0009                   M           NOP                             ;@R15+,PRはﾀﾞﾒ
 6764                             560     
 6765                             561             .EXPORT _CB_010MSEC_TIME_CNT
 6766                                     ***** BEGIN-POOL *****
 6767 00000490 00000000                   DATA FOR SOURCE-LINE 508
 6768 00000494 00000000                   DATA FOR SOURCE-LINE 511
 6769 00000498 00000000                   DATA FOR SOURCE-LINE 512
 6770 0000049C 00000000                   DATA FOR SOURCE-LINE 526
 6771 000004A0 00000000                   DATA FOR SOURCE-LINE 527
 6772 000004A4 00000000                   DATA FOR SOURCE-LINE 528
 6773 000004A8 00000000                   DATA FOR SOURCE-LINE 532
 6774 000004AC 00000000                   DATA FOR SOURCE-LINE 536
 6775 000004B0 00000000                   DATA FOR SOURCE-LINE 540
 6776 000004B4 00000000                   DATA FOR SOURCE-LINE 542
 6777 000004B8 00000000                   DATA FOR SOURCE-LINE 546
 6778 000004BC 00000000                   DATA FOR SOURCE-LINE 549
 6779 000004C0 00000000                   DATA FOR SOURCE-LINE 555
 6780                                     ***** END-POOL *****
 6781 000004C4                    562     _CB_010MSEC_TIME_CNT:
 6782                             563             SUB_START
 6783 000004C4 4F22                   M           STS.L   PR,@-R15                ;[必要]
 6784                                 M   ;;;;;;; ADD     #-4,R15                 ;[不要?]
 6785                             564     
 6786                             565             DN_TIME LG=W,MEM_ADR=_TEPA_PLS_ZERO_TIM ,WKREG1=R1,WKREG2=R2    ;2011-07-04手パ時
                                          間
 6787 000004C6 D104                   M           MOV.L   #_TEPA_PLS_ZERO_TIM,R1          ;SORCE ADRESS SET
 6788 000004C8 6211                   M           MOV.W   @R1,R2          ;
 6789 000004CA 2228                   M           TST     R2,R2                   ;
 6790 000004CC 8901                   M           BT      JMP_0100014                     ;ZERO THEN JUMP
 6791 000004CE 4210                   M           DT      R2                              ;
 6792 000004D0 2121                   M           MOV.W   R2,@R1          ;STORE
 6793 000004D2                        M   JMP_0100014:
 6794                             566     
 6795                             567     
 6796                             568             SUB_END
 6797                                 M   ;;;;;;; ADD     #4,R15                  ;[不要?]
 6798 000004D2 4F26                   M           LDS.L   @R15+,PR                ;[必要]
 6799                             569             M_RTS
 6800 000004D4 000B                   M           RTS                             ;RTSの後ろの
 6801 000004D6 0009                   M           NOP                             ;@R15+,PRはﾀﾞﾒ
 6802                             570     
 6803                             571             .EXPORT _CB_100MSEC_TIME_CNT
 6804                                     ***** BEGIN-POOL *****
 6805 000004D8 00000000                   DATA FOR SOURCE-LINE 565
 6806                                     ***** END-POOL *****
 6807 000004DC                    572     _CB_100MSEC_TIME_CNT:
*** SuperH RISC engine ASSEMBLER V.7.01.02.000 ***    12/12/17 19:19:44                                                  PAGE    25
PROGRAM NAME =

 6808                             573             SUB_START
 6809 000004DC 4F22                   M           STS.L   PR,@-R15                ;[必要]
 6810                                 M   ;;;;;;; ADD     #-4,R15                 ;[不要?]
 6811                             574             DN_TIME LG=W,MEM_ADR=_PVX_AMPERR_TIM1   ,WKREG1=R1,WKREG2=R2    ;過負荷時間1
 6812 000004DE D10A                   M           MOV.L   #_PVX_AMPERR_TIM1,R1            ;SORCE ADRESS SET
 6813 000004E0 6211                   M           MOV.W   @R1,R2          ;
 6814 000004E2 2228                   M           TST     R2,R2                   ;
 6815 000004E4 8901                   M           BT      JMP_0100015                     ;ZERO THEN JUMP
 6816 000004E6 4210                   M           DT      R2                              ;
 6817 000004E8 2121                   M           MOV.W   R2,@R1          ;STORE
 6818 000004EA                        M   JMP_0100015:
 6819                             575             DN_TIME LG=W,MEM_ADR=_PVX_AMPERR_TIM2   ,WKREG1=R1,WKREG2=R2    ;過負荷時間2
 6820 000004EA D108                   M           MOV.L   #_PVX_AMPERR_TIM2,R1            ;SORCE ADRESS SET
 6821 000004EC 6211                   M           MOV.W   @R1,R2          ;
 6822 000004EE 2228                   M           TST     R2,R2                   ;
 6823 000004F0 8901                   M           BT      JMP_0100016                     ;ZERO THEN JUMP
 6824 000004F2 4210                   M           DT      R2                              ;
 6825 000004F4 2121                   M           MOV.W   R2,@R1          ;STORE
 6826 000004F6                        M   JMP_0100016:
 6827                             576             DN_TIME LG=W,MEM_ADR=_PVX_AMPERR_TIM3   ,WKREG1=R1,WKREG2=R2    ;過負荷時間3
 6828 000004F6 D106                   M           MOV.L   #_PVX_AMPERR_TIM3,R1            ;SORCE ADRESS SET
 6829 000004F8 6211                   M           MOV.W   @R1,R2          ;
 6830 000004FA 2228                   M           TST     R2,R2                   ;
 6831 000004FC 8901                   M           BT      JMP_0100017                     ;ZERO THEN JUMP
 6832 000004FE 4210                   M           DT      R2                              ;
 6833 00000500 2121                   M           MOV.W   R2,@R1          ;STORE
 6834 00000502                        M   JMP_0100017:
 6835                             577             SUB_END
 6836                                 M   ;;;;;;; ADD     #4,R15                  ;[不要?]
 6837 00000502 4F26                   M           LDS.L   @R15+,PR                ;[必要]
 6838                             578             M_RTS
 6839 00000504 000B                   M           RTS                             ;RTSの後ろの
 6840 00000506 0009                   M           NOP                             ;@R15+,PRはﾀﾞﾒ
 6841                             579     
 6842                             580     
 6843                             581     ;       ***********************************
 6844                             582     ;       ***                             ***
 6845                             583     ;       ***     二重回路信号ヤリトリ    ***
 6846                             584     ;       ***                             ***
 6847                             585     ;       ***********************************
 6848                             586             .GLOBAL _SQ_CBWK_TOP
 6849                             587     
 6850                             588             .IMPORT _CPUA_SV_STEP   ;2016-04-16二重回路対策]
 6851                             589             .IMPORT _CPUB_SV_STEP   ;2016-04-16[二重回路対策]
 6852                             590     
 6853                             591             .IMPORT _CPUA_DNM_DIR_SET       ;
 6854                             592             .IMPORT _CPUA_DNM_DIR_NOW       ;
 6855                             593             .IMPORT _CPUB_DNM_DIR_SET       ;
 6856                             594             .IMPORT _CPUB_DNM_DIR_NOW       ;
 6857                             595     
 6858                                     ***** BEGIN-POOL *****
 6859 00000508 00000000                   DATA FOR SOURCE-LINE 574
 6860 0000050C 00000000                   DATA FOR SOURCE-LINE 575
 6861 00000510 00000000                   DATA FOR SOURCE-LINE 576
 6862                                     ***** END-POOL *****
 6863 00000514                    596     _CPU_A_B_STS_IF:
 6864                             597             SUB_START
*** SuperH RISC engine ASSEMBLER V.7.01.02.000 ***    12/12/17 19:19:44                                                  PAGE    26
PROGRAM NAME =

 6865 00000514 4F22                   M           STS.L   PR,@-R15                ;[必要]
 6866                                 M   ;;;;;;; ADD     #-4,R15                 ;[不要?]
 6867                             598     
 6868                             599     ;       ========2016-04-16=========================
 6869                             600             .AIF    0 EQ    0
 6870 00000516 D612               601 C           MOV.L   #_CPUA_SV_STEP,R6               ;
 6871 00000518 D712               602 C           MOV.L   #_CPUA_DNM_DIR_SET,R7   ;
 6872 0000051A D813               603 C           MOV.L   #_CPUA_DNM_DIR_NOW,R8   ;
 6873                             604             .AELSE
 6874                             605             MOV.L   #_CPUB_SV_STEP,R6               ;
 6875                             606             MOV.L   #_CPUB_DNM_DIR_SET,R7   ;
 6876                             607             MOV.L   #_CPUB_DNM_DIR_NOW,R8   ;
 6877                             608             .AENDI
 6878                             609     
 6879 0000051C D113               610             MOV.L   #_SV_POS_CTL_STEP,R1            ;出力
 6880 0000051E 6011               611             MOV.W   @R1,R0                          ;
 6881 00000520 2601               612             MOV.W   R0,@R6                          ;
 6882                             613     
 6883 00000522 D113               614             MOV.L   #_DNM_DIR_SET_FLG,R1            ;//
 6884 00000524 6011               615             MOV.W   @R1,R0                          ;
 6885 00000526 2701               616             MOV.W   R0,@R7                          ;
 6886                             617     
 6887 00000528 D112               618             MOV.L   #_DNM_DIR_NOW_FLG,R1            ;//
 6888 0000052A 6011               619             MOV.W   @R1,R0                          ;
 6889 0000052C 2801               620             MOV.W   R0,@R8                          ;
 6890                             621     
 6891                             622     
 6892                             623     
 6893                             624     
 6894                             625             .AIF    0 EQ    0
 6895 0000052E D612               626 C           MOV.L   #_SH4_STEP_NO,R6                ;
 6896 00000530 D712               627 C           MOV.L   #_SH4_POS_STS1,R7               ;上記信号 SH4==> WRITE SH2 ==>BIT7 CLR
 6897 00000532 D813               628 C           MOV.L   #_SH4_CMP_STS1,R8               ;(二重化異常信号 203同様      生)
 6898 00000534 D913               629 C           MOV.L   #_SH4_CMP_STS2,R9               ;(二重化異常信号 BIT0位置決中 生)
 6899                             630             .AELSE
 6900                             631             MOV.L   #_SH2_STEP_NO,R6                ;工程二重回路ﾁｪｯｸ用
 6901                             632             MOV.L   #_SH2_POS_STS1,R7               ;上記信号 SH2==> WRITE SH4 ==>BIT7 CLR
 6902                             633             MOV.L   #_SH2_CMP_STS1,R8               ;(二重化異常信号 273同様      生)
 6903                             634             MOV.L   #_SH2_CMP_STS2,R9               ;(二重化異常信号 BIT8位置決中 生)
 6904                             635             .AENDI
 6905 00000536 D114               636             MOV.L   #_INT_POS_CTL_STEP,R1           ;
 6906 00000538 6011               637             MOV.W   @R1,R0                          ;
 6907 0000053A 2602               638             MOV.L   R0,@R6                          ;SH4/2 STEP_NO
 6908                             639     
 6909 0000053C D113               640             MOV.L   #_dq1_cb_out1,R1                ;
 6910 0000053E 6011               641             MOV.W   @R1,R0                          ;
 6911 00000540 2801               642             MOV.W   R0,@R8                          ;CMP_STS1
 6912                             643     
 6913                             644     
 6914 00000542 200A               645             XOR     R0,R0                           ;
 6915                             646     ;               0000,0000:IDEL()
 6916                             647     ;                       BIT0:(INITAL完了)
 6917                             648     ;                             BIT0=1で払いﾃﾞｰﾀ作成,起動中
 6918                             649     ;                       BIT2:減速停止ﾗｯﾁ(払出停止待ち)
 6919                             650     ;                       BIT3:急停止ﾗｯﾁ(払出停止待ち)
 6920                             651     ;                       BIT4:
 6921                             652     ;                       BIT6:位置決め完了(ﾆｱｾﾞﾛ)--->IDELへ
*** SuperH RISC engine ASSEMBLER V.7.01.02.000 ***    12/12/17 19:19:44                                                  PAGE    27
PROGRAM NAME =

 6922                             653     
 6923 00000544 D112               654             MOV.L   #_DRV_ACT_FLG,R1                ;//運転動作ﾌﾗｸﾞ BIT0:運転中
 6924 00000546 6011               655             MOV.W   @R1,R0                          ;
 6925 00000548 C901               656             AND     #BIT0,R0                        ;
 6926                             657     
 6927                             658     
 6928 0000054A D112               659             MOV.L   #_INT_POS_STEP_FLG,R1           ;
 6929 0000054C 6211               660             MOV.W   @R1,R2                          ;BIT0==>BIT8
 6930 0000054E 622C               661             EXTU.B  R2,R2                           ;
 6931 00000550 6228               662             SWAP.B  R2,R2                           ;
 6932 00000552 202B               663             OR      R2,R0                           ;
 6933                             664     
 6934                             665     ;;;;;2012-10-01 MOV.L   #_SQ_CBWK_TOP+_WKSQCB232,R4     ;
 6935                             666     ;;;;;2012-10-01 MOV.W   R0,@R4                          ;上記信号 SH2==> WRITE SH4 ==>BIT7
                                           CLR
 6936 00000554 2701               667             MOV.W   R0,@R7                          ;
 6937 00000556 2901               668             MOV.W   R0,@R9                          ;(二重化異常信号 BIT8位置決中 生)
 6938                             669     
 6939                             670     ;       -------------------------------------
 6940                             671     ;;;;2016-10-31  MOV.L   #_SQ_CBWK_TOP+_WKSQCB254,R4     ;
 6941                             672     ;;;;2016-10-31          MOV.W   R0,@R4                          ;
 6942                             673     
 6943                             674             SUB_END
 6944                                 M   ;;;;;;; ADD     #4,R15                  ;[不要?]
 6945 00000558 4F26                   M           LDS.L   @R15+,PR                ;[必要]
 6946                             675             M_RTS
 6947 0000055A 000B                   M           RTS                             ;RTSの後ろの
 6948 0000055C 0009                   M           NOP                             ;@R15+,PRはﾀﾞﾒ
 6949                             676     
 6950                             677     ;       *******************************************
 6951                             678     ;       ***                                     ***
 6952                             679     ;       ***     相手cpu情報の出力情報を読み出す ***
 6953                             680     ;       ***     2015-03-15                      ***
 6954                             681     ;       *******************************************
 6955                             682     ;       ans R0
 6956                             683             .EXPORT _API_OTHET_CPU_LOAD_cb_out1
 6957                                     ***** BEGIN-POOL *****
 6958 0000055E 0000                       ALIGNMENT CODE
 6959 00000560 00000000                   DATA FOR SOURCE-LINE 601
 6960 00000564 00000000                   DATA FOR SOURCE-LINE 602
 6961 00000568 00000000                   DATA FOR SOURCE-LINE 603
 6962 0000056C 00000000                   DATA FOR SOURCE-LINE 610
 6963 00000570 00000000                   DATA FOR SOURCE-LINE 614
 6964 00000574 00000000                   DATA FOR SOURCE-LINE 618
 6965 00000578 00000000                   DATA FOR SOURCE-LINE 626
 6966 0000057C 00000000                   DATA FOR SOURCE-LINE 627
 6967 00000580 00000000                   DATA FOR SOURCE-LINE 628
 6968 00000584 00000000                   DATA FOR SOURCE-LINE 629
 6969 00000588 00000000                   DATA FOR SOURCE-LINE 636
 6970 0000058C 00000000                   DATA FOR SOURCE-LINE 640
 6971 00000590 00000000                   DATA FOR SOURCE-LINE 654
 6972 00000594 00000000                   DATA FOR SOURCE-LINE 659
 6973                                     ***** END-POOL *****
 6974 00000598                    684     _API_OTHET_CPU_LOAD_cb_out1
 6975                             685             SUB_START
 6976 00000598 4F22                   M           STS.L   PR,@-R15                ;[必要]
 6977                                 M   ;;;;;;; ADD     #-4,R15                 ;[不要?]
*** SuperH RISC engine ASSEMBLER V.7.01.02.000 ***    12/12/17 19:19:44                                                  PAGE    28
PROGRAM NAME =

 6978                             686             .AIF    0 EQ    0
 6979 0000059A D102               687 C           MOV.L   #_SH2_CMP_STS1,R1               ;(二重化異常信号 273同様      生)
 6980                             688             .AELSE                                  ;
 6981                             689             MOV.L   #_SH4_CMP_STS1,R1               ;(二重化異常信号 203同様      生)
 6982                             690             .AENDI                                  ;
 6983 0000059C 6011               691             MOV.W   @R1,R0                          ;
 6984                             692     
 6985                             693             SUB_END
 6986                                 M   ;;;;;;; ADD     #4,R15                  ;[不要?]
 6987 0000059E 4F26                   M           LDS.L   @R15+,PR                ;[必要]
 6988                             694             M_RTS
 6989 000005A0 000B                   M           RTS                             ;RTSの後ろの
 6990 000005A2 0009                   M           NOP                             ;@R15+,PRはﾀﾞﾒ
 6991                             695     
 6992                             696     ;       *******************************************
 6993                             697     ;       ***                                     ***
 6994                             698     ;       ***     2013-07-22                      ***
 6995                             699     ;       ***                                     ***
 6996                             700     ;       ***                                     ***
 6997                             701     ;       *******************************************
 6998                             702     ;;まだやらない_SILD_SIG_MAK
 6999                             703     ;;まだやらない  SUB_START
 7000                             704     ;;まだやらない  XOR     R2,R2                   ;
 7001                             705     ;;まだやらない  MOV.L   #_emg_err_flg,R1        ;//異常ﾗｯﾁ
 7002                             706     ;;まだやらない  MOV.W   @R1,R0                  ;
 7003                             707     ;;まだやらない  TST     R0,R0                   ;
 7004                             708     ;;まだやらない  TST_BIT_OF SILD_SIGMAK_END      ;
 7005                             709     ;;まだやらない
 7006                             710     ;;まだやらない  MOV.L   #_CB_SEQ_CB_SEL341,R1           ;341
 7007                             711     ;;まだやらない  MOV.W   @R1,R0                          ;
 7008                             712     ;;まだやらない  TST     #BIT3,R0                        ;
 7009                             713     ;;まだやらない  TST_BIT_OF SILD_SIGMAK_END
 7010                             714     ;;まだやらない
 7011                             715     ;;まだやらない
 7012                             716     ;;まだやらない  MOV.L   #_EMG_SCANCUT_FLG,R1    ;
 7013                             717     ;;まだやらない  MOV.W   @R1,R0                  ;BIT0･･1/2ｽｷｬﾝ
 7014                             718     ;;まだやらない  ADD     #1,R0                   ;BIT1･･1/4
 7015                             719     ;;まだやらない  AND     #H'0F,R0                        ;
 7016                             720     ;;まだやらない  MOV     R0,R2                   ;
 7017                             721     ;;まだやらない
 7018                             722     ;;まだやらない
 7019                             723     ;;まだやらないSILD_SIGMAK_END
 7020                             724     ;;まだやらない  MOV.L   #_EMG_SCANCUT_FLG,R1    ;
 7021                             725     ;;まだやらない  MOV.W   R2,@R1                  ;
 7022                             726     ;;まだやらない
 7023                             727     ;;まだやらない  SUB_END
 7024                             728     ;;まだやらない  M_RTS
 7025                             729     
 7026                             730     
 7027                             731     ;       *******************************************
 7028                             732     ;       ***                                     ***
 7029                             733     ;       ***     cpubのｽｷｬﾝ時間測定              ***
 7030                             734     ;       ***     CPUAが測定する                  ***
 7031                             735     ;       *******************************************
 7032                             736             .AIF    0 EQ    0
 7033                             737 C   ;_CPU_MAIN_SCAN_CALC    ;
 7034                             738 C           .INCLUDE        "ssa_scantim.inc"               ; //
*** SuperH RISC engine ASSEMBLER V.7.01.02.000 ***    12/12/17 19:19:44                                                  PAGE    29
PROGRAM NAME =

 7035                               1 I1  ;       *******************************************
 7036                               2 I1  ;       ***                                     ***
 7037                               3 I1  ;       ***                                     ***
 7038                               4 I1  ;       ***                                     ***
 7039                               5 I1  ;       ***                                     ***
 7040                               6 I1  ;       ***                                     ***
 7041                               7 I1  ;       *******************************************
 7042                               8 I1  ;       max
 7043                               9 I1  ;       SET-UP　ﾚﾍﾞﾙ+RESET
 7044                              10 I1  
 7045                              11 I1          .IMPORT _IDO_BUF_SRC2B_TOTAL_4B_CAL
 7046                              12 I1          .IMPORT _SH2_MAIN_CLK
 7047                              13 I1          .IMPORT _SH2_SCAN_REALMAX       ;F2
 7048                              14 I1          .IMPORT _SH2_SCAN_AVLMAX        ;F4
 7049                              15 I1          .IMPORT _SH2_SCAN_AVLPV         ;F6
 7050                              16 I1  
 7051                                 I1  ***** BEGIN-POOL *****
 7052 000005A4 00000000               I1  DATA FOR SOURCE-LINE 687
 7053                                 I1  ***** END-POOL *****
 7054 000005A8                     17 I1  _CPU_MAIN_SCAN_CALC:
 7055                              18 I1          SUB_START
 7056 000005A8 4F22                   M           STS.L   PR,@-R15                ;[必要]
 7057                                 M   ;;;;;;; ADD     #-4,R15                 ;[不要?]
 7058                              19 I1  
 7059 000005AA D124                20 I1          MOV.L   #_SCAN_TIM_IN,R1                ;
 7060 000005AC 6011                21 I1          MOV.W   @R1,R0                          ;
 7061 000005AE 7001                22 I1          ADD     #1,R0                           ;
 7062 000005B0 2101                23 I1          MOV.W   R0,@R1                          ;
 7063                              24 I1  
 7064                              25 I1  
 7065 000005B2 D523                26 I1          MOV.L   #_SH2_MAIN_CLK,R5               ;CPUB
 7066                              27 I1  ;;;;;   MOV.L   #_MAIN_CLK,R5                   ;CPUA
 7067                              28 I1  
 7068 000005B4 6051                29 I1          MOV.W   @R5,R0                          ;
 7069 000005B6 D623                30 I1          MOV.L   #_CHK_CLK_SIG,R6                ;
 7070 000005B8 6261                31 I1          MOV.W   @R6,R2                          ;
 7071 000005BA 2601                32 I1          MOV.W   R0,@R6                          ;
 7072                              33 I1  
 7073 000005BC 202A                34 I1          XOR     R2,R0                           ;
 7074 000005BE C801                35 I1          TST     #BIT0,R0                        ;
 7075                              36 I1          TST_BIT_OF CPU_MAIN_SCANCAL300          ;
 7076 000005C0 891D                   M           BT      CPU_MAIN_SCANCAL300
 7077                              37 I1  
 7078 000005C2 D11E                38 I1          MOV.L   #_SCAN_TIM_IN,R1                ;
 7079 000005C4 6211                39 I1          MOV.W   @R1,R2                          ;
 7080 000005C6 D320                40 I1          MOV.L   #_WPV_SCAN_TIM_REAL,R3          ;[REAL]
 7081 000005C8 2321                41 I1          MOV.W   R2,@R3                          ;
 7082 000005CA 200A                42 I1          XOR     R0,R0                           ;
 7083 000005CC 2101                43 I1          MOV.W   R0,@R1                          ;TIM CLR
 7084                              44 I1  
 7085 000005CE D51F                45 I1          MOV.L   #_SCAN_TIM_TOTAL,R5             ;
 7086 000005D0 D01F                46 I1          MOV.L   #_SCAN_TIM_IDOBUF,R0            ;//
 7087 000005D2 D320                47 I1          MOV.L   #_SCAN_TIM_POINT,R3             ;
 7088 000005D4 9430                48 I1          MOV.W   #D'10,R4                        ;平均個数 MAX
 7089                              49 I1          FAR_JSR #_IDO_BUF_SRC2B_TOTAL_4B_CAL,R1 ;
 7090 000005D6 D120                   M           MOV.L   #_IDO_BUF_SRC2B_TOTAL_4B_CAL,R1         ;ﾃｰﾌﾞﾙｱﾄﾞﾚｽの内容をREGへ
 7091 000005D8 410B                   M           JSR     @R1                     ;
*** SuperH RISC engine ASSEMBLER V.7.01.02.000 ***    12/12/17 19:19:44                                                  PAGE    30
PROGRAM NAME =

 7092 000005DA 0009                   M           NOP                                     ;
 7093 000005DC D11F                50 I1          MOV.L   #_WPV_SCAN_TIM_AVL,R1           ;[AVL]
 7094 000005DE 2121                51 I1          MOV.W   R2,@R1                          ;
 7095                              52 I1  
 7096                              53 I1  
 7097                              54 I1  
 7098 000005E0 D119                55 I1          MOV.L   #_WPV_SCAN_TIM_REAL,R1          ;[REAL]
 7099 000005E2 6211                56 I1          MOV.W   @R1,R2                          ;
 7100 000005E4 D11E                57 I1          MOV.L   #_WPV_SCAN_MAX01,R1             ;
 7101 000005E6 6011                58 I1          MOV.W   @R1,R0                          ;
 7102 000005E8 3022                59 I1          CMP/HS  R2,R0                           ;R2=<R0
 7103 000005EA 8900                60 I1          BT      CPU_MAIN_SCANCAL100             ;
 7104 000005EC 2121                61 I1          MOV.W   R2,@R1                          ;
 7105 000005EE                     62 I1  CPU_MAIN_SCANCAL100:
 7106                              63 I1  
 7107 000005EE D11B                64 I1          MOV.L   #_WPV_SCAN_TIM_AVL,R1           ;[AVL]
 7108 000005F0 6211                65 I1          MOV.W   @R1,R2                          ;
 7109 000005F2 D11C                66 I1          MOV.L   #_WPV_SCAN_MAX10,R1             ;
 7110 000005F4 6011                67 I1          MOV.W   @R1,R0                          ;
 7111 000005F6 3022                68 I1          CMP/HS  R2,R0                           ;R2=<R0
 7112 000005F8 8900                69 I1          BT      CPU_MAIN_SCANCAL200             ;
 7113 000005FA 2121                70 I1          MOV.W   R2,@R1                          ;
 7114 000005FC                     71 I1  CPU_MAIN_SCANCAL200:
 7115 000005FC 0009                72 I1          NOP
 7116 000005FE                     73 I1  CPU_MAIN_SCANCAL300:
 7117                              74 I1  
 7118 000005FE D11A                75 I1          MOV.L   #_di1_cb_ctl1_on,R1                     ;//
 7119 00000600 6011                76 I1          MOV.W   @R1,R0                                  ;(ｴｯｼﾞの場合,まだｼｰｹﾝｽからのEMG指
                                          令はOFFしない)
 7120 00000602 941A                77 I1          MOV.W   #_W1RST,R4                              ;ﾘｾｯﾄ釦
 7121 00000604 2048                78 I1          TST     R4,R0                                   ;
 7122                              79 I1          TST_BIT_OF CPU_MAIN_SCANCAL400                  ;
 7123 00000606 8904                   M           BT      CPU_MAIN_SCANCAL400
 7124                              80 I1  
 7125 00000608 200A                81 I1          XOR     R0,R0                           ;
 7126 0000060A D115                82 I1          MOV.L   #_WPV_SCAN_MAX01,R1             ;
 7127 0000060C 2101                83 I1          MOV.W   R0,@R1                          ;
 7128 0000060E D115                84 I1          MOV.L   #_WPV_SCAN_MAX10,R1             ;
 7129 00000610 2101                85 I1          MOV.W   R0,@R1                          ;
 7130                              86 I1  
 7131                              87 I1  
 7132                              88 I1  
 7133 00000612                     89 I1  CPU_MAIN_SCANCAL400:
 7134                              90 I1  
 7135 00000612 D113                91 I1          MOV.L   #_WPV_SCAN_MAX01,R1             ;
 7136 00000614 6211                92 I1          MOV.W   @R1,R2                          ;
 7137 00000616 D115                93 I1          MOV.L   #_SH2_SCAN_REALMAX,R1           ;
 7138 00000618 2121                94 I1          MOV.W   R2,@R1                          ;
 7139                              95 I1  
 7140 0000061A D112                96 I1          MOV.L   #_WPV_SCAN_MAX10,R1             ;
 7141 0000061C 6211                97 I1          MOV.W   @R1,R2                          ;
 7142 0000061E D114                98 I1          MOV.L   #_SH2_SCAN_AVLMAX,R1            ;F4
 7143 00000620 2121                99 I1          MOV.W   R2,@R1                          ;
 7144                             100 I1  
 7145 00000622 D10E               101 I1          MOV.L   #_WPV_SCAN_TIM_AVL,R1           ;[AVL]
 7146 00000624 6211               102 I1          MOV.W   @R1,R2                          ;
 7147 00000626 D113               103 I1          MOV.L   #_SH2_SCAN_AVLPV,R1             ;F6
*** SuperH RISC engine ASSEMBLER V.7.01.02.000 ***    12/12/17 19:19:44                                                  PAGE    31
PROGRAM NAME =

 7148 00000628 2121               104 I1          MOV.W   R2,@R1                          ;
 7149                             105 I1  
 7150                             106 I1  ;       ------------- DEBUG ----------
 7151 0000062A D606               107 I1          MOV.L   #_CHK_CLK_SIG,R6                ;
 7152 0000062C 6261               108 I1          MOV.W   @R6,R2                          ;
 7153 0000062E D612               109 I1          MOV.L   #(_SQ_CBWK_TOP+_WKSQCB240),R6   ;
 7154 00000630 2621               110 I1          MOV.W   R2,@R6                          ; SEQ SET
 7155                             111 I1  
 7156                             112 I1          SUB_END
 7157                                 M   ;;;;;;; ADD     #4,R15                  ;[不要?]
 7158 00000632 4F26                   M           LDS.L   @R15+,PR                ;[必要]
 7159                             113 I1          M_RTS
 7160 00000634 000B                   M           RTS                             ;RTSの後ろの
 7161 00000636 0009                   M           NOP                             ;@R15+,PRはﾀﾞﾒ
 7162                             114 I1  
 7163                             739             .AENDI
 7164                             740     
 7165                             741     
 7166                             742     
 7167                                     ***** BEGIN-POOL *****
 7168 00000638 000A                       DATA FOR SOURCE-LINE 48
 7169 0000063A 8000                       DATA FOR SOURCE-LINE 77
 7170 0000063C 00000000                   DATA FOR SOURCE-LINE 20,38
 7171 00000640 00000000                   DATA FOR SOURCE-LINE 26
 7172 00000644 00000000                   DATA FOR SOURCE-LINE 30,107
 7173 00000648 00000000                   DATA FOR SOURCE-LINE 40,55
 7174 0000064C 00000000                   DATA FOR SOURCE-LINE 45
 7175 00000650 00000000                   DATA FOR SOURCE-LINE 46
 7176 00000654 00000000                   DATA FOR SOURCE-LINE 47
 7177 00000658 00000000                   DATA FOR SOURCE-LINE 49
 7178 0000065C 00000000                   DATA FOR SOURCE-LINE 50,64,101
 7179 00000660 00000000                   DATA FOR SOURCE-LINE 57,82,91
 7180 00000664 00000000                   DATA FOR SOURCE-LINE 66,84,96
 7181 00000668 00000000                   DATA FOR SOURCE-LINE 75
 7182 0000066C 00000000                   DATA FOR SOURCE-LINE 93
 7183 00000670 00000000                   DATA FOR SOURCE-LINE 98
 7184 00000674 00000000                   DATA FOR SOURCE-LINE 103
 7185 00000678 00000000                   DATA FOR SOURCE-LINE 109
 7186                                     ***** END-POOL *****
 7187                             743             .END
  *****TOTAL ERRORS       0
  *****TOTAL WARNINGS     0
*** SuperH RISC engine ASSEMBLER V.7.01.02.000 ***    12/12/17 19:19:44                                                  PAGE    32

*** CROSS REFERENCE LIST

NAME                             SECTION  ATTR VALUE             SEQUENCE

BIT0                                      EQU  00000001     15* 2027  2331  2346  6690  6925  7074 
BIT1                                      EQU  00000002     16* 2028  2332  2347 
BIT10                                     EQU  00000400     25* 2357 
BIT11                                     EQU  00000800     26* 2358 
BIT12                                     EQU  00001000     27* 2363 
BIT13                                     EQU  00002000     28* 2364 
BIT14                                     EQU  00004000     29* 2365 
BIT15                                     EQU  00008000     30* 2366 
BIT16                                     EQU  00010000     31*
BIT17                                     EQU  00020000     32*
BIT18                                     EQU  00040000     33*
BIT19                                     EQU  00080000     34*
BIT2                                      EQU  00000004     17* 2029  2333  2348  2368 
BIT20                                     EQU  00100000     35*
BIT21                                     EQU  00200000     36*
BIT22                                     EQU  00400000     37*
BIT23                                     EQU  00800000     38*
BIT24                                     EQU  01000000     39*
BIT25                                     EQU  02000000     40*
BIT26                                     EQU  04000000     41*
BIT27                                     EQU  08000000     42*
BIT28                                     EQU  10000000     43*
BIT29                                     EQU  20000000     44*
BIT3                                      EQU  00000008     18* 2030  2334  2349  2369 
BIT30                                     EQU  40000000     45*
BIT31                                     EQU  80000000     46*
BIT4                                      EQU  00000010     19* 2335  2350  2370 
BIT5                                      EQU  00000020     20* 2336  2351  2371  5859  5875 
BIT6                                      EQU  00000040     21* 2337  2352  2372 
BIT7                                      EQU  00000080     22* 2338  2353  2373 
BIT8                                      EQU  00000100     23* 2339  2354 
BIT9                                      EQU  00000200     24* 2340  2355 
CB_INT_CNT010MS_050              P             00000326   6397  6412*
CB_INT_CNT100MS_050              P             00000344   6426  6434*
CB_INT_MNJMP_100                 P             00000124   5991  6008*
CB_INT_MNJMP_200                 P             0000022C   6184  6215*
CB_INT_MNJMP_250                 P             00000278   6255  6268*
CB_INT_MNJMP_300                 P             00000308   6362  6383*
CB_INT_MNORG_050                 P             000000C4   5920  5931*
CB_INT_MN_0050                   P             0000005A   5855  5867*
CB_INT_MN_0100                   P             00000074   5871  5883*
CB_INT_MN_0110                   P             00000094   5885  5897*
CB_INT_MN_0150                   P             000000AC   5907  5913*
CB_TIME_CYCL50                   P             0000044E   6692  6702*
CPUB_SCAN_100                    P             00000188   6111*
CPUB_SCAN_200                    P             000001B0   6150*
CPUB_SCAN_300                    P             000001C6   6177*
CPUB_SCAN_500                    P             000002A0   6313*
CPUB_SCAN_600                    P             0000035C   6469*
CPU_MAIN_SCANCAL100              P             000005EE   7103  7105*
CPU_MAIN_SCANCAL200              P             000005FC   7112  7114*
CPU_MAIN_SCANCAL300              P             000005FE   7076  7116*
CPU_MAIN_SCANCAL400              P             00000612   7123  7133*
H_BYTE                                    EQU  00000000     82*
*** SuperH RISC engine ASSEMBLER V.7.01.02.000 ***    12/12/17 19:19:44                                                  PAGE    33

*** CROSS REFERENCE LIST

NAME                             SECTION  ATTR VALUE             SEQUENCE

JMP_0100000                      P             00000314   6389  6392*
JMP_0100001                      P             00000332   6418  6421*
JMP_0100002                      P             000003FE   6626  6629*
JMP_0100003                      P             0000040A   6636  6639*
JMP_0100004                      P             00000416   6644  6647*
JMP_0100005                      P             00000422   6665  6668*
JMP_0100006                      P             0000042E   6673  6676*
JMP_0100007                      P             0000043A   6681  6684*
JMP_0100008                      P             0000044E   6699  6701*
JMP_0100009                      P             0000045A   6709  6712*
JMP_0100010                      P             00000466   6718  6721*
JMP_0100011                      P             00000472   6729  6732*
JMP_0100012                      P             0000047E   6739  6742*
JMP_0100013                      P             0000048A   6752  6755*
JMP_0100014                      P             000004D2   6790  6793*
JMP_0100015                      P             000004EA   6815  6818*
JMP_0100016                      P             000004F6   6823  6826*
JMP_0100017                      P             00000502   6831  6834*
L_BYTE                                    EQU  00000001     81*
NBIT0                                     EQU  000000FE     49*
NBIT1                                     EQU  000000FD     50*
NBIT10                                    EQU  0000FBFF     60*
NBIT11                                    EQU  0000F7FF     61*
NBIT12                                    EQU  0000EFFF     62*
NBIT13                                    EQU  0000DFFF     63*
NBIT14                                    EQU  0000BFFF     64*
NBIT15                                    EQU  00007FFF     65*
NBIT2                                     EQU  000000FB     51*
NBIT3                                     EQU  000000F7     52*
NBIT4                                     EQU  000000EF     53*
NBIT5                                     EQU  000000DF     54*
NBIT6                                     EQU  000000BF     55*
NBIT7                                     EQU  0000007F     56*
NBIT8                                     EQU  0000FEFF     58*
NBIT9                                     EQU  0000FDFF     59*
P                                P        SCT  00000000   5460*
XBIT0                                     EQU  00000000     68*
XBIT1                                     EQU  00000001     69*
XBIT2                                     EQU  00000002     70*
XBIT3                                     EQU  00000003     71*
XBIT4                                     EQU  00000004     72*
XBIT5                                     EQU  00000005     73*
XBIT6                                     EQU  00000006     74*
XBIT7                                     EQU  00000007     75*
_ABS_ENC_PLS_SPD                          IMPT 00000000   3423 
_ABS_OUT_PLS_SPD                          IMPT 00000000   3433 
_ACCERR_ACC_HENSA                         IMPT 00000000   4440 
_ACCERR_ACC_OBJ                           IMPT 00000000   4439 
_ACCERR_ACC_PV                            IMPT 00000000   4438 
_ACCERR_DLY_PV_TIM                        IMPT 00000000   4449 
_ACCERR_ERR_CNT                           IMPT 00000000   4441 
_ACCESS_ERR1                              IMPT 00000000   3519 
_ACC_MONITOR_DAT1                         IMPT 00000000   4252 
_ACC_MONITOR_DAT2                         IMPT 00000000   4253 
*** SuperH RISC engine ASSEMBLER V.7.01.02.000 ***    12/12/17 19:19:44                                                  PAGE    34

*** CROSS REFERENCE LIST

NAME                             SECTION  ATTR VALUE             SEQUENCE

_ACC_MONITOR_DAT3                         IMPT 00000000   4254 
_ACC_MONITOR_DAT4                         IMPT 00000000   4255 
_ACC_MONITOR_DAT5                         IMPT 00000000   4256 
_ACC_MONITOR_DAT6                         IMPT 00000000   4257 
_ACC_MONITOR_DAT7                         IMPT 00000000   4258 
_ACC_MONITOR_DAT8                         IMPT 00000000   4259 
_ACC_REST_ABS_PLS                         IMPT 00000000   4209 
_ACC_REST_FLG                             IMPT 00000000   4210 
_ANTI_OF                                  IMPT 00000000   5482 
_ANTI_ON                                  IMPT 00000000   5481 
_API_OTHET_CPU_LOAD_cb_out1      P        EXPT 00000598   6956  6974*
_AUTO_OF                                  IMPT 00000000   5484 
_AUTO_ON                                  IMPT 00000000   5483 
_BANK1_CALC_ROT_NUM_ZR                    IMPT 00000000   3666 
_BANK1_LK_END_OBJ_ABSPLS                  IMPT 00000000   3659 
_BANK2_LINK_OBJROT_NUMPLS_ZR              IMPT 00000000   3664 
_BANK2_LINK_OBJROT_NUM_ZR                 IMPT 00000000   3663 
_BANK2_LK_END_OBJ_ABSPLS                  IMPT 00000000   3660 
_BASE_TIM010MS                            IMPT 00000000   2481  6386  6393 
_BASE_TIM100MS                            IMPT 00000000   2482  6415  6422 
_BBN_MESURE_DLY_POINT                     IMPT 00000000   4425 
_BBN_MESURE_DLY_SSPD                      IMPT 00000000   4424 
_BBN_MESURE_POINT                         IMPT 00000000   4419 
_BBN_MESURE_PPOS_BUF                      IMPT 00000000   4409 
_BBN_MESURE_PSPD                          IMPT 00000000   4411 
_BBN_MESURE_PSPD_BUF                      IMPT 00000000   4410 
_BBN_MESURE_SPOS_BUF                      IMPT 00000000   4405 
_BBN_MESURE_SSPD                          IMPT 00000000   4407 
_BBN_MESURE_SSPD_BUF                      IMPT 00000000   4406 
_BBN_MESURE_SSPD_DLYBUF                   IMPT 00000000   4423 
_BBN_MEUSRE_PV_ACC                        IMPT 00000000   4417 
_BBN_MEUSRE_PV_ACC_SRC                    IMPT 00000000   4414 
_BBN_MEUSRE_SV_ACC                        IMPT 00000000   4416 
_BBN_MEUSRE_SV_ACC_SRC                    IMPT 00000000   4413 
_BBN_SET_TIME                             IMPT 00000000   4420 
_BIBUN_DATA_MAKE                          IMPT 00000000   6472  6474 
_BKTMCL_ACCDAT                            IMPT 00000000   4611 
_BKTMCL_ACCDAT_UNIT                       IMPT 00000000   4612 
_BKTMCL_ACCPOINT                          IMPT 00000000   4614 
_BKTMCL_BBNFLT_TIMPV                      IMPT 00000000   4628 
_BKTMCL_BRKSTP_SPD                        IMPT 00000000   4636 
_BKTMCL_BRKSTR_SPD                        IMPT 00000000   4635 
_BKTMCL_BRKSTX_SPD                        IMPT 00000000   4641 
_BKTMCL_BRKSTX_TIMPV                      IMPT 00000000   4642 
_BKTMCL_BRKSTX_TIMSV                      IMPT 00000000   4643 
_BKTMCL_BRK_TIMPV                         IMPT 00000000   4638 
_BKTMCL_BRX_AREA_IN                       IMPT 00000000   4646 
_BKTMCL_BRX_AREA_INLT                     IMPT 00000000   4647 
_BKTMCL_ENC_DIR                           IMPT 00000000   4619 
_BKTMCL_OLD_PLSPOS                        IMPT 00000000   4618 
_BKTMCL_POINTMAX                          IMPT 00000000   4615 
_BKTMCL_SETX_TMDEF                        IMPT 00000000   4630 
_BKTMCL_SPDBUF                            IMPT 00000000   4610 
_BKTMCL_STOP_SPD                          IMPT 00000000   4634 
*** SuperH RISC engine ASSEMBLER V.7.01.02.000 ***    12/12/17 19:19:44                                                  PAGE    35

*** CROSS REFERENCE LIST

NAME                             SECTION  ATTR VALUE             SEQUENCE

_BKTMCL_STOP_TIMPV                        IMPT 00000000   4627 
_BKTMCL_TMDEF_PV                          IMPT 00000000   4629 
_BKTMCL_TMSTEP_FLG                        IMPT 00000000   4623 
_BKTMCL_TMSTEP_STS                        IMPT 00000000   4624 
_BKTMCL_TOTAL_TIMPV                       IMPT 00000000   4626 
_BRK1_CAL_DN_ACC                          IMPT 00000000   3412 
_BRK1_CHKDLY_TM                           IMPT 00000000   3400 
_BRK1_GEN_PV_ACCTM                        IMPT 00000000   3408 
_BRK1_GEN_PV_DLYTM                        IMPT 00000000   3407 
_BRK1_GEN_SV_ACCTM                        IMPT 00000000   3406 
_BRK1_GEN_SV_DLYTM                        IMPT 00000000   3405 
_BRK1_GEN_SV_FRQ1                         IMPT 00000000   3403 
_BRK1_GEN_SV_FRQ2                         IMPT 00000000   3404 
_BRK1_SV_DN_ACC                           IMPT 00000000   3411 
_BRK2_CHKDLY_TM                           IMPT 00000000   3401 
_BRK2_SV_DN_ACC                           IMPT 00000000   3413 
_BRKTMCAL_MAIN                            IMPT 00000000   5717  6324 
_BRKTST_AREA_SIG                          IMPT 00000000   4150 
_BRKTST_BAKUP_FLG_PV1                     IMPT 00000000   4160 
_BRKTST_BAKUP_FLG_PV2                     IMPT 00000000   4161 
_BRKTST_BAKUP_FLG_SV1                     IMPT 00000000   4158 
_BRKTST_BAKUP_FLG_SV2                     IMPT 00000000   4159 
_BRKTST_CHKSPD_PLS                        IMPT 00000000   4140 
_BRKTST_CLNK_UP_POS_DN                    IMPT 00000000   4153 
_BRKTST_CLNK_UP_POS_UP                    IMPT 00000000   4152 
_BRKTST_INPUT_CMD                         IMPT 00000000   4143 
_BRKTST_LINK_UP_POS_DN                    IMPT 00000000   4155 
_BRKTST_LINK_UP_POS_UP                    IMPT 00000000   4154 
_BRKTST_MOD_FLG                           IMPT 00000000   4138 
_BRKTST_OUTSPD_PLS                        IMPT 00000000   4139 
_BRKTST_STP_ABSPLS                        IMPT 00000000   4147 
_BRKTST_STR_FLG                           IMPT 00000000   4148 
_BRKTST_SW_IN                             IMPT 00000000   4149 
_BRK_CHK_COM                              IMPT 00000000   3397 
_BRK_CHK_FLG                              IMPT 00000000   3398 
_BTTN_FLG                                 IMPT 00000000   2549 
_BTTN_ON_TIME                             IMPT 00000000   3689 
_BVLV_CTL_FLG                             IMPT 00000000   4797 
_BVLV_CTL_ON                              IMPT 00000000   4798 
_BVLV_START_IN                            IMPT 00000000   4801 
_CALC_FULCLS_MXPLS                        IMPT 00000000   3170 
_CALC_MEM_1REV_ML_NROT_ML36               IMPT 00000000   2895 
_CALC_MEM_1REV_MUL_NROT                   IMPT 00000000   2894 
_CALC_MISS_FLG1                           IMPT 00000000   3772 
_CALC_PLS_MMIN_H32                        EQU  C0000000   2076*
_CALC_PLS_MMIN_L32                        EQU  00000001   2077*
_CALC_PLS_PMAX_H32                        EQU  3FFFFFFF   2072*
_CALC_PLS_PMAX_L32                        EQU  FFFFFFFF   2073*
_CALC_ROT_MAX                             EQU  60000000   2068*
_CAM_CNT_CHG_FLG                          IMPT 00000000   3269 
_CAM_CTL_STEP                             IMPT 00000000   2625 
_CAM_DT_FLG                               EQU  0000000E   2186*
_CAM_INF_D1                               EQU  00000010   2187*
_CAM_INF_D2                               EQU  00000012   2188*
*** SuperH RISC engine ASSEMBLER V.7.01.02.000 ***    12/12/17 19:19:44                                                  PAGE    36

*** CROSS REFERENCE LIST

NAME                             SECTION  ATTR VALUE             SEQUENCE

_CAM_NOW_DIG                              IMPT 00000000   3266 
_CAM_OF_DGT                               EQU  0000000C   2185*
_CAM_OF_DIG                               EQU  00000008   2182* 2183 
_CAM_OF_DIR                               EQU  0000000A   2184*
_CAM_OF_STP                               EQU  00000006   2181*
_CAM_OF_TIM                               EQU  00000008   2183*
_CAM_OLD_DIG                              IMPT 00000000   3267 
_CAM_ON_DIG                               EQU  00000002   2179*
_CAM_ON_DIR                               EQU  00000004   2180*
_CAM_ON_STP                               EQU  00000000   2178*
_CAM_OUTPUT_DT                            IMPT 00000000   3260 
_CAM_OUTPUT_SW                            IMPT 00000000   3258 
_CAM_POS_CTL_STEP                         IMPT 00000000   3268 
_CAM_POS_STEP_END_FLG1                    IMPT 00000000   3025 
_CAM_POS_STEP_END_FLG2                    IMPT 00000000   3026 
_CAM_SELECT_SW                            IMPT 00000000   3259 
_CAM_START_FLG                            IMPT 00000000   3261 
_CAM_START_MODE                           IMPT 00000000   3262 
_CAM_STEP_MAX                             IMPT 00000000   3265 
_CAM_STEP_NO                              IMPT 00000000   3263 
_CAM_STEP_NO_OLD                          IMPT 00000000   3264 
_CAM_STRCUT                               EQU  00000014   2177*
_CBSTS_LOAD_FLG                           IMPT 00000000   4560 
_CBSTS_SAVE_CMDWK                         IMPT 00000000   4568 
_CBSTS_SAVE_DAT                           IMPT 00000000   4577 
_CB_010MSEC_TIME_CNT             P        EXPT 000004C4   6402  6765  6781*
_CB_100MSEC_TIME_CNT             P        EXPT 000004DC   6430  6803  6807*
_CB_BAKUP_CMD1                            EQU  00005678    114*
_CB_BAKUP_CMD2                            EQU  00001234    115*
_CB_BAK_SUM_COD1                          EQU  5AA51234    112*
_CB_BAK_SUM_COD2                          EQU  A55A4321    113*
_CB_ERR_INFO_MEM                          EQU  00000040    137*
_CB_INT_MAIN                     P        EXPT 00000000   5739  5747*
_CB_INT_START_OK                          IMPT 00000000   2478 
_CB_IN_HANYO                              IMPT 00000000   4836 
_CB_SEQ_CB_COM340                         IMPT 00000000   3011 
_CB_SEQ_CB_COM345                         IMPT 00000000   3014 
_CB_SEQ_CB_COM345X                        IMPT 00000000   5382 
_CB_SEQ_CB_COM346                         IMPT 00000000   3015 
_CB_SEQ_CB_COM347                         IMPT 00000000   3016 
_CB_SEQ_CB_COM348                         IMPT 00000000   3017 
_CB_SEQ_CB_COM349                         IMPT 00000000   3018 
_CB_SEQ_CB_COM350                         IMPT 00000000   3020 
_CB_SEQ_CB_COM351                         IMPT 00000000   3021 
_CB_SEQ_CB_COM352                         IMPT 00000000   3022 
_CB_SEQ_CB_COM356                         IMPT 00000000   5281 
_CB_SEQ_CB_SEL341                         IMPT 00000000   3012 
_CB_SEQ_CB_SEL342                         IMPT 00000000   3013 
_CB_SEQ_DATA_MAKE1                        IMPT 00000000   5675  6465 
_CB_SEQ_SW_SEL022                         IMPT 00000000   3006 
_CB_SEQ_SW_SEL024                         IMPT 00000000   3007 
_CB_SEQ_SW_SEL028                         IMPT 00000000   3008 
_CB_SEQ_SW_SEL029                         IMPT 00000000   3009 
_CB_SEQ_SW_SEL058                         IMPT 00000000   4886 
*** SuperH RISC engine ASSEMBLER V.7.01.02.000 ***    12/12/17 19:19:44                                                  PAGE    37

*** CROSS REFERENCE LIST

NAME                             SECTION  ATTR VALUE             SEQUENCE

_CB_STS_BUF_1BLK                          EQU  00000040    117*  119 
_CB_STS_BUF_BLKMAX                        EQU  00000008    118*  119 
_CB_STS_BUF_MAX                           EQU  00000200    119*
_CB_TIME                                  EQU  0000000A   1995* 2008  2009  2010  2015 
_CB_TIME_CNT                     P        EXPT 000003F0   6032  6597  6616*
_CB_TRD_BEFORE                            EQU  00000060    127*
_CB_TRD_BUF_DP_MAX                        EQU  00000080    131*
_CB_TRD_BUF_MAX                           EQU  00000800    128*
_CB_TRD_DP_1CNT                           EQU  00000008    130*
_CB_TRD_DP_CH                             EQU  00000004    123*
_CB_TRD_SMP_CNT                           EQU  00000080    126*
_CCS_BTTN_OFF                             IMPT 00000000   3511 
_CHKPOSANSDIG                             IMPT 00000000   4731 
_CHKPOSWORK1                              IMPT 00000000   4718 
_CHKPOSWORK2                              IMPT 00000000   4719 
_CHKPOSWORKANS                            IMPT 00000000   4724 
_CHKSPDANSPER                             IMPT 00000000   4723 
_CHKSPDPERWORK1                           IMPT 00000000   4726 
_CHKSPDPERWORK2                           IMPT 00000000   4727 
_CHKSPDPOSINFO                            IMPT 00000000   4729 
_CHKSPDPOSOFS                             IMPT 00000000   4730 
_CHKSPDWORK1                              IMPT 00000000   4716 
_CHKSPDWORK2                              IMPT 00000000   4717 
_CHKSPDWORKANS                            IMPT 00000000   4720 
_CHKSPDWORKTMAX                           IMPT 00000000   4722 
_CHKSPDWORKVMAX                           IMPT 00000000   4721 
_CHK_ADD_DATA_LATCH                       IMPT 00000000   4249 
_CHK_CLK_SIG                              IMPT 00000000   4762  7069  7151 
_CHK_LSI_LOAD_OUT_CNT                     IMPT 00000000   3998 
_CHK_LSI_LOAD_POS_CNT                     IMPT 00000000   3997 
_CHK_OBJECT_TIM_TOP                       IMPT 00000000   3214 
_CLS_INC_MOST_DOWN_PLS                    IMPT 00000000   2761 
_CLS_RNA_MOST_DOWN_POS                    IMPT 00000000   2760 
_CMP2_ACC_NG_CNT                          IMPT 00000000   3578 
_CMP2_ACC_TOTAL_NG_CNT                    IMPT 00000000   3572 
_CMP2_BAS_NG_CNT                          IMPT 00000000   3575 
_CMP2_BAS_TOTAL_NG_CNT                    IMPT 00000000   3569 
_CMP2_LAT_NG_CNT                          IMPT 00000000   3577 
_CMP2_LAT_TOTAL_NG_CNT                    IMPT 00000000   3571 
_CMP2_NOW_NG_CNT                          IMPT 00000000   3579 
_CMP2_NOW_TOTAL_NG_CNT                    IMPT 00000000   3573 
_CMP2_TOP_NG_CNT                          IMPT 00000000   3576 
_CMP2_TOP_TOTAL_NG_CNT                    IMPT 00000000   3570 
_CMPSTEP_CNT_STOP                         IMPT 00000000   2669 
_CMPSTEP_CTRL_BUSY                        IMPT 00000000   2665 
_CMPSTEP_CTRL_REDY                        IMPT 00000000   2664 
_CMPSTEP_NEAR_ZERO                        IMPT 00000000   2668 
_CMPSTEP_POS_START                        IMPT 00000000   2666 
_CMPSTEP_SFTY_AUTO                        IMPT 00000000   2667 
_CMPSTEP_STEP_END                         IMPT 00000000   2670 
_CMP_ERR_CHK_STSA                         IMPT 00000000   2878 
_CMP_ERR_CHK_STSB                         IMPT 00000000   2879 
_CMP_ERR_STEP_A                           IMPT 00000000   2884 
_CMP_ERR_STEP_B                           IMPT 00000000   2885 
*** SuperH RISC engine ASSEMBLER V.7.01.02.000 ***    12/12/17 19:19:44                                                  PAGE    38

*** CROSS REFERENCE LIST

NAME                             SECTION  ATTR VALUE             SEQUENCE

_CMP_ERR_STSA_INF1                        IMPT 00000000   2880 
_CMP_ERR_STSA_INF2                        IMPT 00000000   2881 
_CMP_ERR_STSA_INF3                        IMPT 00000000   2882 
_CMP_ERR_STSA_INF4                        IMPT 00000000   2883 
_CMP_ERR_TIM1                             IMPT 00000000   2581 
_CMP_LNGTH_AD_ERR_CNT                     IMPT 00000000   3682 
_CMP_POS_LSI_ACCLT1                       IMPT 00000000   3887 
_CMP_RECOVER_FLG                          IMPT 00000000   3992 
_CMP_RESTP_SR_ERR_CNT                     IMPT 00000000   3683 
_CMP_STEP_ERR_TIM1                        IMPT 00000000   2583 
_CNT_BANK_CALC_ERR                        IMPT 00000000   3669 
_CNT_GRF_I_DATA                           IMPT 00000000   5375 
_CNT_GRF_POINT                            IMPT 00000000   5377 
_CNT_GRF_Y_DATA                           IMPT 00000000   5376 
_CNT_PLSOUT_STOP_CNT                      IMPT 00000000   3936 
_CNT_REST_SPD_HOSEI_DAT                   IMPT 00000000   3675 
_CNT_REST_SPD_HOSEI_FLG                   IMPT 00000000   3676 
_CNT_STOP_CMD                             IMPT 00000000   2504 
_CNT_STOP_CMD_BEF1                        IMPT 00000000   4386 
_CNT_STOP_CTRL_FLG                        IMPT 00000000   3656 
_CNT_STOP_DBG_CNT                         IMPT 00000000   5337 
_CNT_STOP_LNGTH                           IMPT 00000000   3662 
_CNT_STOP_WAIT_TIM                        IMPT 00000000   5336  6749 
_CNT_SYNC_CHK_CNT1                        IMPT 00000000   3951 
_CNT_SYNC_CHK_CNT2                        IMPT 00000000   3952 
_CNT_SYNC_ERR_FLG                         IMPT 00000000   3934 
_CNT_SYNC_HOS_CNT1                        IMPT 00000000   3953 
_CNT_SYNC_HOS_DAT1                        IMPT 00000000   3948 
_CNT_SYNC_HOS_DAT2                        IMPT 00000000   3949 
_CNT_SYNC_HOS_FLAG                        IMPT 00000000   3950 
_CNT_SYNC_STS_FLG                         IMPT 00000000   3935 
_CONT_MOD_CNT_PV                          IMPT 00000000   3082 
_CONT_MOD_TIM_PV                          IMPT 00000000   3084  6706 
_CONT_STOP_END_SUBPLS                     IMPT 00000000   3668 
_COP_CB_LD_MONI_SIG                       IMPT 00000000   3329 
_COP_DIG_SIG_FLG                          IMPT 00000000   3328 
_COP_OLD_ENC3600                          IMPT 00000000   3347 
_CPOS_BANK_USELFUL                        IMPT 00000000   3655 
_CPOS_CTL_MATH                            IMPT 00000000   2745 
_CPOS_DND_DIGTOP                          IMPT 00000000   3764 
_CPOS_DND_PLSTOP                          IMPT 00000000   3765 
_CPOS_DND_STOP_DIRECTOLD                  IMPT 00000000   3763 
_CPOS_DND_STOP_SW                         IMPT 00000000   3761 
_CPOS_DND_STOP_SWOLD                      IMPT 00000000   3762 
_CPOS_FULCLS_MATEHD_SW                    IMPT 00000000   4821 
_CPOS_KJYUCLS_OBJ                         IMPT 00000000   4823 
_CPOS_MOD_FLG1                            IMPT 00000000   2744 
_CPOS_SDAT1_CHGAPOS                       IMPT 00000000   2742 
_CPOS_SDAT1_CHGAPOS2                      IMPT 00000000   3657 
_CPOS_SDAT1_CNTSTEP                       IMPT 00000000   2739 
_CPOS_SDAT1_INF1                          IMPT 00000000   2740 
_CPOS_SDAT1_NUM                           IMPT 00000000   2741 
_CPOS_SDAT1_OFSPOS                        IMPT 00000000   2736 
_CPOS_SDAT1_SPD                           IMPT 00000000   2737 
*** SuperH RISC engine ASSEMBLER V.7.01.02.000 ***    12/12/17 19:19:44                                                  PAGE    39

*** CROSS REFERENCE LIST

NAME                             SECTION  ATTR VALUE             SEQUENCE

_CPOS_SDAT1_STPAPOS                       IMPT 00000000   2743 
_CPOS_SDAT1_STPAPOS2                      IMPT 00000000   3658 
_CPOS_SDAT1_TIM                           IMPT 00000000   2738 
_CPOS_SDAT1_UP_OFSPOS                     IMPT 00000000   2764 
_CPOS_SDAT1_UP_POS                        IMPT 00000000   2765 
_CPOS_STEP_MAX                            IMPT 00000000   2746 
_CPOS_UPAREA_PLS                          IMPT 00000000   2759 
_CPUABD_WDTOK_FLG                         IMPT 00000000   5061 
_CPUA_DNM_DIR_NOW                         IMPT 00000000   6854  6872 
_CPUA_DNM_DIR_SET                         IMPT 00000000   6853  6871 
_CPUA_SV_STEP                             IMPT 00000000   6850  6870 
_CPUA_TREND_SMPLING                       IMPT 00000000   6337  6339 
_CPUBX_MEM1_BUF                           IMPT 00000000   5391 
_CPUBX_MEM1_ENDFLG                        IMPT 00000000   5390 
_CPUBX_MEM1_RCVFLG                        IMPT 00000000   5389 
_CPUBX_MEM1_SNDEVN                        IMPT 00000000   5400 
_CPUBX_MEM1_SNDFLG                        IMPT 00000000   5402 
_CPUBX_MEM1_SNDKND                        IMPT 00000000   5401 
_CPUBX_SEND_MAXCNT                        IMPT 00000000   5397 
_CPUBX_SEND_NOWCNT                        IMPT 00000000   5398 
_CPUBX_SEND_TOPADR                        IMPT 00000000   5396 
_CPUB_DNM_DIR_NOW                         IMPT 00000000   6856 
_CPUB_DNM_DIR_SET                         IMPT 00000000   6855 
_CPUB_PARAM_ERR_NO                        IMPT 00000000   5158 
_CPUB_SV_STEP                             IMPT 00000000   6851 
_CPUC_PARAM_ERR_NO                        IMPT 00000000   5157 
_CPUDX_MEM1_ENDFLG                        IMPT 00000000   5393 
_CPUDX_MEM1_RCVFLG                        IMPT 00000000   5392 
_CPUD_CHK_OLDCNT                          IMPT 00000000   5052 
_CPUD_CHK_TIME                            IMPT 00000000   5053 
_CPUX_PARAM_SEND_FLG                      IMPT 00000000   5147 
_CPUX_PARAM_SEND_NO                       IMPT 00000000   5148 
_CPU_AB_BSY_OF_JG                         IMPT 00000000   5529 
_CPU_AB_BSY_OF_OUT                        IMPT 00000000   5525 
_CPU_AB_BSY_ON_OUT                        IMPT 00000000   5527 
_CPU_AB_CED_OF_JG                         IMPT 00000000   5592 
_CPU_AB_CED_OF_OUT                        IMPT 00000000   5588 
_CPU_AB_CED_ON_OUT                        IMPT 00000000   5590 
_CPU_AB_CST_OF_JG                         IMPT 00000000   5581 
_CPU_AB_CST_OF_OUT1                       IMPT 00000000   5575 
_CPU_AB_CST_OF_OUT2                       IMPT 00000000   5576 
_CPU_AB_CST_ON_OUT1                       IMPT 00000000   5578 
_CPU_AB_CST_ON_OUT2                       IMPT 00000000   5579 
_CPU_AB_DRVHLDSTOP_OF_OUT                 IMPT 00000000   5607 
_CPU_AB_DRVHLDSTOP_ON_OUT                 IMPT 00000000   5606 
_CPU_AB_DRVSTOP_OF_OUT                    IMPT 00000000   5547 
_CPU_AB_DRVSTOP_ON_OUT                    IMPT 00000000   5548 
_CPU_AB_NZR_OF_JG                         IMPT 00000000   5567 
_CPU_AB_NZR_OF_OUT                        IMPT 00000000   5563 
_CPU_AB_NZR_ON_OUT                        IMPT 00000000   5565 
_CPU_AB_RDY_OF_JG                         IMPT 00000000   5518 
_CPU_AB_RDY_OF_OUT                        IMPT 00000000   5514 
_CPU_AB_RDY_ON_OUT                        IMPT 00000000   5516 
_CPU_AB_STR_OF_JG                         IMPT 00000000   5540 
*** SuperH RISC engine ASSEMBLER V.7.01.02.000 ***    12/12/17 19:19:44                                                  PAGE    40

*** CROSS REFERENCE LIST

NAME                             SECTION  ATTR VALUE             SEQUENCE

_CPU_AB_STR_OF_OUT                        IMPT 00000000   5536 
_CPU_AB_STR_ON_OUT                        IMPT 00000000   5538 
_CPU_A_B_STS_IF                  P             00000514   5903  6863*
_CPU_BA_BSY_OF_OUT                        IMPT 00000000   5526 
_CPU_BA_BSY_ON_JG                         IMPT 00000000   5528 
_CPU_BA_CED_OF_OUT                        IMPT 00000000   5589 
_CPU_BA_CED_ON_JG                         IMPT 00000000   5591 
_CPU_BA_CST_OF_OUT                        IMPT 00000000   5577 
_CPU_BA_CST_ON_JG                         IMPT 00000000   5580 
_CPU_BA_DRVHLDSTOP_OF_JG                  IMPT 00000000   5609 
_CPU_BA_DRVHLDSTOP_ON_JG                  IMPT 00000000   5608 
_CPU_BA_DRVSTOP_OF_OUT                    IMPT 00000000   5550 
_CPU_BA_DRVSTOP_ON_JG                     IMPT 00000000   5549 
_CPU_BA_NZR_OF_OUT                        IMPT 00000000   5564 
_CPU_BA_NZR_ON_JG                         IMPT 00000000   5566 
_CPU_BA_RDY_OF_OUT                        IMPT 00000000   5515 
_CPU_BA_RDY_ON_JG                         IMPT 00000000   5517 
_CPU_BA_STEP_LOAD                         IMPT 00000000   5599 
_CPU_BA_STR_OF_OUT                        IMPT 00000000   5537 
_CPU_BA_STR_ON_JG                         IMPT 00000000   5539 
_CPU_DEBUG_MONITOR                        IMPT 00000000   5718  6498 
_CPU_MAIN_SCAN_CALC              P             000005A8   6506  7054*
_CPU_SV_HAND_IN                           IMPT 00000000   2506 
_CPU_SV_HAND_IN_ON                        IMPT 00000000   2507 
_CPU_SV_HAND_OUT                          IMPT 00000000   2509 
_CPUy_RESTPLS_LTFLG                       IMPT 00000000   3954 
_CTL_ENC360                               IMPT 00000000   2518 
_CTL_ENC360_OLD                           IMPT 00000000   4038 
_CYCLE_SPD_CMP_FLG1                       IMPT 00000000   4296 
_CYCLE_SPD_CMP_PV_DAT                     IMPT 00000000   4297 
_CYCLE_TIME_DAT                           IMPT 00000000   2998  6694 
_CYCLE_TIME_FLG                           IMPT 00000000   3000  6688 
_CYCLE_TIME_PV                            IMPT 00000000   2999 
_CYCL_DSP_CNT_PV                          IMPT 00000000   3463 
_CYCL_DSP_DISENB                          IMPT 00000000   3462 
_CYCL_START_CNT                           IMPT 00000000   2762 
_DAIHAI_CALC_WORK1                        IMPT 00000000   4337 
_DAIHAI_CALC_WORK10                       IMPT 00000000   4346 
_DAIHAI_CALC_WORK11                       IMPT 00000000   4348 
_DAIHAI_CALC_WORK12                       IMPT 00000000   4349 
_DAIHAI_CALC_WORK13X                      IMPT 00000000   4350 
_DAIHAI_CALC_WORK2                        IMPT 00000000   4338 
_DAIHAI_CALC_WORK3                        IMPT 00000000   4339 
_DAIHAI_CALC_WORK4                        IMPT 00000000   4340 
_DAIHAI_CALC_WORK5                        IMPT 00000000   4341 
_DAIHAI_CALC_WORK6                        IMPT 00000000   4342 
_DAIHAI_CALC_WORK7X                       IMPT 00000000   4343 
_DAIHAI_CALC_WORK8                        IMPT 00000000   4344 
_DAIHAI_CALC_WORK9X                       IMPT 00000000   4345 
_DAI_CMP_SMPSTART                         IMPT 00000000   2942 
_DAI_HOSEI1_CTRL                          IMPT 00000000   5677  6251 
_DAI_HOSEI1_FLG                           IMPT 00000000   2932 
_DAI_POS_ERR_POSCHK                       IMPT 00000000   5676  6247 
_DBG_ATO_DRV_START_FLG                    IMPT 00000000   5082 
*** SuperH RISC engine ASSEMBLER V.7.01.02.000 ***    12/12/17 19:19:44                                                  PAGE    41

*** CROSS REFERENCE LIST

NAME                             SECTION  ATTR VALUE             SEQUENCE

_DBG_ATO_DRV_TIME_PV                      IMPT 00000000   5083 
_DBG_ATO_DRV_TIME_PV2                     IMPT 00000000   5088 
_DBG_ATO_DRV_TIME_SV                      IMPT 00000000   5084 
_DBG_ATO_DRV_TIME_SV2                     IMPT 00000000   5089 
_DBG_CNT_GPOSINT                          IMPT 00000000   3593 
_DBG_CNT_STOP_CNT                         IMPT 00000000   3587 
_DBG_CNT_STOP_FLG                         IMPT 00000000   3586 
_DBG_CNT_STOP_SPC                         IMPT 00000000   3588 
_DBG_DNM_CLR_CNT                          IMPT 00000000   5320 
_DBG_DNM_END_CNT                          IMPT 00000000   5319 
_DBG_DNM_STR_CNT                          IMPT 00000000   5318 
_DBG_REVMOD_CTLPLS                        IMPT 00000000   3227 
_DBG_REVMOD_DNPLS                         IMPT 00000000   3229 
_DBG_REVMOD_OBJPLS                        IMPT 00000000   3226 
_DBG_REVMOD_UPPLS                         IMPT 00000000   3228 
_DBG_STEP12_CHG_DIG                       IMPT 00000000   3596 
_DBG_STEP12_CHG_POS                       IMPT 00000000   3600 
_DBG_STEP12_CHG_RSTP                      IMPT 00000000   3608 
_DBG_STEP12_CHG_SPD                       IMPT 00000000   3604 
_DBG_STEP12_CHG_TIM                       IMPT 00000000   3590 
_DBG_STEP23_CHG_DIG                       IMPT 00000000   3597 
_DBG_STEP23_CHG_POS                       IMPT 00000000   3601 
_DBG_STEP23_CHG_RSTP                      IMPT 00000000   3609 
_DBG_STEP23_CHG_SPD                       IMPT 00000000   3605 
_DBG_STEP23_CHG_TIM                       IMPT 00000000   3591 
_DBG_STEPCD_CHG_DIG                       IMPT 00000000   3598 
_DBG_STEPCD_CHG_GPS                       IMPT 00000000   3612 
_DBG_STEPCD_CHG_POS                       IMPT 00000000   3602 
_DBG_STEPCD_CHG_RSTP                      IMPT 00000000   3610 
_DBG_STEPCD_CHG_SPD                       IMPT 00000000   3606 
_DBG_STEPCD_CHG_TIM                       IMPT 00000000   3592 
_DEBUG_ENC360_STS                         IMPT 00000000   4650 
_DEBUG_ENC360_STS2                        IMPT 00000000   4651 
_DEBUG_MOD_CODE                           IMPT 00000000   5080 
_DEF_DAI_POS_PV                           IMPT 00000000   2971 
_DG_PS_INF_CHK1                           EQU  00000000   2195*
_DG_PS_INF_CHK2                           EQU  0000003C   2200*
_DG_PS_INF_CONT                           EQU  00000004   2196*
_DG_PS_INF_LATE                           EQU  00000010   2199*
_DG_PS_INF_STLK                           EQU  0000000C   2198*
_DG_PS_INF_UNIT                           EQU  00000008   2197*
_DIG_AREA_CHK0                            IMPT 00000000   5631 
_DIG_AREA_CHK1                            IMPT 00000000   5632 
_DIR_FLG                                  IMPT 00000000   4050 
_DISP_ENC360                              IMPT 00000000   2522 
_DISP_RE_VIEW_FLG                         IMPT 00000000   3001 
_DISP_SV_DG_DAT                           IMPT 00000000   3313 
_DISP_SV_MM_DAT                           IMPT 00000000   3314 
_DIVS_32REG2_32REG1_R4_32REG2_R2          IMPT 00000000   5614 
_DIVS_64R1R2_32R4_32R2                    IMPT 00000000   5615 
_DIVS_64R1R2_32R4_64R1R2                  IMPT 00000000   5628 
_DIVU_64R1R2_32R4_32R2                    IMPT 00000000   5616 
_DIVU_64R1R2_32R4_64R1R2                  IMPT 00000000   5629 
_DI_LOAD                                  IMPT 00000000   5637  6028 
*** SuperH RISC engine ASSEMBLER V.7.01.02.000 ***    12/12/17 19:19:44                                                  PAGE    42

*** CROSS REFERENCE LIST

NAME                             SECTION  ATTR VALUE             SEQUENCE

_DMATH_CNTROT                             EQU  00000001   2027*
_DMATH_DNDRIV                             EQU  00000004   2029*
_DMATH_REVRSE                             EQU  00000002   2028*
_DMATH_UPDRIV                             EQU  00000008   2030*
_DNDINC_CTRL_STEP                         IMPT 00000000   3760 
_DND_CALC_WORK                            IMPT 00000000   2788 
_DND_OVERCHK_DIG                          IMPT 00000000   4250 
_DNM_ACC_CALFLG                           IMPT 00000000   4220 
_DNM_CTL_INC3600                          IMPT 00000000   4088 
_DNM_DEBUG_CNT                            IMPT 00000000   4691 
_DNM_DEBUG_STS1                           IMPT 00000000   4690 
_DNM_DIR_CHG_FLG                          IMPT 00000000   4086 
_DNM_DIR_CHG_TIM                          IMPT 00000000   4087 
_DNM_DIR_FLG_INC_LATCH                    IMPT 00000000   5046 
_DNM_DIR_FLG_OLD                          IMPT 00000000   4126 
_DNM_DIR_NOW_FLG                          IMPT 00000000   4084  6887 
_DNM_DIR_SAM_FLG                          IMPT 00000000   4085 
_DNM_DIR_SET_FLG                          IMPT 00000000   4083  6883 
_DNM_MATH_ELSE_DAT_MAKE                   IMPT 00000000   5701  6040 
_DNM_MAX_GENSOK_LENGTH                    IMPT 00000000   4739 
_DNM_RESET_AREA                           IMPT 00000000   5001 
_DNM_RST_SPEC_AREASIG                     IMPT 00000000   5310 
_DNM_SET1_OBJECT_DIG_TOP                  IMPT 00000000   4082 
_DNM_SET1_OBJECT_PLS_TOP                  IMPT 00000000   4080 
_DNM_SET1_UPAREA_DIG0                     IMPT 00000000   4081 
_DNM_SET1_UPAREA_PLS0                     IMPT 00000000   4079 
_DNM_SETX_HOLD_CMP1_DEG                   IMPT 00000000   4455 
_DNM_SETX_LINK_UP_POS_DN                  IMPT 00000000   4096 
_DNM_SETX_LINK_UP_POS_UP                  IMPT 00000000   4095 
_DNM_SETX_MOTREP_DIR                      IMPT 00000000   5026 
_DNM_SETX_UPAREA_DIG                      IMPT 00000000   4091 
_DNM_SETX_UPAREA_PLS                      IMPT 00000000   4090 
_DNM_WSVX_CLNK_UP_POS                     IMPT 00000000   4092 
_DNM_WSVX_CLNK_UP_POS_DN                  IMPT 00000000   4094 
_DNM_WSVX_CLNK_UP_POS_UP                  IMPT 00000000   4093 
_DPCHK_CPU_ERR_TIM                        IMPT 00000000   5130 
_DPCHK_DI_ERR_TIM                         IMPT 00000000   5139 
_DPCHK_ERR_SIG                            IMPT 00000000   5129 
_DPCHK_WR_COD                             IMPT 00000000   5131 
_DPSQ022                                  EQU  0000002C   2082*
_DPSQ024                                  EQU  00000030   2083*
_DPSQ028                                  EQU  00000038   2084*
_DPSQ029                                  EQU  0000003A   2085*
_DPSQ058                                  EQU  00000074   2086*
_DPSQ287                                  EQU  0000023E   2097*
_DPSQ288                                  EQU  00000240   2098*
_DPSQ340                                  EQU  000002A8   2088*
_DPSQ341                                  EQU  000002AA   2089*
_DPSQ356                                  EQU  000002C8   2090*
_DPSQ358                                  EQU  000002CC   2091*
_DPSQ359                                  EQU  000002CE   2092*
_DPSQ367                                  EQU  000002DE   2093*
_DPSQ368                                  EQU  000002E0   2094*
_DPSQ369                                  EQU  000002E2   2095*
*** SuperH RISC engine ASSEMBLER V.7.01.02.000 ***    12/12/17 19:19:44                                                  PAGE    43

*** CROSS REFERENCE LIST

NAME                             SECTION  ATTR VALUE             SEQUENCE

_DRVHOS_CAL_RNA_POS                       IMPT 00000000   2964 
_DRVHOS_DEF_CNT_PV                        IMPT 00000000   2956 
_DRVHOS_DEF_RNA_POS                       IMPT 00000000   2963 
_DRVHOS_IDO_BUF                           IMPT 00000000   2968 
_DRVHOS_IDO_CNT                           IMPT 00000000   2959 
_DRVHOS_IDO_POINT                         IMPT 00000000   2957 
_DRVHOS_IDO_TOTAL                         IMPT 00000000   2967 
_DRVHOS_MOST_DN_RNAPOS                    IMPT 00000000   2965 
_DRVHOS_USE_FLG                           IMPT 00000000   2954 
_DRVHOS_WAIT_CNT_PV                       IMPT 00000000   2955 
_DRVHOS_WORK_BUF                          IMPT 00000000   2969 
_DRV_ACT_FLG                              IMPT 00000000   2655  6923 
_DRV_START_KEEP                           IMPT 00000000   3986 
_DT_100PER_0                              EQU  00000064   1999*
_DT_100PER_1                              EQU  000003E8   1998*
_DUMMY_SUM_CODE                           EQU  5AA53CC3    105*
_DUM_MRTION_SEL1                          IMPT 00000000   3323 
_DUM_MTSTEP_MAXM                          IMPT 00000000   3322 
_DUM_SET1_DIG_TOP                         IMPT 00000000   3321 
_DUM_SET1_SPD_TOP                         IMPT 00000000   5107 
_DUM_UPAREA_DIG0                          IMPT 00000000   3320 
_DURING_TIM_FX                            IMPT 00000000   4653 
_ELSE_ERR_FLG1                            IMPT 00000000   2577 
_ELSE_ERR_FLG2                            IMPT 00000000   2578 
_EMG_OUT                                  IMPT 00000000   5469 
_EMG_PASS_FLG_SET                         IMPT 00000000   5643 
_EMG_SCANCUT_FLG                          IMPT 00000000   4775 
_EMG_STOP                                 IMPT 00000000   5651  5864  5880 
_ENC360_BITERR_CNT                        IMPT 00000000   2542 
_ENC360_BITFLW_CNT                        IMPT 00000000   2541 
_ENC360_BITNML_CNT                        IMPT 00000000   2543 
_ENC360_HEX                               IMPT 00000000   2517 
_ENC360_INDT                              IMPT 00000000   2516 
_ENC360_INOLD                             IMPT 00000000   2515 
_ENC360_LINK_AREASIG                      IMPT 00000000   3635 
_ENC360_LOAD                              IMPT 00000000   5638  5965 
_ENC360_OVER_ENC                          IMPT 00000000   3527 
_ENC360_OVER_FLG                          IMPT 00000000   3526 
_ENCPLS_1000MSEC_LAT                      IMPT 00000000   3429 
_ENCPLS_DELT                              IMPT 00000000   3425 
_ENCPLS_POINT_SEL                         IMPT 00000000   3428 
_ENCPLS_SPD_AVL_TOP                       IMPT 00000000   3426 
_ENCPLS_SPD_POINT                         IMPT 00000000   3427 
_ENCPLS_SPD_TOTAL                         IMPT 00000000   3421 
_ENC_PLS_SPD                              IMPT 00000000   3422 
_ENC_PLS_SPD_CALC                         IMPT 00000000   5693  6015 
_ENC_PLS_SPD_DIR                          IMPT 00000000   3424 
_ENC_SYSRST_CMD                           IMPT 00000000   2533 
_ENC_TIMEXT_FLG                           IMPT 00000000   2534 
_ENDHAND_TIMOUT_PV                        IMPT 00000000   5098 
_END_CMD_LATCH                            IMPT 00000000   2628 
_EPCHK_COM                                IMPT 00000000   4920 
_EPCHK_DLY_TIM                            IMPT 00000000   4923 
_EPCHK_ERR_TIM                            IMPT 00000000   4924 
*** SuperH RISC engine ASSEMBLER V.7.01.02.000 ***    12/12/17 19:19:44                                                  PAGE    44

*** CROSS REFERENCE LIST

NAME                             SECTION  ATTR VALUE             SEQUENCE

_EPCHK_FLG                                IMPT 00000000   4921 
_EPCHK_FORCE_VONCMD                       IMPT 00000000   4927 
_EPCHK_RETRY_CNT                          IMPT 00000000   4925 
_EPCHK_STEP                               IMPT 00000000   4922 
_EPCHK_STOP_DISENB                        IMPT 00000000   5243 
_EPCHK_STS                                IMPT 00000000   4926 
_EQ_DND_MAX                               EQU  00000002   2032*
_EQ_STEP_MAX                              EQU  00000005   2025*
_EQ_STEP_MX2                              EQU  0000000A   2026*
_ERRCHK_ENC360                            IMPT 00000000   4602 
_ERR_ACT1                                 IMPT 00000000   5682  6140 
_ERR_CHGSW                                IMPT 00000000   5647  6065 
_ERR_EMG_INPUT                            IMPT 00000000   5640  6080 
_ERR_EMG_INPUT_SLW1                       IMPT 00000000   5641  6167 
_ERR_EMG_INPUT_SLW2                       IMPT 00000000   5642  6128 
_ERR_EXQ_INPUT                            IMPT 00000000   5648  6073 
_ERR_FIRST_ST                             IMPT 00000000   4989 
_ERR_INFO_A01                             EQU  00000020   2251*
_ERR_INFO_A02                             EQU  00000022   2252*
_ERR_INFO_A03                             EQU  00000024   2253*
_ERR_INFO_A04                             EQU  00000026   2254*
_ERR_INFO_A05                             EQU  00000028   2255*
_ERR_INFO_A06                             EQU  0000002A   2256*
_ERR_INFO_A07                             EQU  0000002C   2257*
_ERR_INFO_A08                             EQU  0000002E   2258*
_ERR_INFO_B01                             EQU  00000030   2259*
_ERR_INFO_B02                             EQU  00000032   2260*
_ERR_INFO_B03                             EQU  00000034   2261*
_ERR_INFO_B04                             EQU  00000036   2262*
_ERR_INFO_B05                             EQU  00000038   2263*
_ERR_INFO_B06                             EQU  0000003A   2264*
_ERR_INFO_B07                             EQU  0000003C   2265*
_ERR_INFO_B08                             EQU  0000003E   2266*
_ERR_INFO_C01                             EQU  00000000   2243*
_ERR_INFO_C02                             EQU  00000004   2244*
_ERR_INFO_C03                             EQU  00000008   2245*
_ERR_INFO_C04                             EQU  0000000C   2246*
_ERR_INFO_C05                             EQU  00000010   2247*
_ERR_INFO_C06                             EQU  00000014   2248*
_ERR_INFO_C07                             EQU  00000018   2249*
_ERR_INFO_C08                             EQU  0000001C   2250*
_ERR_INFO_DLY_TIM                         IMPT 00000000   3521 
_ERR_INFO_SAVE_FLG                        IMPT 00000000   3522 
_ERR_INFO_SAVE_LATCH                      IMPT 00000000   3523 
_ERR_LEV_CLR                              IMPT 00000000   5655  6098  6123  6162  6298 
_ERR_LEV_IN2                              IMPT 00000000   4275  6096  6105 
_ERR_LEV_IN3                              IMPT 00000000   4276  6121  6144 
_ERR_LEV_IN4                              IMPT 00000000   4277  6160  6171 
_ERR_LEV_IN5                              IMPT 00000000   4278  6296  6307 
_ERR_LEV_IN6                              IMPT 00000000   4279 
_ERR_LEV_SET                              IMPT 00000000   5656  6107  6146  6173  6309 
_ERR_POS_CHEAK                            IMPT 00000000   5650  6136 
_ERR_SFT_INPUT                            IMPT 00000000   5649  6069 
_ERR_SRC                                  IMPT 00000000   5646  6132 
*** SuperH RISC engine ASSEMBLER V.7.01.02.000 ***    12/12/17 19:19:44                                                  PAGE    45

*** CROSS REFERENCE LIST

NAME                             SECTION  ATTR VALUE             SEQUENCE

_ERR_SWIN                                 IMPT 00000000   5645  6084 
_EXQ_LT_CMPSTEP_STEP_END                  IMPT 00000000   5294 
_EXQ_LT_GET_FLG                           IMPT 00000000   5293 
_EXQ_LT_PROC_CNT1                         IMPT 00000000   5295 
_EXQ_LT_PROC_CNT2                         IMPT 00000000   5296 
_EXQ_LT_PROC_CNT3                         IMPT 00000000   5297 
_EXQ_LT_PROC_CNT4                         IMPT 00000000   5298 
_EXQ_OUT                                  IMPT 00000000   5470 
_EXQ_STOP                                 IMPT 00000000   5652 
_EXTDRV_BTTN_ERR_TIM                      IMPT 00000000   4844 
_EXTDRV_BTTN_USE                          IMPT 00000000   4837 
_EXTDRV_UTINUKI_FLG                       IMPT 00000000   4838 
_EXT_BTTN_FLG                             IMPT 00000000   4841 
_EXT_DRVBTTN_MODE                         IMPT 00000000   6479  6481 
_FPU_DIVS_32REG2_32REG1_R4_32REG*         IMPT 00000000   5621 
_FPU_DIVS_32REG2_DIV_32REG4_R2_M*         IMPT 00000000   5622 
_FPU_POS_HOKAN1                           IMPT 00000000   5634 
_FPU_R2_MUL_R1_DIV_R4                     IMPT 00000000   5619 
_FPU_R2_MUL_R1_R3_DIV_R4                  IMPT 00000000   5620 
_FPU_TIM_HOKAN1                           IMPT 00000000   5635 
_FRCYCL_OF                                IMPT 00000000   5485 
_FRCYCL_ON                                IMPT 00000000   5486 
_FREQ_BAS_SV_SPD                          IMPT 00000000   3568 
_FREQ_PLSI_MAX_FRQ                        IMPT 00000000   3567 
_FREQ_SV_SPD                              IMPT 00000000   3500 
_FR_CYL_MASK_FLG                          IMPT 00000000   2627 
_FULCLS_ELSE_STS                          IMPT 00000000   4827 
_FULCLS_MATHED                            IMPT 00000000   4817 
_FULCLS_TIM_SETFLG                        IMPT 00000000   4825 
_FULL_CLS_OBJ_MM                          IMPT 00000000   3063 
_FUL_CLS_DLYTM_SV                         IMPT 00000000   4657 
_FUL_CLS_MAXOVER_F                        IMPT 00000000   4658 
_FUL_CLS_RNADIG                           EQU  00000320   2003*
_GMN_OVER_LIDE_FLG                        IMPT 00000000   3866 
_HENSA_OVER_MOVE_CNT                      IMPT 00000000   3942 
_HENSA_OVER_STOP_CNT                      IMPT 00000000   3943 
_HENSA_OVR_ENCPOS                         IMPT 00000000   2863 
_HENSA_OVR_OUTPLS                         IMPT 00000000   2862 
_HIGH_DIVS_32REG2_16REG1_R4_16RE*         IMPT 00000000   5617 
_HIGH_S32R2_MUL_S32R1_DIV_S32R4_*         IMPT 00000000   5618 
_HIST_DAT_SEND_COM                        IMPT 00000000   5369 
_HIST_DAT_SEND_DIS                        IMPT 00000000   5368 
_HIST_EVENT_COD                           IMPT 00000000   5370 
_HIST_KEP_SEND_COM                        IMPT 00000000   5371 
_IDO_BUF_SRC2B_TOTAL_4B_CAL               IMPT 00000000   7045  7090 
_INCENC_ADD                               EQU  00000000   2054*
_INCENC_LINK_NOWROT_NUMPLS_ZR             IMPT 00000000   2684 
_INCENC_LINK_NOWROT_NUM_ZR                IMPT 00000000   2683 
_INCENC_LINK_NOWROT_OFSPLS                IMPT 00000000   2685 
_INCHEN_ADD                               EQU  00000000   2053*
_INCREV_ADD                               EQU  00000000   2058*
_INCRNA_ADD                               EQU  00000000   2055*
_INCSTP_ADD                               EQU  00000000   2056*
_INC_ABS_ORGWORK                          IMPT 00000000   2910 
*** SuperH RISC engine ASSEMBLER V.7.01.02.000 ***    12/12/17 19:19:44                                                  PAGE    46

*** CROSS REFERENCE LIST

NAME                             SECTION  ATTR VALUE             SEQUENCE

_INC_ABS_ORGWORK2                         IMPT 00000000   4329 
_INC_ABS_ORGWORK2A                        IMPT 00000000   4330 
_INC_ENC360                               IMPT 00000000   2521 
_INC_ENC_MM_POS                           IMPT 00000000   2705 
_INC_LINK_NOWROT_OFSPLS_P                 IMPT 00000000   2686 
_INC_OFS_ORGWORK2A                        IMPT 00000000   4331 
_INC_RESET_STEP                           IMPT 00000000   5041 
_INC_RESET_USE_F                          IMPT 00000000   5042 
_INC_STOP_CNT                             IMPT 00000000   3241 
_INFO_CHK1_COD                            EQU  5AA51234   2193*
_INFO_CHK2_COD                            EQU  4321A55A   2194*
_INPUT_MODE_SW                            IMPT 00000000   2576 
_INP_ERR_FLG                              IMPT 00000000   4593 
_INP_MODE                                 IMPT 00000000   2608 
_INSERT_MOT_SV_CHGF                       IMPT 00000000   5106 
_INSERT_TEACH_POS                         IMPT 00000000   5710  6276 
_INT1MS_SCAN_02MS                         IMPT 00000000   4268 
_INT1MS_SCAN_03MS                         IMPT 00000000   4269 
_INT1MS_SCAN_05MS1                        IMPT 00000000   4270 
_INT1MS_SCAN_05MS2                        IMPT 00000000   4271 
_INT1MS_SCAN_10MS                         IMPT 00000000   4272 
_INT_CLS_CTL_FLG                          IMPT 00000000   2829 
_INT_CLS_DYL_TIM                          IMPT 00000000   2830 
_INT_CYC_DRV_STS                          IMPT 00000000   2828 
_INT_DND_CTL_STEP                         IMPT 00000000   2824 
_INT_DND_NEG_STEP                         IMPT 00000000   2832 
_INT_DND_STEP_FLG                         IMPT 00000000   2827 
_INT_LINK_TOTAL_ABSPLS                    IMPT 00000000   2841 
_INT_POS_CTL_FLAG                         IMPT 00000000   2825 
_INT_POS_CTL_STEP                         IMPT 00000000   2822  6905 
_INT_POS_DATA_REF                         IMPT 00000000   5670  6020 
_INT_POS_STEP_FLG                         IMPT 00000000   2826  6928 
_INT_SFY_INP_DAT                          IMPT 00000000   3628 
_INT_STP_INP_DAT                          IMPT 00000000   3629 
_INT_STP_INP_DAT1                         IMPT 00000000   3630 
_INT_STP_INP_DAT2                         IMPT 00000000   3631 
_INT_STP_INP_DAT3                         IMPT 00000000   3632 
_IN_PARAM_RNA_CHK                         IMPT 00000000   4025 
_IN_POS_GPOINT_POS                        IMPT 00000000   3927 
_IN_RDY_FLG                               IMPT 00000000   2616 
_IRQ_EMG_CNT                              IMPT 00000000   3622 
_IRQ_EMG_FLG                              IMPT 00000000   3621 
_IRQ_SFY_CNT                              IMPT 00000000   3624 
_IRQ_SFY_FLG                              IMPT 00000000   3623 
_IRQ_STP_CNT                              IMPT 00000000   3626 
_IRQ_STP_FLG                              IMPT 00000000   3625 
_KAJLIV_TTL_IDOBUF                        IMPT 00000000   4183 
_KAJLIV_TTL_POINT                         IMPT 00000000   4182 
_KAJLIV_TTL_TOTAL                         IMPT 00000000   4180 
_KAJYUU_REFLASH                           IMPT 00000000   5698  6437 
_KJPHOS_CAL_PRS                           IMPT 00000000   2991 
_KJPHOS_DEF_CNT_PV                        IMPT 00000000   2983 
_KJPHOS_IDO_BUF                           IMPT 00000000   2986 
_KJPHOS_IDO_CNT                           IMPT 00000000   2980 
*** SuperH RISC engine ASSEMBLER V.7.01.02.000 ***    12/12/17 19:19:44                                                  PAGE    47

*** CROSS REFERENCE LIST

NAME                             SECTION  ATTR VALUE             SEQUENCE

_KJPHOS_IDO_POINT                         IMPT 00000000   2979 
_KJPHOS_IDO_TOTAL                         IMPT 00000000   2985 
_KJPHOS_USE_FLG                           IMPT 00000000   2978 
_KJPHOS_WAIT_CNT_PV                       IMPT 00000000   2982 
_KJYUCLS_KN_HENSA                         IMPT 00000000   4814 
_KJYUCLS_KN_HENSA_PLS                     IMPT 00000000   4815 
_KJYUCLS_OBJ_KN                           IMPT 00000000   4813 
_KJYUU_DEF_DAT_PV                         IMPT 00000000   2989 
_KJYUU_IN_DAT_PV                          IMPT 00000000   2988 
_KJYUU_NEW_DAT_PV                         IMPT 00000000   2990 
_KJYU_CHK_NEARSIG                         IMPT 00000000   4824 
_KJYU_CMP_CMD                             IMPT 00000000   4883 
_KJYU_CMP_SEQHABA                         IMPT 00000000   4889 
_KJYU_CMP_SEQMINS                         IMPT 00000000   4888 
_KJ_AREATRD_SIG                           IMPT 00000000   4865 
_KJ_AREATRD_SIG_OLD                       IMPT 00000000   4866 
_KJ_AREA_BT0_OLD                          IMPT 00000000   3746 
_KJ_AREA_SIG                              IMPT 00000000   3745 
_KOMA_ASM_RAM_TOP                         IMPT 00000000   2469 
_LINKX_SV_OBJ_ABSPLS                      IMPT 00000000   3661 
_LINK_1000ROT_PLS                         IMPT 00000000   4201 
_LINK_1ROT_PLS                            IMPT 00000000   2756 
_LINK_2ROT_PLS                            IMPT 00000000   4198 
_LINK_3ROT_PLS                            IMPT 00000000   4199 
_LINK_4ROT_PLS                            IMPT 00000000   4200 
_LINK_CLANK_DIG_MAK                       IMPT 00000000   5694  5987 
_LINK_CLANK_PV                            IMPT 00000000   3478 
_LINK_MAX_SPD_PLS                         IMPT 00000000   3031 
_LINK_NOWROT_NUMPLS_ZR                    IMPT 00000000   2679 
_LINK_NOWROT_NUM_ZR                       IMPT 00000000   2678 
_LINK_NOWROT_OFSPLS                       IMPT 00000000   2680 
_LINK_NOWROT_OFSPLS_P                     IMPT 00000000   2681 
_LINK_OBJROT_NUMPLS_ZR                    IMPT 00000000   2750 
_LINK_OBJROT_NUM_ZR                       IMPT 00000000   2749 
_LINK_POS_OFFSET1                         IMPT 00000000   2843 
_LINK_POS_OFFSET2                         IMPT 00000000   2844 
_LINK_PV_ABSPLS                           IMPT 00000000   2842 
_LINK_RL_OBJ_ABSPLS                       IMPT 00000000   2803 
_LINK_SV_OBJ_ABSPLS                       IMPT 00000000   2811 
_LINK_SV_OBJ_SPDPLS                       IMPT 00000000   2812 
_LNGTH_ADD_DATA                           IMPT 00000000   2837 
_LNGTH_TOTAL_OUTPLS                       IMPT 00000000   2838 
_LOT_CHK_DBG_CNT1                         IMPT 00000000   3465 
_LOT_CHK_DBG_CNT2                         IMPT 00000000   3466 
_LOT_CHK_FLG                              IMPT 00000000   2648 
_LOT_CNT_FLG                              IMPT 00000000   2646 
_LSA1_FILETR_TIM                          IMPT 00000000   3727 
_LSA2_FILETR_TIM                          IMPT 00000000   3728 
_LSA_CHK_DELAY_TM                         IMPT 00000000   3733 
_LSA_ENC_DIG                              IMPT 00000000   3720 
_LSA_ENC_MOV_LNG1A                        IMPT 00000000   3721 
_LSA_ENC_MOV_LNG1B                        IMPT 00000000   3722 
_LSA_ENC_MOV_LNG2                         IMPT 00000000   3723 
_LSA_ERRCLR_INI                           IMPT 00000000   5699  5928 
*** SuperH RISC engine ASSEMBLER V.7.01.02.000 ***    12/12/17 19:19:44                                                  PAGE    48

*** CROSS REFERENCE LIST

NAME                             SECTION  ATTR VALUE             SEQUENCE

_LSA_ERR_SIG                              IMPT 00000000   3732 
_LSA_SIG_DT                               IMPT 00000000   3724 
_LSA_SIG_DT2                              IMPT 00000000   4049 
_LSA_SIG_OLD_DT                           IMPT 00000000   3725 
_LSA_SIG_OLD_WRK                          IMPT 00000000   3726 
_LSI_BUF_PLS_BitComdL                     IMPT 00000000   3584 
_LSI_CHK_DBG_CNT1                         IMPT 00000000   4457 
_LSI_CHK_DBG_CNT2                         IMPT 00000000   4458 
_LSI_CHK_DBG_CNT3                         IMPT 00000000   4459 
_LSI_CHK_DBG_CNT4                         IMPT 00000000   4460 
_LSI_CMPCPUAB_POSMAX                      IMPT 00000000   3563 
_LSI_CMPCPUAB_POS_RL                      IMPT 00000000   3562 
_LSI_LOAD_PLS                             IMPT 00000000   5167 
_LSI_PLSCLR_AC_CNT1                       IMPT 00000000   3552 
_LSI_PLSCLR_NG_CNT1                       IMPT 00000000   3553 
_LSI_PLSCLR_NG_CNT2                       IMPT 00000000   3554 
_LSI_PLSCLR_RETRY_CNT1                    IMPT 00000000   3535 
_LSI_PLSCMP_AC_CNT1                       IMPT 00000000   3548 
_LSI_PLSCMP_NG_CNT1                       IMPT 00000000   3546 
_LSI_PLSCMP_RETRY_CNT1                    IMPT 00000000   3545 
_LSI_PLSRD_NG_CNT1                        IMPT 00000000   3549 
_LSI_PLSSET_AC_CNT1                       IMPT 00000000   3555 
_LSI_PLSSET_AC_CNT2                       IMPT 00000000   3556 
_LSI_PLSSET_NG_CNT1                       IMPT 00000000   3557 
_LSI_PLSSET_NG_CNT2                       IMPT 00000000   3558 
_LSI_PLSSET_NG_CNT3                       IMPT 00000000   3559 
_LSI_PLSSET_RETRY_CNT1                    IMPT 00000000   3536 
_LSI_SET_SPD_MAXLMT                       IMPT 00000000   3646 
_LSI_SET_SPD_MINLMT                       IMPT 00000000   3647 
_LSI_SET_SPD_SV                           IMPT 00000000   3645 
_LT_INT_LINK_RL_OBJ_ABSPLS                IMPT 00000000   3496 
_LT_LINK_SV_OBJ_ABSPLS                    IMPT 00000000   3495 
_LT_LNGTH_ADD_DATA                        IMPT 00000000   3497 
_LT_LNGTH_TOTAL_OUTPLS                    IMPT 00000000   3498 
_MAIN_CLK                                 IMPT 00000000   4761 
_MAIN_START_OK                            IMPT 00000000   2479 
_MCN_DBG_COD11                            EQU  00000063   2228*
_MCN_DBG_COD21                            EQU  00000059   2230*
_MCN_DBG_COD22                            EQU  00000058   2231*
_MCN_DBG_COD23                            EQU  00000058   2232*
_MCN_DBG_COD31                            EQU  0000004F   2234*
_MCN_DBG_COD32                            EQU  0000004E   2235*
_MCN_DBG_COD33                            EQU  0000004D   2236*
_MCN_FUJI_DBG1                            EQU  000004D2   2238*
_MNWR_POS_CMD                             IMPT 00000000   2772 
_MODE_AREA_MAKE                           IMPT 00000000   5662  6222 
_MODE_CHANGE                              IMPT 00000000   5660  6218 
_MODE_CTRL                                IMPT 00000000   5661  6354 
_MODE_SEL                                 IMPT 00000000   2609 
_MONI_CPUAB_PLSDELT                       IMPT 00000000   3902 
_MONI_DISP_MOD                            IMPT 00000000   5373 
_MONI_RDY_STEP                            IMPT 00000000   4982 
_MONI_RESET_STEP                          IMPT 00000000   4981 
_MONI_SELF_STS1                           IMPT 00000000   4983 
*** SuperH RISC engine ASSEMBLER V.7.01.02.000 ***    12/12/17 19:19:44                                                  PAGE    49

*** CROSS REFERENCE LIST

NAME                             SECTION  ATTR VALUE             SEQUENCE

_MONI_SELF_STS2                           IMPT 00000000   4984 
_MOTER_MOVING_ERR                         IMPT 00000000   5654  6303 
_MOTOR_MOV_STOP_CHK                       IMPT 00000000   5687  6329 
_MOT_REP_CNT                              IMPT 00000000   5028 
_MOT_REP_F                                IMPT 00000000   5027 
_MOVE_MODE_MATH_LATCH                     IMPT 00000000   5045 
_MOV_DATA_ERR_FLG1                        IMPT 00000000   2582 
_MOV_ERR_FLG1                             IMPT 00000000   2579 
_MRTION_SEL                               IMPT 00000000   2614 
_MULDIV_R1R2S64mR3S32dR4S32aR1R2*         IMPT 00000000   5625 
_MULDIV_R2S32mR1S32dR4S32aR1R2S6*         IMPT 00000000   5624 
_MUL_R1R2S64mR3S32aR1R2S64                IMPT 00000000   5626 
_MYUTING_MOD_STOPSEL                      IMPT 00000000   4710 
_M_LINK_AREASIG                           IMPT 00000000   2688 
_M_LINK_RL_OBJ_ABSPLS                     IMPT 00000000   2796 
_NEAR_IN_FLG                              IMPT 00000000   2671 
_NEG_CTL_OBJ_POS_PUSH                     IMPT 00000000   4309 
_NEG_CTRL_BEFOR_OBJ_PLS                   IMPT 00000000   4307 
_NEG_CTRL_BEFOR_SLW_PLS                   IMPT 00000000   4308 
_NEG_EXITTIM                              IMPT 00000000   4679 
_NEW_POSLSI_RESTPLS                       IMPT 00000000   3564 
_NEW_TEP_CNT                              IMPT 00000000   3792 
_NOW_INCPLS_CHG_MM_MAK                    IMPT 00000000   5680  5977 
_NOW_INC_DIG_MAK                          IMPT 00000000   5678  5969 
_NOW_MOTREP_DIR                           IMPT 00000000   5029 
_NOW_RNA_DIG_MAK                          IMPT 00000000   5679  5973 
_NZ_TIM_OUT_PV1                           IMPT 00000000   3380 
_NZ_TIM_OUT_PV2                           IMPT 00000000   3381 
_NZ_TIM_OUT_SV1                           IMPT 00000000   3378 
_NZ_TIM_OUT_SV2                           IMPT 00000000   3379 
_OBJDIG_CLANK                             IMPT 00000000   4682 
_OBJ_ENC360                               IMPT 00000000   2523 
_OLD_RNAORG_POS1                          IMPT 00000000   2510 
_ORGIN2_STEP_FLG                          IMPT 00000000   4318 
_ORGIN_END_FLG1                           IMPT 00000000   3053 
_ORGIN_MOD2_CHKTIM                        IMPT 00000000   3816 
_ORGIN_MOD2_SEL                           IMPT 00000000   3815 
_ORGIN_MOD2_START_FLG                     IMPT 00000000   3817 
_ORGIN_POS_PLS_SET1                       IMPT 00000000   5672  5924 
_ORGPOS_LATCH1_INC_OFFSET_PLS             IMPT 00000000   4374 
_ORGPOS_LATCH1_RNA_ABS_DAT                IMPT 00000000   4375 
_ORGPOS_SERCH_RNA_ABS_DAT                 IMPT 00000000   4376 
_ORG_DND_NOMAL_FLG1                       IMPT 00000000   2586 
_ORG_DRV_CNT_PV                           IMPT 00000000   3452 
_ORG_ELSE_NOMAL_FLG1                      IMPT 00000000   2585 
_ORG_FIRST_OBJPLS                         IMPT 00000000   3044 
_ORG_PRESET_TIM                           IMPT 00000000   2594  5916 
_ORG_RDY_CTL_FLG                          IMPT 00000000   3453 
_ORG_SECOND_OBJPLS                        IMPT 00000000   3045 
_ORIGN_180ARA_FLG                         IMPT 00000000   4010 
_ORIGN_OBJ_CTL_FLG                        IMPT 00000000   3648 
_OUTPLS_1000MSEC_LAT                      IMPT 00000000   3439 
_OUTPLS_DELT                              IMPT 00000000   3435 
_OUTPLS_DIV                               IMPT 00000000   2846 
*** SuperH RISC engine ASSEMBLER V.7.01.02.000 ***    12/12/17 19:19:44                                                  PAGE    50

*** CROSS REFERENCE LIST

NAME                             SECTION  ATTR VALUE             SEQUENCE

_OUTPLS_MOD                               IMPT 00000000   2845 
_OUTPLS_POINT_SEL                         IMPT 00000000   3438 
_OUTPLS_SPD_AVL_TOP                       IMPT 00000000   3436 
_OUTPLS_SPD_POINT                         IMPT 00000000   3437 
_OUTPLS_SPD_TOTAL                         IMPT 00000000   3431 
_OUT_PLS_SPD                              IMPT 00000000   3432 
_OUT_PLS_SPD_CALC                         IMPT 00000000   5692  6011 
_OUT_PLS_SPD_DIR                          IMPT 00000000   3434 
_OUT_UP_DN_TOTAL_CNT                      IMPT 00000000   5669  5981 
_OVER1_JGDIG                              EQU  00000032   2037*
_OVERH_CALC_USE                           IMPT 00000000   4676 
_OVERH_MODE_SEL                           IMPT 00000000   4674 
_OVERLIDE_DT_SEL                          IMPT 00000000   3864 
_OVER_LIDE_ANS_TIM                        IMPT 00000000   3891 
_OVER_RIDE_LATE_ANS                       IMPT 00000000   3854 
_OVER_RIDE_LATE_FLG                       IMPT 00000000   3852 
_OVER_RIDE_LATE_REQ                       IMPT 00000000   3853 
_OVER_RIDE_USEFUL                         IMPT 00000000   3886 
_OVER_UPDN_DBGCNT                         IMPT 00000000   3888 
_OVRLIDE_LATE_MAX                         EQU  00000064   2269*
_PLSOUTEND_FLG                            IMPT 00000000   5190 
_PLSOUTEND_PVPLS                          IMPT 00000000   5188 
_PLSOUTEND_SHIN                           IMPT 00000000   5189 
_PLS_OUTPUT_FLG                           IMPT 00000000   3371 
_PLS_OUT_END_STS                          IMPT 00000000   4744 
_PON_ERR_WAIT_TIM                         IMPT 00000000   5120 
_POSCANSEL_CMD                            IMPT 00000000   5309 
_POSCTL_CALC_ERR                          IMPT 00000000   3839 
_POSCTL_OVER_ACC_LAT                      IMPT 00000000   3895 
_POSCTL_OVER_SPD_LAT                      IMPT 00000000   3894 
_POSCTL_RL_PLS                            IMPT 00000000   3826 
_POSCTL_RL_SPD                            IMPT 00000000   3830 
_POSCTL_SET_SPD                           IMPT 00000000   3828 
_POSCTL_STEP_CMD                          IMPT 00000000   3837 
_POSCTL_STEP_FLG                          IMPT 00000000   3838 
_POSCTL_SV_DN_ACC                         IMPT 00000000   3833 
_POSCTL_SV_OFS_SPD                        IMPT 00000000   3835 
_POSCTL_SV_PLS                            IMPT 00000000   3825 
_POSCTL_SV_SPD                            IMPT 00000000   3829 
_POSCTL_SV_UP_ACC                         IMPT 00000000   3832 
_POSHLD1_CHKLST_FLG                       IMPT 00000000   4976 
_POSHLD1_GENSKPOSWK                       IMPT 00000000   4955 
_POSHLD1_GENSK_STEP                       IMPT 00000000   4956 
_POSHLD1_SDAT1_HOLDPOS                    IMPT 00000000   4958 
_POSHLD1_SDAT2_HOLDPOS                    IMPT 00000000   4959 
_POSHLD1_STOPLATCH                        IMPT 00000000   4964 
_POSHLD1_STOPSPDWK                        IMPT 00000000   4953 
_POSHLD1_STOP_STEP                        IMPT 00000000   4952 
_POSHLD1_STOP_STEPWK                      IMPT 00000000   4951 
_POSHLD_SET_DN_ACC                        IMPT 00000000   4963 
_POSINER_FLG                              IMPT 00000000   4905 
_POSINER_MOSTPV_POS                       IMPT 00000000   4901 
_POSINER_OLDPV_POS                        IMPT 00000000   4900 
_POSINER_PV_POS                           IMPT 00000000   4899 
*** SuperH RISC engine ASSEMBLER V.7.01.02.000 ***    12/12/17 19:19:44                                                  PAGE    51

*** CROSS REFERENCE LIST

NAME                             SECTION  ATTR VALUE             SEQUENCE

_POSINER_RETRY_CNT                        IMPT 00000000   4907 
_POSINER_STOPCHK_TIM1                     IMPT 00000000   4908 
_POSINER_STOPCHK_TIM2                     IMPT 00000000   4909 
_POSINER_STS                              IMPT 00000000   4906 
_POSINER_SV_OVRPOS                        IMPT 00000000   4903 
_POSINER_SV_POS                           IMPT 00000000   4902 
_POSINER_SV_STPPOS                        IMPT 00000000   4904 
_POSITIONER_DAIHAITO                      IMPT 00000000   5712  6449 
_POSLSI_CHK_CNT                           IMPT 00000000   2855 
_POSLSI_CHK_DLT                           IMPT 00000000   2856 
_POSLSI_CHK_RESTPLS                       IMPT 00000000   2849 
_POSLSI_CHK_STS                           IMPT 00000000   2857 
_POSLSI_CMP_DATA                          IMPT 00000000   2839 
_POSLSI_DELT_POS                          IMPT 00000000   2840 
_POSLSI_DRIV_SHIN                         IMPT 00000000   2848 
_POSLSI_DRV_FRQ                           IMPT 00000000   3565 
_POSLSI_HENSA_LATCH                       IMPT 00000000   2853 
_POSLSI_OUTPUT_TOTAL_PLS                  IMPT 00000000   2851 
_POS_CALC_ERR_FLG1                        IMPT 00000000   3538 
_POS_CALC_ERR_FLG2                        IMPT 00000000   3539 
_POS_CALC_ERR_INF1                        IMPT 00000000   3542 
_POS_CALC_ERR_INF2                        IMPT 00000000   3543 
_POS_CTRL_SQ_STS                          IMPT 00000000   2819 
_POS_DRV_DIRECT                           IMPT 00000000   2813 
_POS_END_MYUTIG_KEEPTIM                   IMPT 00000000   5209  6678 
_POS_END_MYUTIG_STOPTIM                   IMPT 00000000   5208  6670 
_POS_END_WAIT_TIM                         IMPT 00000000   5199  6662 
_POS_FRQ_SPDMAX                           IMPT 00000000   3037 
_POS_GPOINT_POS                           IMPT 00000000   3928 
_POS_HLDSTOP1_CHKTIM                      IMPT 00000000   4935 
_POS_HLDSTOP1_FLG                         IMPT 00000000   4936 
_POS_HLDSTOP1_SIG1TIM                     IMPT 00000000   4937 
_POS_HLDSTOP1_SIG2TIM                     IMPT 00000000   4938 
_POS_HOLDABS_CALCF                        IMPT 00000000   4975 
_POS_HOLD_CMD                             IMPT 00000000   4970 
_POS_HOLD_FLG                             IMPT 00000000   4971 
_POS_HOLD_RDY_EXITF                       IMPT 00000000   4972 
_POS_HOLD_RDY_EXITF2                      IMPT 00000000   4973 
_POS_HOLD_RESTARTCMD                      IMPT 00000000   4969 
_POS_LSI_ABSPLS                           IMPT 00000000   2901 
_POS_LSI_ACCLT1                           IMPT 00000000   3041 
_POS_LSI_ACCLT2                           IMPT 00000000   3042 
_POS_LSI_ACS_ERR_FLG1                     IMPT 00000000   3537 
_POS_LSI_ACS_ERR_INF1                     IMPT 00000000   3541 
_POS_LSI_CLSINC_SPDBAS                    IMPT 00000000   3059 
_POS_LSI_CLS_SPDBAS                       IMPT 00000000   3058 
_POS_LSI_CTL_NOWPLS                       IMPT 00000000   2905 
_POS_LSI_ENC_LOD                          IMPT 00000000   5671  5961 
_POS_LSI_OFFSET1                          IMPT 00000000   2903 
_POS_LSI_OFFSET2                          IMPT 00000000   2904 
_POS_LSI_OLDCNT                           IMPT 00000000   2907 
_POS_LSI_SPDBAS                           IMPT 00000000   3040 
_POS_LSI_SPDLAT                           IMPT 00000000   3039 
_POS_LSI_SPDMAX                           IMPT 00000000   3038 
*** SuperH RISC engine ASSEMBLER V.7.01.02.000 ***    12/12/17 19:19:44                                                  PAGE    52

*** CROSS REFERENCE LIST

NAME                             SECTION  ATTR VALUE             SEQUENCE

_POS_LSI_TOTAL_PLS                        IMPT 00000000   2900 
_PRD_DAI_CMP_ENB                          IMPT 00000000   3490 
_PRD_DAI_POS0                             IMPT 00000000   3488 
_PRD_DAI_POS1                             IMPT 00000000   3489 
_PRD_KJP_CMP_ENB                          IMPT 00000000   3976 
_PS_DG_INF_CHK1                           EQU  00000000   2202*
_PS_DG_INF_CHK2                           EQU  0000003C   2207*
_PS_DG_INF_CONT                           EQU  00000004   2203*
_PS_DG_INF_LATE                           EQU  00000010   2206*
_PS_DG_INF_STLK                           EQU  0000000C   2205*
_PS_DG_INF_UNIT                           EQU  00000008   2204*
_PS_TIME                                  EQU  00000002   1996*
_PVCK_STOP_SMPTIM                         IMPT 00000000   3239 
_PVC_BRK_ENC_SPD                          IMPT 00000000   3443 
_PVC_BRK_OUT_SPD                          IMPT 00000000   3444 
_PVX_AMPERR_TIM1                          IMPT 00000000   3177  6812 
_PVX_AMPERR_TIM2                          IMPT 00000000   3178  6820 
_PVX_AMPERR_TIM3                          IMPT 00000000   3179  6828 
_PVX_CKAGL_OVBIT                          IMPT 00000000   4734 
_PVX_CKSPD_OVBIT                          IMPT 00000000   4715 
_PVX_DAI_POS0                             IMPT 00000000   2921 
_PVX_DAI_POS1                             IMPT 00000000   2922 
_PVX_DNMOD_DLYTIM                         IMPT 00000000   4699 
_PVX_DYHITO_POS                           IMPT 00000000   2929 
_PVX_IAMP_VLT                             IMPT 00000000   3180 
_PVX_INPPOS_TIM1                          IMPT 00000000   3153  6715 
_PVX_MOTINS_AG2                           IMPT 00000000   4519 
_PVX_MOTINS_AG2X                          IMPT 00000000   4520 
_PVX_MOTINS_AG3                           IMPT 00000000   4525 
_PVX_MOTINS_AG3X                          IMPT 00000000   4526 
_PVX_MOTINS_AGL                           IMPT 00000000   4522 
_PVX_MOTINS_AGLX                          IMPT 00000000   4523 
_PVX_MOTINS_DAN                           IMPT 00000000   4530 
_PVX_MOTINS_DANAFT                        IMPT 00000000   4531 
_PVX_MOTINS_DANBEF                        IMPT 00000000   4529 
_PVX_MOTINS_INF                           IMPT 00000000   4533 
_PVX_MOTINS_POS                           IMPT 00000000   4516 
_PVX_MOTINS_PS2                           IMPT 00000000   4515 
_PVX_MOTINS_PS3                           IMPT 00000000   4517 
_PVX_RNA_STLORK                           IMPT 00000000   2923 
_PV_ENC_SPD_PER                           IMPT 00000000   3441 
_PV_OUT_SPD_PER                           IMPT 00000000   3442 
_RCIVE2_READ                              IMPT 00000000   5837  5840 
_RDY_OF                                   IMPT 00000000   5480 
_RDY_ON                                   IMPT 00000000   5479 
_RDY_SFTY_LOCK                            IMPT 00000000   3712 
_RDY_SFTY_WAIT_TIM                        IMPT 00000000   3713  6736 
_REP_CAMOBJ_DIG                           IMPT 00000000   5030 
_RESET_CHEAK                              IMPT 00000000   5659  6057 
_RESET_END_OUT                            IMPT 00000000   5472 
_RESET_OUT                                IMPT 00000000   5471 
_RESET_ROTNUMPLS_ZR                       IMPT 00000000   2713 
_RESET_ROTNUM_ZR                          IMPT 00000000   2712 
_REVCHK_DRIV_SHIN                         IMPT 00000000   4600 
*** SuperH RISC engine ASSEMBLER V.7.01.02.000 ***    12/12/17 19:19:44                                                  PAGE    53

*** CROSS REFERENCE LIST

NAME                             SECTION  ATTR VALUE             SEQUENCE

_REVCHK_MASK_PVTIM                        IMPT 00000000   4601 
_REVMOD_REVDN_DIG                         IMPT 00000000   4603 
_REV_CALC_WORK0                           IMPT 00000000   3230 
_REV_CALC_WORK1                           IMPT 00000000   3231 
_REV_CALC_WORK2                           IMPT 00000000   3232 
_REV_ERR_FLG                              IMPT 00000000   5230 
_REV_ERR_LT_PGPOS                         IMPT 00000000   5233 
_REV_ERR_LT_SVPOS                         IMPT 00000000   5234 
_REV_ERR_WAIT_TIMPV                       IMPT 00000000   4599 
_REV_LATCH_ENCPOS                         IMPT 00000000   2871 
_REV_LATCH_OUTPLS                         IMPT 00000000   2870 
_REV_LATCH_RNAPOS                         IMPT 00000000   2872 
_RM1_CHK_OLDSTS                           IMPT 00000000   5055 
_RM1_CHK_TIME                             IMPT 00000000   5056 
_RM2_CHK_OLDSTS                           IMPT 00000000   5058 
_RM2_CHK_TIME                             IMPT 00000000   5059 
_RNAREV_ADD                               EQU  00000000   2059*
_RNASTP_ADD                               EQU  00000000   2057*
_RNA_ABS_DRVHOS_DT                        IMPT 00000000   2962 
_RNA_ABS_MAXPOS                           IMPT 00000000   2941 
_RNA_ABS_MD2_C1                           IMPT 00000000   4333 
_RNA_ABS_MD2_C1A                          IMPT 00000000   4334 
_RNA_ABS_MD2_C2                           IMPT 00000000   4335 
_RNA_ABS_MD_DT0                           IMPT 00000000   2925 
_RNA_ABS_MD_DT1                           IMPT 00000000   2926 
_RNA_ABS_MEMORG                           IMPT 00000000   2918 
_RNA_ABS_MINPOS                           IMPT 00000000   2940 
_RNA_ABS_ORGWORK                          IMPT 00000000   2909 
_RNA_ABS_ORGWORK2                         IMPT 00000000   4327 
_RNA_ABS_ORGWORK2A                        IMPT 00000000   4328 
_RNA_ABS_POS                              IMPT 00000000   2917 
_RNA_ABS_WKMAXPOS                         IMPT 00000000   2939 
_RNA_ABS_WKMINPOS                         IMPT 00000000   2938 
_RNA_BBN_MESURE_POINT                     IMPT 00000000   4474 
_RNA_BBN_MESURE_SPOS_BUF                  IMPT 00000000   4467 
_RNA_BBN_MESURE_SSPD                      IMPT 00000000   4469 
_RNA_BBN_MESURE_SSPD_BUF                  IMPT 00000000   4468 
_RNA_BBN_MEUSRE_ACC                       IMPT 00000000   4471 
_RNA_BBN_MEUSRE_ACC_SRC                   IMPT 00000000   4470 
_RNA_BBN_SET_TIME                         IMPT 00000000   4473 
_RNA_CMD_RD_CNT                           IMPT 00000000   2536 
_RNA_CMD_SND_CNT                          IMPT 00000000   2535 
_RNA_COM_ERR_CNT                          IMPT 00000000   2528 
_RNA_COM_NML_CNT                          IMPT 00000000   2529 
_RNA_CTL_POS0                             IMPT 00000000   2927 
_RNA_CTL_POS1                             IMPT 00000000   2928 
_RNA_ENC360                               IMPT 00000000   2520 
_RNA_ERR_RSTCHK                           IMPT 00000000   5703  6051 
_RNA_HOS_DELT                             IMPT 00000000   2930 
_RNA_INSERT_CHKFLG                        IMPT 00000000   4486 
_RNA_LINK_NOWROT_OFSPLS_P                 IMPT 00000000   2704 
_RNA_OLD_STEP                             IMPT 00000000   4489 
_RNA_POS_MAK                              IMPT 00000000   5674  5957 
_RNA_POS_OFFSET1                          IMPT 00000000   2915 
*** SuperH RISC engine ASSEMBLER V.7.01.02.000 ***    12/12/17 19:19:44                                                  PAGE    54

*** CROSS REFERENCE LIST

NAME                             SECTION  ATTR VALUE             SEQUENCE

_RNA_POS_OFFSET2                          IMPT 00000000   2916 
_RNA_PROTOCOL_SEL                         IMPT 00000000   4026 
_RNA_PROTOCOL_X                           IMPT 00000000   4029 
_RNA_RESET_FLG                            IMPT 00000000   2531 
_RNA_RESET_TIM                            IMPT 00000000   2532 
_RNA_STLORK                               IMPT 00000000   2920 
_RNA_STLORK_HALF                          IMPT 00000000   4325 
_RNA_STOP_CNT                             IMPT 00000000   3240 
_RNA_TECH_POINT                           IMPT 00000000   4485 
_RNA_TECH_POSBUF                          IMPT 00000000   4484 
_ROOT_MAIN_INP                            IMPT 00000000   5379 
_ROOT_MAIN_OUT                            IMPT 00000000   5380 
_RST_DLY_TM                               EQU  000000C8   2015*
_RST_ERR_CHK_ERR                          IMPT 00000000   2876 
_RST_ERR_CHK_FLG                          IMPT 00000000   2874 
_SAME_TIM                                 IMPT 00000000   2656  6633 
_SCAN_DBG_CNT                             IMPT 00000000   4780 
_SCAN_SMP_SIG                             IMPT 00000000   4767 
_SCAN_TIM_IDOBUF                          IMPT 00000000   4758  7086 
_SCAN_TIM_IN                              IMPT 00000000   4763  7059  7078 
_SCAN_TIM_POINT                           IMPT 00000000   4759  7087 
_SCAN_TIM_TOTAL                           IMPT 00000000   4757  7085 
_SDATCLS_OBJMM                            IMPT 00000000   3065 
_SDATCLS_OBJPLS                           IMPT 00000000   3064 
_SDATCLS_OBJ_NEAR_UPDNPLS                 IMPT 00000000   3066 
_SDATCLS_TRG_STEP                         IMPT 00000000   3068 
_SDATCLS_UPOBJ_PLS                        IMPT 00000000   3067 
_SDAT_WAIT_PVTIM                          IMPT 00000000   2758 
_SELF_AD_LATCH                            IMPT 00000000   3701 
_SELF_BRK_LOCK                            IMPT 00000000   3697 
_SELF_CHEAK                               IMPT 00000000   5664  6349 
_SELF_CHK_MATHED                          IMPT 00000000   3696 
_SELF_CHK_SEL                             IMPT 00000000   2603 
_SELF_COM                                 IMPT 00000000   2601 
_SELF_FIRST_END_FLG                       IMPT 00000000   3694 
_SELF_FLG                                 IMPT 00000000   2599 
_SELF_LOCK_FLG                            IMPT 00000000   3981 
_SELF_MOV_LENGTH                          IMPT 00000000   3704 
_SELF_MOV_SPEED                           IMPT 00000000   3705 
_SELF_SECOND_ACT_FLG                      IMPT 00000000   3699 
_SELF_SECOND_STEP                         IMPT 00000000   3700 
_SELF_START_POS_LATCH                     IMPT 00000000   3703 
_SELF_START_WAIT_TM                       IMPT 00000000   2602  6726 
_SELF_TIMING_SIG                          IMPT 00000000   3695 
_SEND2_SEND                               IMPT 00000000   5838  5844 
_SEQ_IN1                                  IMPT 00000000   5666  6024 
_SEQ_VALV_ON                              IMPT 00000000   5667  6227 
_SET1_ACCLAT_TIM1                         IMPT 00000000   3140 
_SET1_AMP100P_VLT                         IMPT 00000000   3174 
_SET1_ARACHK_LNG1                         IMPT 00000000   3155 
_SET1_ATDAT_DOTPOS                        IMPT 00000000   4916 
_SET1_ATSLID_BAKLNG                       IMPT 00000000   4912 
_SET1_ATSLID_COEF1                        IMPT 00000000   4915 
_SET1_ATSLID_DNOBJ1                       IMPT 00000000   4913 
*** SuperH RISC engine ASSEMBLER V.7.01.02.000 ***    12/12/17 19:19:44                                                  PAGE    55

*** CROSS REFERENCE LIST

NAME                             SECTION  ATTR VALUE             SEQUENCE

_SET1_ATSLID_UPOBJ1                       IMPT 00000000   4914 
_SET1_BREAK_DIG                           IMPT 00000000   3476 
_SET1_BREAK_TIM1                          IMPT 00000000   3474 
_SET1_CNT_CNT                             IMPT 00000000   3083 
_SET1_CNT_TIM                             IMPT 00000000   3081 
_SET1_DAIHAI_LNG1                         IMPT 00000000   3166 
_SET1_DAIHAI_LNG2                         IMPT 00000000   3167 
_SET1_DAIHAI_LNG3                         IMPT 00000000   3168 
_SET1_DAIHAI_ORG0                         IMPT 00000000   3185 
_SET1_DAIORG0_CMP1DN                      IMPT 00000000   3187 
_SET1_DAIORG0_CMP1UP                      IMPT 00000000   3186 
_SET1_DAIORG0_CMP2DN                      IMPT 00000000   3189 
_SET1_DAIORG0_CMP2UP                      IMPT 00000000   3188 
_SET1_DAIORG0_CMP3DN                      IMPT 00000000   3191 
_SET1_DAIORG0_CMP3UP                      IMPT 00000000   3190 
_SET1_DAIORG0_CMP4DN                      IMPT 00000000   3193 
_SET1_DAIORG0_CMP4UP                      IMPT 00000000   3192 
_SET1_DNAREA_INPX                         IMPT 00000000   3143 
_SET1_DNAREA_INPXPLS                      IMPT 00000000   3147 
_SET1_DNAREA_JUDG                         IMPT 00000000   3117 
_SET1_DNDINC_SPD1                         IMPT 00000000   3126 
_SET1_DND_DIGTOP                          IMPT 00000000   3755 
_SET1_DND_PLSTOP                          IMPT 00000000   3756 
_SET1_DND_STOPDIG_UP                      IMPT 00000000   3754 
_SET1_DND_STOP_SW                         IMPT 00000000   3753 
_SET1_DND_UPPLS                           IMPT 00000000   3757 
_SET1_EJECAM_OFR                          IMPT 00000000   5019 
_SET1_EJECAM_ONR                          IMPT 00000000   5018 
_SET1_ENC360_HOS1                         IMPT 00000000   3157 
_SET1_FULCLS_MXPLS                        IMPT 00000000   3169 
_SET1_INCDIR_SEL1                         IMPT 00000000   3098 
_SET1_INCENC_ELNG                         IMPT 00000000   3160 
_SET1_INCHEN_ELNG                         IMPT 00000000   3159 
_SET1_INCPLS_1REV                         IMPT 00000000   3095 
_SET1_INCPLS_HOSM                         IMPT 00000000   3100 
_SET1_INCPLS_HOSN                         IMPT 00000000   3099 
_SET1_INCPOS_KP01                         IMPT 00000000   3138 
_SET1_INCREV_ELNG                         IMPT 00000000   3164 
_SET1_INCRNA_ELNG                         IMPT 00000000   3161 
_SET1_INCSTP_ELNG                         IMPT 00000000   3162 
_SET1_INPPOS_TIM1                         IMPT 00000000   3152 
_SET1_INTLIM_AGL                          IMPT 00000000   4941 
_SET1_INTLIM_PLS                          IMPT 00000000   4943 
_SET1_KAJAREA_ENO                         IMPT 00000000   4853 
_SET1_KAJAREA_SEL                         IMPT 00000000   4867 
_SET1_KAJAREA_SNO                         IMPT 00000000   4852 
_SET1_KATTCH_EAG                          IMPT 00000000   4875 
_SET1_KATTCH_SAG                          IMPT 00000000   4874 
_SET1_KATTCH_SPD                          IMPT 00000000   4543 
_SET1_KJEND_DIG1                          IMPT 00000000   3744 
_SET1_KJEND_DIG2                          IMPT 00000000   4856 
_SET1_KJEND_STEP1                         IMPT 00000000   3743 
_SET1_KJSTR_DIG1                          IMPT 00000000   3742 
_SET1_KJSTR_DIG2                          IMPT 00000000   4855 
*** SuperH RISC engine ASSEMBLER V.7.01.02.000 ***    12/12/17 19:19:44                                                  PAGE    56

*** CROSS REFERENCE LIST

NAME                             SECTION  ATTR VALUE             SEQUENCE

_SET1_KJSTR_STEP1                         IMPT 00000000   3741 
_SET1_LSAABN_AGL1                         IMPT 00000000   3730 
_SET1_LSAABN_AGL2                         IMPT 00000000   3731 
_SET1_MAX_KJYU                            IMPT 00000000   4186 
_SET1_MISCAM_OFR                          IMPT 00000000   5021 
_SET1_MISCAM_ONR                          IMPT 00000000   5020 
_SET1_MOTMAX_FREQ                         IMPT 00000000   3112 
_SET1_MOTREP_CNT                          IMPT 00000000   5011 
_SET1_MOTREP_SPD                          IMPT 00000000   5010 
_SET1_MOTREP_STGE                         IMPT 00000000   5009 
_SET1_MOTREP_STGS                         IMPT 00000000   5008 
_SET1_MOTREP_USEFUL                       IMPT 00000000   5007 
_SET1_MOTRPM_MAXM                         IMPT 00000000   3102 
_SET1_MRTION_SEL1                         IMPT 00000000   3195 
_SET1_MTSTEP_MAXM                         IMPT 00000000   3196 
_SET1_NEG_OFS_LNG                         IMPT 00000000   3173 
_SET1_OBJARA_INPX                         IMPT 00000000   3144 
_SET1_OBJARA_INPXPLS                      IMPT 00000000   3148 
_SET1_OBJARA_INPXPSX                      IMPT 00000000   3150 
_SET1_OBJECT_DIG_TOP                      IMPT 00000000   3220 
_SET1_OBJECT_PLS_TOP                      IMPT 00000000   3206 
_SET1_OBJECT_POS_TOP                      IMPT 00000000   3201 
_SET1_OBJECT_SPD_TOP                      IMPT 00000000   3209 
_SET1_OBJECT_TIM_TOP                      IMPT 00000000   3213 
_SET1_OBJ_CAM_DIG_TOP                     IMPT 00000000   3254 
_SET1_OVERLIDE_COF                        IMPT 00000000   3865 
_SET1_PLSAHI_PLS                          IMPT 00000000   3781 
_SET1_PLSALO_PLS                          IMPT 00000000   3780 
_SET1_RCAMON_POS_TOP                      IMPT 00000000   3256 
_SET1_RCAMON_TIM_TOP                      IMPT 00000000   3257 
_SET1_REVDAT_SPD1                         IMPT 00000000   3129 
_SET1_REVDAT_SPD2                         IMPT 00000000   3132 
_SET1_REVDAT_SPD3                         IMPT 00000000   3133 
_SET1_RNADIR_SEL1                         IMPT 00000000   3097 
_SET1_RNAORG_POS1                         IMPT 00000000   3113 
_SET1_RNAPOS_KP01                         IMPT 00000000   3139 
_SET1_RNAPOS_MAXP                         IMPT 00000000   3114 
_SET1_RNAPOS_MINP                         IMPT 00000000   3115 
_SET1_RNAREV_ELNG                         IMPT 00000000   3165 
_SET1_RNASTP_ELNG                         IMPT 00000000   3163 
_SET1_ROTCAM_OFR                          IMPT 00000000   5017 
_SET1_ROTCAM_ONR                          IMPT 00000000   5016 
_SET1_RPARAM_TOP1                         IMPT 00000000   3091 
_SET1_SSCURV_TIM1                         IMPT 00000000   3141 
_SET1_STDINC_SPD1                         IMPT 00000000   3128 
_SET1_TEPCTL_SPD1                         IMPT 00000000   3788 
_SET1_TEPLAT_DAT1                         IMPT 00000000   3135 
_SET1_TEPLAT_DAT2                         IMPT 00000000   3136 
_SET1_UPAREA_DIG0                         IMPT 00000000   3219 
_SET1_UPAREA_DIG1                         IMPT 00000000   3156 
_SET1_UPAREA_INPX                         IMPT 00000000   3142 
_SET1_UPAREA_INPXPLS                      IMPT 00000000   3146 
_SET1_UPAREA_JUDG                         IMPT 00000000   3116 
_SET1_UPAREA_PLS0                         IMPT 00000000   3204 
*** SuperH RISC engine ASSEMBLER V.7.01.02.000 ***    12/12/17 19:19:44                                                  PAGE    57

*** CROSS REFERENCE LIST

NAME                             SECTION  ATTR VALUE             SEQUENCE

_SET1_UPAREA_PLS1                         IMPT 00000000   3205 
_SET1_UPAREA_POS0                         IMPT 00000000   3200 
_SET1_UPAREA_POS1                         IMPT 00000000   3036 
_SET1_UPAREA_SPD0                         IMPT 00000000   3208 
_SET1_UPAREA_SPD1                         IMPT 00000000   3127 
_SET1_UPAREA_TIM0                         IMPT 00000000   3212 
_SET1_UPCLEEP_SPD                         IMPT 00000000   3130 
_SET1_VIB_KJYU_TTL                        IMPT 00000000   4185 
_SET2_INTLIM_AGL                          IMPT 00000000   4942 
_SET2_INTLIM_PLS                          IMPT 00000000   4944 
_SET360_UPAREA_DIG1                       IMPT 00000000   4041 
_SET360_UPAREA_PLS1                       IMPT 00000000   4042 
_SETC_KJEND_DIG1                          IMPT 00000000   4124 
_SETC_KJEND_DIG2                          IMPT 00000000   4863 
_SETC_KJSTR_DIG1                          IMPT 00000000   4123 
_SETC_KJSTR_DIG2                          IMPT 00000000   4862 
_SETD_DEGSPD_MAX                          IMPT 00000000   3292 
_SETD_LINK_MAX_SPD_PLS                    IMPT 00000000   4234 
_SETD_MOTRPM_MAXM                         IMPT 00000000   4235 
_SETXY_LINK_UP_POS_DN                     IMPT 00000000   4105 
_SETXY_LINK_UP_POS_UP                     IMPT 00000000   4104 
_SETXY_UPAREA_DIG                         IMPT 00000000   4100 
_SETXY_UPAREA_PLS                         IMPT 00000000   4099 
_SETX_ACCERR_DLY1                         IMPT 00000000   4442 
_SETX_ACCERR_ERR3DAT                      IMPT 00000000   4437 
_SETX_ACCERR_SEL                          IMPT 00000000   4447 
_SETX_BANK_USELFUL                        IMPT 00000000   3654 
_SETX_BREAK_DIG2                          IMPT 00000000   4170 
_SETX_BREAK_TIM2                          IMPT 00000000   4171 
_SETX_DAIPOS_MAXP                         IMPT 00000000   3122 
_SETX_DAIPOS_MINP                         IMPT 00000000   3123 
_SETX_DNAREA_JG_LNK                       IMPT 00000000   3118 
_SETX_DNAREA_JG_PLS                       IMPT 00000000   3119 
_SETX_FULCLS_AREA_DIG                     IMPT 00000000   3061 
_SETX_FULCLS_AREA_PLS                     IMPT 00000000   3062 
_SETX_FULCLS_MATEHD_SW                    IMPT 00000000   4820 
_SETX_HOLD_CMP1_DEG                       IMPT 00000000   4454 
_SETX_INCPLS_HOSM                         IMPT 00000000   3101 
_SETX_KJEND_DIG1                          IMPT 00000000   4119 
_SETX_KJEND_DIG2                          IMPT 00000000   4859 
_SETX_KJSTR_DIG1                          IMPT 00000000   4118 
_SETX_KJSTR_DIG2                          IMPT 00000000   4858 
_SETX_KJYUCLS_OBJ                         IMPT 00000000   4822 
_SETX_KJYU_INCPOS_KP01                    IMPT 00000000   5110 
_SETX_LINK_UP_POS_DN                      IMPT 00000000   2699 
_SETX_LINK_UP_POS_UP                      IMPT 00000000   2698 
_SETX_MAX_ACC_LATE                        IMPT 00000000   4431 
_SETX_MOTREP_DIR                          IMPT 00000000   5025 
_SETX_OUTPLS_HOSA                         IMPT 00000000   3109 
_SETX_OUTPLS_HOSB                         IMPT 00000000   3110 
_SETX_OVERH_AMP                           IMPT 00000000   4673 
_SETX_OVERH_LNGTH                         IMPT 00000000   4672 
_SETX_POS_CTL_MATH                        IMPT 00000000   2732 
_SETX_POS_MOD_FLG1                        IMPT 00000000   2731 
*** SuperH RISC engine ASSEMBLER V.7.01.02.000 ***    12/12/17 19:19:44                                                  PAGE    58

*** CROSS REFERENCE LIST

NAME                             SECTION  ATTR VALUE             SEQUENCE

_SETX_POS_SDAT1_CNTSTEP                   IMPT 00000000   2723 
_SETX_POS_SDAT1_INF1                      IMPT 00000000   2724 
_SETX_POS_SDAT1_OFSPOS                    IMPT 00000000   2720 
_SETX_POS_SDAT1_SPD                       IMPT 00000000   2721 
_SETX_POS_SDAT1_TIM                       IMPT 00000000   2722 
_SETX_POS_SDAT2_INF1                      IMPT 00000000   2730 
_SETX_POS_SDAT2_OFSPOS                    IMPT 00000000   2726 
_SETX_POS_STEP_MAX                        IMPT 00000000   2733 
_SETX_RNA_ACC_BEFTIM                      IMPT 00000000   4487 
_SETX_RNA_ACC_CHKPOS                      IMPT 00000000   4488 
_SETX_SDAT1_INTLIMOFS                     IMPT 00000000   4945 
_SETX_SDAT2_INTLIMOFS                     IMPT 00000000   4946 
_SETX_UPAREA_DIG                          IMPT 00000000   3034 
_SETX_UPAREA_PLS                          IMPT 00000000   3032 
_SETX_UPAREA_RNA                          IMPT 00000000   3033 
_SETX_UPDN_CHK_DN_DIG                     IMPT 00000000   3049 
_SETX_UPDN_CHK_DN_PLS                     IMPT 00000000   3051 
_SETX_UPDN_CHK_UP_DIG                     IMPT 00000000   3048 
_SETX_UPDN_CHK_UP_PLS                     IMPT 00000000   3050 
_SETX_UPERR_ERRCMPDAT                     IMPT 00000000   4453 
_SETY_INCPLS_HOSM0001                     IMPT 00000000   3107 
_SETY_INCPLS_HOSM001                      IMPT 00000000   3106 
_SETY_INCPLS_HOSM01X                      IMPT 00000000   3105 
_SETY_INCPLS_HOSM1XX                      IMPT 00000000   3104 
_SETY_KJEND_DIG1                          IMPT 00000000   4121 
_SETY_KJEND_DIG2                          IMPT 00000000   4861 
_SETY_KJSTR_DIG1                          IMPT 00000000   4120 
_SETY_KJSTR_DIG2                          IMPT 00000000   4860 
_SETY_SDAT1_INTLIMOFS                     IMPT 00000000   4948 
_SETY_SDAT2_INTLIMOFS                     IMPT 00000000   4949 
_SET_ACC_OVRLIDE                          IMPT 00000000   3876 
_SET_CLSINC_SPDBAS_PLS                    IMPT 00000000   3844 
_SET_CLS_SPDBAS_PLS                       IMPT 00000000   3842 
_SET_DN_ACC_LATE                          IMPT 00000000   3893 
_SET_GMN_ACC_OVRLIDE                      IMPT 00000000   3868 
_SET_GMN_SPD_OVRLIDE                      IMPT 00000000   3867 
_SET_SEQ_ACC_OVRLIDE                      IMPT 00000000   3856 
_SET_SEQ_SPD_OVRLIDE                      IMPT 00000000   3855 
_SET_SPDBAS_PLS                           IMPT 00000000   3843 
_SET_SPD_OVRLIDE                          IMPT 00000000   3875 
_SET_UP_ACC_LATE                          IMPT 00000000   3892 
_SET_UP_TIM                               IMPT 00000000   2657  6641 
_SFTYCHK_CLANK_DEG                        IMPT 00000000   5176 
_SFTYCHK_LINK_PLS                         IMPT 00000000   5177 
_SFTYCHK_RNA_POS                          IMPT 00000000   3372 
_SFTY_CTL_IN_DAT                          IMPT 00000000   2551 
_SFTY_IN_DAT                              IMPT 00000000   2550 
_SFTY_LOCK_DLYTM                          IMPT 00000000   3975 
_SFTY_STOP                                IMPT 00000000   5653 
_SH2_CMP_STS1                             IMPT 00000000   5732  6979 
_SH2_CMP_STS2                             IMPT 00000000   5733 
_SH2_MAIN_CLK                             IMPT 00000000   7046  7065 
_SH2_POS_STS1                             IMPT 00000000   5731 
_SH2_SCAN_AVLMAX                          IMPT 00000000   7048  7142 
*** SuperH RISC engine ASSEMBLER V.7.01.02.000 ***    12/12/17 19:19:44                                                  PAGE    59

*** CROSS REFERENCE LIST

NAME                             SECTION  ATTR VALUE             SEQUENCE

_SH2_SCAN_AVLPV                           IMPT 00000000   7049  7147 
_SH2_SCAN_REALMAX                         IMPT 00000000   7047  7137 
_SH2_STEP_NO                              IMPT 00000000   5724 
_SH4_CMP_STS1                             IMPT 00000000   5728  6897 
_SH4_CMP_STS2                             IMPT 00000000   5729  6898 
_SH4_POS_STS1                             IMPT 00000000   5727  6896 
_SH4_STEP_NO                              IMPT 00000000   5725  6895 
_SHOT_MOST_DOWN_POS                       IMPT 00000000   4004 
_SHOT_MOST_DOWN_POSWK                     IMPT 00000000   4005 
_SINKAKU_INF                              IMPT 00000000   3273 
_SINKAKU_ROTCAM_ENBSEL                    IMPT 00000000   3275 
_SINKAKU_ROTCAM_ENBSEL_WK                 IMPT 00000000   3274 
_SINKAKU_USESEL_OF_INF                    IMPT 00000000   3277 
_SINKAKU_USESEL_ON_INF                    IMPT 00000000   3276 
_SINWK_CALC_SCAN                          IMPT 00000000   3285 
_SIN_RCAMOF_SW1                           IMPT 00000000   3301 
_SIN_RCAMON_SW1                           IMPT 00000000   3300 
_SIN_RCAM_OF_DIG                          IMPT 00000000   3280 
_SIN_RCAM_OF_ERR1                         IMPT 00000000   3304 
_SIN_RCAM_ON_DIG                          IMPT 00000000   3279 
_SIN_RCAM_ON_ERR1                         IMPT 00000000   3303 
_SLIDALM_CHK_FLG                          IMPT 00000000   4362 
_SLIDALM_CHK_POS                          IMPT 00000000   4364 
_SLIDALM_CHK_TIM                          IMPT 00000000   4363 
_SLIDALM_POS_MINAS                        IMPT 00000000   4366 
_SLIDALM_POS_PULAS                        IMPT 00000000   4365 
_SLID_ALM_ELSE_CHK                        IMPT 00000000   5709  6272 
_SPD_PER_MAX                              EQU  00002710   1997*
_SPLCHK_FLG                               IMPT 00000000   4995 
_SPLCHK_TIM                               IMPT 00000000   4996 
_SPL_ERR_INIT_WAIT_TIM                    IMPT 00000000   5068 
_SQ_CBWK_TOP                              IMPT 00000000   5857  5873  6848  7153 
_SQ_OVERH_CMP                             IMPT 00000000   4675 
_SQ_RNA_ALMRST_OLD                        IMPT 00000000   4024 
_START_ACK_COD                            EQU  00004321    211*
_START_FLG_AFTER_EMG                      IMPT 00000000   3354 
_START_REQ_COD                            EQU  00009876    210*
_STEP_CMPERR_TIMX1                        IMPT 00000000   5329 
_STOPCHK_INC_POS                          IMPT 00000000   3238 
_STOPCHK_RNA_POS                          IMPT 00000000   3237 
_STOPPING_STOP_POS                        IMPT 00000000   2635 
_STOPPING_STOP_TIM                        IMPT 00000000   2637 
_STOPPING_TIM_CHK                         IMPT 00000000   5685  6320 
_STOPPING_TIM_FLG                         IMPT 00000000   2636 
_STOPPING_TIM_PV1                         IMPT 00000000   2638 
_STOPPING_TIM_PV2                         IMPT 00000000   2639 
_STOPPING_VLVOFF_POS                      IMPT 00000000   2634 
_STOP_360ENC_DIG                          IMPT 00000000   4057 
_STOP_ERR_LATCH                           IMPT 00000000   3475 
_STOP_LATCH                               IMPT 00000000   2617 
_STOP_LATCH_B                             IMPT 00000000   2618 
_STOP_LATCH_CHK_TIM                       IMPT 00000000   2868 
_STOP_LATCH_ENCPOS                        IMPT 00000000   2866 
_STOP_LATCH_OUTPLS                        IMPT 00000000   2865 
*** SuperH RISC engine ASSEMBLER V.7.01.02.000 ***    12/12/17 19:19:44                                                  PAGE    60

*** CROSS REFERENCE LIST

NAME                             SECTION  ATTR VALUE             SEQUENCE

_STOP_LATCH_RNAPOS                        IMPT 00000000   2867 
_STR_ENC3600_DIG                          IMPT 00000000   2785 
_STR_ENC3600_DIG_LNG                      IMPT 00000000   2786 
_SVCHK_SCAN                               IMPT 00000000   4694 
_SVPX_UPAREA_DIG1                         IMPT 00000000   3223 
_SVX_DNM_MAXSPM                           IMPT 00000000   4243 
_SVX_OVER_ERR_DIG                         IMPT 00000000   3529 
_SVX_OVER_JGSTR_DIG                       IMPT 00000000   3530 
_SV_CHG_FLG1                              IMPT 00000000   3316 
_SV_CHG_FLG2                              IMPT 00000000   3317 
_SV_CONST_SUB_PV                          IMPT 00000000   3944 
_SV_DAT_ERR1                              IMPT 00000000   3318 
_SV_OBJ360                                IMPT 00000000   3501 
_SV_POS_CTL_STEP                          IMPT 00000000   2818  6879 
_SV_REAL_PLS                              IMPT 00000000   3945 
_SV_REAL_SUB_PV                           IMPT 00000000   3946 
_SW_DEV_MASK_FLG                          IMPT 00000000   2626 
_SYS_BSAME_TIM                            EQU  000001F4   2008*
_SYS_SETUP_TIM                            EQU  000007D0   2009*
_SYS_STOPPING_TIM                         EQU  00000032   2010*
_TABLE_ERR_FLG                            IMPT 00000000   2483 
_TBL_ANS_ACCTIM                           IMPT 00000000   4239 
_TBL_ANS_ACC_SEL                          IMPT 00000000   4241 
_TBL_ANS_MAXSPM                           IMPT 00000000   4240 
_TBL_USE_POS0                             IMPT 00000000   4238 
_TECH2_KJYU_DIG                           IMPT 00000000   4506 
_TECH2_KJYU_LNG                           IMPT 00000000   4504 
_TECH2_KJYU_LT1KN                         IMPT 00000000   4497 
_TECH2_KJYU_LT1PLS                        IMPT 00000000   4498 
_TECH2_KJYU_LT1PLS_OFS                    IMPT 00000000   4499 
_TECH2_KJYU_LT2KN                         IMPT 00000000   4500 
_TECH2_KJYU_LT2PLS                        IMPT 00000000   4501 
_TECH2_KJYU_LT2PLS_OFS                    IMPT 00000000   4502 
_TECH2_KJYU_PLS                           IMPT 00000000   4505 
_TECH2_KJYU_PLSX                          IMPT 00000000   4503 
_TECH2_KN_FLG                             IMPT 00000000   4507 
_TECH_USED_F                              IMPT 00000000   4544 
_TECH_WK_DIG1                             IMPT 00000000   4537 
_TECH_WK_DIG2                             IMPT 00000000   4538 
_TECH_WK_DIG3                             IMPT 00000000   4539 
_TECH_WK_DIG4                             IMPT 00000000   4540 
_TECH_WK_PLS1                             IMPT 00000000   4536 
_TEPA_PLS_ZERO_TIM                        IMPT 00000000   4400  6787 
_TEP_ADDCHK_SVPLS                         IMPT 00000000   3802 
_TEP_CHG_SPD1                             IMPT 00000000   3806 
_TEP_CHG_SPD2                             IMPT 00000000   3807 
_TEP_CNTSMP_TIM                           IMPT 00000000   4750 
_TEP_DND_SPD_PLS                          IMPT 00000000   4749 
_TEP_INPLS_FLG                            IMPT 00000000   3797 
_TEP_IN_ADD                               IMPT 00000000   3791 
_TEP_MIN_SPD_FRQ                          IMPT 00000000   3804 
_TEP_MIN_SPD_PLS                          IMPT 00000000   3803 
_TEP_MODE_DRV                             IMPT 00000000   3793 
_TEP_POS_ADD_CNT                          IMPT 00000000   3789 
*** SuperH RISC engine ASSEMBLER V.7.01.02.000 ***    12/12/17 19:19:44                                                  PAGE    61

*** CROSS REFERENCE LIST

NAME                             SECTION  ATTR VALUE             SEQUENCE

_TEP_REVPLS_LT_FLG                        IMPT 00000000   4751 
_TEP_STEP_FLG                             IMPT 00000000   3794 
_TEP_STEP_SVSMPTM                         IMPT 00000000   3801 
_TEP_STEP_SVWTTM1                         IMPT 00000000   3800 
_TEP_STEP_WTTM                            IMPT 00000000   3795 
_TIM_1MSEC                                EQU  0000000A   1994* 2008  2009  2010  2015 
_TIM_CNT010MS_DT                          EQU  0000000A   2324* 6399 
_TIM_CNT100MS_DT                          EQU  00000064   2325* 6427 
_TIM_SEC                                  EQU  00002710   1993*
_TMP_SCI_DEBUG                            IMPT 00000000   5271 
_TRD_CLR_CMD                              IMPT 00000000   5356 
_TRD_DP_MOV_CNT                           IMPT 00000000   5362 
_TRD_DP_MOV_FLG                           IMPT 00000000   5361 
_TRD_EVENT_COD                            IMPT 00000000   5351 
_TRD_EVENT_LATCH                          IMPT 00000000   5353 
_TRD_LATE_PV                              IMPT 00000000   5358 
_TRD_LATE_SV                              IMPT 00000000   5357 
_TRD_POINT_END                            IMPT 00000000   5355 
_TRD_POINT_EVENT                          IMPT 00000000   5354 
_TRD_SMP_DAT1                             IMPT 00000000   5342 
_TRD_SMP_DAT2                             IMPT 00000000   5343 
_TRD_SMP_DAT3                             IMPT 00000000   5344 
_TRD_SMP_DAT4                             IMPT 00000000   5345 
_TRD_SMP_DAT5                             IMPT 00000000   5346 
_TRD_SMP_DAT6                             IMPT 00000000   5347 
_TRD_SMP_DAT7                             IMPT 00000000   5348 
_TRD_SMP_DAT8                             IMPT 00000000   5349 
_TRD_SMP_FLG                              IMPT 00000000   5359 
_TRD_SMP_POINT                            IMPT 00000000   5350 
_TRQ_OVERHEAT_CALC                        IMPT 00000000   5711  6280 
_UP360_CHK_LIST                           IMPT 00000000   4039 
_UP360_JGDIG                              EQU  00000028   2036*
_UPDN_DIRJG_DIG                           EQU  00000708   2002*
_UPHOLD_SPDERR_OK_FLG                     IMPT 00000000   5221 
_UPLIMIT_START_F                          IMPT 00000000   4705 
_UPLIMIT_SV_SPD                           IMPT 00000000   4704 
_UPMAK2_MOD_USE_SW                        IMPT 00000000   4665 
_UPMSK2_DRVSEL                            IMPT 00000000   4667 
_UPMSK2_MATH                              IMPT 00000000   4666 
_UPMSK2_MOD                               IMPT 00000000   4663 
_UPMSK2_MOD_IN_SW                         IMPT 00000000   4664 
_UPMSK2_MOD_IN_SWOLD                      IMPT 00000000   4668 
_UP_AREA_INP360ENCCHK                     IMPT 00000000   5684  6235 
_UP_AREA_INPCHK                           IMPT 00000000   5683  6231 
_UP_HOLD_DIG                              IMPT 00000000   2623 
_UP_HOLD_FLG                              IMPT 00000000   2624 
_UP_HOLD_STEP                             IMPT 00000000   2620 
_UP_HOLD_STEP1                            IMPT 00000000   2621 
_UP_HOLD_STEP2                            IMPT 00000000   2622 
_VAIBU_CTRL                               IMPT 00000000   5708  6445 
_VALV_OFF_DIG_CLANK                       IMPT 00000000   3477 
_VALV_ON_FLG                              IMPT 00000000   4051 
_VIB_DLY_TIM                              IMPT 00000000   4193 
_VIB_GET_SET_TIM                          IMPT 00000000   4190 
*** SuperH RISC engine ASSEMBLER V.7.01.02.000 ***    12/12/17 19:19:44                                                  PAGE    62

*** CROSS REFERENCE LIST

NAME                             SECTION  ATTR VALUE             SEQUENCE

_VIB_PV_UP_TIM                            IMPT 00000000   4192 
_VIB_STEP_COM                             IMPT 00000000   4189 
_VIB_STEP_FLG                             IMPT 00000000   4188 
_VIB_USE_SET_TIM                          IMPT 00000000   4191 
_VON1_OF                                  IMPT 00000000   5474 
_VON1_ON                                  IMPT 00000000   5473 
_VON2_OF                                  IMPT 00000000   5476 
_VON2_ON                                  IMPT 00000000   5475 
_VON3_OF                                  IMPT 00000000   5478 
_VON3_ON                                  IMPT 00000000   5477 
_VUPCHECK_EQU                             EQU  11AB3739     98*
_W1CNT                                    EQU  00000008   2349*
_W1DIC                                    EQU  00000020   2351*
_W1DUP                                    EQU  00000040   2352*
_W1END                                    EQU  00000080   2353*
_W1INC                                    EQU  00000002   2347*
_W1LNC                                    EQU  00000400   2357*
_W1LNO                                    EQU  00000800   2358*
_W1OFF                                    EQU  00000001   2346*
_W1OPT                                    EQU  00000010   2350*
_W1REV                                    EQU  00004000   2365*
_W1RNC                                    EQU  00000100   2354*
_W1RNO                                    EQU  00000200   2355*
_W1RST                                    EQU  00008000   2366* 7120 
_W1SGL                                    EQU  00000004   2348*
_W1SNC                                    EQU  00001000   2363*
_W1SNO                                    EQU  00002000   2364*
_W2LS1                                    EQU  00000004   2368*
_W2LS2                                    EQU  00000008   2369*
_W2SUP                                    EQU  00000080   2373*
_W2WT1                                    EQU  00000010   2370*
_W2WT2                                    EQU  00000020   2371*
_W2WT3                                    EQU  00000040   2372*
_W4_PVP_KAJLIV_TTL                        IMPT 00000000   5072 
_W4_PV_CTL_KJYU_TTL_P                     IMPT 00000000   4811 
_W4_PV_FLT_KJYU_TTL                       IMPT 00000000   4809 
_W4_PV_FLT_KJYU_TTL_P                     IMPT 00000000   4810 
_WFSYS_MAX_STEP_SEL                       IMPT 00000000   3509 
_WFSYS_OPT_CNT_SEL                        IMPT 00000000   3508 
_WKSQCB200                                EQU  00000000   2102*
_WKSQCB201                                EQU  00000002   2103*
_WKSQCB202                                EQU  00000004   2104*
_WKSQCB203                                EQU  00000006   2105*
_WKSQCB204                                EQU  00000008   2106*
_WKSQCB205                                EQU  0000000A   2107*
_WKSQCB206                                EQU  0000000C   2108*
_WKSQCB207                                EQU  0000000E   2109*
_WKSQCB208                                EQU  00000010   2110*
_WKSQCB209                                EQU  00000012   2111*
_WKSQCB210                                EQU  00000014   2112*
_WKSQCB211                                EQU  00000016   2113*
_WKSQCB212                                EQU  00000018   2114*
_WKSQCB213                                EQU  0000001A   2115*
_WKSQCB214                                EQU  0000001C   2116* 5857  5873 
*** SuperH RISC engine ASSEMBLER V.7.01.02.000 ***    12/12/17 19:19:44                                                  PAGE    63

*** CROSS REFERENCE LIST

NAME                             SECTION  ATTR VALUE             SEQUENCE

_WKSQCB215                                EQU  0000001E   2117*
_WKSQCB216                                EQU  00000020   2118*
_WKSQCB217                                EQU  00000022   2119*
_WKSQCB218                                EQU  00000024   2120*
_WKSQCB219                                EQU  00000026   2121*
_WKSQCB220                                EQU  00000028   2122*
_WKSQCB221                                EQU  0000002A   2123*
_WKSQCB222                                EQU  0000002C   2124*
_WKSQCB223                                EQU  0000002E   2125*
_WKSQCB224                                EQU  00000030   2126*
_WKSQCB225                                EQU  00000032   2127*
_WKSQCB226                                EQU  00000034   2128*
_WKSQCB227                                EQU  00000036   2129*
_WKSQCB228                                EQU  00000038   2130*
_WKSQCB229                                EQU  0000003A   2131*
_WKSQCB230                                EQU  0000003C   2132*
_WKSQCB231                                EQU  0000003E   2133*
_WKSQCB232                                EQU  00000040   2134*
_WKSQCB233                                EQU  00000042   2135*
_WKSQCB234                                EQU  00000044   2136*
_WKSQCB235                                EQU  00000046   2137*
_WKSQCB236                                EQU  00000048   2138*
_WKSQCB237                                EQU  0000004A   2139*
_WKSQCB238                                EQU  0000004C   2140*
_WKSQCB239                                EQU  0000004E   2141*
_WKSQCB240                                EQU  00000050   2142* 7153 
_WKSQCB241                                EQU  00000052   2143*
_WKSQCB242                                EQU  00000054   2144*
_WKSQCB243                                EQU  00000056   2145*
_WKSQCB244                                EQU  00000058   2146*
_WKSQCB245                                EQU  0000005A   2147*
_WKSQCB246                                EQU  0000005C   2148*
_WKSQCB247                                EQU  0000005E   2149*
_WKSQCB248                                EQU  00000060   2150*
_WKSQCB249                                EQU  00000062   2151*
_WKSQCB250                                EQU  00000064   2152*
_WKSQCB251                                EQU  00000066   2153*
_WKSQCB252                                EQU  00000068   2154*
_WKSQCB253                                EQU  0000006A   2155*
_WKSQCB254                                EQU  0000006C   2156*
_WKSQCB255                                EQU  0000006E   2157*
_WKSQCB256                                EQU  00000070   2158*
_WKSQCB257                                EQU  00000072   2159*
_WKSQCB258                                EQU  00000074   2160*
_WKSQCB259                                EQU  00000076   2161*
_WKSQCB260                                EQU  00000078   2162*
_WKSQCB261                                EQU  0000007A   2163*
_WKSQCB262                                EQU  0000007C   2164*
_WKSQCB263                                EQU  0000007E   2165*
_WKSQCB264                                EQU  00000080   2166*
_WKSQCB265                                EQU  00000082   2167*
_WKSQCB266                                EQU  00000084   2168*
_WKSQCB267                                EQU  00000086   2169*
_WKSQCB268                                EQU  00000088   2170*
*** SuperH RISC engine ASSEMBLER V.7.01.02.000 ***    12/12/17 19:19:44                                                  PAGE    64

*** CROSS REFERENCE LIST

NAME                             SECTION  ATTR VALUE             SEQUENCE

_WKSQCB269                                EQU  0000008A   2171*
_WK_ERR_INFO_CPU_TOP                      IMPT 00000000   3520 
_WK_SIN_RCAMOF_SW1                        IMPT 00000000   3298 
_WK_SIN_RCAMON_SW1                        IMPT 00000000   3297 
_WK_SIN_RCAM_OF_DIG                       IMPT 00000000   3283 
_WK_SIN_RCAM_OF_KOUTEI                    IMPT 00000000   3290 
_WK_SIN_RCAM_OF_SPD                       IMPT 00000000   3291 
_WK_SIN_RCAM_ON_DIG                       IMPT 00000000   3282 
_WK_SIN_RCAM_ON_KOUTEI                    IMPT 00000000   3288 
_WK_SIN_RCAM_ON_SPD                       IMPT 00000000   3289 
_WK_SIN_RCAM_SQOF1                        IMPT 00000000   3295 
_WK_SIN_RCAM_SQON1                        IMPT 00000000   3294 
_WOANT                                    EQU  00000010   2335*
_WOATO                                    EQU  00000040   2337*
_WOFCY                                    EQU  00000080   2338*
_WOQST                                    EQU  00000001   2331*
_WORCY                                    EQU  00000100   2339*
_WORDY                                    EQU  00000020   2336*
_WORST                                    EQU  00000200   2340*
_WOVN1                                    EQU  00000002   2332*
_WOVN2                                    EQU  00000004   2333*
_WOVN3                                    EQU  00000008   2334*
_WPARX_BRKTST_DNDLMT                      IMPT 00000000   4586 
_WPARX_BRKTST_ORGDEGX                     IMPT 00000000   4394 
_WPARX_BRKTST_ORGPLS                      IMPT 00000000   4395 
_WPARX_BRKTST_STPDEGX                     IMPT 00000000   4144 
_WPARX_BRKTST_STPLNG                      IMPT 00000000   4146 
_WPARX_BRKTST_STPPLS                      IMPT 00000000   4145 
_WPARX_COP_DNDRV1_SDG1                    IMPT 00000000   4111 
_WPARX_COP_DNDRV1_SDG2                    IMPT 00000000   4112 
_WPARX_COP_DNDRV1_ZDG1                    IMPT 00000000   4109 
_WPARX_COP_DNDRV1_ZDG2                    IMPT 00000000   4110 
_WPARX_COP_DNDRV2_SDG1                    IMPT 00000000   4115 
_WPARX_COP_DNDRV2_SDG2                    IMPT 00000000   4116 
_WPARX_COP_DNDRV2_ZDG1                    IMPT 00000000   4113 
_WPARX_COP_DNDRV2_ZDG2                    IMPT 00000000   4114 
_WPARX_ELSE_ORGDEGX                       IMPT 00000000   4687 
_WPARX_ELSE_ORGPLS                        IMPT 00000000   4686 
_WPAR_360STP_HAB                          IMPT 00000000   4036 
_WPAR_ACCTYP_SEL                          IMPT 00000000   3962 
_WPAR_ACC_MATHED                          IMPT 00000000   4206 
_WPAR_ANAIN_SEL                           IMPT 00000000   3960 
_WPAR_BKTMCL_ACCCK                        IMPT 00000000   4633 
_WPAR_BRK1_ACCTM                          IMPT 00000000   3391 
_WPAR_BRK1_DLYTM                          IMPT 00000000   3390 
_WPAR_BRK2_ACCTM                          IMPT 00000000   3392 
_WPAR_BRKTCHK_SPD                         IMPT 00000000   4134 
_WPAR_BRKTOUT_SPD                         IMPT 00000000   4133 
_WPAR_BRKTST_ORGDEG                       IMPT 00000000   4393 
_WPAR_BRK_SEL_SPD                         IMPT 00000000   3389 
_WPAR_CMP_ERR_TIM1                        IMPT 00000000   4287 
_WPAR_CMP_ERR_TIM2                        IMPT 00000000   4288 
_WPAR_COP_CNTROT_SDG1                     IMPT 00000000   3333 
_WPAR_COP_CNTROT_SDG2                     IMPT 00000000   3334 
*** SuperH RISC engine ASSEMBLER V.7.01.02.000 ***    12/12/17 19:19:44                                                  PAGE    65

*** CROSS REFERENCE LIST

NAME                             SECTION  ATTR VALUE             SEQUENCE

_WPAR_COP_CNTROT_ZDG1                     IMPT 00000000   3331 
_WPAR_COP_CNTROT_ZDG2                     IMPT 00000000   3332 
_WPAR_COP_DISP_SPM1                       IMPT 00000000   4298 
_WPAR_COP_REVRSE_SDG1                     IMPT 00000000   3338 
_WPAR_COP_REVRSE_SDG2                     IMPT 00000000   3339 
_WPAR_COP_REVRSE_ZDG1                     IMPT 00000000   3336 
_WPAR_COP_REVRSE_ZDG2                     IMPT 00000000   3337 
_WPAR_COP_SDG1                            IMPT 00000000   3343 
_WPAR_COP_SDG2                            IMPT 00000000   3344 
_WPAR_COP_ZDG1                            IMPT 00000000   3341 
_WPAR_COP_ZDG2                            IMPT 00000000   3342 
_WPAR_CUPCHK_SEL                          IMPT 00000000   4035 
_WPAR_DAIHAI_SEL                          IMPT 00000000   4352 
_WPAR_DRVHOS_AVLCNT                       IMPT 00000000   2951 
_WPAR_DRVHOS_DIG1                         IMPT 00000000   2948 
_WPAR_DRVHOS_DIG2                         IMPT 00000000   2949 
_WPAR_DRVHOS_NO_USE                       IMPT 00000000   2952 
_WPAR_DRVHOS_SEL1                         IMPT 00000000   2947 
_WPAR_DRVHOS_WAITCNT                      IMPT 00000000   2950 
_WPAR_ILNGERR_DIG                         IMPT 00000000   3395 
_WPAR_ILNGERR_LNG                         IMPT 00000000   3394 
_WPAR_INCOVER_LNG                         IMPT 00000000   3360 
_WPAR_INCOVER_LNG1                        IMPT 00000000   3361 
_WPAR_INCOVER_LNG2                        IMPT 00000000   3362 
_WPAR_INCREV_EDYTM                        IMPT 00000000   3363 
_WPAR_INCSTP_EDYTM                        IMPT 00000000   3367 
_WPAR_INCSTP_EDYTM1                       IMPT 00000000   3365 
_WPAR_INCSTP_EDYTM2                       IMPT 00000000   3366 
_WPAR_KJYU_STOPTBL                        IMPT 00000000   4181 
_WPAR_LSA_FILTIM                          IMPT 00000000   3729 
_WPAR_MCNRNA_SEL                          IMPT 00000000   4034 
_WPAR_ORGDRV_MD2                          IMPT 00000000   4317 
_WPAR_ORGMOD2_TIM                         IMPT 00000000   3814 
_WPAR_ORGPOS_LNG1                         IMPT 00000000   4377 
_WPAR_OVRLIDE_GMN                         IMPT 00000000   3863 
_WPAR_RNA_SFTY_LNG1                       IMPT 00000000   3369 
_WPAR_SFYOPT_USEL                         IMPT 00000000   4135 
_WPAR_SLDALM_LNG                          IMPT 00000000   4359 
_WPAR_SLDALM_TIM                          IMPT 00000000   4360 
_WPAR_STOPING_TIM                         IMPT 00000000   4204 
_WPAR_ZERO_SPD                            IMPT 00000000   3388 
_WPVX_KAJLIV_TTL                          IMPT 00000000   4184 
_WPV_ABS_AD_DATA                          IMPT 00000000   3968 
_WPV_AD_DATA                              IMPT 00000000   3967 
_WPV_CB_STS_DAT_TOP                       IMPT 00000000   5339 
_WPV_CB_STS_POINT                         IMPT 00000000   5364 
_WPV_CB_TRD_DAT_TOP                       IMPT 00000000   5340 
_WPV_CB_TRD_POINT                         IMPT 00000000   5365 
_WPV_POWER_MONI                           IMPT 00000000   3969 
_WPV_POWER_ON_CNT                         IMPT 00000000   5366 
_WPV_SCAN_MAX01                           IMPT 00000000   4769  7100  7126  7135 
_WPV_SCAN_MAX10                           IMPT 00000000   4768  7109  7128  7140 
_WPV_SCAN_TIM_AVL                         IMPT 00000000   4765  7093  7107  7145 
_WPV_SCAN_TIM_REAL                        IMPT 00000000   4764  7080  7098 
*** SuperH RISC engine ASSEMBLER V.7.01.02.000 ***    12/12/17 19:19:44                                                  PAGE    66

*** CROSS REFERENCE LIST

NAME                             SECTION  ATTR VALUE             SEQUENCE

_WR_CB_SYS_CHKCOD1                        EQU  00001234   2213*
_WR_CB_SYS_CHKCOD2                        EQU  00004321   2214*
_WR_CB_SYS_CHKCOD3                        EQU  00005678   2215*
_WR_CB_SYS_CHKCOD4                        EQU  00008765   2216*
_WSVXY_CLNK_UP_POS                        IMPT 00000000   4101 
_WSVXY_CLNK_UP_POS_DN                     IMPT 00000000   4103 
_WSVXY_CLNK_UP_POS_UP                     IMPT 00000000   4102 
_WSVX_CLNK_UP_POS                         IMPT 00000000   2695 
_WSVX_CLNK_UP_POS_DN                      IMPT 00000000   2697 
_WSVX_CLNK_UP_POS_UP                      IMPT 00000000   2696 
_WXPV_ERR_DISP                            IMPT 00000000   3639 
_W_PARAM_TOP                              IMPT 00000000   4552 
_X_PROTCOL_TMP_ANS                        IMPT 00000000   5268 
_X_PROTCOL_TMP_EVENTCNT                   IMPT 00000000   5263 
_X_PROTCOL_TMP_FLG                        IMPT 00000000   5256 
_X_PROTCOL_TMP_LNG_PVTM                   IMPT 00000000   5261 
_X_PROTCOL_TMP_LNG_SVTM                   IMPT 00000000   5260 
_X_PROTCOL_TMP_PV1                        IMPT 00000000   5269 
_X_PROTCOL_TMP_PV2                        IMPT 00000000   5257 
_X_PROTCOL_TMP_PVLNG                      IMPT 00000000   5259 
_X_PROTCOL_TMP_REQ                        IMPT 00000000   5267 
_X_PROTCOL_TMP_SVLNG                      IMPT 00000000   5258 
_X_PROTCOL_TMP_TIME_PV                    IMPT 00000000   5264 
_X_R2_MUL_R1_DIV_R4                       IMPT 00000000   5636 
_ZERO_INCENC                              EQU  00000000   2045*
_ZERO_INCHEN                              EQU  00000000   2044*
_ZERO_INCREV                              EQU  00000000   2049*
_ZERO_INCRNA                              EQU  00000001   2046*
_ZERO_INCSTP                              EQU  00000000   2047*
_ZERO_RNAREV                              EQU  00000001   2050*
_ZERO_RNASTP                              EQU  00000001   2048*
_cbsys_tbl_err                            IMPT 00000000   4226 
_di1_cb_ctl1                              IMPT 00000000   2488 
_di1_cb_ctl1_dt                           IMPT 00000000   2496 
_di1_cb_ctl1_of                           IMPT 00000000   2498 
_di1_cb_ctl1_on                           IMPT 00000000   2497  7118 
_di2_cb_ctl2                              IMPT 00000000   2489 
_di2_cb_ctl2_dt                           IMPT 00000000   2500 
_di2_cb_ctl2_of                           IMPT 00000000   2502 
_di2_cb_ctl2_on                           IMPT 00000000   2501 
_di3_cb_inp1                              IMPT 00000000   2490 
_di3_cb_inp1_dt                           IMPT 00000000   2494 
_di4_cb_inp2                              IMPT 00000000   2491 
_dq1_cb_out1                              IMPT 00000000   2492  6909 
_emg_err_flg                              IMPT 00000000   2572 
_emg_lev_flg                              IMPT 00000000   2571 
_exq_err_flg                              IMPT 00000000   2575 
_exq_lev_flg                              IMPT 00000000   2573 
_pass_err_flg1                            IMPT 00000000   2569  5852  5900 
_pass_err_flg2                            IMPT 00000000   2570  5868  6346  6488 
_reset_dly_tim                            IMPT 00000000   2593  6623 
_reset_flg                                IMPT 00000000   2592 
*** SuperH RISC engine ASSEMBLER V.7.01.02.000 ***    12/12/17 19:19:44                                                  PAGE    67

*** SECTION DATA LIST

SECTION                          ATTRIBUTE    SIZE             START

P                                REL-CODE    00000067C        
