SH SERIES C/C++ Compiler (V.9.04.01.002)                                                         12-Dec-2017 19:19:34  PAGE    1

************ OBJECT LISTING ************

FILE NAME: D:\SIT4S_MC\cpua\cpua\cb_src\K_SRC\ssc_k.c

SCT OFFSET   CODE       C LABEL     INSTRUCTION OPERAND    COMMENT

              ssc_k.c          1    //;   ***************************************************
              ssc_k.c          2    //;   ***                     ***
              ssc_k.c          3    //;   ***                     ***
              ssc_k.c          4    //;   *** 各インターフェイスソフト        ***
              ssc_k.c          5    //;   ***                     ***
              ssc_k.c          6    //;   ***                     ***
              ssc_k.c          7    //;   ***************************************************
              ssc_k.c          8    #include  "cm_equ1.h" 
            cm_equ1.h          1    /*    *********************************** */
            cm_equ1.h          2    /*    ***     基本        *** */
            cm_equ1.h          3    /*    *********************************** */
            cm_equ1.h          4    #define   cBIT0   0x1 /* */
            cm_equ1.h          5    #define   cBIT1   0x2 /* */
            cm_equ1.h          6    #define   cBIT2   0x4 /* */
            cm_equ1.h          7    #define   cBIT3   0x8 /* */
            cm_equ1.h          8    #define   cBIT4   0x10    /* */
            cm_equ1.h          9    #define   cBIT5   0x20    /* */
            cm_equ1.h         10    #define   cBIT6   0x40    /* */
            cm_equ1.h         11    #define   cBIT7   0x80    /* */
            cm_equ1.h         12    #define   cBIT8   0x100   /* */
            cm_equ1.h         13    #define   cBIT9   0x200   /* */
            cm_equ1.h         14    #define   cBIT10  0x400   /* */
            cm_equ1.h         15    #define   cBIT11  0x800   /* */
            cm_equ1.h         16    #define   cBIT12  0x1000  /* */
            cm_equ1.h         17    #define   cBIT13  0x2000  /* */
            cm_equ1.h         18    #define   cBIT14  0x4000  /* */
            cm_equ1.h         19    #define   cBIT15  0x8000  /* */
            cm_equ1.h         20    
            cm_equ1.h         21    //    *******************************************
            cm_equ1.h         22    //    ***                 ***
            cm_equ1.h         23    //    ***                 ***
            cm_equ1.h         24    //    ***                 ***
            cm_equ1.h         25    //    *******************************************
            cm_equ1.h         26    //
            cm_equ1.h         27    //    共通定義 型に意味のある場合下記を仕様する
            cm_equ1.h         28    typedef unsigned char     Uchar;      //
            cm_equ1.h         29    typedef unsigned short    Ushort;     //
            cm_equ1.h         30    typedef unsigned int  Uint;       //
            cm_equ1.h         31    typedef unsigned long Ulong;      //
            cm_equ1.h         32    typedef signed char   Char;       //
            cm_equ1.h         33    typedef signed short  Short;      //
            cm_equ1.h         34    typedef signed int    Int;        //
            cm_equ1.h         35    typedef signed long   Long;       //
            cm_equ1.h         36    
            cm_equ1.h         37    /*    共通定義 ﾊﾞｲﾄ長に意味のある場合下記を仕様する   */
            cm_equ1.h         38    typedef unsigned char     U1b;        /*  u1b */
            cm_equ1.h         39    typedef unsigned short    U2b;        /*  u2b */
            cm_equ1.h         40    typedef unsigned long U4b;        /*  u4b */
            cm_equ1.h         41    typedef signed char   S1b;        /*  s1b */
            cm_equ1.h         42    typedef signed short  S2b;        /*  s2b */
            cm_equ1.h         43    typedef signed long   S4b;        /*  s4b */
            cm_equ1.h         44    
            cm_equ1.h         45    /*    ============ 通常この記述を使用 =============   */
            cm_equ1.h         46    //typedef signed char     BYTE;       /*  s1b */
            cm_equ1.h         47    //typedef signed short    WORD;       /*  s2b */
            cm_equ1.h         48    //typedef signed long DWORD;      /*  s4b */
            cm_equ1.h         49    
            cm_equ1.h         50    /*    *********************************** */
            cm_equ1.h         51    /*    ***     sh3     *** */
            cm_equ1.h         52    /*    *********************************** */
            cm_equ1.h         53    /*    =================================   */
            cm_equ1.h         54    #define       Debug_YES   1
            cm_equ1.h         55    #define       Debug_NO    0
            cm_equ1.h         56    #define       CMPILE_YES  1
            cm_equ1.h         57    #define       CMPILE_NO   0
            cm_equ1.h         58    
            cm_equ1.h         59    #define       CB_STS_BUF_MAX      512     //128
            cm_equ1.h         60    #define       CB_TRD_BUF_MAX      2048    //2048 total 2048確保
            cm_equ1.h         61    #define       CB_TRD_SMP_CNT      128     //128個
              ssc_k.c          9    #include  "ssc_wrmk.h"
           ssc_wrmk.h          1    //    *******************************************
           ssc_wrmk.h          2    //    ***                 ***
           ssc_wrmk.h          3    //    *** ワークｒａｍ ｅｘｔｅｒｎ   ***
           ssc_wrmk.h          4    //    *** アセンブラ          ***
           ssc_wrmk.h          5    //    *******************************************
           ssc_wrmk.h          6    
           ssc_wrmk.h          7    //    *******************************************
           ssc_wrmk.h          8    //    ***                 ***
           ssc_wrmk.h          9    //    *** ワークｒａｍ ｅｘｔｅｒｎ   ***
           ssc_wrmk.h         10    //    *** ｃ言語              ***
           ssc_wrmk.h         11    //    *******************************************
           ssc_wrmk.h         12      extern  S4b koma_c_ram_top;
           ssc_wrmk.h         13    #include  "ssc_cbrm.h"
           ssc_cbrm.h          1    //    *******************************************
           ssc_cbrm.h          2    //    ***                 ***
           ssc_cbrm.h          3    //    ***                 ***
           ssc_cbrm.h          4    //    *** ｓｒａｍ            ***
           ssc_cbrm.h          5    //    ***                 ***
           ssc_cbrm.h          6    //    *******************************************
           ssc_cbrm.h          7    
           ssc_cbrm.h          8    //    ***************************
           ssc_cbrm.h          9    //    *** ハード入出力    ***
           ssc_cbrm.h         10    //    ***************************
           ssc_cbrm.h         11    
           ssc_cbrm.h         12    
           ssc_cbrm.h         13    //    ***************************
           ssc_cbrm.h         14    //    *** 異常関係    ***
           ssc_cbrm.h         15    //    ***************************
           ssc_cbrm.h         16    
           ssc_cbrm.h         17    
           ssc_cbrm.h         18    //    ***************************
           ssc_cbrm.h         19    //    *** リセット関係    ***
           ssc_cbrm.h         20    //    ***************************
           ssc_cbrm.h         21    
           ssc_cbrm.h         22    //    ***************************
           ssc_cbrm.h         23    //    *** ｾﾙﾌﾁｪｯｸ関係 ***
           ssc_cbrm.h         24    //    ***************************
           ssc_cbrm.h         25    
           ssc_cbrm.h         26    //    ***********************************
           ssc_cbrm.h         27    //    *** ﾘﾆｱｽｹｰﾙ原点     ***
           ssc_cbrm.h         28    //    ***********************************
           ssc_cbrm.h         29      extern  S4b RNA_STLORK;
           ssc_cbrm.h         30    
           ssc_cbrm.h         31    //    ***************************
           ssc_cbrm.h         32    //    *** ｼｰｹﾝｽ入出力 ***
           ssc_cbrm.h         33    //    ***************************
           ssc_cbrm.h         34      extern      U2b CB_SEQ_SW_SEL01;//SEQ 28
           ssc_cbrm.h         35      extern      U2b CB_SEQ_SW_SEL02;//SEQ 29
           ssc_cbrm.h         36      extern      U2b CB_SEQ_CB_COM340;
           ssc_cbrm.h         37      extern      U2b CB_SEQ_CB_SEL341;
           ssc_cbrm.h         38      extern      U2b CB_SEQ_CB_SEL342;
           ssc_cbrm.h         39    
           ssc_cbrm.h         40    
           ssc_cbrm.h         41    //    *******************************************
           ssc_cbrm.h         42    //    ***                 ***
           ssc_cbrm.h         43    //    *** バイトアクセス可能ｒａｍ    ***
           ssc_cbrm.h         44    //    *** ｓｒａｍ            ***
           ssc_cbrm.h         45    //    *** (sh2内臓/sh4　sdram)        ***
           ssc_cbrm.h         46    //    *******************************************
           ssc_cbrm.h         47    
           ssc_cbrm.h         48    //    *******************************************
           ssc_cbrm.h         49    //    ***                 ***
           ssc_cbrm.h         50    //    ***                 ***
           ssc_cbrm.h         51    //    ***     位置決め部      ***
           ssc_cbrm.h         52    //    ***                 ***
           ssc_cbrm.h         53    //    *******************************************
           ssc_cbrm.h         54    
           ssc_cbrm.h         55    
           ssc_cbrm.h         56    //    *******************************************
           ssc_cbrm.h         57    //    ***                 ***
           ssc_cbrm.h         58    //    *** dualportram         ***
           ssc_cbrm.h         59    //    *** 大文字              ***
           ssc_cbrm.h         60    //    ***                 ***
           ssc_cbrm.h         61    //    *******************************************
           ssc_cbrm.h         62    //    2011-09-14
           ssc_cbrm.h         63      extern  U2b W_PARAM_TOP[512];   //
           ssc_wrmk.h         14    
           ssc_wrmk.h         15    
           ssc_wrmk.h         16    
           ssc_wrmk.h         17      extern  S4b ROOT_MAIN_INP;
           ssc_wrmk.h         18      extern  S4b ROOT_MAIN_OUT;
              ssc_k.c         10    
              ssc_k.c         11    //    =============== extern宣言 ===================
              ssc_k.c         12    
              ssc_k.c         13    //    =============== public 宣言 ===================
              ssc_k.c         14    //void c_k1_ctrl_main(void);//メインスキャン
              ssc_k.c         15    //void c_k1_ctrl_int1(void);//200usec割込(100usec)
              ssc_k.c         16    //void c_k1_ctrl_int2(void);//2msec割込(1msec)
              ssc_k.c         17    //void c_k1_ctrl_int3(void);//10msec程度(温調/通常のﾀｲﾏ計測)
              ssc_k.c         18    
              ssc_k.c         19    extern    void ASM_DMK1_SOFT_INIT(void);//
              ssc_k.c         20    extern    void ASM_DMK1_DATA_INIT(void);//isa-->SH4または SH4(ﾏｽﾀ→ｽﾚｰﾌﾞ)
              ssc_k.c         21    extern    void ASM_K1_CTRL_INT1(void);//200usec割込(100usec)
              ssc_k.c         22    extern    void ASM_K1_CTRL_INT2(void);//2msec割込(1msec)
              ssc_k.c         23    extern    void ASM_K1_CTRL_INT3(void);//10msec程度(温調/通常のﾀｲﾏ計測)
              ssc_k.c         24    //extern  void ASM_K1_CTRL_MAIN(void);//メインスキャン
              ssc_k.c         25    
              ssc_k.c         26    
              ssc_k.c         27    
              ssc_k.c         28    
              ssc_k.c         29    extern    void C_ASM_DISP_MM_CHG_DG(void);
              ssc_k.c         30    extern    void C_ASM_DISP_DG_CHG_MM(void);
              ssc_k.c         31    
              ssc_k.c         32    //;   ***************************************************
              ssc_k.c         33    //;   ***                     ***
              ssc_k.c         34    //;   ***                     ***
              ssc_k.c         35    //;   *** SH4                 ***
              ssc_k.c         36    //;   ***                     ***
              ssc_k.c         37    //;   ***                     ***
              ssc_k.c         38    //;   ***************************************************
              ssc_k.c         39    
              ssc_k.c         40    //;   ***********************************************************
              ssc_k.c         41    //;   ***                         ***
              ssc_k.c         42    //;   ***     ｲﾆｼｬﾙﾃﾞｰﾀ受信前１回         ***
              ssc_k.c         43    //;   ***     割込解除前              ***
              ssc_k.c         44    //;   ***     SH2/SH4共に             ***
              ssc_k.c         45    //;   ***********************************************************
              ssc_k.c         46    //    CHINが呼んでいる
              ssc_k.c         47    //    
              ssc_k.c         48    //;   ***********************************************************
              ssc_k.c         49    //;   ***                         ***
              ssc_k.c         50    //;   ***     ｲﾆｼｬﾙﾃﾞｰﾀ受信後１回         ***
              ssc_k.c         51    //;   ***                         ***
              ssc_k.c         52    //;   ***     SH2/SH4共に             ***
              ssc_k.c         53    //;   ***********************************************************
              ssc_k.c         54    //    位置決め関係のイニシャル()
              ssc_k.c         55    //    その他の制御系のイニシャル()
              ssc_k.c         56    //    呼んでいる
              ssc_k.c         57    //;   ***********************************************************
              ssc_k.c         58    //;   ***                         ***
              ssc_k.c         59    //;   ***     ﾃﾞｰﾀ受信後毎スキャン            ***
              ssc_k.c         60    //;   ***     未使用                  ***
              ssc_k.c         61    //;   ***********************************************************
              ssc_k.c         62    //    チンは呼んでいる
              ssc_k.c         63    
              ssc_k.c         64    //;   ***********************************************************
              ssc_k.c         65    //;   ***                         ***
              ssc_k.c         66    //;   ***     制御用メインスキャン            ***
              ssc_k.c         67    //;   ***                         ***
              ssc_k.c         68    //;   ***********************************************************
              ssc_k.c         69    //    ﾒｲﾝでCHINが呼んでいる
              ssc_k.c         70    //    CHINが呼んでいる
              ssc_k.c         71    //void c_k1_ctrl_main(void)
              ssc_k.c         72    //{
              ssc_k.c         73    //    ASM_K1_CTRL_MAIN();//メインスキャン:出荷試験時は呼ばれない
              ssc_k.c         74    //
              ssc_k.c         75    //}
              ssc_k.c         76    
              ssc_k.c         77    
              ssc_k.c         78    //;   ***********************************************************
              ssc_k.c         79    //;   ***                         ***
              ssc_k.c         80    //;   ***     定周期200usec(100usec)          ***
              ssc_k.c         81    //;   ***                         ***
              ssc_k.c         82    //;   ***********************************************************
              ssc_k.c         83    //void c_k1_ctrl_int1(void)
              ssc_k.c         84    //{
              ssc_k.c         85    //}
              ssc_k.c         86    //;   ***********************************************************
              ssc_k.c         87    //;   ***                         ***
              ssc_k.c         88    //;   ***     定周期2msec(1msec)          ***
              ssc_k.c         89    //;   ***                         ***
              ssc_k.c         90    //;   ***********************************************************
              ssc_k.c         91    //void c_k1_ctrl_int2(void){
              ssc_k.c         92    //}
              ssc_k.c         93    //;   ***********************************************************
              ssc_k.c         94    //;   ***                         ***
              ssc_k.c         95    //;   ***     定周期5msec             ***
              ssc_k.c         96    //;   ***                         ***
              ssc_k.c         97    //;   ***********************************************************
              ssc_k.c         98    //void c_k1_ctrl_int3(void){
              ssc_k.c         99    //}
              ssc_k.c        100    
              ssc_k.c        101    
              ssc_k.c        102    
              ssc_k.c        103    //;   *******************************************************************
              ssc_k.c        104    //;   ***                             ***
              ssc_k.c        105    //;   ***                             ***
              ssc_k.c        106    //;   ***     SH2                     ***
              ssc_k.c        107    //;   ***                             ***
              ssc_k.c        108    //;   ***                             ***
              ssc_k.c        109    //;   *******************************************************************
              ssc_k.c        110    
              ssc_k.c        111    #pragma section
              ssc_k.c        112    //;   ***********************************************************
              ssc_k.c        113    //;   ***                         ***
              ssc_k.c        114    //;   ***     割込み解除前1回             ***
              ssc_k.c        115    //;   ***     SH2/SH4共に             ***
              ssc_k.c        116    //;   ***********************************************************
              ssc_k.c        117    void cbk_init1(void)
P   00000000              _cbk_init1:                      ; function: cbk_init1
                                                           ; frame size=4
    00000000 4F22                   STS.L       PR,@-R15
              ssc_k.c        118    {
              ssc_k.c        119    //    c_dmk1_soft_init();
              ssc_k.c        120      ASM_DMK1_SOFT_INIT();//
    00000002 D395                   MOV.L       L205+8,R3  ; _ASM_DMK1_SOFT_INIT
    00000004 430B                   JSR         @R3
    00000006 0009                   NOP
    00000008 4F26                   LDS.L       @R15+,PR
              ssc_k.c        121    
              ssc_k.c        122    }
    0000000A 000B                   RTS
    0000000C 0009                   NOP
              ssc_k.c        123    
              ssc_k.c        124    //;   ***********************************************************
              ssc_k.c        125    //;   ***                         ***
              ssc_k.c        126    //;   ***     割込み解除後1回             ***
              ssc_k.c        127    //;   ***                         ***
              ssc_k.c        128    //;   ***********************************************************
              ssc_k.c        129    //    存在しない
              ssc_k.c        130    void cbk_init2(void)
    0000000E              _cbk_init2:                      ; function: cbk_init2
                                                           ; frame size=0
              ssc_k.c        131    {
              ssc_k.c        132    }
    0000000E 000B                   RTS
    00000010 0009                   NOP
              ssc_k.c        133    
              ssc_k.c        134    //;   ***********************************************************
              ssc_k.c        135    //;   ***                         ***
              ssc_k.c        136    //;   ***     ｲﾆｼｬﾙﾃﾞｰﾀ受信後1回          ***
              ssc_k.c        137    //;   ***     SH2/SH4共に             ***
              ssc_k.c        138    //;   ***********************************************************
              ssc_k.c        139    //void cbk_init3(void)
              ssc_k.c        140    //{
              ssc_k.c        141    //    ASM_DMK1_DATA_INIT();//isa-->SH4または SH4(ﾏｽﾀ→ｽﾚｰﾌﾞ)
              ssc_k.c        142    //
              ssc_k.c        143    //}
              ssc_k.c        144    
              ssc_k.c        145    //;   ***********************************************************
              ssc_k.c        146    //;   ***                         ***
              ssc_k.c        147    //;   ***     ﾒｲﾝｽｷｬﾝ                 ***
              ssc_k.c        148    //;   ***     SH2/SH4共に             ***
              ssc_k.c        149    //;   ***                         ***
              ssc_k.c        150    //;   ***********************************************************
              ssc_k.c        151    //void cbk_main(void)
              ssc_k.c        152    //{
              ssc_k.c        153    //    c_k1_ctrl_main();
              ssc_k.c        154    //
              ssc_k.c        155    //}
              ssc_k.c        156    
              ssc_k.c        157    //;   ***********************************************************
              ssc_k.c        158    //;   ***                         ***
              ssc_k.c        159    //;   ***     定周期500us(200us)          ***
              ssc_k.c        160    //;   ***     SH2/SH4共に             ***
              ssc_k.c        161    //;   ***                         ***
              ssc_k.c        162    //;   ***********************************************************
              ssc_k.c        163    void cbk_int1(void)
    00000012              _cbk_int1:                       ; function: cbk_int1
                                                           ; frame size=4
    00000012 4F22                   STS.L       PR,@-R15
              ssc_k.c        164    {
              ssc_k.c        165    //    c_k1_ctrl_int1();
              ssc_k.c        166      ASM_K1_CTRL_INT1();//200usec割込(100usec)
    00000014 D391                   MOV.L       L205+12,R3 ; _ASM_K1_CTRL_INT1
    00000016 430B                   JSR         @R3
    00000018 0009                   NOP
    0000001A 4F26                   LDS.L       @R15+,PR
              ssc_k.c        167    
              ssc_k.c        168    }
    0000001C 000B                   RTS
    0000001E 0009                   NOP
              ssc_k.c        169    
              ssc_k.c        170    //;   ***********************************************************
              ssc_k.c        171    //;   ***                         ***
              ssc_k.c        172    //;   ***     定周期2ms(1ms)              ***
              ssc_k.c        173    //;   ***     SH2/SH4共に             ***
              ssc_k.c        174    //;   ***                         ***
              ssc_k.c        175    //;   ***********************************************************
              ssc_k.c        176    void cbk_int2(void)
    00000020              _cbk_int2:                       ; function: cbk_int2
                                                           ; frame size=4
    00000020 4F22                   STS.L       PR,@-R15
              ssc_k.c        177    {
              ssc_k.c        178    //    c_k1_ctrl_int2();
              ssc_k.c        179      ASM_K1_CTRL_INT2();//2msec割込(1msec)
    00000022 D38F                   MOV.L       L205+16,R3 ; _ASM_K1_CTRL_INT2
    00000024 430B                   JSR         @R3
    00000026 0009                   NOP
    00000028 4F26                   LDS.L       @R15+,PR
              ssc_k.c        180    
              ssc_k.c        181    }
    0000002A 000B                   RTS
    0000002C 0009                   NOP
              ssc_k.c        182    
              ssc_k.c        183    //;   ***********************************************************
              ssc_k.c        184    //;   ***                         ***
              ssc_k.c        185    //;   ***     定周期5ms               ***
              ssc_k.c        186    //;   ***     SH2/SH4共に             ***
              ssc_k.c        187    //;   ***                         ***
              ssc_k.c        188    //;   ***********************************************************
              ssc_k.c        189    void cbk_int3(void)
    0000002E              _cbk_int3:                       ; function: cbk_int3
                                                           ; frame size=4
    0000002E 4F22                   STS.L       PR,@-R15
              ssc_k.c        190    {
              ssc_k.c        191    //    c_k1_ctrl_int3();
              ssc_k.c        192      ASM_K1_CTRL_INT3();//10msec程度(温調/通常のﾀｲﾏ計測)
    00000030 D38C                   MOV.L       L205+20,R3 ; _ASM_K1_CTRL_INT3
    00000032 430B                   JSR         @R3
    00000034 0009                   NOP
    00000036 4F26                   LDS.L       @R15+,PR
              ssc_k.c        193    
              ssc_k.c        194    }
    00000038 000B                   RTS
    0000003A 0009                   NOP
              ssc_k.c        195    
              ssc_k.c        196    
              ssc_k.c        197    #include  "ssc_cbhm.inc"
           ssc_cbhm.i          1    
           ssc_cbhm.i          2    //    ***********************************
           ssc_cbhm.i          3    //    ***             ***
           ssc_cbhm.i          4    //    *** 画面データ      ***
           ssc_cbhm.i          5    //    *** 0.1角度→0.001mm変換    ***
           ssc_cbhm.i          6    //    ***             ***
           ssc_cbhm.i          7    //    ***********************************
           ssc_cbhm.i          8    //    内容
           ssc_cbhm.i          9    //    Input   mem1 +/- 0~360.0度
           ssc_cbhm.i         10    //    Output  mem2 +/- 999.999mm
           ssc_cbhm.i         11    
           ssc_cbhm.i         12      extern  S4b SVP_RNA_STLORK;
           ssc_cbhm.i         13      extern  S4b DISP_SV_MM_DAT;
           ssc_cbhm.i         14      extern  S4b DISP_SV_DG_DAT; 
           ssc_cbhm.i         15      extern  U2b PVP_1ROT_CALSPM ;//予想運転速度
           ssc_cbhm.i         16    
           ssc_cbhm.i         17      extern  C_ASM_CHG_ROOT(void);
           ssc_cbhm.i         18      extern  void Calc1CycleSpmMake(void);
           ssc_cbhm.i         19    
           ssc_cbhm.i         20    S4b DigRnaChange1(S2b digdt){
    0000003C              _DigRnaChange1:                  ; function: DigRnaChange1
                                                           ; frame size=8
    0000003C 4F22                   STS.L       PR,@-R15
    0000003E 7FFC                   ADD         #-4,R15
           ssc_cbhm.i         21      S4b ret4b;
           ssc_cbhm.i         22    
           ssc_cbhm.i         23      if(digdt<3599){
    00000040 6243                   MOV         R4,R2
    00000042 622F                   EXTS.W      R2,R2
    00000044 91C5                   MOV.W       L204,R1    ; H'0E0F
    00000046 3213                   CMP/GE      R1,R2
    00000048 8909                   BT          L21
           ssc_cbhm.i         24          DISP_SV_DG_DAT=digdt;//0.1度
    0000004A D187                   MOV.L       L205+24,R1 ; _DISP_SV_DG_DAT
    0000004C 2122                   MOV.L       R2,@R1     ; DISP_SV_DG_DAT
           ssc_cbhm.i         25          C_ASM_DISP_DG_CHG_MM();
    0000004E D387                   MOV.L       L205+28,R3 ; _C_ASM_DISP_DG_CHG_MM
    00000050 430B                   JSR         @R3
    00000052 0009                   NOP
           ssc_cbhm.i         26          ret4b=DISP_SV_MM_DAT;//0.001mm
    00000054 D186                   MOV.L       L205+32,R1 ; _DISP_SV_MM_DAT
    00000056 6712                   MOV.L       @R1,R7     ; DISP_SV_MM_DAT
    00000058 6273                   MOV         R7,R2
    0000005A A001                   BRA         L22
    0000005C 0009                   NOP
    0000005E              L21:
           ssc_cbhm.i         27      }else{
           ssc_cbhm.i         28          ret4b=0;// DaTa ERR
    0000005E E200                   MOV         #0,R2      ; H'00000000
    00000060              L22:
    00000060 6023                   MOV         R2,R0
    00000062 7F04                   ADD         #4,R15
    00000064 4F26                   LDS.L       @R15+,PR
           ssc_cbhm.i         29      }
           ssc_cbhm.i         30      return(ret4b);  //100.000mm
           ssc_cbhm.i         31    }
    00000066 000B                   RTS
    00000068 0009                   NOP
           ssc_cbhm.i         32    
           ssc_cbhm.i         33    
           ssc_cbhm.i         34    //    ***********************************
           ssc_cbhm.i         35    //    ***             ***
           ssc_cbhm.i         36    //    *** 画面データ      ***
           ssc_cbhm.i         37    //    *** 0.001mm->0.1度変換  ***
           ssc_cbhm.i         38    //    ***             ***
           ssc_cbhm.i         39    //    ***********************************
           ssc_cbhm.i         40    //    内容
           ssc_cbhm.i         41    //    Input   前回までmem1 +/- 0~360.0度,mem2 +/- 999.999mm
           ssc_cbhm.i         42    //    Output  今回の0~360.0度
           ssc_cbhm.i         43    
           ssc_cbhm.i         44    S2b RnaDigChange1(S2b old_digdt,S4b renea_pos){
    0000006A              _RnaDigChange1:                  ; function: RnaDigChange1
                                                           ; frame size=12
    0000006A 4F22                   STS.L       PR,@-R15
    0000006C 7FF8                   ADD         #-8,R15
           ssc_cbhm.i         45      S4b wk4b1;
           ssc_cbhm.i         46      S2b ret2b;
           ssc_cbhm.i         47      DISP_SV_DG_DAT=(S4b)old_digdt;//0.1度
    0000006E 6243                   MOV         R4,R2
    00000070 622F                   EXTS.W      R2,R2
    00000072 D17D                   MOV.L       L205+24,R1 ; _DISP_SV_DG_DAT
    00000074 2122                   MOV.L       R2,@R1     ; DISP_SV_DG_DAT
           ssc_cbhm.i         48      DISP_SV_MM_DAT=renea_pos;//0.001mm data
    00000076 6153                   MOV         R5,R1
    00000078 D77D                   MOV.L       L205+32,R7 ; _DISP_SV_MM_DAT
    0000007A 2712                   MOV.L       R1,@R7     ; DISP_SV_MM_DAT
           ssc_cbhm.i         49      C_ASM_DISP_MM_CHG_DG();
    0000007C D37D                   MOV.L       L205+36,R3 ; _C_ASM_DISP_MM_CHG_DG
    0000007E 430B                   JSR         @R3
    00000080 0009                   NOP
           ssc_cbhm.i         50      wk4b1=DISP_SV_DG_DAT;//0.1度
    00000082 D179                   MOV.L       L205+24,R1 ; _DISP_SV_DG_DAT
    00000084 6212                   MOV.L       @R1,R2     ; DISP_SV_DG_DAT
    00000086 6623                   MOV         R2,R6
           ssc_cbhm.i         51      
           ssc_cbhm.i         52      if(3599<wk4b1){//2007-01-11
    00000088 91A3                   MOV.W       L204,R1    ; H'0E0F
    0000008A 3617                   CMP/GT      R1,R6
    0000008C 8B00                   BF          L26
           ssc_cbhm.i         53          wk4b1=0;
    0000008E E600                   MOV         #0,R6      ; H'00000000
    00000090              L26:
    00000090 6063                   MOV         R6,R0
    00000092 7F08                   ADD         #8,R15
    00000094 4F26                   LDS.L       @R15+,PR
           ssc_cbhm.i         54      }
           ssc_cbhm.i         55      ret2b=(S2b)wk4b1;
           ssc_cbhm.i         56      return(ret2b);  //100.000mm
           ssc_cbhm.i         57      
           ssc_cbhm.i         58    }
    00000096 000B                   RTS
    00000098 0009                   NOP
           ssc_cbhm.i         59    
           ssc_cbhm.i         60    //    ***********************************
           ssc_cbhm.i         61    //    ***             ***
           ssc_cbhm.i         62    //    *** 画面データ      ***
           ssc_cbhm.i         63    //    *** 角度→mm変換サンプル    ***
           ssc_cbhm.i         64    //    ***             ***
           ssc_cbhm.i         65    //    ***********************************
           ssc_cbhm.i         66    void smp1_test(void){
    0000009A              _smp1_test:                      ; function: smp1_test
                                                           ; frame size=8
    0000009A 4F22                   STS.L       PR,@-R15
    0000009C 7FFC                   ADD         #-4,R15
           ssc_cbhm.i         67      S4b wk;
           ssc_cbhm.i         68      wk=DigRnaChange1(300);// 30.0度の意味
    0000009E 9199                   MOV.W       L204+2,R1  ; H'012C
    000000A0 6413                   MOV         R1,R4
    000000A2 644F                   EXTS.W      R4,R4
    000000A4 BFCA                   BSR         _DigRnaChange1
    000000A6 0009                   NOP
    000000A8 6203                   MOV         R0,R2
    000000AA 7F04                   ADD         #4,R15
    000000AC 4F26                   LDS.L       @R15+,PR
           ssc_cbhm.i         69      
           ssc_cbhm.i         70    }
    000000AE 000B                   RTS
    000000B0 0009                   NOP
           ssc_cbhm.i         71    
           ssc_cbhm.i         72    void smp3_test(void){
    000000B2              _smp3_test:                      ; function: smp3_test
                                                           ; frame size=8
    000000B2 4F22                   STS.L       PR,@-R15
    000000B4 7FFC                   ADD         #-4,R15
           ssc_cbhm.i         73      S2b wk;
           ssc_cbhm.i         74      wk=RnaDigChange1(400,50000);//前回角度=40.0度 今回設定=50.000mm
    000000B6 D170                   MOV.L       L205+40,R1 ; H'0000C350
    000000B8 6513                   MOV         R1,R5
    000000BA 918C                   MOV.W       L204+4,R1  ; H'0190
    000000BC 6413                   MOV         R1,R4
    000000BE 644F                   EXTS.W      R4,R4
    000000C0 BFD3                   BSR         _RnaDigChange1
    000000C2 0009                   NOP
    000000C4 6203                   MOV         R0,R2
    000000C6 662F                   EXTS.W      R2,R6
    000000C8 7F04                   ADD         #4,R15
    000000CA 4F26                   LDS.L       @R15+,PR
           ssc_cbhm.i         75      
           ssc_cbhm.i         76    }
    000000CC 000B                   RTS
    000000CE 0009                   NOP
           ssc_cbhm.i         77    
           ssc_cbhm.i         78    
           ssc_cbhm.i         79    
           ssc_cbhm.i         80    //    ***********************************************************
           ssc_cbhm.i         81    //    ***                         ***
           ssc_cbhm.i         82    //    *** 設定−サイクル時間・目標位置グラフ      ***
           ssc_cbhm.i         83    //    *** x,y-DOT                     ***
           ssc_cbhm.i         84    //    ***                         ***
           ssc_cbhm.i         85    //    ***********************************************************
           ssc_cbhm.i         86    //    Input
           ssc_cbhm.i         87    //    S2b *xdot   Ｘ座標格納ｱﾄﾞﾚｽ
           ssc_cbhm.i         88    //    S2b *ydot   Ｙ座標格納ｱﾄﾞﾚｽ
           ssc_cbhm.i         89    //    S2b *cnt    ﾃﾞｰﾀ個数ｱﾄﾞﾚｽ (今回)
           ssc_cbhm.i         90    //    S2b *point  X,Y格納ｱﾄﾞﾚｽのTOPを示す
           ssc_cbhm.i         91    //    S2b *chkflg 演算結果　ﾃﾞｰﾀ有効、始点、終点情報
           ssc_cbhm.i         92    //
           ssc_cbhm.i         93    //10段仕様の場合
           ssc_cbhm.i         94    //POS1,TIM1*10=20+10+3=>33
           ssc_cbhm.i         95    //[30]==>40が必要
           ssc_cbhm.i         96    //
           ssc_cbhm.i         97    
           ssc_cbhm.i         98    
           ssc_cbhm.i         99      extern  S2b DRAW_CHK_XDOT[30];
           ssc_cbhm.i        100      extern  S2b DRAW_CHK_YDOT[30];
           ssc_cbhm.i        101      extern  S2b DRAW_CHKFLG;
           ssc_cbhm.i        102      extern  S2b DRAW_POINT;
           ssc_cbhm.i        103      extern  S2b DRAW_CNT;
           ssc_cbhm.i        104               
           ssc_cbhm.i        105      extern  S2b SvStepXYDataMake1(S2b *xdot,S2b *ydot,S2b *cnt,S2b *point,S2b *chkflg);
           ssc_cbhm.i        106    void draw_smple(void){ 
    000000D0              _draw_smple:                     ; function: draw_smple
                                                           ; frame size=12
    000000D0 4F22                   STS.L       PR,@-R15
    000000D2 7FFC                   ADD         #-4,R15
           ssc_cbhm.i        107      S2b wk;
           ssc_cbhm.i        108      wk=1;
    000000D4 E201                   MOV         #1,R2      ; H'00000001
           ssc_cbhm.i        109      wk=SvStepXYDataMake1(&(DRAW_CHK_XDOT[0]),&(DRAW_CHK_YDOT[0]),&DRAW_CNT,&DRAW_POINT,&DRAW_CHKFLG);
    000000D6 D269                   MOV.L       L205+44,R2 ; _DRAW_CHKFLG
    000000D8 2F26                   MOV.L       R2,@-R15
    000000DA D769                   MOV.L       L205+48,R7 ; _DRAW_POINT
    000000DC D669                   MOV.L       L205+52,R6 ; _DRAW_CNT
    000000DE D56A                   MOV.L       L205+56,R5 ; _DRAW_CHK_YDOT
    000000E0 D46A                   MOV.L       L205+60,R4 ; _DRAW_CHK_XDOT
    000000E2 B007                   BSR         _SvStepXYDataMake1
    000000E4 0009                   NOP
    000000E6 6603                   MOV         R0,R6
    000000E8 7F04                   ADD         #4,R15
    000000EA 626F                   EXTS.W      R6,R2
    000000EC 7F04                   ADD         #4,R15
    000000EE 4F26                   LDS.L       @R15+,PR
           ssc_cbhm.i        110    }
    000000F0 000B                   RTS
    000000F2 0009                   NOP
           ssc_cbhm.i        111    
           ssc_cbhm.i        112    
           ssc_cbhm.i        113    //    ***************************************************
           ssc_cbhm.i        114    //    ***                     ***
           ssc_cbhm.i        115    //    ***     描画ソフト作成中        ***
           ssc_cbhm.i        116    //    ***                     ***
           ssc_cbhm.i        117    //    ***************************************************
           ssc_cbhm.i        118    //
           ssc_cbhm.i        119    //    (0,0)           (500,0)
           ssc_cbhm.i        120    //    |
           ssc_cbhm.i        121    //    |
           ssc_cbhm.i        122    //    |
           ssc_cbhm.i        123    //    |
           ssc_cbhm.i        124    //    |
           ssc_cbhm.i        125    //    |
           ssc_cbhm.i        126    //    +---------------------------+
           ssc_cbhm.i        127    //    (0,500)         (500,500)
           ssc_cbhm.i        128    //
           ssc_cbhm.i        129    //     始点(x,y)
           ssc_cbhm.i        130    //    |(0sec,0度)
           ssc_cbhm.i        131    //    |p0(0,y0)
           ssc_cbhm.i        132    //    | +
           ssc_cbhm.i        133    //    |  + p1(x1,y1),t1
           ssc_cbhm.i        134    //    |   +------
           ssc_cbhm.i        135    //    |
           ssc_cbhm.i        136    //    |
           ssc_cbhm.i        137    //    |
           ssc_cbhm.i        138    //    |
           ssc_cbhm.i        139    //    |
           ssc_cbhm.i        140    //    |(0sec,180度)
           ssc_cbhm.i        141    //    +------------------------------------------->(時間)
           ssc_cbhm.i        142    //    p0(x,y)=(0,y0)
           ssc_cbhm.i        143    //
           ssc_cbhm.i        144    //
           ssc_cbhm.i        145    //              +++++*++++++++++++++*
           ssc_cbhm.i        146    //                  +   *              + *
           ssc_cbhm.i        147    //                  +  *               +  *
           ssc_cbhm.i        148    //                  + *                +   *
           ssc_cbhm.i        149    //     +------------------+                  +----*-------+
           ssc_cbhm.i        150    //     +     v=pls/s                                      +
           ssc_cbhm.i        151    //     +                                                  +
           ssc_cbhm.i        152    //  ---+                                                  +--------------
           ssc_cbhm.i        153    //    f(dig1-dig0)  /v =t1
           ssc_cbhm.i        154    //
           ssc_cbhm.i        155    //        dig(ﾘﾝｸ回転角)
           ssc_cbhm.i        156    //
           ssc_cbhm.i        157    //    (x0,y0)    v1    (x1,y1)t1 
           ssc_cbhm.i        158    //      V[rpm]/60
           ssc_cbhm.i        159    //
           ssc_cbhm.i        160    //   N回転でM度動作する
           ssc_cbhm.i        161    //
           ssc_cbhm.i        162    //    dig
           ssc_cbhm.i        163    //
           ssc_cbhm.i        164    //    [1] ｸﾗﾝｸ設定A->ﾘﾝｸ角度a
           ssc_cbhm.i        165    //        ｸﾗﾝｸ設定B->ﾘﾝｸ角度b
           ssc_cbhm.i        166    //    ﾘﾝｸ動作速度=2000.0rpm/60*M/N
           ssc_cbhm.i        167    //    (b-a)/V=t
           ssc_cbhm.i        168    //    加速時間V*T/Vmax程度にしておくか
           ssc_cbhm.i        169    //    10msec単位で考える
           ssc_cbhm.i        170    //
           ssc_cbhm.i        171    // XdotMax=
           ssc_cbhm.i        172    // YdotMax=
           ssc_cbhm.i        173    //
           ssc_cbhm.i        174    //    基本式  t=s/v         :step 
           ssc_cbhm.i        175    //
           ssc_cbhm.i        176    //        t= (s-ta*v)/v+2ta :台形
           ssc_cbhm.i        177    //        
           ssc_cbhm.i        178    //        t= (s-ta*v/2)/v+ta :片側台形 
           ssc_cbhm.i        179    //
           ssc_cbhm.i        180      extern  U2b SET1_MRTION_SEL1;//.SRES    2   ;回転方式
           ssc_cbhm.i        181      extern  U2b SET1_MTSTEP_MAXM;//.SRES    2   ;段数
           ssc_cbhm.i        182      extern  U2b MODE_SEL;
           ssc_cbhm.i        183      extern  U2b SET1_OBJECT_TIM_TOP;//
           ssc_cbhm.i        184      extern  U2b SET1_INCPLS_HOSN;//PG補正N　ﾓｰﾀN回 1rpm単位
           ssc_cbhm.i        185    //    extern  U2b SET1_INCPLS_HOSM;//PG補正M　ｸﾗﾝｸ角度M
           ssc_cbhm.i        186      extern  U4b SETY_INCPLS_HOSM01X;//0.1度
           ssc_cbhm.i        187      extern  U2b SET1_MOTRPM_MAXM;//ﾓｰﾀ最大回転数
           ssc_cbhm.i        188      extern  U2b SET1_ACCLAT_TIM1;//加減速時間
           ssc_cbhm.i        189      extern  U2b SVP_OBJECT_TIM_TOP[20]  ;//01段目停止時間
           ssc_cbhm.i        190      extern  U2b SVP_OBJECT_SPD_TOP[20]  ;//
           ssc_cbhm.i        191      extern  U4b SVP_OBJECT_POS_TOP[20]  ;//01段目目標位置
           ssc_cbhm.i        192      extern  U2b SVP_OBJECT_DIG_TOP[20]  ;//01段目角度位置(ｸﾗﾝｸ)
           ssc_cbhm.i        193      extern  U2b SET1_OBJECT_DIG_TOP[40] ;//01段目角度位置(ﾘﾝｸ)
           ssc_cbhm.i        194      extern  U4b SVP_UPAREA_POS0     ;//待機点位置
           ssc_cbhm.i        195      extern  U2b SVP_UPAREA_DIG0     ;//待機点角度
           ssc_cbhm.i        196      extern  U2b SVP_UPAREA_SPD0     ;//基準速度
           ssc_cbhm.i        197      extern  U2b SVP_UPAREA_TIM0     ;//待機時間
           ssc_cbhm.i        198      extern  U2b SETX_UPAREA_DIG;
           ssc_cbhm.i        199    
           ssc_cbhm.i        200      extern  S2b mot_length_make1(S2b obj_Ldig,S2b st_dig,S2b last_cnt_flg);//符号付
           ssc_cbhm.i        201      extern  U4b tim_calc_up_dn(S2b length,S2b v_s,S2b v_x,S2b v_e,S2b Ta_max,S2b Vmax);
           ssc_cbhm.i        202      extern  S2b area1800chg(S2b digdata);//
           ssc_cbhm.i        203    
           ssc_cbhm.i        204    S2b SvStepXYDataMake1(S2b *xdot,S2b *ydot,S2b *cnt,S2b *point,S2b *chkflg){
    000000F4              _SvStepXYDataMake1:              ; function: SvStepXYDataMake1
                                                           ; frame size=492
    000000F4 2F86                   MOV.L       R8,@-R15
    000000F6 2F96                   MOV.L       R9,@-R15
    000000F8 2FA6                   MOV.L       R10,@-R15
    000000FA 2FB6                   MOV.L       R11,@-R15
    000000FC 2FC6                   MOV.L       R12,@-R15
    000000FE 2FD6                   MOV.L       R13,@-R15
    00000100 2FE6                   MOV.L       R14,@-R15
    00000102 4F22                   STS.L       PR,@-R15
    00000104 4F12                   STS.L       MACL,@-R15
    00000106 4F02                   STS.L       MACH,@-R15
    00000108 9366                   MOV.W       L204+6,R3  ; H'FE44
    0000010A 3F3C                   ADD         R3,R15
           ssc_cbhm.i        205      S2b XdotMax;
           ssc_cbhm.i        206      S2b YdotMax;
           ssc_cbhm.i        207    
           ssc_cbhm.i        208      S2b step_max,ret2b,data_cnt,i,dim_max;
           ssc_cbhm.i        209      S2b Vmax;
           ssc_cbhm.i        210      U4b wk4b1,wk4b2,total_tim;
           ssc_cbhm.i        211      S2b Ta_max,ta,stop_flg,dirct_flg,last_cnt_flg;
           ssc_cbhm.i        212      S4b xtim[20+20];//+20(2004-01-26 add 20)
           ssc_cbhm.i        213      S2b yLdig[20+20],yCdig[20+20];//yVCdig<ｸﾗﾝｸ> (2004-01-26 add 20)
           ssc_cbhm.i        214      S2b v_s,v_x,v_e,w_t;
           ssc_cbhm.i        215      S2b st_dig,obj_Ldig,obj_Cdig,length,length180,wkflg1,wkflg2;
           ssc_cbhm.i        216      
           ssc_cbhm.i        217      ret2b=0;
    0000010C 9065                   MOV.W       L204+8,R0  ; H'01B8
    0000010E 0F76                   MOV.L       R7,@(R0,R15); point
    00000110 9064                   MOV.W       L204+10,R0 ; H'01B4
    00000112 0F66                   MOV.L       R6,@(R0,R15); cnt
    00000114 9063                   MOV.W       L204+12,R0 ; H'01B0
    00000116 0F56                   MOV.L       R5,@(R0,R15); ydot
    00000118 9062                   MOV.W       L204+14,R0 ; H'01AC
    0000011A 0F46                   MOV.L       R4,@(R0,R15); xdot
    0000011C E400                   MOV         #0,R4      ; H'00000000
    0000011E 6043                   MOV         R4,R0
    00000120 81F6                   MOV.W       R0,@(12,R15); ret2b
           ssc_cbhm.i        218      XdotMax=500;
    00000122 925E                   MOV.W       L204+16,R2 ; H'01F4
    00000124 6123                   MOV         R2,R1
    00000126 6013                   MOV         R1,R0
    00000128 2F01                   MOV.W       R0,@R15    ; XdotMax
           ssc_cbhm.i        219      YdotMax=500;
    0000012A 6123                   MOV         R2,R1
    0000012C 6013                   MOV         R1,R0
    0000012E 81F2                   MOV.W       R0,@(4,R15); YdotMax
           ssc_cbhm.i        220    
           ssc_cbhm.i        221      Ta_max=SET1_ACCLAT_TIM1/10;//1msec==>10msec
    00000130 D157                   MOV.L       L205+64,R1 ; _SET1_ACCLAT_TIM1
    00000132 6711                   MOV.W       @R1,R7     ; SET1_ACCLAT_TIM1
    00000134 6673                   MOV         R7,R6
    00000136 626D                   EXTU.W      R6,R2
    00000138 D656                   MOV.L       L205+68,R6 ; H'66666667
    0000013A 362D                   DMULS.L     R2,R6
    0000013C 020A                   STS         MACH,R2
    0000013E 4221                   SHAR        R2
    00000140 4221                   SHAR        R2
    00000142 6623                   MOV         R2,R6
    00000144 4604                   ROTL        R6
    00000146 E101                   MOV         #1,R1      ; H'00000001
    00000148 2619                   AND         R1,R6
    0000014A 6523                   MOV         R2,R5
    0000014C 356C                   ADD         R6,R5
    0000014E 6153                   MOV         R5,R1
    00000150 E02C                   MOV         #44,R0     ; H'0000002C
    00000152 0F15                   MOV.W       R1,@(R0,R15); Ta_max
           ssc_cbhm.i        222      Ta_max=1;
    00000154 E101                   MOV         #1,R1      ; H'00000001
    00000156 E02C                   MOV         #44,R0     ; H'0000002C
    00000158 0F15                   MOV.W       R1,@(R0,R15); Ta_max
           ssc_cbhm.i        223      
           ssc_cbhm.i        224      if(Ta_max==0){
    0000015A 611F                   EXTS.W      R1,R1
    0000015C 6213                   MOV         R1,R2
    0000015E 622F                   EXTS.W      R2,R2
    00000160 2228                   TST         R2,R2
    00000162 8B02                   BF          L36
           ssc_cbhm.i        225          Ta_max=1;
    00000164 E101                   MOV         #1,R1      ; H'00000001
    00000166 E02C                   MOV         #44,R0     ; H'0000002C
    00000168 0F15                   MOV.W       R1,@(R0,R15); Ta_max
    0000016A              L36:
           ssc_cbhm.i        226      }
           ssc_cbhm.i        227    
           ssc_cbhm.i        228      dim_max=SET1_MTSTEP_MAXM;
    0000016A D14B                   MOV.L       L205+72,R1 ; _SET1_MTSTEP_MAXM
    0000016C 6711                   MOV.W       @R1,R7     ; SET1_MTSTEP_MAXM
    0000016E 6273                   MOV         R7,R2
    00000170 6623                   MOV         R2,R6
           ssc_cbhm.i        229      step_max=SET1_MTSTEP_MAXM+1;
    00000172 D149                   MOV.L       L205+72,R1 ; _SET1_MTSTEP_MAXM
    00000174 6711                   MOV.W       @R1,R7     ; SET1_MTSTEP_MAXM
    00000176 6673                   MOV         R7,R6
    00000178 666D                   EXTU.W      R6,R6
    0000017A 6263                   MOV         R6,R2
    0000017C 7201                   ADD         #1,R2
    0000017E 6123                   MOV         R2,R1
    00000180 6013                   MOV         R1,R0
    00000182 81F4                   MOV.W       R0,@(8,R15); step_max
           ssc_cbhm.i        230      if(SET1_INCPLS_HOSN){
    00000184 D145                   MOV.L       L205+76,R1 ; _SET1_INCPLS_HOSN
    00000186 6711                   MOV.W       @R1,R7     ; SET1_INCPLS_HOSN
    00000188 6273                   MOV         R7,R2
    0000018A 622D                   EXTU.W      R2,R2
    0000018C 2228                   TST         R2,R2
    0000018E 8929                   BT          L38
           ssc_cbhm.i        231          wk4b1=SET1_MOTRPM_MAXM*SETY_INCPLS_HOSM01X;//SET1_INCPLS_HOSM;
    00000190 D743                   MOV.L       L205+80,R7 ; _SET1_MOTRPM_MAXM
    00000192 6471                   MOV.W       @R7,R4     ; SET1_MOTRPM_MAXM
    00000194 674D                   EXTU.W      R4,R7
    00000196 D443                   MOV.L       L205+84,R4 ; _SETY_INCPLS_HOSM01X
    00000198 6542                   MOV.L       @R4,R5     ; SETY_INCPLS_HOSM01X
    0000019A 0577                   MUL.L       R7,R5
    0000019C 021A                   STS         MACL,R2
    0000019E 6823                   MOV         R2,R8
           ssc_cbhm.i        232          wk4b1=wk4b1/SET1_INCPLS_HOSN/(60*10);//2000.0rpm/60.0*360.0
    000001A0 D73E                   MOV.L       L205+76,R7 ; _SET1_INCPLS_HOSN
    000001A2 6471                   MOV.W       @R7,R4     ; SET1_INCPLS_HOSN
    000001A4 674D                   EXTU.W      R4,R7
    000001A6 6273                   MOV         R7,R2
    000001A8 6183                   MOV         R8,R1
    000001AA 6023                   MOV         R2,R0
    000001AC D33E                   MOV.L       L205+88,R3 ; __divlu
    000001AE 430B                   JSR         @R3
    000001B0 0009                   NOP
    000001B2 6603                   MOV         R0,R6
    000001B4 026A                   STS         FPSCR,R2
    000001B6 D73D                   MOV.L       L205+92,R7 ; H'FFE7FFFF
    000001B8 2279                   AND         R7,R2
    000001BA 426A                   LDS         R2,FPSCR
    000001BC D23C                   MOV.L       L205+96,R2 ; H'1B4E81B5
    000001BE 3265                   DMULU.L     R6,R2
    000001C0 020A                   STS         MACH,R2
    000001C2 E7FA                   MOV         #-6,R7     ; H'FFFFFFFA
    000001C4 427D                   SHLD        R7,R2
    000001C6 6823                   MOV         R2,R8
           ssc_cbhm.i        233          Vmax=wk4b1;
    000001C8 6783                   MOV         R8,R7
    000001CA E01C                   MOV         #28,R0     ; H'0000001C
    000001CC 0F75                   MOV.W       R7,@(R0,R15); Vmax
    000001CE A00C                   BRA         L39
    000001D0 0009                   NOP
    000001D2              L204:
    000001D2 0E0F                   .DATA.W     H'0E0F
    000001D4 012C                   .DATA.W     H'012C
    000001D6 0190                   .DATA.W     H'0190
    000001D8 FE44                   .DATA.W     H'FE44
    000001DA 01B8                   .DATA.W     H'01B8
    000001DC 01B4                   .DATA.W     H'01B4
    000001DE 01B0                   .DATA.W     H'01B0
    000001E0 01AC                   .DATA.W     H'01AC
    000001E2 01F4                   .DATA.W     H'01F4
    000001E4              L38:
           ssc_cbhm.i        234      }else{
           ssc_cbhm.i        235          Vmax=1;//***.*度/sec
    000001E4 E101                   MOV         #1,R1      ; H'00000001
    000001E6 E01C                   MOV         #28,R0     ; H'0000001C
    000001E8 0F15                   MOV.W       R1,@(R0,R15); Vmax
    000001EA              L39:
           ssc_cbhm.i        236      }
           ssc_cbhm.i        237    
           ssc_cbhm.i        238    //2004-01-26  if((step_max<0) || (6<step_max) ){
           ssc_cbhm.i        239      if((step_max<0) || ((10+1)<step_max) ){//step_maxは保証されているからﾘﾐｯﾄは不要
    000001EA 85F4                   MOV.W       @(8,R15),R0; step_max
    000001EC 6103                   MOV         R0,R1
    000001EE 4111                   CMP/PZ      R1
    000001F0 8B04                   BF          L41
    000001F2 85F4                   MOV.W       @(8,R15),R0; step_max
    000001F4 6103                   MOV         R0,R1
    000001F6 E70B                   MOV         #11,R7     ; H'0000000B
    000001F8 3177                   CMP/GT      R7,R1
    000001FA 8B15                   BF          L42
    000001FC              L41:
           ssc_cbhm.i        240          data_cnt=2;//x,y座標ﾃﾞｰﾀ数
    000001FC EC02                   MOV         #2,R12     ; H'00000002
           ssc_cbhm.i        241          xdot[0]=0;//ﾃﾞｰﾀ異常
    000001FE 9027                   MOV.W       L205,R0    ; H'01AC
    00000200 01FE                   MOV.L       @(R0,R15),R1; xdot
    00000202 E200                   MOV         #0,R2      ; H'00000000
    00000204 2121                   MOV.W       R2,@R1     ; xdot[]
           ssc_cbhm.i        242          ydot[0]=0;//ﾃﾞｰﾀ異常
    00000206 9024                   MOV.W       L205+2,R0  ; H'01B0
    00000208 01FE                   MOV.L       @(R0,R15),R1; ydot
    0000020A 2121                   MOV.W       R2,@R1     ; ydot[]
           ssc_cbhm.i        243          xdot[1]=1;//ﾃﾞｰﾀ異常
    0000020C 9020                   MOV.W       L205,R0    ; H'01AC
    0000020E 01FE                   MOV.L       @(R0,R15),R1; xdot
    00000210 E201                   MOV         #1,R2      ; H'00000001
    00000212 6023                   MOV         R2,R0
    00000214 8111                   MOV.W       R0,@(2,R1) ; xdot[]
           ssc_cbhm.i        244          ydot[1]=1;//ﾃﾞｰﾀ異常
    00000216 901C                   MOV.W       L205+2,R0  ; H'01B0
    00000218 01FE                   MOV.L       @(R0,R15),R1; ydot
    0000021A 6023                   MOV         R2,R0
    0000021C 8111                   MOV.W       R0,@(2,R1) ; ydot[]
           ssc_cbhm.i        245          step_max=1;
    0000021E E101                   MOV         #1,R1      ; H'00000001
    00000220 6013                   MOV         R1,R0
    00000222 81F4                   MOV.W       R0,@(8,R15); step_max
    00000224 A357                   BRA         L43
    00000226 0009                   NOP
    00000228              L42:
           ssc_cbhm.i        246      }else{
           ssc_cbhm.i        247          //時間の算出
           ssc_cbhm.i        248          //開始ﾎﾟｲﾝﾄ
           ssc_cbhm.i        249    
           ssc_cbhm.i        250          data_cnt=1;//x,y座標ﾃﾞｰﾀ数
    00000228 EC01                   MOV         #1,R12     ; H'00000001
           ssc_cbhm.i        251          xtim[0]=0;
    0000022A E100                   MOV         #0,R1      ; H'00000000
    0000022C E040                   MOV         #64,R0     ; H'00000040
    0000022E 0F16                   MOV.L       R1,@(R0,R15); xtim[]
           ssc_cbhm.i        252          yLdig[0]=SETX_UPAREA_DIG;//ﾘﾝｸ角度
    00000230 D120                   MOV.L       L205+100,R1; _SETX_UPAREA_DIG
    00000232 6711                   MOV.W       @R1,R7     ; SETX_UPAREA_DIG
    00000234 6273                   MOV         R7,R2
    00000236 900D                   MOV.W       L205+4,R0  ; H'00E0
    00000238 0F25                   MOV.W       R2,@(R0,R15); yLdig[]
           ssc_cbhm.i        253  E       if(SET1_MRTION_SEL1&0x1){
    0000023A D11F                   MOV.L       L205+104,R1; _SET1_MRTION_SEL1
    0000023C 6711                   MOV.W       @R1,R7     ; SET1_MRTION_SEL1
    0000023E 627D                   EXTU.W      R7,R2
    00000240 6023                   MOV         R2,R0
    00000242 C801                   TST         #1,R0
    00000244 893A                   BT          L45
           ssc_cbhm.i        254              yCdig[0]=0;//
    00000246 E100                   MOV         #0,R1      ; H'00000000
    00000248 9005                   MOV.W       L205+6,R0  ; H'0130
    0000024A 0F15                   MOV.W       R1,@(R0,R15); yCdig[]
    0000024C A03B                   BRA         L46
    0000024E 0009                   NOP
    00000250              L205:
    00000250 01AC                   .DATA.W     H'01AC
    00000252 01B0                   .DATA.W     H'01B0
    00000254 00E0                   .DATA.W     H'00E0
    00000256 0130                   .DATA.W     H'0130
    00000258 <00000000>             .DATA.L     _ASM_DMK1_SOFT_INIT
    0000025C <00000000>             .DATA.L     _ASM_K1_CTRL_INT1
    00000260 <00000000>             .DATA.L     _ASM_K1_CTRL_INT2
    00000264 <00000000>             .DATA.L     _ASM_K1_CTRL_INT3
    00000268 <00000000>             .DATA.L     _DISP_SV_DG_DAT
    0000026C <00000000>             .DATA.L     _C_ASM_DISP_DG_CHG_MM
    00000270 <00000000>             .DATA.L     _DISP_SV_MM_DAT
    00000274 <00000000>             .DATA.L     _C_ASM_DISP_MM_CHG_DG
    00000278 0000C350               .DATA.L     H'0000C350
    0000027C <00000000>             .DATA.L     _DRAW_CHKFLG
    00000280 <00000000>             .DATA.L     _DRAW_POINT
    00000284 <00000000>             .DATA.L     _DRAW_CNT
    00000288 <00000000>             .DATA.L     _DRAW_CHK_YDOT
    0000028C <00000000>             .DATA.L     _DRAW_CHK_XDOT
    00000290 <00000000>             .DATA.L     _SET1_ACCLAT_TIM1
    00000294 66666667               .DATA.L     H'66666667
    00000298 <00000000>             .DATA.L     _SET1_MTSTEP_MAXM
    0000029C <00000000>             .DATA.L     _SET1_INCPLS_HOSN
    000002A0 <00000000>             .DATA.L     _SET1_MOTRPM_MAXM
    000002A4 <00000000>             .DATA.L     _SETY_INCPLS_HOSM01X
    000002A8 <00000000>             .DATA.L     __divlu
    000002AC FFE7FFFF               .DATA.L     H'FFE7FFFF
    000002B0 1B4E81B5               .DATA.L     H'1B4E81B5
    000002B4 <00000000>             .DATA.L     _SETX_UPAREA_DIG
    000002B8 <00000000>             .DATA.L     _SET1_MRTION_SEL1
    000002BC              L45:
           ssc_cbhm.i        255          }else{
           ssc_cbhm.i        256              yCdig[0]=SVP_UPAREA_DIG0;//ｸﾗﾝｸ角度
    000002BC D1BD                   MOV.L       L209+4,R1  ; _SVP_UPAREA_DIG0
    000002BE 6711                   MOV.W       @R1,R7     ; SVP_UPAREA_DIG0
    000002C0 6273                   MOV         R7,R2
    000002C2 9093                   MOV.W       L206,R0    ; H'0130
    000002C4 0F25                   MOV.W       R2,@(R0,R15); yCdig[]
    000002C6              L46:
           ssc_cbhm.i        257          }
           ssc_cbhm.i        258    
           ssc_cbhm.i        259          i=1;
    000002C6 EE01                   MOV         #1,R14     ; H'00000001
           ssc_cbhm.i        260          v_x=0;
    000002C8 EB00                   MOV         #0,R11     ; H'00000000
           ssc_cbhm.i        261          v_s=0;
    000002CA E100                   MOV         #0,R1      ; H'00000000
    000002CC 908F                   MOV.W       L206+2,R0  ; H'0180
    000002CE 0F15                   MOV.W       R1,@(R0,R15); v_s
           ssc_cbhm.i        262          v_e=0;
    000002D0 E700                   MOV         #0,R7      ; H'00000000
           ssc_cbhm.i        263          last_cnt_flg=0;
    000002D2 E100                   MOV         #0,R1      ; H'00000000
    000002D4 E03C                   MOV         #60,R0     ; H'0000003C
    000002D6 0F15                   MOV.W       R1,@(R0,R15); last_cnt_flg
           ssc_cbhm.i        264          dirct_flg=0;//正転より開始
    000002D8 E100                   MOV         #0,R1      ; H'00000000
    000002DA E038                   MOV         #56,R0     ; H'00000038
    000002DC 0F15                   MOV.W       R1,@(R0,R15); dirct_flg
           ssc_cbhm.i        265          stop_flg=1;//前回停止
    000002DE E101                   MOV         #1,R1      ; H'00000001
    000002E0 E034                   MOV         #52,R0     ; H'00000034
    000002E2 0F15                   MOV.W       R1,@(R0,R15); stop_flg
           ssc_cbhm.i        266          total_tim=0;
    000002E4 ED00                   MOV         #0,R13     ; H'00000000
           ssc_cbhm.i        267          while(i <= step_max){
    000002E6 85F4                   MOV.W       @(8,R15),R0; step_max
    000002E8 6103                   MOV         R0,R1
    000002EA 6EEF                   EXTS.W      R14,R14
    000002EC 3E17                   CMP/GT      R1,R14
    000002EE 8B01                   BF          L219
    000002F0 A246                   BRA         L47
    000002F2 0009                   NOP
    000002F4              L219:
    000002F4              L48:
           ssc_cbhm.i        268              if(i==step_max){
    000002F4 85F4                   MOV.W       @(8,R15),R0; step_max
    000002F6 6103                   MOV         R0,R1
    000002F8 6EEF                   EXTS.W      R14,R14
    000002FA 3E10                   CMP/EQ      R1,R14
    000002FC 8B7C                   BF          L50
           ssc_cbhm.i        269                  v_s=v_x;
    000002FE 61B3                   MOV         R11,R1
    00000300 9075                   MOV.W       L206+2,R0  ; H'0180
    00000302 0F15                   MOV.W       R1,@(R0,R15); v_s
           ssc_cbhm.i        270                  //v_x=SVP_UPAREA_SPD0;
           ssc_cbhm.i        271                  v_x=SVP_UPAREA_SPD0*Vmax/1000;//100.0% 1段目
    00000304 D1AC                   MOV.L       L209+8,R1  ; _SVP_UPAREA_SPD0
    00000306 6411                   MOV.W       @R1,R4     ; SVP_UPAREA_SPD0
    00000308 624D                   EXTU.W      R4,R2
    0000030A E01C                   MOV         #28,R0     ; H'0000001C
    0000030C 01FD                   MOV.W       @(R0,R15),R1; Vmax
    0000030E 0127                   MUL.L       R2,R1
    00000310 021A                   STS         MACL,R2
    00000312 D1AA                   MOV.L       L209+12,R1 ; H'10624DD3
    00000314 6613                   MOV         R1,R6
    00000316 362D                   DMULS.L     R2,R6
    00000318 060A                   STS         MACH,R6
    0000031A E1FA                   MOV         #-6,R1     ; H'FFFFFFFA
    0000031C 461C                   SHAD        R1,R6
    0000031E 6263                   MOV         R6,R2
    00000320 4204                   ROTL        R2
    00000322 E101                   MOV         #1,R1      ; H'00000001
    00000324 2219                   AND         R1,R2
    00000326 6563                   MOV         R6,R5
    00000328 352C                   ADD         R2,R5
    0000032A 6B53                   MOV         R5,R11
           ssc_cbhm.i        272                  
           ssc_cbhm.i        273                  v_e=0;
    0000032C E700                   MOV         #0,R7      ; H'00000000
    0000032E 905F                   MOV.W       L206+4,R0  ; H'0188
    00000330 0F75                   MOV.W       R7,@(R0,R15); v_e
           ssc_cbhm.i        274                  w_t=SVP_UPAREA_TIM0;
    00000332 D1A3                   MOV.L       L209+16,R1 ; _SVP_UPAREA_TIM0
    00000334 6411                   MOV.W       @R1,R4     ; SVP_UPAREA_TIM0
    00000336 6243                   MOV         R4,R2
    00000338 6923                   MOV         R2,R9
           ssc_cbhm.i        275                  if(stop_flg){
    0000033A E034                   MOV         #52,R0     ; H'00000034
    0000033C 01FD                   MOV.W       @(R0,R15),R1; stop_flg
    0000033E 6213                   MOV         R1,R2
    00000340 622F                   EXTS.W      R2,R2
    00000342 2228                   TST         R2,R2
    00000344 8902                   BT          L52
           ssc_cbhm.i        276                      v_s=0;//前回停止
    00000346 E100                   MOV         #0,R1      ; H'00000000
    00000348 9051                   MOV.W       L206+2,R0  ; H'0180
    0000034A 0F15                   MOV.W       R1,@(R0,R15); v_s
    0000034C              L52:
           ssc_cbhm.i        277                  }
           ssc_cbhm.i        278                  
           ssc_cbhm.i        279  E               if(MODE_SEL&0x8){
    0000034C D19D                   MOV.L       L209+20,R1 ; _MODE_SEL
    0000034E 6711                   MOV.W       @R1,R7     ; MODE_SEL
    00000350 627D                   EXTU.W      R7,R2
    00000352 6023                   MOV         R2,R0
    00000354 C808                   TST         #8,R0
    00000356 891E                   BT          L54
           ssc_cbhm.i        280  E                   if(SET1_MRTION_SEL1&0x1){
    00000358 D19B                   MOV.L       L209+24,R1 ; _SET1_MRTION_SEL1
    0000035A 6711                   MOV.W       @R1,R7     ; SET1_MRTION_SEL1
    0000035C 627D                   EXTU.W      R7,R2
    0000035E 6023                   MOV         R2,R0
    00000360 C801                   TST         #1,R0
    00000362 8918                   BT          L54
           ssc_cbhm.i        281                          if(w_t==0){
    00000364 6293                   MOV         R9,R2
    00000366 622F                   EXTS.W      R2,R2
    00000368 2228                   TST         R2,R2
    0000036A 8B14                   BF          L54
           ssc_cbhm.i        282                              v_e=SVP_OBJECT_SPD_TOP[0]*Vmax/1000;//100.0% 1段目
    0000036C D297                   MOV.L       L209+28,R2 ; _SVP_OBJECT_SPD_TOP
    0000036E 6621                   MOV.W       @R2,R6     ; SVP_OBJECT_SPD_TOP[]
    00000370 626D                   EXTU.W      R6,R2
    00000372 E01C                   MOV         #28,R0     ; H'0000001C
    00000374 01FD                   MOV.W       @(R0,R15),R1; Vmax
    00000376 0127                   MUL.L       R2,R1
    00000378 021A                   STS         MACL,R2
    0000037A D190                   MOV.L       L209+12,R1 ; H'10624DD3
    0000037C 6613                   MOV         R1,R6
    0000037E 362D                   DMULS.L     R2,R6
    00000380 060A                   STS         MACH,R6
    00000382 E1FA                   MOV         #-6,R1     ; H'FFFFFFFA
    00000384 461C                   SHAD        R1,R6
    00000386 6263                   MOV         R6,R2
    00000388 4204                   ROTL        R2
    0000038A E101                   MOV         #1,R1      ; H'00000001
    0000038C 2219                   AND         R1,R2
    0000038E 6763                   MOV         R6,R7
    00000390 372C                   ADD         R2,R7
    00000392 902D                   MOV.W       L206+4,R0  ; H'0188
    00000394 0F75                   MOV.W       R7,@(R0,R15); v_e
    00000396              L54:
           ssc_cbhm.i        283                          }
           ssc_cbhm.i        284                      }
           ssc_cbhm.i        285                  }
           ssc_cbhm.i        286                  st_dig=yLdig[data_cnt-1];
    00000396 66F3                   MOV         R15,R6
    00000398 912B                   MOV.W       L206+6,R1  ; H'00E0
    0000039A 361C                   ADD         R1,R6
    0000039C 62C3                   MOV         R12,R2
    0000039E 622F                   EXTS.W      R2,R2
    000003A0 6523                   MOV         R2,R5
    000003A2 75FF                   ADD         #-1,R5
    000003A4 6253                   MOV         R5,R2
    000003A6 4200                   SHLL        R2
    000003A8 6023                   MOV         R2,R0
    000003AA 016D                   MOV.W       @(R0,R6),R1; yLdig[]
    000003AC 9022                   MOV.W       L206+8,R0  ; H'0190
    000003AE 0F15                   MOV.W       R1,@(R0,R15); st_dig
           ssc_cbhm.i        287  E               if(SET1_MRTION_SEL1&0x1){
    000003B0 D185                   MOV.L       L209+24,R1 ; _SET1_MRTION_SEL1
    000003B2 6711                   MOV.W       @R1,R7     ; SET1_MRTION_SEL1
    000003B4 627D                   EXTU.W      R7,R2
    000003B6 6023                   MOV         R2,R0
    000003B8 C801                   TST         #1,R0
    000003BA 890B                   BT          L58
           ssc_cbhm.i        288                      obj_Ldig=SETX_UPAREA_DIG;//ﾘﾝｸ角度
    000003BC D184                   MOV.L       L209+32,R1 ; _SETX_UPAREA_DIG
    000003BE 6711                   MOV.W       @R1,R7     ; SETX_UPAREA_DIG
    000003C0 6273                   MOV         R7,R2
    000003C2 6A23                   MOV         R2,R10
           ssc_cbhm.i        289                      obj_Cdig=0;//ｸﾗﾝｸ=0
    000003C4 E100                   MOV         #0,R1      ; H'00000000
    000003C6 9016                   MOV.W       L206+10,R0 ; H'0198
    000003C8 0F15                   MOV.W       R1,@(R0,R15); obj_Cdig
           ssc_cbhm.i        290                      last_cnt_flg=1;
    000003CA E101                   MOV         #1,R1      ; H'00000001
    000003CC E03C                   MOV         #60,R0     ; H'0000003C
    000003CE 0F15                   MOV.W       R1,@(R0,R15); last_cnt_flg
    000003D0 A090                   BRA         L59
    000003D2 0009                   NOP
    000003D4              L58:
           ssc_cbhm.i        291                  }else{
           ssc_cbhm.i        292                      obj_Ldig=SETX_UPAREA_DIG;//ﾘﾝｸ角度
    000003D4 D17E                   MOV.L       L209+32,R1 ; _SETX_UPAREA_DIG
    000003D6 6711                   MOV.W       @R1,R7     ; SETX_UPAREA_DIG
    000003D8 6273                   MOV         R7,R2
    000003DA 6A23                   MOV         R2,R10
           ssc_cbhm.i        293                      obj_Cdig=SVP_UPAREA_DIG0;//ｸﾗﾝｸ角度
    000003DC D175                   MOV.L       L209+4,R1  ; _SVP_UPAREA_DIG0
    000003DE 6711                   MOV.W       @R1,R7     ; SVP_UPAREA_DIG0
    000003E0 6273                   MOV         R7,R2
    000003E2 6123                   MOV         R2,R1
    000003E4 9007                   MOV.W       L206+10,R0 ; H'0198
    000003E6 0F15                   MOV.W       R1,@(R0,R15); obj_Cdig
    000003E8 A084                   BRA         L59
    000003EA 0009                   NOP
    000003EC              L206:
    000003EC 0130                   .DATA.W     H'0130
    000003EE 0180                   .DATA.W     H'0180
    000003F0 0188                   .DATA.W     H'0188
    000003F2 00E0                   .DATA.W     H'00E0
    000003F4 0190                   .DATA.W     H'0190
    000003F6 0198                   .DATA.W     H'0198
    000003F8              L50:
           ssc_cbhm.i        294                  }
           ssc_cbhm.i        295                  
           ssc_cbhm.i        296              }else{
           ssc_cbhm.i        297                  v_s=v_x;//開始速度
    000003F8 61B3                   MOV         R11,R1
    000003FA 90B0                   MOV.W       L207,R0    ; H'0180
    000003FC 0F15                   MOV.W       R1,@(R0,R15); v_s
           ssc_cbhm.i        298                  v_x=SVP_OBJECT_SPD_TOP[i-1]*Vmax/1000;//100.0%　目標速度
    000003FE D573                   MOV.L       L209+28,R5 ; _SVP_OBJECT_SPD_TOP
    00000400 66E3                   MOV         R14,R6
    00000402 666F                   EXTS.W      R6,R6
    00000404 6263                   MOV         R6,R2
    00000406 72FF                   ADD         #-1,R2
    00000408 4200                   SHLL        R2
    0000040A 6023                   MOV         R2,R0
    0000040C 065D                   MOV.W       @(R0,R5),R6; SVP_OBJECT_SPD_TOP[]
    0000040E 626D                   EXTU.W      R6,R2
    00000410 E01C                   MOV         #28,R0     ; H'0000001C
    00000412 01FD                   MOV.W       @(R0,R15),R1; Vmax
    00000414 0127                   MUL.L       R2,R1
    00000416 021A                   STS         MACL,R2
    00000418 D168                   MOV.L       L209+12,R1 ; H'10624DD3
    0000041A 6613                   MOV         R1,R6
    0000041C 362D                   DMULS.L     R2,R6
    0000041E 060A                   STS         MACH,R6
    00000420 E1FA                   MOV         #-6,R1     ; H'FFFFFFFA
    00000422 461C                   SHAD        R1,R6
    00000424 6263                   MOV         R6,R2
    00000426 4204                   ROTL        R2
    00000428 E101                   MOV         #1,R1      ; H'00000001
    0000042A 2219                   AND         R1,R2
    0000042C 6B63                   MOV         R6,R11
    0000042E 3B2C                   ADD         R2,R11
           ssc_cbhm.i        299                  v_e=0;
    00000430 E700                   MOV         #0,R7      ; H'00000000
    00000432 9095                   MOV.W       L207+2,R0  ; H'0188
    00000434 0F75                   MOV.W       R7,@(R0,R15); v_e
           ssc_cbhm.i        300                  w_t=SVP_OBJECT_TIM_TOP[i-1];
    00000436 D567                   MOV.L       L209+36,R5 ; _SVP_OBJECT_TIM_TOP
    00000438 62E3                   MOV         R14,R2
    0000043A 622F                   EXTS.W      R2,R2
    0000043C 6623                   MOV         R2,R6
    0000043E 76FF                   ADD         #-1,R6
    00000440 6263                   MOV         R6,R2
    00000442 4200                   SHLL        R2
    00000444 6023                   MOV         R2,R0
    00000446 065D                   MOV.W       @(R0,R5),R6; SVP_OBJECT_TIM_TOP[]
    00000448 6263                   MOV         R6,R2
    0000044A 6923                   MOV         R2,R9
           ssc_cbhm.i        301                  if(stop_flg){
    0000044C E034                   MOV         #52,R0     ; H'00000034
    0000044E 01FD                   MOV.W       @(R0,R15),R1; stop_flg
    00000450 6213                   MOV         R1,R2
    00000452 622F                   EXTS.W      R2,R2
    00000454 2228                   TST         R2,R2
    00000456 8902                   BT          L61
           ssc_cbhm.i        302                      v_s=0;//前回停止
    00000458 E100                   MOV         #0,R1      ; H'00000000
    0000045A 9080                   MOV.W       L207,R0    ; H'0180
    0000045C 0F15                   MOV.W       R1,@(R0,R15); v_s
    0000045E              L61:
           ssc_cbhm.i        303                  }
           ssc_cbhm.i        304                  if(i==1){//1段
    0000045E 60EF                   EXTS.W      R14,R0
    00000460 8801                   CMP/EQ      #1,R0
    00000462 8B13                   BF          L63
           ssc_cbhm.i        305  E                   if(MODE_SEL&0x8){
    00000464 D157                   MOV.L       L209+20,R1 ; _MODE_SEL
    00000466 6711                   MOV.W       @R1,R7     ; MODE_SEL
    00000468 627D                   EXTU.W      R7,R2
    0000046A 6023                   MOV         R2,R0
    0000046C C808                   TST         #8,R0
    0000046E 890D                   BT          L63
           ssc_cbhm.i        306  E                       if(SET1_MRTION_SEL1&0x1){
    00000470 D155                   MOV.L       L209+24,R1 ; _SET1_MRTION_SEL1
    00000472 6711                   MOV.W       @R1,R7     ; SET1_MRTION_SEL1
    00000474 627D                   EXTU.W      R7,R2
    00000476 6023                   MOV         R2,R0
    00000478 C801                   TST         #1,R0
    0000047A 8907                   BT          L63
           ssc_cbhm.i        307                              if(SVP_UPAREA_TIM0==0){
    0000047C D150                   MOV.L       L209+16,R1 ; _SVP_UPAREA_TIM0
    0000047E 6711                   MOV.W       @R1,R7     ; SVP_UPAREA_TIM0
    00000480 627D                   EXTU.W      R7,R2
    00000482 2228                   TST         R2,R2
    00000484 8B02                   BF          L63
           ssc_cbhm.i        308                                  v_s=v_x;
    00000486 61B3                   MOV         R11,R1
    00000488 9069                   MOV.W       L207,R0    ; H'0180
    0000048A 0F15                   MOV.W       R1,@(R0,R15); v_s
    0000048C              L63:
           ssc_cbhm.i        309                              }
           ssc_cbhm.i        310                          }
           ssc_cbhm.i        311                      }
           ssc_cbhm.i        312                  }
           ssc_cbhm.i        313                  st_dig=yLdig[data_cnt-1];
    0000048C 62F3                   MOV         R15,R2
    0000048E 9168                   MOV.W       L207+4,R1  ; H'00E0
    00000490 321C                   ADD         R1,R2
    00000492 66C3                   MOV         R12,R6
    00000494 666F                   EXTS.W      R6,R6
    00000496 6563                   MOV         R6,R5
    00000498 75FF                   ADD         #-1,R5
    0000049A 6653                   MOV         R5,R6
    0000049C 4600                   SHLL        R6
    0000049E 6063                   MOV         R6,R0
    000004A0 012D                   MOV.W       @(R0,R2),R1; yLdig[]
    000004A2 905F                   MOV.W       L207+6,R0  ; H'0190
    000004A4 0F15                   MOV.W       R1,@(R0,R15); st_dig
           ssc_cbhm.i        314                  obj_Cdig=SVP_OBJECT_DIG_TOP[i-1];
    000004A6 D54C                   MOV.L       L209+40,R5 ; _SVP_OBJECT_DIG_TOP
    000004A8 62E3                   MOV         R14,R2
    000004AA 622F                   EXTS.W      R2,R2
    000004AC 6623                   MOV         R2,R6
    000004AE 76FF                   ADD         #-1,R6
    000004B0 6263                   MOV         R6,R2
    000004B2 4200                   SHLL        R2
    000004B4 6023                   MOV         R2,R0
    000004B6 065D                   MOV.W       @(R0,R5),R6; SVP_OBJECT_DIG_TOP[]
    000004B8 6263                   MOV         R6,R2
    000004BA 6123                   MOV         R2,R1
    000004BC 9053                   MOV.W       L207+8,R0  ; H'0198
    000004BE 0F15                   MOV.W       R1,@(R0,R15); obj_Cdig
           ssc_cbhm.i        315                  obj_Ldig=SET1_OBJECT_DIG_TOP[i-1];
    000004C0 D546                   MOV.L       L209+44,R5 ; _SET1_OBJECT_DIG_TOP
    000004C2 62E3                   MOV         R14,R2
    000004C4 622F                   EXTS.W      R2,R2
    000004C6 6623                   MOV         R2,R6
    000004C8 76FF                   ADD         #-1,R6
    000004CA 6263                   MOV         R6,R2
    000004CC 4200                   SHLL        R2
    000004CE 6023                   MOV         R2,R0
    000004D0 065D                   MOV.W       @(R0,R5),R6; SET1_OBJECT_DIG_TOP[]
    000004D2 6263                   MOV         R6,R2
    000004D4 6A23                   MOV         R2,R10
           ssc_cbhm.i        316                  if(w_t==0){
    000004D6 6293                   MOV         R9,R2
    000004D8 622F                   EXTS.W      R2,R2
    000004DA 2228                   TST         R2,R2
    000004DC 8B07                   BF          L68
           ssc_cbhm.i        317                      v_e=v_x;
    000004DE 67B3                   MOV         R11,R7
    000004E0 903E                   MOV.W       L207+2,R0  ; H'0188
    000004E2 0F75                   MOV.W       R7,@(R0,R15); v_e
           ssc_cbhm.i        318                      stop_flg=0;
    000004E4 E100                   MOV         #0,R1      ; H'00000000
    000004E6 E034                   MOV         #52,R0     ; H'00000034
    000004E8 0F15                   MOV.W       R1,@(R0,R15); stop_flg
    000004EA A003                   BRA         L59
    000004EC 0009                   NOP
    000004EE              L68:
           ssc_cbhm.i        319                  }else{
           ssc_cbhm.i        320                      stop_flg=1;
    000004EE E101                   MOV         #1,R1      ; H'00000001
    000004F0 E034                   MOV         #52,R0     ; H'00000034
    000004F2 0F15                   MOV.W       R1,@(R0,R15); stop_flg
    000004F4              L59:
           ssc_cbhm.i        321                  }
           ssc_cbhm.i        322              }
           ssc_cbhm.i        323              
           ssc_cbhm.i        324              length=mot_length_make1(obj_Ldig,st_dig,last_cnt_flg);//符号付
    000004F4 E03C                   MOV         #60,R0     ; H'0000003C
    000004F6 06FD                   MOV.W       @(R0,R15),R6; last_cnt_flg
    000004F8 9034                   MOV.W       L207+6,R0  ; H'0190
    000004FA 05FD                   MOV.W       @(R0,R15),R5; st_dig
    000004FC 64AF                   EXTS.W      R10,R4
    000004FE B33F                   BSR         _mot_length_make1
    00000500 0009                   NOP
    00000502 6603                   MOV         R0,R6
    00000504 026A                   STS         FPSCR,R2
    00000506 D136                   MOV.L       L209+48,R1 ; H'FFE7FFFF
    00000508 2219                   AND         R1,R2
    0000050A 426A                   LDS         R2,FPSCR
    0000050C 686F                   EXTS.W      R6,R8
    0000050E 688F                   EXTS.W      R8,R8
           ssc_cbhm.i        325              if(length<0){
    00000510 4811                   CMP/PZ      R8
    00000512 890F                   BT          L70
           ssc_cbhm.i        326                  if(dirct_flg==0){//前は正転
    00000514 E038                   MOV         #56,R0     ; H'00000038
    00000516 01FD                   MOV.W       @(R0,R15),R1; dirct_flg
    00000518 6213                   MOV         R1,R2
    0000051A 622F                   EXTS.W      R2,R2
    0000051C 2228                   TST         R2,R2
    0000051E 8B02                   BF          L72
           ssc_cbhm.i        327                      v_s=0;
    00000520 E100                   MOV         #0,R1      ; H'00000000
    00000522 901C                   MOV.W       L207,R0    ; H'0180
    00000524 0F15                   MOV.W       R1,@(R0,R15); v_s
    00000526              L72:
           ssc_cbhm.i        328                  }
           ssc_cbhm.i        329                  dirct_flg=1;//逆転
    00000526 E101                   MOV         #1,R1      ; H'00000001
    00000528 E038                   MOV         #56,R0     ; H'00000038
    0000052A 0F15                   MOV.W       R1,@(R0,R15); dirct_flg
           ssc_cbhm.i        330                  length=length*-1;
    0000052C 628B                   NEG         R8,R2
    0000052E 6823                   MOV         R2,R8
    00000530 A00C                   BRA         L73
    00000532 0009                   NOP
    00000534              L70:
           ssc_cbhm.i        331              }else{
           ssc_cbhm.i        332                  if(dirct_flg!=0){//前は逆転
    00000534 E038                   MOV         #56,R0     ; H'00000038
    00000536 01FD                   MOV.W       @(R0,R15),R1; dirct_flg
    00000538 6213                   MOV         R1,R2
    0000053A 622F                   EXTS.W      R2,R2
    0000053C 2228                   TST         R2,R2
    0000053E 8902                   BT          L75
           ssc_cbhm.i        333                      v_s=0;
    00000540 E100                   MOV         #0,R1      ; H'00000000
    00000542 900C                   MOV.W       L207,R0    ; H'0180
    00000544 0F15                   MOV.W       R1,@(R0,R15); v_s
    00000546              L75:
           ssc_cbhm.i        334                  }
           ssc_cbhm.i        335                  dirct_flg=0;//正転
    00000546 E100                   MOV         #0,R1      ; H'00000000
    00000548 E038                   MOV         #56,R0     ; H'00000038
    0000054A 0F15                   MOV.W       R1,@(R0,R15); dirct_flg
    0000054C              L73:
           ssc_cbhm.i        336              }
           ssc_cbhm.i        337              wkflg1=0;
    0000054C E100                   MOV         #0,R1      ; H'00000000
    0000054E 900B                   MOV.W       L207+10,R0 ; H'01A4
    00000550 0F15                   MOV.W       R1,@(R0,R15); wkflg1
           ssc_cbhm.i        338              //無理やり180度(ﾘﾝｸもｸﾗﾝｸも180度は同じ)通過演算をいれる
           ssc_cbhm.i        339              if(i==1){
    00000552 60EF                   EXTS.W      R14,R0
    00000554 8801                   CMP/EQ      #1,R0
    00000556 8B08                   BF          L77
           ssc_cbhm.i        340                  wkflg2=0;//開始は下降
    00000558 E600                   MOV         #0,R6      ; H'00000000
    0000055A A010                   BRA         L78
    0000055C 0009                   NOP
    0000055E              L207:
    0000055E 0180                   .DATA.W     H'0180
    00000560 0188                   .DATA.W     H'0188
    00000562 00E0                   .DATA.W     H'00E0
    00000564 0190                   .DATA.W     H'0190
    00000566 0198                   .DATA.W     H'0198
    00000568 01A4                   .DATA.W     H'01A4
    0000056A              L77:
           ssc_cbhm.i        341              }else{
           ssc_cbhm.i        342                  wkflg2=area1800chg(st_dig);
    0000056A 9021                   MOV.W       L209,R0    ; H'0190
    0000056C 04FD                   MOV.W       @(R0,R15),R4; st_dig
    0000056E B3CC                   BSR         _area1800chg
    00000570 0009                   NOP
    00000572 6503                   MOV         R0,R5
    00000574 026A                   STS         FPSCR,R2
    00000576 D11A                   MOV.L       L209+48,R1 ; H'FFE7FFFF
    00000578 2219                   AND         R1,R2
    0000057A 426A                   LDS         R2,FPSCR
    0000057C 665F                   EXTS.W      R5,R6
    0000057E              L78:
           ssc_cbhm.i        343              }
           ssc_cbhm.i        344              if(dirct_flg==0){//正転
    0000057E E038                   MOV         #56,R0     ; H'00000038
    00000580 01FD                   MOV.W       @(R0,R15),R1; dirct_flg
    00000582 6213                   MOV         R1,R2
    00000584 622F                   EXTS.W      R2,R2
    00000586 2228                   TST         R2,R2
    00000588 8B2F                   BF          L80
           ssc_cbhm.i        345                  if(!wkflg2){//下降
    0000058A 666F                   EXTS.W      R6,R6
    0000058C 2668                   TST         R6,R6
    0000058E 8B3E                   BF          L82
           ssc_cbhm.i        346                      wkflg2=area1800chg(obj_Ldig);//0:正転
    00000590 64AF                   EXTS.W      R10,R4
    00000592 B3BA                   BSR         _area1800chg
    00000594 0009                   NOP
    00000596 6503                   MOV         R0,R5
    00000598 026A                   STS         FPSCR,R2
    0000059A D111                   MOV.L       L209+48,R1 ; H'FFE7FFFF
    0000059C 2219                   AND         R1,R2
    0000059E 426A                   LDS         R2,FPSCR
    000005A0 665F                   EXTS.W      R5,R6
           ssc_cbhm.i        347                      if(wkflg2){//今回上昇
    000005A2 666F                   EXTS.W      R6,R6
    000005A4 2668                   TST         R6,R6
    000005A6 8932                   BT          L82
           ssc_cbhm.i        348                          wkflg1=1;
    000005A8 E101                   MOV         #1,R1      ; H'00000001
    000005AA 9002                   MOV.W       L209+2,R0  ; H'01A4
    000005AC A01A                   BRA         L208
    000005AE 0009                   NOP
    000005B0              L209:
    000005B0 0190                   .DATA.W     H'0190
    000005B2 01A4                   .DATA.W     H'01A4
    000005B4 <00000000>             .DATA.L     _SVP_UPAREA_DIG0
    000005B8 <00000000>             .DATA.L     _SVP_UPAREA_SPD0
    000005BC 10624DD3               .DATA.L     H'10624DD3
    000005C0 <00000000>             .DATA.L     _SVP_UPAREA_TIM0
    000005C4 <00000000>             .DATA.L     _MODE_SEL
    000005C8 <00000000>             .DATA.L     _SET1_MRTION_SEL1
    000005CC <00000000>             .DATA.L     _SVP_OBJECT_SPD_TOP
    000005D0 <00000000>             .DATA.L     _SETX_UPAREA_DIG
    000005D4 <00000000>             .DATA.L     _SVP_OBJECT_TIM_TOP
    000005D8 <00000000>             .DATA.L     _SVP_OBJECT_DIG_TOP
    000005DC <00000000>             .DATA.L     _SET1_OBJECT_DIG_TOP
    000005E0 FFE7FFFF               .DATA.L     H'FFE7FFFF
    000005E4              L208:
    000005E4 0F15                   MOV.W       R1,@(R0,R15); wkflg1
    000005E6 A012                   BRA         L82
    000005E8 0009                   NOP
    000005EA              L80:
           ssc_cbhm.i        349                      }
           ssc_cbhm.i        350                  }
           ssc_cbhm.i        351              }else{//逆転
           ssc_cbhm.i        352                  if(wkflg2){//上昇
    000005EA 666F                   EXTS.W      R6,R6
    000005EC 2668                   TST         R6,R6
    000005EE 890E                   BT          L82
           ssc_cbhm.i        353                      wkflg2=area1800chg(obj_Ldig);//
    000005F0 64AF                   EXTS.W      R10,R4
    000005F2 B38A                   BSR         _area1800chg
    000005F4 0009                   NOP
    000005F6 6503                   MOV         R0,R5
    000005F8 026A                   STS         FPSCR,R2
    000005FA D1CC                   MOV.L       L212+18,R1 ; H'FFE7FFFF
    000005FC 2219                   AND         R1,R2
    000005FE 426A                   LDS         R2,FPSCR
    00000600 665F                   EXTS.W      R5,R6
           ssc_cbhm.i        354                      if(!wkflg2){//今回下降
    00000602 666F                   EXTS.W      R6,R6
    00000604 2668                   TST         R6,R6
    00000606 8B02                   BF          L82
           ssc_cbhm.i        355                          wkflg1=1;
    00000608 E101                   MOV         #1,R1      ; H'00000001
    0000060A 90E4                   MOV.W       L211,R0    ; H'01A4
    0000060C 0F15                   MOV.W       R1,@(R0,R15); wkflg1
    0000060E              L82:
           ssc_cbhm.i        356                      }
           ssc_cbhm.i        357                  }
           ssc_cbhm.i        358              }
           ssc_cbhm.i        359              //通常の計算
           ssc_cbhm.i        360              wk4b1=tim_calc_up_dn(length,v_s,v_x,v_e,Ta_max,Vmax);
    0000060E 7FFC                   ADD         #-4,R15
    00000610 E020                   MOV         #32,R0     ; H'00000020
    00000612 05FD                   MOV.W       @(R0,R15),R5; Vmax
    00000614 2F52                   MOV.L       R5,@R15
    00000616 7FFC                   ADD         #-4,R15
    00000618 E034                   MOV         #52,R0     ; H'00000034
    0000061A 05FD                   MOV.W       @(R0,R15),R5; Ta_max
    0000061C 2F52                   MOV.L       R5,@R15
    0000061E 66BF                   EXTS.W      R11,R6
    00000620 90DA                   MOV.W       L211+2,R0  ; H'0188
    00000622 05FD                   MOV.W       @(R0,R15),R5; v_s
    00000624 90D9                   MOV.W       L211+4,R0  ; H'0190
    00000626 07FD                   MOV.W       @(R0,R15),R7; v_e
    00000628 648F                   EXTS.W      R8,R4
    0000062A B187                   BSR         _tim_calc_up_dn
    0000062C 0009                   NOP
    0000062E 6803                   MOV         R0,R8
    00000630 026A                   STS         FPSCR,R2
    00000632 D5BE                   MOV.L       L212+18,R5 ; H'FFE7FFFF
    00000634 2259                   AND         R5,R2
    00000636 426A                   LDS         R2,FPSCR
    00000638 7F08                   ADD         #8,R15
           ssc_cbhm.i        361              wk4b2=0;
    0000063A E100                   MOV         #0,R1      ; H'00000000
           ssc_cbhm.i        362              if(wkflg1){//180度をまたぐ
    0000063C 90CB                   MOV.W       L211,R0    ; H'01A4
    0000063E 05FD                   MOV.W       @(R0,R15),R5; wkflg1
    00000640 6253                   MOV         R5,R2
    00000642 622F                   EXTS.W      R2,R2
    00000644 2228                   TST         R2,R2
    00000646 8947                   BT          L87
           ssc_cbhm.i        363                  length180=mot_length_make1(1800,st_dig,0);//符号付
    00000648 E600                   MOV         #0,R6      ; H'00000000
    0000064A 91C7                   MOV.W       L211+6,R1  ; H'0708
    0000064C 6413                   MOV         R1,R4
    0000064E 90C4                   MOV.W       L211+4,R0  ; H'0190
    00000650 05FD                   MOV.W       @(R0,R15),R5; st_dig
    00000652 666F                   EXTS.W      R6,R6
    00000654 644F                   EXTS.W      R4,R4
    00000656 B293                   BSR         _mot_length_make1
    00000658 0009                   NOP
    0000065A 6603                   MOV         R0,R6
    0000065C 026A                   STS         FPSCR,R2
    0000065E D1B3                   MOV.L       L212+18,R1 ; H'FFE7FFFF
    00000660 2219                   AND         R1,R2
    00000662 426A                   LDS         R2,FPSCR
    00000664 646F                   EXTS.W      R6,R4
    00000666 644F                   EXTS.W      R4,R4
           ssc_cbhm.i        364                  if(length180<0){
    00000668 4411                   CMP/PZ      R4
    0000066A 8901                   BT          L89
           ssc_cbhm.i        365                      length180= -1*length180;
    0000066C 624B                   NEG         R4,R2
    0000066E 6423                   MOV         R2,R4
    00000670              L89:
           ssc_cbhm.i        366                  }
           ssc_cbhm.i        367                  //とりあえず対策 うそソフト
           ssc_cbhm.i        368                  wk4b2=tim_calc_up_dn(length180,v_s,v_x,v_x,Ta_max,Vmax);
    00000670 7FFC                   ADD         #-4,R15
    00000672 E020                   MOV         #32,R0     ; H'00000020
    00000674 07FD                   MOV.W       @(R0,R15),R7; Vmax
    00000676 2F72                   MOV.L       R7,@R15
    00000678 7FFC                   ADD         #-4,R15
    0000067A E034                   MOV         #52,R0     ; H'00000034
    0000067C 07FD                   MOV.W       @(R0,R15),R7; Ta_max
    0000067E 2F72                   MOV.L       R7,@R15
    00000680 67BF                   EXTS.W      R11,R7
    00000682 66BF                   EXTS.W      R11,R6
    00000684 90A8                   MOV.W       L211+2,R0  ; H'0188
    00000686 05FD                   MOV.W       @(R0,R15),R5; v_s
    00000688 644F                   EXTS.W      R4,R4
    0000068A B157                   BSR         _tim_calc_up_dn
    0000068C 0009                   NOP
    0000068E 6103                   MOV         R0,R1
    00000690 026A                   STS         FPSCR,R2
    00000692 D7A6                   MOV.L       L212+18,R7 ; H'FFE7FFFF
    00000694 2279                   AND         R7,R2
    00000696 426A                   LDS         R2,FPSCR
    00000698 7F08                   ADD         #8,R15
           ssc_cbhm.i        369                  //if(wk4b1<=wk4b2){//wk4b1と同じ結果になった
           ssc_cbhm.i        370                  //  wk4b2=wk4b2/2;//半分の点にしておく
           ssc_cbhm.i        371                  //}
           ssc_cbhm.i        372                  //
           ssc_cbhm.i        373                  xtim[data_cnt]=wk4b2;
    0000069A 62F3                   MOV         R15,R2
    0000069C 7240                   ADD         #64,R2
    0000069E 66C3                   MOV         R12,R6
    000006A0 666F                   EXTS.W      R6,R6
    000006A2 4608                   SHLL2       R6
    000006A4 6063                   MOV         R6,R0
    000006A6 0216                   MOV.L       R1,@(R0,R2); xtim[]
           ssc_cbhm.i        374                  total_tim=total_tim+wk4b2;
    000006A8 3D1C                   ADD         R1,R13
           ssc_cbhm.i        375                  yLdig[data_cnt]=1800;//
    000006AA 62F3                   MOV         R15,R2
    000006AC 9797                   MOV.W       L211+8,R7  ; H'00E0
    000006AE 327C                   ADD         R7,R2
    000006B0 66C3                   MOV         R12,R6
    000006B2 666F                   EXTS.W      R6,R6
    000006B4 4600                   SHLL        R6
    000006B6 9791                   MOV.W       L211+6,R7  ; H'0708
    000006B8 6063                   MOV         R6,R0
    000006BA 0275                   MOV.W       R7,@(R0,R2); yLdig[]
           ssc_cbhm.i        376                  yCdig[data_cnt]=1800;//
    000006BC 62F3                   MOV         R15,R2
    000006BE 978F                   MOV.W       L211+10,R7 ; H'0130
    000006C0 327C                   ADD         R7,R2
    000006C2 65C3                   MOV         R12,R5
    000006C4 655F                   EXTS.W      R5,R5
    000006C6 6653                   MOV         R5,R6
    000006C8 4600                   SHLL        R6
    000006CA 9787                   MOV.W       L211+6,R7  ; H'0708
    000006CC 6063                   MOV         R6,R0
    000006CE 0275                   MOV.W       R7,@(R0,R2); yCdig[]
           ssc_cbhm.i        377                  data_cnt++;
    000006D0 6CCF                   EXTS.W      R12,R12
    000006D2 62C3                   MOV         R12,R2
    000006D4 7201                   ADD         #1,R2
    000006D6 6C23                   MOV         R2,R12
    000006D8              L87:
           ssc_cbhm.i        378              }
           ssc_cbhm.i        379              //xtim[data_cnt]=wk4b1;
           ssc_cbhm.i        380              //total_tim=total_tim+wk4b1;
           ssc_cbhm.i        381              xtim[data_cnt]=wk4b1-wk4b2;
    000006D8 6683                   MOV         R8,R6
    000006DA 3618                   SUB         R1,R6
    000006DC 62F3                   MOV         R15,R2
    000006DE 7240                   ADD         #64,R2
    000006E0 64C3                   MOV         R12,R4
    000006E2 644F                   EXTS.W      R4,R4
    000006E4 6543                   MOV         R4,R5
    000006E6 4508                   SHLL2       R5
    000006E8 6053                   MOV         R5,R0
    000006EA 0266                   MOV.L       R6,@(R0,R2); xtim[]
           ssc_cbhm.i        382              total_tim=total_tim+wk4b1-wk4b2;
    000006EC 3D8C                   ADD         R8,R13
    000006EE 3D18                   SUB         R1,R13
           ssc_cbhm.i        383              yLdig[data_cnt]=obj_Ldig;
    000006F0 66F3                   MOV         R15,R6
    000006F2 9774                   MOV.W       L211+8,R7  ; H'00E0
    000006F4 367C                   ADD         R7,R6
    000006F6 62C3                   MOV         R12,R2
    000006F8 622F                   EXTS.W      R2,R2
    000006FA 4200                   SHLL        R2
    000006FC 6023                   MOV         R2,R0
    000006FE 06A5                   MOV.W       R10,@(R0,R6); yLdig[]
           ssc_cbhm.i        384              yCdig[data_cnt]=obj_Cdig;
    00000700 66F3                   MOV         R15,R6
    00000702 976D                   MOV.W       L211+10,R7 ; H'0130
    00000704 367C                   ADD         R7,R6
    00000706 65C3                   MOV         R12,R5
    00000708 655F                   EXTS.W      R5,R5
    0000070A 6253                   MOV         R5,R2
    0000070C 4200                   SHLL        R2
    0000070E 9068                   MOV.W       L211+12,R0 ; H'0198
    00000710 07FD                   MOV.W       @(R0,R15),R7; obj_Cdig
    00000712 6023                   MOV         R2,R0
    00000714 0675                   MOV.W       R7,@(R0,R6); yCdig[]
           ssc_cbhm.i        385              data_cnt++;
    00000716 6CCF                   EXTS.W      R12,R12
    00000718 62C3                   MOV         R12,R2
    0000071A 7201                   ADD         #1,R2
    0000071C 6C23                   MOV         R2,R12
           ssc_cbhm.i        386              if(w_t!=0){
    0000071E 6293                   MOV         R9,R2
    00000720 622F                   EXTS.W      R2,R2
    00000722 2228                   TST         R2,R2
    00000724 8921                   BT          L91
           ssc_cbhm.i        387                  xtim[data_cnt]=w_t;
    00000726 66F3                   MOV         R15,R6
    00000728 7640                   ADD         #64,R6
    0000072A 65C3                   MOV         R12,R5
    0000072C 655F                   EXTS.W      R5,R5
    0000072E 6253                   MOV         R5,R2
    00000730 4208                   SHLL2       R2
    00000732 699F                   EXTS.W      R9,R9
    00000734 6023                   MOV         R2,R0
    00000736 0696                   MOV.L       R9,@(R0,R6); xtim[]
           ssc_cbhm.i        388                  total_tim=total_tim+(U4b)w_t;
    00000738 699F                   EXTS.W      R9,R9
    0000073A 3D9C                   ADD         R9,R13
           ssc_cbhm.i        389                  yLdig[data_cnt]=obj_Ldig;
    0000073C 62F3                   MOV         R15,R2
    0000073E 914E                   MOV.W       L211+8,R1  ; H'00E0
    00000740 321C                   ADD         R1,R2
    00000742 65C3                   MOV         R12,R5
    00000744 655F                   EXTS.W      R5,R5
    00000746 6653                   MOV         R5,R6
    00000748 4600                   SHLL        R6
    0000074A 6063                   MOV         R6,R0
    0000074C 02A5                   MOV.W       R10,@(R0,R2); yLdig[]
           ssc_cbhm.i        390                  yCdig[data_cnt]=obj_Cdig;
    0000074E 66F3                   MOV         R15,R6
    00000750 9146                   MOV.W       L211+10,R1 ; H'0130
    00000752 361C                   ADD         R1,R6
    00000754 62C3                   MOV         R12,R2
    00000756 622F                   EXTS.W      R2,R2
    00000758 4200                   SHLL        R2
    0000075A 9042                   MOV.W       L211+12,R0 ; H'0198
    0000075C 01FD                   MOV.W       @(R0,R15),R1; obj_Cdig
    0000075E 6023                   MOV         R2,R0
    00000760 0615                   MOV.W       R1,@(R0,R6); yCdig[]
           ssc_cbhm.i        391                  data_cnt++;
    00000762 6CCF                   EXTS.W      R12,R12
    00000764 62C3                   MOV         R12,R2
    00000766 7201                   ADD         #1,R2
    00000768 6C23                   MOV         R2,R12
    0000076A              L91:
           ssc_cbhm.i        392              }
           ssc_cbhm.i        393    
           ssc_cbhm.i        394              i++;
    0000076A 6EEF                   EXTS.W      R14,R14
    0000076C 62E3                   MOV         R14,R2
    0000076E 7201                   ADD         #1,R2
    00000770 6E23                   MOV         R2,R14
    00000772 85F4                   MOV.W       @(8,R15),R0; step_max
    00000774 6103                   MOV         R0,R1
    00000776 6EEF                   EXTS.W      R14,R14
    00000778 3E17                   CMP/GT      R1,R14
    0000077A 8901                   BT          L220
    0000077C ADBA                   BRA         L48
    0000077E 0009                   NOP
    00000780              L220:
    00000780              L47:
           ssc_cbhm.i        395          }
           ssc_cbhm.i        396    
           ssc_cbhm.i        397      //  ***************************
           ssc_cbhm.i        398      //  *** ﾄﾞｯﾄ変換    ***
           ssc_cbhm.i        399      //  ***************************
           ssc_cbhm.i        400          i=0;
    00000780 EE00                   MOV         #0,R14     ; H'00000000
           ssc_cbhm.i        401          wk4b1=0;
    00000782 E800                   MOV         #0,R8      ; H'00000000
           ssc_cbhm.i        402          while(i<data_cnt){
    00000784 6CCF                   EXTS.W      R12,R12
    00000786 6EEF                   EXTS.W      R14,R14
    00000788 3EC3                   CMP/GE      R12,R14
    0000078A 8B01                   BF          L221
    0000078C A0A0                   BRA         L92
    0000078E 0009                   NOP
    00000790              L221:
    00000790              L93:
           ssc_cbhm.i        403              wk4b1=wk4b1+(S4b)xtim[i];
    00000790 66F3                   MOV         R15,R6
    00000792 7640                   ADD         #64,R6
    00000794 65E3                   MOV         R14,R5
    00000796 655F                   EXTS.W      R5,R5
    00000798 6253                   MOV         R5,R2
    0000079A 4208                   SHLL2       R2
    0000079C 6023                   MOV         R2,R0
    0000079E 056E                   MOV.L       @(R0,R6),R5; xtim[]
    000007A0 385C                   ADD         R5,R8
           ssc_cbhm.i        404              xdot[i]=wk4b1*XdotMax/total_tim;
    000007A2 60F1                   MOV.W       @R15,R0    ; XdotMax
    000007A4 6703                   MOV         R0,R7
    000007A6 627F                   EXTS.W      R7,R2
    000007A8 0287                   MUL.L       R8,R2
    000007AA 021A                   STS         MACL,R2
    000007AC 6123                   MOV         R2,R1
    000007AE 60D3                   MOV         R13,R0
    000007B0 D35F                   MOV.L       L212+22,R3 ; __divlu
    000007B2 430B                   JSR         @R3
    000007B4 0009                   NOP
    000007B6 6603                   MOV         R0,R6
    000007B8 026A                   STS         FPSCR,R2
    000007BA D75C                   MOV.L       L212+18,R7 ; H'FFE7FFFF
    000007BC 2279                   AND         R7,R2
    000007BE 426A                   LDS         R2,FPSCR
    000007C0 62E3                   MOV         R14,R2
    000007C2 622F                   EXTS.W      R2,R2
    000007C4 4200                   SHLL        R2
    000007C6 900D                   MOV.W       L211+14,R0 ; H'01AC
    000007C8 07FE                   MOV.L       @(R0,R15),R7; xdot
    000007CA 6023                   MOV         R2,R0
    000007CC 0765                   MOV.W       R6,@(R0,R7); xdot[]
           ssc_cbhm.i        405              
           ssc_cbhm.i        406              if(yCdig[i]>=1800){
    000007CE 66F3                   MOV         R15,R6
    000007D0 9706                   MOV.W       L211+10,R7 ; H'0130
    000007D2 A008                   BRA         L210
    000007D4 0009                   NOP
    000007D6              L211:
    000007D6 01A4                   .DATA.W     H'01A4
    000007D8 0188                   .DATA.W     H'0188
    000007DA 0190                   .DATA.W     H'0190
    000007DC 0708                   .DATA.W     H'0708
    000007DE 00E0                   .DATA.W     H'00E0
    000007E0 0130                   .DATA.W     H'0130
    000007E2 0198                   .DATA.W     H'0198
    000007E4 01AC                   .DATA.W     H'01AC
    000007E6              L210:
    000007E6 367C                   ADD         R7,R6
    000007E8 62E3                   MOV         R14,R2
    000007EA 622F                   EXTS.W      R2,R2
    000007EC 4200                   SHLL        R2
    000007EE 6023                   MOV         R2,R0
    000007F0 056D                   MOV.W       @(R0,R6),R5; yCdig[]
    000007F2 655F                   EXTS.W      R5,R5
    000007F4 9791                   MOV.W       L212,R7    ; H'0708
    000007F6 3573                   CMP/GE      R7,R5
    000007F8 8B2F                   BF          L95
           ssc_cbhm.i        407    //                ydot[i]=(1800-(3600-yCdig[i]))*YdotMax/1800;
           ssc_cbhm.i        408                  ydot[i]=YdotMax-(1800-(3600-yCdig[i]))*YdotMax/1800;
    000007FA 85F2                   MOV.W       @(4,R15),R0; YdotMax
    000007FC 6703                   MOV         R0,R7
    000007FE 6B73                   MOV         R7,R11
    00000800 978B                   MOV.W       L212,R7    ; H'0708
    00000802 6573                   MOV         R7,R5
    00000804 978A                   MOV.W       L212+2,R7  ; H'0E10
    00000806 6273                   MOV         R7,R2
    00000808 66F3                   MOV         R15,R6
    0000080A 9788                   MOV.W       L212+4,R7  ; H'0130
    0000080C 367C                   ADD         R7,R6
    0000080E 61E3                   MOV         R14,R1
    00000810 611F                   EXTS.W      R1,R1
    00000812 6413                   MOV         R1,R4
    00000814 4400                   SHLL        R4
    00000816 6043                   MOV         R4,R0
    00000818 016D                   MOV.W       @(R0,R6),R1; yCdig[]
    0000081A 611F                   EXTS.W      R1,R1
    0000081C 3218                   SUB         R1,R2
    0000081E 3528                   SUB         R2,R5
    00000820 85F2                   MOV.W       @(4,R15),R0; YdotMax
    00000822 6703                   MOV         R0,R7
    00000824 0757                   MUL.L       R5,R7
    00000826 021A                   STS         MACL,R2
    00000828 D742                   MOV.L       L212+26,R7 ; H'91A2B3C5
    0000082A 372D                   DMULS.L     R2,R7
    0000082C 050A                   STS         MACH,R5
    0000082E 6653                   MOV         R5,R6
    00000830 362C                   ADD         R2,R6
    00000832 E7F6                   MOV         #-10,R7    ; H'FFFFFFF6
    00000834 467C                   SHAD        R7,R6
    00000836 6263                   MOV         R6,R2
    00000838 4204                   ROTL        R2
    0000083A E701                   MOV         #1,R7      ; H'00000001
    0000083C 2279                   AND         R7,R2
    0000083E 6563                   MOV         R6,R5
    00000840 352C                   ADD         R2,R5
    00000842 6BBF                   EXTS.W      R11,R11
    00000844 66B3                   MOV         R11,R6
    00000846 3658                   SUB         R5,R6
    00000848 62E3                   MOV         R14,R2
    0000084A 622F                   EXTS.W      R2,R2
    0000084C 4200                   SHLL        R2
    0000084E 9067                   MOV.W       L212+6,R0  ; H'01B0
    00000850 07FE                   MOV.L       @(R0,R15),R7; ydot
    00000852 6023                   MOV         R2,R0
    00000854 0765                   MOV.W       R6,@(R0,R7); ydot[]
    00000856 A02C                   BRA         L96
    00000858 0009                   NOP
    0000085A              L95:
           ssc_cbhm.i        409              }else{
           ssc_cbhm.i        410    //                ydot[i]=(1800-yCdig[i])*YdotMax/1800;
           ssc_cbhm.i        411                  ydot[i]=YdotMax-(1800-yCdig[i])*YdotMax/1800;
    0000085A 85F2                   MOV.W       @(4,R15),R0; YdotMax
    0000085C 6703                   MOV         R0,R7
    0000085E 6173                   MOV         R7,R1
    00000860 975B                   MOV.W       L212,R7    ; H'0708
    00000862 6573                   MOV         R7,R5
    00000864 62F3                   MOV         R15,R2
    00000866 975A                   MOV.W       L212+4,R7  ; H'0130
    00000868 327C                   ADD         R7,R2
    0000086A 66E3                   MOV         R14,R6
    0000086C 666F                   EXTS.W      R6,R6
    0000086E 4600                   SHLL        R6
    00000870 6063                   MOV         R6,R0
    00000872 042D                   MOV.W       @(R0,R2),R4; yCdig[]
    00000874 644F                   EXTS.W      R4,R4
    00000876 3548                   SUB         R4,R5
    00000878 85F2                   MOV.W       @(4,R15),R0; YdotMax
    0000087A 6703                   MOV         R0,R7
    0000087C 0757                   MUL.L       R5,R7
    0000087E 021A                   STS         MACL,R2
    00000880 D72C                   MOV.L       L212+26,R7 ; H'91A2B3C5
    00000882 6673                   MOV         R7,R6
    00000884 362D                   DMULS.L     R2,R6
    00000886 050A                   STS         MACH,R5
    00000888 6653                   MOV         R5,R6
    0000088A 362C                   ADD         R2,R6
    0000088C E7F6                   MOV         #-10,R7    ; H'FFFFFFF6
    0000088E 467C                   SHAD        R7,R6
    00000890 6263                   MOV         R6,R2
    00000892 4204                   ROTL        R2
    00000894 E701                   MOV         #1,R7      ; H'00000001
    00000896 2279                   AND         R7,R2
    00000898 6563                   MOV         R6,R5
    0000089A 352C                   ADD         R2,R5
    0000089C 611F                   EXTS.W      R1,R1
    0000089E 6413                   MOV         R1,R4
    000008A0 3458                   SUB         R5,R4
    000008A2 66E3                   MOV         R14,R6
    000008A4 666F                   EXTS.W      R6,R6
    000008A6 6263                   MOV         R6,R2
    000008A8 4200                   SHLL        R2
    000008AA 9039                   MOV.W       L212+6,R0  ; H'01B0
    000008AC 07FE                   MOV.L       @(R0,R15),R7; ydot
    000008AE 6023                   MOV         R2,R0
    000008B0 0745                   MOV.W       R4,@(R0,R7); ydot[]
    000008B2              L96:
           ssc_cbhm.i        412              }
           ssc_cbhm.i        413    
           ssc_cbhm.i        414              ;
           ssc_cbhm.i        415              yLdig[0]=SETX_UPAREA_DIG;//ﾘﾝｸ角度
    000008B2 D121                   MOV.L       L212+30,R1 ; _SETX_UPAREA_DIG
    000008B4 6711                   MOV.W       @R1,R7     ; SETX_UPAREA_DIG
    000008B6 6273                   MOV         R7,R2
    000008B8 9033                   MOV.W       L212+8,R0  ; H'00E0
    000008BA 0F25                   MOV.W       R2,@(R0,R15); yLdig[]
           ssc_cbhm.i        416          
           ssc_cbhm.i        417              i++;
    000008BC 6EEF                   EXTS.W      R14,R14
    000008BE 62E3                   MOV         R14,R2
    000008C0 7201                   ADD         #1,R2
    000008C2 6E23                   MOV         R2,R14
    000008C4 6CCF                   EXTS.W      R12,R12
    000008C6 6EEF                   EXTS.W      R14,R14
    000008C8 3EC3                   CMP/GE      R12,R14
    000008CA 8901                   BT          L222
    000008CC AF60                   BRA         L93
    000008CE 0009                   NOP
    000008D0              L222:
    000008D0              L92:
           ssc_cbhm.i        418          }
           ssc_cbhm.i        419  E       ret2b=(0x4|0x2|0x1);
    000008D0 E407                   MOV         #7,R4      ; H'00000007
    000008D2 6043                   MOV         R4,R0
    000008D4 81F6                   MOV.W       R0,@(12,R15); ret2b
    000008D6              L43:
           ssc_cbhm.i        420      }
           ssc_cbhm.i        421    
           ssc_cbhm.i        422      *(point+0)=data_cnt-1;
    000008D6 62C3                   MOV         R12,R2
    000008D8 622F                   EXTS.W      R2,R2
    000008DA 6623                   MOV         R2,R6
    000008DC 76FF                   ADD         #-1,R6
    000008DE 9021                   MOV.W       L212+10,R0 ; H'01B8
    000008E0 01FE                   MOV.L       @(R0,R15),R1; point
    000008E2 2161                   MOV.W       R6,@R1     ; point[]
           ssc_cbhm.i        423      *(cnt+0)=data_cnt;
    000008E4 901F                   MOV.W       L212+12,R0 ; H'01B4
    000008E6 01FE                   MOV.L       @(R0,R15),R1; cnt
    000008E8 21C1                   MOV.W       R12,@R1    ; cnt[]
           ssc_cbhm.i        424      *(chkflg+0)=ret2b;
    000008EA 85F6                   MOV.W       @(12,R15),R0; ret2b
    000008EC 6403                   MOV         R0,R4
    000008EE 901B                   MOV.W       L212+14,R0 ; H'01E4
    000008F0 01FE                   MOV.L       @(R0,R15),R1
    000008F2 2141                   MOV.W       R4,@R1     ; chkflg[]
           ssc_cbhm.i        425      
           ssc_cbhm.i        426      
           ssc_cbhm.i        427      Calc1CycleSpmMake();//予想spm表示
    000008F4 B22F                   BSR         _Calc1CycleSpmMake
    000008F6 0009                   NOP
           ssc_cbhm.i        428      
           ssc_cbhm.i        429      return(ret2b);
    000008F8 85F6                   MOV.W       @(12,R15),R0; ret2b
    000008FA 6403                   MOV         R0,R4
    000008FC 6043                   MOV         R4,R0
    000008FE 9314                   MOV.W       L212+16,R3 ; H'01BC
    00000900 3F3C                   ADD         R3,R15
    00000902 4F06                   LDS.L       @R15+,MACH
    00000904 4F16                   LDS.L       @R15+,MACL
    00000906 4F26                   LDS.L       @R15+,PR
    00000908 6EF6                   MOV.L       @R15+,R14
    0000090A 6DF6                   MOV.L       @R15+,R13
    0000090C 6CF6                   MOV.L       @R15+,R12
    0000090E 6BF6                   MOV.L       @R15+,R11
    00000910 6AF6                   MOV.L       @R15+,R10
    00000912 69F6                   MOV.L       @R15+,R9
    00000914 68F6                   MOV.L       @R15+,R8
           ssc_cbhm.i        430    }
    00000916 000B                   RTS
    00000918 0009                   NOP
    0000091A              L212:
    0000091A 0708                   .DATA.W     H'0708
    0000091C 0E10                   .DATA.W     H'0E10
    0000091E 0130                   .DATA.W     H'0130
    00000920 01B0                   .DATA.W     H'01B0
    00000922 00E0                   .DATA.W     H'00E0
    00000924 01B8                   .DATA.W     H'01B8
    00000926 01B4                   .DATA.W     H'01B4
    00000928 01E4                   .DATA.W     H'01E4
    0000092A 01BC                   .DATA.W     H'01BC
    0000092C FFE7FFFF               .DATA.L     H'FFE7FFFF
    00000930 <00000000>             .DATA.L     __divlu
    00000934 91A2B3C5               .DATA.L     H'91A2B3C5
    00000938 <00000000>             .DATA.L     _SETX_UPAREA_DIG
           ssc_cbhm.i        431    
           ssc_cbhm.i        432    //    v_x=v_s:立ち上がりステップ
           ssc_cbhm.i        433    //    v_x=v_e:立下りステップ
           ssc_cbhm.i        434    //    v_x=v_s=v_e 両方ステップ
           ssc_cbhm.i        435    //    ans.10msec
           ssc_cbhm.i        436    //
           ssc_cbhm.i        437    //    時間は1:10MSEC
           ssc_cbhm.i        438    //    速度は0.1度/SEC
           ssc_cbhm.i        439    //    位置は0.1度
           ssc_cbhm.i        440    //
           ssc_cbhm.i        441    //
           ssc_cbhm.i        442    typedef float     dbl;        /*  s4b */
           ssc_cbhm.i        443    
           ssc_cbhm.i        444    U4b tim_calc_up_dn(S2b length,S2b v_s,S2b v_x,S2b v_e,S2b Ta_max,S2b Vmax){
    0000093C              _tim_calc_up_dn:                 ; function: tim_calc_up_dn
                                                           ; frame size=104
    0000093C 2F96                   MOV.L       R9,@-R15
    0000093E 2FA6                   MOV.L       R10,@-R15
    00000940 2FB6                   MOV.L       R11,@-R15
    00000942 2FC6                   MOV.L       R12,@-R15
    00000944 2FD6                   MOV.L       R13,@-R15
    00000946 2FE6                   MOV.L       R14,@-R15
    00000948 4F22                   STS.L       PR,@-R15
    0000094A 4F12                   STS.L       MACL,@-R15
    0000094C 4F02                   STS.L       MACH,@-R15
    0000094E 7FBC                   ADD         #-68,R15
           ssc_cbhm.i        445      S4b tx,delt_v,delt_ts,delt_ss,delt_te,delt_se,wk1,chk1,chk2;
           ssc_cbhm.i        446      dbl dbtm1,dbtm2,dbA,dbB,dbC,dbwk1,dbwk2;
           ssc_cbhm.i        447      
           ssc_cbhm.i        448      if(v_x==0){
    00000950 6E63                   MOV         R6,R14
    00000952 6B43                   MOV         R4,R11
    00000954 6453                   MOV         R5,R4
    00000956 E042                   MOV         #66,R0     ; H'00000042
    00000958 0F45                   MOV.W       R4,@(R0,R15); v_s
    0000095A 6C73                   MOV         R7,R12
    0000095C E068                   MOV         #104,R0    ; H'00000068
    0000095E 07FE                   MOV.L       @(R0,R15),R7
    00000960 E06A                   MOV         #106,R0    ; H'0000006A
    00000962 0F75                   MOV.W       R7,@(R0,R15)
    00000964 E06C                   MOV         #108,R0    ; H'0000006C
    00000966 01FE                   MOV.L       @(R0,R15),R1
    00000968 6D13                   MOV         R1,R13
    0000096A 62E3                   MOV         R14,R2
    0000096C 622F                   EXTS.W      R2,R2
    0000096E 2228                   TST         R2,R2
    00000970 8B02                   BF          L100
           ssc_cbhm.i        449          tx=1;
    00000972 E601                   MOV         #1,R6      ; H'00000001
    00000974 A0F5                   BRA         L101
    00000976 0009                   NOP
    00000978              L100:
           ssc_cbhm.i        450      }else{
           ssc_cbhm.i        451      //立ち上がり時間と面積
           ssc_cbhm.i        452          delt_ts=((S4b)v_x-(S4b)v_s)*(S4b)Ta_max/(S4b)Vmax;  //v_s開始速度 v_x目標速度 開始から目標に達する時間(msec)
    00000978 66E3                   MOV         R14,R6
    0000097A 644F                   EXTS.W      R4,R4
    0000097C 666F                   EXTS.W      R6,R6
    0000097E 6263                   MOV         R6,R2
    00000980 3248                   SUB         R4,R2
    00000982 677F                   EXTS.W      R7,R7
    00000984 0727                   MUL.L       R2,R7
    00000986 011A                   STS         MACL,R1
    00000988 6DDF                   EXTS.W      R13,R13
    0000098A 62D3                   MOV         R13,R2
    0000098C 6023                   MOV         R2,R0
    0000098E D3AE                   MOV.L       L213+2,R3  ; __divls
    00000990 430B                   JSR         @R3
    00000992 0009                   NOP
    00000994 6603                   MOV         R0,R6
    00000996 026A                   STS         FPSCR,R2
    00000998 D5AC                   MOV.L       L213+6,R5  ; H'FFE7FFFF
    0000099A 2259                   AND         R5,R2
    0000099C 426A                   LDS         R2,FPSCR
    0000099E 6963                   MOV         R6,R9
           ssc_cbhm.i        453          if(delt_ts<0){
    000009A0 4911                   CMP/PZ      R9
    000009A2 8900                   BT          L103
           ssc_cbhm.i        454              delt_ts=delt_ts*-1; //下降時は負
    000009A4 699B                   NEG         R9,R9
    000009A6              L103:
           ssc_cbhm.i        455          }
           ssc_cbhm.i        456          delt_ss=((S4b)v_x+(S4b)v_s)*(S4b)delt_ts/2; //tsの台形の面積 msecなので1000された距離
    000009A6 66E3                   MOV         R14,R6
    000009A8 E042                   MOV         #66,R0     ; H'00000042
    000009AA 04FD                   MOV.W       @(R0,R15),R4; v_s
    000009AC 666F                   EXTS.W      R6,R6
    000009AE 6263                   MOV         R6,R2
    000009B0 324C                   ADD         R4,R2
    000009B2 0927                   MUL.L       R2,R9
    000009B4 061A                   STS         MACL,R6
    000009B6 E200                   MOV         #0,R2      ; H'00000000
    000009B8 3267                   CMP/GT      R6,R2
    000009BA 362E                   ADDC        R2,R6
    000009BC 4621                   SHAR        R6
           ssc_cbhm.i        457          delt_ss=delt_ss/100;                //0.1度単位に戻す 2004-05-26
    000009BE D2A4                   MOV.L       L213+10,R2 ; H'51EB851F
    000009C0 326D                   DMULS.L     R6,R2
    000009C2 060A                   STS         MACH,R6
    000009C4 E7FB                   MOV         #-5,R7     ; H'FFFFFFFB
    000009C6 467C                   SHAD        R7,R6
    000009C8 6263                   MOV         R6,R2
    000009CA 4204                   ROTL        R2
    000009CC E701                   MOV         #1,R7      ; H'00000001
    000009CE 2279                   AND         R7,R2
    000009D0 6563                   MOV         R6,R5
    000009D2 352C                   ADD         R2,R5
    000009D4 6653                   MOV         R5,R6
    000009D6 1F63                   MOV.L       R6,@(12,R15); delt_ss
           ssc_cbhm.i        458    
           ssc_cbhm.i        459    
           ssc_cbhm.i        460      //立ち下がり時間と面積(停止タイプのみ発生　連続はv_x=v_e)
           ssc_cbhm.i        461          delt_te=((S4b)v_x-(S4b)v_e)*(S4b)Ta_max/(S4b)Vmax;
    000009D8 65E3                   MOV         R14,R5
    000009DA 6CCF                   EXTS.W      R12,R12
    000009DC 655F                   EXTS.W      R5,R5
    000009DE 6253                   MOV         R5,R2
    000009E0 32C8                   SUB         R12,R2
    000009E2 E06A                   MOV         #106,R0    ; H'0000006A
    000009E4 07FD                   MOV.W       @(R0,R15),R7
    000009E6 0727                   MUL.L       R2,R7
    000009E8 011A                   STS         MACL,R1
    000009EA 6DDF                   EXTS.W      R13,R13
    000009EC 62D3                   MOV         R13,R2
    000009EE 6023                   MOV         R2,R0
    000009F0 D395                   MOV.L       L213+2,R3  ; __divls
    000009F2 430B                   JSR         @R3
    000009F4 0009                   NOP
    000009F6 6503                   MOV         R0,R5
    000009F8 026A                   STS         FPSCR,R2
    000009FA D794                   MOV.L       L213+6,R7  ; H'FFE7FFFF
    000009FC 2279                   AND         R7,R2
    000009FE 426A                   LDS         R2,FPSCR
    00000A00 6A53                   MOV         R5,R10
           ssc_cbhm.i        462          if(delt_te<0){
    00000A02 4A11                   CMP/PZ      R10
    00000A04 8900                   BT          L105
           ssc_cbhm.i        463              delt_te=delt_te*-1;
    00000A06 6AAB                   NEG         R10,R10
    00000A08              L105:
           ssc_cbhm.i        464          }
           ssc_cbhm.i        465          delt_se=((S4b)v_x+(S4b)v_e)*(S4b)delt_te/2;
    00000A08 65E3                   MOV         R14,R5
    00000A0A 6CCF                   EXTS.W      R12,R12
    00000A0C 655F                   EXTS.W      R5,R5
    00000A0E 6253                   MOV         R5,R2
    00000A10 32CC                   ADD         R12,R2
    00000A12 0A27                   MUL.L       R2,R10
    00000A14 021A                   STS         MACL,R2
    00000A16 E500                   MOV         #0,R5      ; H'00000000
    00000A18 3527                   CMP/GT      R2,R5
    00000A1A 325E                   ADDC        R5,R2
    00000A1C 4221                   SHAR        R2
           ssc_cbhm.i        466          delt_se=delt_se/100             ;//2004-05-26
    00000A1E D58C                   MOV.L       L213+10,R5 ; H'51EB851F
    00000A20 352D                   DMULS.L     R2,R5
    00000A22 050A                   STS         MACH,R5
    00000A24 E7FB                   MOV         #-5,R7     ; H'FFFFFFFB
    00000A26 457C                   SHAD        R7,R5
    00000A28 6253                   MOV         R5,R2
    00000A2A 4204                   ROTL        R2
    00000A2C E701                   MOV         #1,R7      ; H'00000001
    00000A2E 2279                   AND         R7,R2
    00000A30 6153                   MOV         R5,R1
    00000A32 312C                   ADD         R2,R1
    00000A34 6213                   MOV         R1,R2
           ssc_cbhm.i        467    
           ssc_cbhm.i        468    //        tx=((S4b)length*100-(S4b)delt_ss-delt_se)/(S4b)v_x+delt_ts+delt_te;//
           ssc_cbhm.i        469          tx=((S4b)length-(S4b)delt_ss-delt_se)*100/(S4b)v_x;//*100は0msec単位にする
    00000A36 61B3                   MOV         R11,R1
    00000A38 56F3                   MOV.L       @(12,R15),R6; delt_ss
    00000A3A 611F                   EXTS.W      R1,R1
    00000A3C 6513                   MOV         R1,R5
    00000A3E 3568                   SUB         R6,R5
    00000A40 3528                   SUB         R2,R5
    00000A42 E764                   MOV         #100,R7    ; H'00000064
    00000A44 0757                   MUL.L       R5,R7
    00000A46 011A                   STS         MACL,R1
    00000A48 6EEF                   EXTS.W      R14,R14
    00000A4A 62E3                   MOV         R14,R2
    00000A4C 6023                   MOV         R2,R0
    00000A4E D37E                   MOV.L       L213+2,R3  ; __divls
    00000A50 430B                   JSR         @R3
    00000A52 0009                   NOP
    00000A54 6603                   MOV         R0,R6
    00000A56 026A                   STS         FPSCR,R2
    00000A58 D77C                   MOV.L       L213+6,R7  ; H'FFE7FFFF
    00000A5A 2279                   AND         R7,R2
    00000A5C 426A                   LDS         R2,FPSCR
           ssc_cbhm.i        470          wk1=tx+delt_ts+delt_te;
    00000A5E 6263                   MOV         R6,R2
    00000A60 329C                   ADD         R9,R2
    00000A62 32AC                   ADD         R10,R2
           ssc_cbhm.i        471          if(tx>0){
    00000A64 4615                   CMP/PL      R6
    00000A66 8B02                   BF          L107
           ssc_cbhm.i        472              tx=wk1;//位置×100倍で扱っているから 定速部分があればこれでok
    00000A68 6623                   MOV         R2,R6
    00000A6A A077                   BRA         L108
    00000A6C 0009                   NOP
    00000A6E              L107:
           ssc_cbhm.i        473          }else{
           ssc_cbhm.i        474    //            tx=delt_ts;//本当は面倒な式 うそソフト
           ssc_cbhm.i        475              dbA=(dbl)Vmax/(dbl)Ta_max;//10msec当たりの加速時間
    00000A6E 62D3                   MOV         R13,R2
    00000A70 622F                   EXTS.W      R2,R2
    00000A72 425A                   LDS         R2,FPUL
    00000A74 F42D                   FLOAT       FPUL,FR4
    00000A76 E06A                   MOV         #106,R0    ; H'0000006A
    00000A78 07FD                   MOV.W       @(R0,R15),R7
    00000A7A 475A                   LDS         R7,FPUL
    00000A7C F82D                   FLOAT       FPUL,FR8
    00000A7E F483                   FDIV        FR8,FR4
    00000A80 F54C                   FMOV.S      FR4,FR5
    00000A82 E02C                   MOV         #44,R0     ; H'0000002C
    00000A84 FF57                   FMOV.S      FR5,@(R0,R15); dbA
           ssc_cbhm.i        476              if(v_s > v_x){
    00000A86 E042                   MOV         #66,R0     ; H'00000042
    00000A88 04FD                   MOV.W       @(R0,R15),R4; v_s
    00000A8A 6EEF                   EXTS.W      R14,R14
    00000A8C 34E7                   CMP/GT      R14,R4
    00000A8E 8B02                   BF          L110
           ssc_cbhm.i        477                  dbA=dbA*(-1);
    00000A90 F54D                   FNEG        FR5
    00000A92 E02C                   MOV         #44,R0     ; H'0000002C
    00000A94 FF57                   FMOV.S      FR5,@(R0,R15); dbA
    00000A96              L110:
           ssc_cbhm.i        478              }
           ssc_cbhm.i        479              //  x=[-b±sqrt(b*b-4ac)]/2a;
           ssc_cbhm.i        480              dbB=(dbl)(v_s)*2;
    00000A96 644F                   EXTS.W      R4,R4
    00000A98 445A                   LDS         R4,FPUL
    00000A9A F72D                   FLOAT       FPUL,FR7
    00000A9C C76D                   MOVA        L213+14,R0
    00000A9E F408                   FMOV.S      @R0,FR4
    00000AA0 F742                   FMUL        FR4,FR7
    00000AA2 F07C                   FMOV.S      FR7,FR0
    00000AA4 E030                   MOV         #48,R0     ; H'00000030
    00000AA6 FF07                   FMOV.S      FR0,@(R0,R15); dbB
           ssc_cbhm.i        481              dbC=(dbl)length*-2;
    00000AA8 62B3                   MOV         R11,R2
    00000AAA 622F                   EXTS.W      R2,R2
    00000AAC 425A                   LDS         R2,FPUL
    00000AAE F82D                   FLOAT       FPUL,FR8
    00000AB0 C769                   MOVA        L213+18,R0
    00000AB2 F208                   FMOV.S      @R0,FR2
    00000AB4 F822                   FMUL        FR2,FR8
           ssc_cbhm.i        482              dbwk1=dbB*dbB-4*dbA*dbC;
    00000AB6 F95C                   FMOV.S      FR5,FR9
    00000AB8 C768                   MOVA        L213+22,R0
    00000ABA F208                   FMOV.S      @R0,FR2
    00000ABC F922                   FMUL        FR2,FR9
    00000ABE F94D                   FNEG        FR9
    00000AC0 F982                   FMUL        FR8,FR9
    00000AC2 F90E                   FMAC        FR0,FR0,FR9
    00000AC4 F79C                   FMOV.S      FR9,FR7
    00000AC6 E038                   MOV         #56,R0     ; H'00000038
    00000AC8 FF77                   FMOV.S      FR7,@(R0,R15); dbwk1
           ssc_cbhm.i        483              chk1=(S4b)dbwk1;
    00000ACA F73D                   FTRC        FR7,FPUL
    00000ACC 065A                   STS         FPUL,R6
           ssc_cbhm.i        484              if(0<dbwk1){
    00000ACE C764                   MOVA        L213+26,R0
    00000AD0 F608                   FMOV.S      @R0,FR6
    00000AD2 F765                   FCMP/GT     FR6,FR7
    00000AD4 8B14                   BF          L112
           ssc_cbhm.i        485                  ROOT_MAIN_INP=(S4b)dbwk1;
    00000AD6 F73D                   FTRC        FR7,FPUL
    00000AD8 025A                   STS         FPUL,R2
    00000ADA D162                   MOV.L       L213+30,R1 ; _ROOT_MAIN_INP
    00000ADC 2122                   MOV.L       R2,@R1     ; ROOT_MAIN_INP
           ssc_cbhm.i        486                  C_ASM_CHG_ROOT();
    00000ADE D362                   MOV.L       L213+34,R3 ; _C_ASM_CHG_ROOT
    00000AE0 430B                   JSR         @R3
    00000AE2 0009                   NOP
           ssc_cbhm.i        487                  dbwk2=(S4b)ROOT_MAIN_OUT;
    00000AE4 D161                   MOV.L       L213+38,R1 ; _ROOT_MAIN_OUT
    00000AE6 6712                   MOV.L       @R1,R7     ; ROOT_MAIN_OUT
    00000AE8 475A                   LDS         R7,FPUL
    00000AEA 026A                   STS         FPSCR,R2
    00000AEC D157                   MOV.L       L213+6,R1  ; H'FFE7FFFF
    00000AEE 2219                   AND         R1,R2
    00000AF0 426A                   LDS         R2,FPSCR
    00000AF2 F82D                   FLOAT       FPUL,FR8
           ssc_cbhm.i        488    
           ssc_cbhm.i        489                  //dbwk2=sqrt(dbwk1);
           ssc_cbhm.i        490                  chk1=(S4b)dbwk1;
    00000AF4 E038                   MOV         #56,R0     ; H'00000038
    00000AF6 F7F6                   FMOV.S      @(R0,R15),FR7; dbwk1
    00000AF8 F73D                   FTRC        FR7,FPUL
    00000AFA 065A                   STS         FPUL,R6
    00000AFC A001                   BRA         L113
    00000AFE 0009                   NOP
    00000B00              L112:
           ssc_cbhm.i        491              }else{
           ssc_cbhm.i        492                  dbwk2=0;
    00000B00 F86C                   FMOV.S      FR6,FR8
    00000B02              L113:
           ssc_cbhm.i        493              }
           ssc_cbhm.i        494              dbwk1=dbwk2;
    00000B02 F78C                   FMOV.S      FR8,FR7
           ssc_cbhm.i        495              dbtm1= (-1*dbB+ dbwk1)/2/dbA;
    00000B04 F97C                   FMOV.S      FR7,FR9
    00000B06 E030                   MOV         #48,R0     ; H'00000030
    00000B08 F0F6                   FMOV.S      @(R0,R15),FR0; dbB
    00000B0A F901                   FSUB        FR0,FR9
    00000B0C C751                   MOVA        L213+14,R0
    00000B0E F408                   FMOV.S      @R0,FR4
    00000B10 F943                   FDIV        FR4,FR9
    00000B12 E02C                   MOV         #44,R0     ; H'0000002C
    00000B14 F5F6                   FMOV.S      @(R0,R15),FR5; dbA
    00000B16 F953                   FDIV        FR5,FR9
           ssc_cbhm.i        496              dbtm2= (-1*dbB- dbwk1)/2/dbA;
    00000B18 F80C                   FMOV.S      FR0,FR8
    00000B1A F84D                   FNEG        FR8
    00000B1C F871                   FSUB        FR7,FR8
    00000B1E F843                   FDIV        FR4,FR8
    00000B20 F853                   FDIV        FR5,FR8
           ssc_cbhm.i        497              chk1=(S4b)dbtm1;
    00000B22 F93D                   FTRC        FR9,FPUL
    00000B24 025A                   STS         FPUL,R2
    00000B26 6623                   MOV         R2,R6
           ssc_cbhm.i        498              chk2=(S4b)dbtm2;
    00000B28 F83D                   FTRC        FR8,FPUL
    00000B2A 025A                   STS         FPUL,R2
           ssc_cbhm.i        499              
           ssc_cbhm.i        500              if(0<=dbtm1&&(dbtm1<=(dbl)Ta_max) ){
    00000B2C C74C                   MOVA        L213+26,R0
    00000B2E F608                   FMOV.S      @R0,FR6
    00000B30 F695                   FCMP/GT     FR9,FR6
    00000B32 8905                   BT          L115
    00000B34 E06A                   MOV         #106,R0    ; H'0000006A
    00000B36 07FD                   MOV.W       @(R0,R15),R7
    00000B38 475A                   LDS         R7,FPUL
    00000B3A F72D                   FLOAT       FPUL,FR7
    00000B3C F975                   FCMP/GT     FR7,FR9
    00000B3E 8B0B                   BF          L116
    00000B40              L115:
           ssc_cbhm.i        501              }else{
           ssc_cbhm.i        502                  if(0<=dbtm2&&(dbtm2<=(dbl)Ta_max) ){
    00000B40 F685                   FCMP/GT     FR8,FR6
    00000B42 8908                   BT          L118
    00000B44 E06A                   MOV         #106,R0    ; H'0000006A
    00000B46 07FD                   MOV.W       @(R0,R15),R7
    00000B48 475A                   LDS         R7,FPUL
    00000B4A F92D                   FLOAT       FPUL,FR9
    00000B4C F895                   FCMP/GT     FR9,FR8
    00000B4E 8902                   BT          L118
           ssc_cbhm.i        503                      dbtm1=dbtm2;
    00000B50 F98C                   FMOV.S      FR8,FR9
    00000B52 A001                   BRA         L116
    00000B54 0009                   NOP
    00000B56              L118:
           ssc_cbhm.i        504                  }else{
           ssc_cbhm.i        505                      dbtm1=0;
    00000B56 F96C                   FMOV.S      FR6,FR9
    00000B58              L116:
           ssc_cbhm.i        506                  }
           ssc_cbhm.i        507              }
           ssc_cbhm.i        508              tx=(S4b)dbtm1;
    00000B58 F93D                   FTRC        FR9,FPUL
    00000B5A 065A                   STS         FPUL,R6
    00000B5C              L108:
           ssc_cbhm.i        509          }
           ssc_cbhm.i        510          if(tx<=0){
    00000B5C 4615                   CMP/PL      R6
    00000B5E 8900                   BT          L101
           ssc_cbhm.i        511              tx=1;
    00000B60 E601                   MOV         #1,R6      ; H'00000001
    00000B62              L101:
           ssc_cbhm.i        512          }
           ssc_cbhm.i        513      }
           ssc_cbhm.i        514      return((U2b)tx);
    00000B62 626D                   EXTU.W      R6,R2
    00000B64 622D                   EXTU.W      R2,R2
    00000B66 6023                   MOV         R2,R0
    00000B68 7F44                   ADD         #68,R15
    00000B6A 4F06                   LDS.L       @R15+,MACH
    00000B6C 4F16                   LDS.L       @R15+,MACL
    00000B6E 4F26                   LDS.L       @R15+,PR
    00000B70 6EF6                   MOV.L       @R15+,R14
    00000B72 6DF6                   MOV.L       @R15+,R13
    00000B74 6CF6                   MOV.L       @R15+,R12
    00000B76 6BF6                   MOV.L       @R15+,R11
    00000B78 6AF6                   MOV.L       @R15+,R10
    00000B7A 69F6                   MOV.L       @R15+,R9
           ssc_cbhm.i        515    }
    00000B7C 000B                   RTS
    00000B7E 0009                   NOP
           ssc_cbhm.i        516    
           ssc_cbhm.i        517    
           ssc_cbhm.i        518    //;//符号付
           ssc_cbhm.i        519    S2b mot_length_make1(S2b obj_Ldig,S2b st_dig,S2b last_cnt_flg){
    00000B80              _mot_length_make1:               ; function: mot_length_make1
                                                           ; frame size=4
    00000B80 7FFC                   ADD         #-4,R15
           ssc_cbhm.i        520      S2b length;
           ssc_cbhm.i        521      if(last_cnt_flg){
    00000B82 6163                   MOV         R6,R1
    00000B84 6253                   MOV         R5,R2
    00000B86 6643                   MOV         R4,R6
    00000B88 666F                   EXTS.W      R6,R6
    00000B8A 622F                   EXTS.W      R2,R2
    00000B8C 611F                   EXTS.W      R1,R1
    00000B8E 2118                   TST         R1,R1
    00000B90 8914                   BT          L126
           ssc_cbhm.i        522          if(st_dig >= SETX_UPAREA_DIG){
    00000B92 D137                   MOV.L       L213+42,R1 ; _SETX_UPAREA_DIG
    00000B94 6711                   MOV.W       @R1,R7     ; SETX_UPAREA_DIG
    00000B96 667D                   EXTU.W      R7,R6
    00000B98 3263                   CMP/GE      R6,R2
    00000B9A 8B08                   BF          L128
           ssc_cbhm.i        523              length=3600-st_dig+SETX_UPAREA_DIG;
    00000B9C 9653                   MOV.W       L213,R6    ; H'0E10
    00000B9E 3628                   SUB         R2,R6
    00000BA0 D133                   MOV.L       L213+42,R1 ; _SETX_UPAREA_DIG
    00000BA2 6711                   MOV.W       @R1,R7     ; SETX_UPAREA_DIG
    00000BA4 617D                   EXTU.W      R7,R1
    00000BA6 361C                   ADD         R1,R6
    00000BA8 6263                   MOV         R6,R2
    00000BAA A074                   BRA         L129
    00000BAC 0009                   NOP
    00000BAE              L128:
           ssc_cbhm.i        524          }else{
           ssc_cbhm.i        525              length=SETX_UPAREA_DIG-st_dig;
    00000BAE D130                   MOV.L       L213+42,R1 ; _SETX_UPAREA_DIG
    00000BB0 6511                   MOV.W       @R1,R5     ; SETX_UPAREA_DIG
    00000BB2 665D                   EXTU.W      R5,R6
    00000BB4 3628                   SUB         R2,R6
    00000BB6 6263                   MOV         R6,R2
    00000BB8 A06D                   BRA         L129
    00000BBA 0009                   NOP
    00000BBC              L126:
           ssc_cbhm.i        526          }
           ssc_cbhm.i        527          goto exit;
           ssc_cbhm.i        528          
           ssc_cbhm.i        529      }
           ssc_cbhm.i        530    
           ssc_cbhm.i        531  E   if(SET1_MRTION_SEL1&0x1){
    00000BBC D12D                   MOV.L       L213+46,R1 ; _SET1_MRTION_SEL1
    00000BBE 6711                   MOV.W       @R1,R7     ; SET1_MRTION_SEL1
    00000BC0 657D                   EXTU.W      R7,R5
    00000BC2 6053                   MOV         R5,R0
    00000BC4 C801                   TST         #1,R0
    00000BC6 8927                   BT          L131
           ssc_cbhm.i        532          if(obj_Ldig >= SETX_UPAREA_DIG){
    00000BC8 D129                   MOV.L       L213+42,R1 ; _SETX_UPAREA_DIG
    00000BCA 6711                   MOV.W       @R1,R7     ; SETX_UPAREA_DIG
    00000BCC 657D                   EXTU.W      R7,R5
    00000BCE 3653                   CMP/GE      R5,R6
    00000BD0 8B10                   BF          L133
           ssc_cbhm.i        533              if(st_dig >= SETX_UPAREA_DIG){
    00000BD2 D127                   MOV.L       L213+42,R1 ; _SETX_UPAREA_DIG
    00000BD4 6711                   MOV.W       @R1,R7     ; SETX_UPAREA_DIG
    00000BD6 657D                   EXTU.W      R7,R5
    00000BD8 3253                   CMP/GE      R5,R2
    00000BDA 8B05                   BF          L135
           ssc_cbhm.i        534                  length=obj_Ldig-st_dig;
    00000BDC 666F                   EXTS.W      R6,R6
    00000BDE 6563                   MOV         R6,R5
    00000BE0 3528                   SUB         R2,R5
    00000BE2 6253                   MOV         R5,R2
    00000BE4 A057                   BRA         L129
    00000BE6 0009                   NOP
    00000BE8              L135:
           ssc_cbhm.i        535              }else{//逆転
           ssc_cbhm.i        536                  length=-1*(3600-obj_Ldig+st_dig);
    00000BE8 952D                   MOV.W       L213,R5    ; H'0E10
    00000BEA 3568                   SUB         R6,R5
    00000BEC 352C                   ADD         R2,R5
    00000BEE 625B                   NEG         R5,R2
    00000BF0 A051                   BRA         L129
    00000BF2 0009                   NOP
    00000BF4              L133:
           ssc_cbhm.i        537              }
           ssc_cbhm.i        538          }else{
           ssc_cbhm.i        539              if(st_dig >= SETX_UPAREA_DIG){
    00000BF4 D11E                   MOV.L       L213+42,R1 ; _SETX_UPAREA_DIG
    00000BF6 6711                   MOV.W       @R1,R7     ; SETX_UPAREA_DIG
    00000BF8 657D                   EXTU.W      R7,R5
    00000BFA 3253                   CMP/GE      R5,R2
    00000BFC 8B05                   BF          L137
           ssc_cbhm.i        540                  length=3600-st_dig+obj_Ldig;//
    00000BFE 9522                   MOV.W       L213,R5    ; H'0E10
    00000C00 3528                   SUB         R2,R5
    00000C02 356C                   ADD         R6,R5
    00000C04 6253                   MOV         R5,R2
    00000C06 A046                   BRA         L129
    00000C08 0009                   NOP
    00000C0A              L137:
           ssc_cbhm.i        541              }else{//
           ssc_cbhm.i        542                  length=obj_Ldig-st_dig;
    00000C0A 6563                   MOV         R6,R5
    00000C0C 655F                   EXTS.W      R5,R5
    00000C0E 6653                   MOV         R5,R6
    00000C10 3628                   SUB         R2,R6
    00000C12 6263                   MOV         R6,R2
    00000C14 A03F                   BRA         L129
    00000C16 0009                   NOP
    00000C18              L131:
           ssc_cbhm.i        543              }
           ssc_cbhm.i        544          }
           ssc_cbhm.i        545      }else{
           ssc_cbhm.i        546          //これ上では回転と同じ
           ssc_cbhm.i        547          if(obj_Ldig >= SETX_UPAREA_DIG){
    00000C18 D115                   MOV.L       L213+42,R1 ; _SETX_UPAREA_DIG
    00000C1A 6711                   MOV.W       @R1,R7     ; SETX_UPAREA_DIG
    00000C1C 657D                   EXTU.W      R7,R5
    00000C1E 3653                   CMP/GE      R5,R6
    00000C20 8B2A                   BF          L139
           ssc_cbhm.i        548              if(st_dig >= SETX_UPAREA_DIG){
    00000C22 D113                   MOV.L       L213+42,R1 ; _SETX_UPAREA_DIG
    00000C24 6711                   MOV.W       @R1,R7     ; SETX_UPAREA_DIG
    00000C26 657D                   EXTU.W      R7,R5
    00000C28 3253                   CMP/GE      R5,R2
    00000C2A 8B06                   BF          L141
           ssc_cbhm.i        549                  length=obj_Ldig-st_dig;
    00000C2C 6563                   MOV         R6,R5
    00000C2E 655F                   EXTS.W      R5,R5
    00000C30 6653                   MOV         R5,R6
    00000C32 3628                   SUB         R2,R6
    00000C34 6263                   MOV         R6,R2
    00000C36 A02E                   BRA         L129
    00000C38 0009                   NOP
    00000C3A              L141:
           ssc_cbhm.i        550              }else{//逆転
           ssc_cbhm.i        551                  length=-1*(3600-obj_Ldig+st_dig);
    00000C3A 9504                   MOV.W       L213,R5    ; H'0E10
    00000C3C 3568                   SUB         R6,R5
    00000C3E 352C                   ADD         R2,R5
    00000C40 625B                   NEG         R5,R2
    00000C42 A028                   BRA         L129
    00000C44 0009                   NOP
    00000C46              L213:
    00000C46 0E10                   .DATA.W     H'0E10
    00000C48 <00000000>             .DATA.L     __divls
    00000C4C FFE7FFFF               .DATA.L     H'FFE7FFFF
    00000C50 51EB851F               .DATA.L     H'51EB851F
    00000C54 40000000               .DATA.L     H'40000000
    00000C58 C0000000               .DATA.L     H'C0000000
    00000C5C 40800000               .DATA.L     H'40800000
    00000C60 00000000               .DATA.L     H'00000000
    00000C64 <00000000>             .DATA.L     _ROOT_MAIN_INP
    00000C68 <00000000>             .DATA.L     _C_ASM_CHG_ROOT
    00000C6C <00000000>             .DATA.L     _ROOT_MAIN_OUT
    00000C70 <00000000>             .DATA.L     _SETX_UPAREA_DIG
    00000C74 <00000000>             .DATA.L     _SET1_MRTION_SEL1
    00000C78              L139:
           ssc_cbhm.i        552              }
           ssc_cbhm.i        553          }else{
           ssc_cbhm.i        554              if(st_dig >= SETX_UPAREA_DIG){
    00000C78 D16C                   MOV.L       L215+2,R1  ; _SETX_UPAREA_DIG
    00000C7A 6711                   MOV.W       @R1,R7     ; SETX_UPAREA_DIG
    00000C7C 657D                   EXTU.W      R7,R5
    00000C7E 3253                   CMP/GE      R5,R2
    00000C80 8B05                   BF          L143
           ssc_cbhm.i        555                  length=3600-st_dig+obj_Ldig;//
    00000C82 95BB                   MOV.W       L214,R5    ; H'0E10
    00000C84 3528                   SUB         R2,R5
    00000C86 356C                   ADD         R6,R5
    00000C88 6253                   MOV         R5,R2
    00000C8A A004                   BRA         L129
    00000C8C 0009                   NOP
    00000C8E              L143:
           ssc_cbhm.i        556              }else{//
           ssc_cbhm.i        557                  length=obj_Ldig-st_dig;
    00000C8E 666F                   EXTS.W      R6,R6
    00000C90 6563                   MOV         R6,R5
    00000C92 3528                   SUB         R2,R5
    00000C94 6253                   MOV         R5,R2
    00000C96              L129:
    00000C96 6023                   MOV         R2,R0
    00000C98 7F04                   ADD         #4,R15
           ssc_cbhm.i        558              }
           ssc_cbhm.i        559          }
           ssc_cbhm.i        560      }
           ssc_cbhm.i        561    exit:;
           ssc_cbhm.i        562      return(length);
           ssc_cbhm.i        563      
           ssc_cbhm.i        564    }
    00000C9A 000B                   RTS
    00000C9C 0009                   NOP
           ssc_cbhm.i        565    
           ssc_cbhm.i        566    //    == メモ ===
           ssc_cbhm.i        567    //    Input 必要となる情報
           ssc_cbhm.i        568    //    工程数
           ssc_cbhm.i        569    //    速度、位置、時間
           ssc_cbhm.i        570    //    運転モード（待機点と終点）
           ssc_cbhm.i        571    //    Ｘ座標基数   500
           ssc_cbhm.i        572    //    Ｙ座標基数 10000
           ssc_cbhm.i        573    //    Output
           ssc_cbhm.i        574    //    X1,Y1,,,Xn,Yn及び個数
           ssc_cbhm.i        575    //    始点があるかどうか(実測時には必要)FLG1
           ssc_cbhm.i        576    //    終点があるかどうか(実測時には必要)FLG2
           ssc_cbhm.i        577    //    (実測時にはあったほうが良い)
           ssc_cbhm.i        578    //
           ssc_cbhm.i        579    //
           ssc_cbhm.i        580    S2b SvStepXYDataMake2(S2b *xdot,S2b *ydot,S2b *cnt,S2b *point,S2b *chkflg){
    00000C9E              _SvStepXYDataMake2:              ; function: SvStepXYDataMake2
                                                           ; frame size=28
    00000C9E 2F96                   MOV.L       R9,@-R15
    00000CA0 2FD6                   MOV.L       R13,@-R15
    00000CA2 2FE6                   MOV.L       R14,@-R15
    00000CA4 4F12                   STS.L       MACL,@-R15
    00000CA6 7FF4                   ADD         #-12,R15
           ssc_cbhm.i        581      S2b ret2b,i;
           ssc_cbhm.i        582      S2b step_no=4;//本来画面設定
    00000CA8 6D63                   MOV         R6,R13
    00000CAA EE04                   MOV         #4,R14     ; H'00000004
    00000CAC 6EEF                   EXTS.W      R14,R14
           ssc_cbhm.i        583      
           ssc_cbhm.i        584      ret2b=0;    //ﾃﾞｰﾀ無効 bit0=bit1=BIT2=0
    00000CAE E200                   MOV         #0,R2      ; H'00000000
           ssc_cbhm.i        585              //     BIT0=1ﾃﾞｰﾀ有効
           ssc_cbhm.i        586              //始点有り bit1=1始点有り
           ssc_cbhm.i        587              //終点有り bit2=1終点有り
           ssc_cbhm.i        588      i=1;
    00000CB0 E201                   MOV         #1,R2      ; H'00000001
           ssc_cbhm.i        589      while(i<step_no){
    00000CB2 622F                   EXTS.W      R2,R2
    00000CB4 32E3                   CMP/GE      R14,R2
    00000CB6 891C                   BT          L146
    00000CB8              L147:
           ssc_cbhm.i        590          *(xdot+(*point))=100*i;
    00000CB8 6623                   MOV         R2,R6
    00000CBA 666F                   EXTS.W      R6,R6
    00000CBC E964                   MOV         #100,R9    ; H'00000064
    00000CBE 0967                   MUL.L       R6,R9
    00000CC0 011A                   STS         MACL,R1
    00000CC2 6671                   MOV.W       @R7,R6     ; *(point)
    00000CC4 666F                   EXTS.W      R6,R6
    00000CC6 4600                   SHLL        R6
    00000CC8 6063                   MOV         R6,R0
    00000CCA 0415                   MOV.W       R1,@(R0,R4); xdot[]
           ssc_cbhm.i        591          *(ydot+(*point))=1000*i;
    00000CCC 6623                   MOV         R2,R6
    00000CCE 666F                   EXTS.W      R6,R6
    00000CD0 9995                   MOV.W       L214+2,R9  ; H'03E8
    00000CD2 0967                   MUL.L       R6,R9
    00000CD4 011A                   STS         MACL,R1
    00000CD6 6671                   MOV.W       @R7,R6     ; *(point)
    00000CD8 666F                   EXTS.W      R6,R6
    00000CDA 4600                   SHLL        R6
    00000CDC 6063                   MOV         R6,R0
    00000CDE 0515                   MOV.W       R1,@(R0,R5); ydot[]
           ssc_cbhm.i        592          i++;
    00000CE0 622F                   EXTS.W      R2,R2
    00000CE2 6623                   MOV         R2,R6
    00000CE4 7601                   ADD         #1,R6
    00000CE6 6263                   MOV         R6,R2
           ssc_cbhm.i        593          *point++;
    00000CE8 6673                   MOV         R7,R6
    00000CEA 7702                   ADD         #2,R7
    00000CEC 622F                   EXTS.W      R2,R2
    00000CEE 32E3                   CMP/GE      R14,R2
    00000CF0 8BE2                   BF          L147
    00000CF2              L146:
           ssc_cbhm.i        594      }
           ssc_cbhm.i        595      *cnt=i;//
    00000CF2 2D21                   MOV.W       R2,@R13    ; *(cnt)
           ssc_cbhm.i        596  E   ret2b=(0x4|0x2|0x1);
    00000CF4 E207                   MOV         #7,R2      ; H'00000007
           ssc_cbhm.i        597    
           ssc_cbhm.i        598    
           ssc_cbhm.i        599      *chkflg=ret2b;
    00000CF6 51F7                   MOV.L       @(28,R15),R1
    00000CF8 2121                   MOV.W       R2,@R1     ; *(chkflg)
    00000CFA 6023                   MOV         R2,R0
    00000CFC 7F0C                   ADD         #12,R15
    00000CFE 4F16                   LDS.L       @R15+,MACL
    00000D00 6EF6                   MOV.L       @R15+,R14
    00000D02 6DF6                   MOV.L       @R15+,R13
    00000D04 69F6                   MOV.L       @R15+,R9
           ssc_cbhm.i        600      return(ret2b);
           ssc_cbhm.i        601    }
    00000D06 000B                   RTS
    00000D08 0009                   NOP
           ssc_cbhm.i        602    
           ssc_cbhm.i        603    
           ssc_cbhm.i        604    S2b area1800chg(S2b digdata){
    00000D0A              _area1800chg:                    ; function: area1800chg
                                                           ; frame size=4
    00000D0A 7FFC                   ADD         #-4,R15
           ssc_cbhm.i        605      S2b ret2b;
           ssc_cbhm.i        606      if(SETX_UPAREA_DIG > 1800){
    00000D0C 6243                   MOV         R4,R2
    00000D0E 622F                   EXTS.W      R2,R2
    00000D10 D146                   MOV.L       L215+2,R1  ; _SETX_UPAREA_DIG
    00000D12 6711                   MOV.W       @R1,R7     ; SETX_UPAREA_DIG
    00000D14 667D                   EXTU.W      R7,R6
    00000D16 9173                   MOV.W       L214+4,R1  ; H'0708
    00000D18 3617                   CMP/GT      R1,R6
    00000D1A 8B0C                   BF          L151
           ssc_cbhm.i        607          if(SETX_UPAREA_DIG < digdata){
    00000D1C D143                   MOV.L       L215+2,R1  ; _SETX_UPAREA_DIG
    00000D1E 6711                   MOV.W       @R1,R7     ; SETX_UPAREA_DIG
    00000D20 667D                   EXTU.W      R7,R6
    00000D22 3623                   CMP/GE      R2,R6
    00000D24 8902                   BT          L153
           ssc_cbhm.i        608                  ret2b=0;//下降
    00000D26 E200                   MOV         #0,R2      ; H'00000000
    00000D28 A011                   BRA         L154
    00000D2A 0009                   NOP
    00000D2C              L153:
           ssc_cbhm.i        609          }else{
           ssc_cbhm.i        610              if(digdata >= 1800){
    00000D2C 9168                   MOV.W       L214+4,R1  ; H'0708
    00000D2E 3213                   CMP/GE      R1,R2
    00000D30 0229                   MOVT        R2
    00000D32 A00C                   BRA         L154
    00000D34 0009                   NOP
    00000D36              L151:
           ssc_cbhm.i        611                  ret2b=1;//上昇
           ssc_cbhm.i        612              }else{
           ssc_cbhm.i        613                  ret2b=0;//下降
           ssc_cbhm.i        614              }
           ssc_cbhm.i        615          }
           ssc_cbhm.i        616          
           ssc_cbhm.i        617      }else{
           ssc_cbhm.i        618          if((SETX_UPAREA_DIG<digdata) && (digdata<=1800)){
    00000D36 D13D                   MOV.L       L215+2,R1  ; _SETX_UPAREA_DIG
    00000D38 6711                   MOV.W       @R1,R7     ; SETX_UPAREA_DIG
    00000D3A 667D                   EXTU.W      R7,R6
    00000D3C 3623                   CMP/GE      R2,R6
    00000D3E 8905                   BT          L156
    00000D40 915E                   MOV.W       L214+4,R1  ; H'0708
    00000D42 3217                   CMP/GT      R1,R2
    00000D44 8902                   BT          L156
           ssc_cbhm.i        619              ret2b=0;//下降
    00000D46 E200                   MOV         #0,R2      ; H'00000000
    00000D48 A001                   BRA         L154
    00000D4A 0009                   NOP
    00000D4C              L156:
           ssc_cbhm.i        620          }else{
           ssc_cbhm.i        621              ret2b=1;//上昇
    00000D4C E201                   MOV         #1,R2      ; H'00000001
    00000D4E              L154:
    00000D4E 6023                   MOV         R2,R0
    00000D50 7F04                   ADD         #4,R15
           ssc_cbhm.i        622          }
           ssc_cbhm.i        623      }
           ssc_cbhm.i        624      return(ret2b);
           ssc_cbhm.i        625    }
    00000D52 000B                   RTS
    00000D54 0009                   NOP
           ssc_cbhm.i        626    
           ssc_cbhm.i        627    
           ssc_cbhm.i        628    //    ***************************************************
           ssc_cbhm.i        629    //    ***                     ***
           ssc_cbhm.i        630    //    ***                     ***
           ssc_cbhm.i        631    //    ***                     ***
           ssc_cbhm.i        632    //    ***                     ***
           ssc_cbhm.i        633    //    ***                     ***
           ssc_cbhm.i        634    //    ***         SH2側のｿﾌﾄ      ***
           ssc_cbhm.i        635    //    ***         推定速度        ***
           ssc_cbhm.i        636    //    ***                     ***
           ssc_cbhm.i        637    //    ***                     ***
           ssc_cbhm.i        638    //    ***                     ***
           ssc_cbhm.i        639    //    ***                     ***
           ssc_cbhm.i        640    //    ***                     ***
           ssc_cbhm.i        641    //    ***                     ***
           ssc_cbhm.i        642    //    ***************************************************
           ssc_cbhm.i        643    //    連続
           ssc_cbhm.i        644    //    安全一行程
           ssc_cbhm.i        645    //
           ssc_cbhm.i        646    void Calc1CycleSpmMake(void){
    00000D56              _Calc1CycleSpmMake:              ; function: Calc1CycleSpmMake
                                                           ; frame size=372
    00000D56 2F86                   MOV.L       R8,@-R15
    00000D58 2F96                   MOV.L       R9,@-R15
    00000D5A 2FA6                   MOV.L       R10,@-R15
    00000D5C 2FB6                   MOV.L       R11,@-R15
    00000D5E 2FC6                   MOV.L       R12,@-R15
    00000D60 2FD6                   MOV.L       R13,@-R15
    00000D62 2FE6                   MOV.L       R14,@-R15
    00000D64 4F22                   STS.L       PR,@-R15
    00000D66 4F12                   STS.L       MACL,@-R15
    00000D68 4F02                   STS.L       MACH,@-R15
    00000D6A 934A                   MOV.W       L214+6,R3  ; H'FEBC
    00000D6C 3F3C                   ADD         R3,R15
           ssc_cbhm.i        647      S2b step_max,ret2b,data_cnt,i,dim_max;
           ssc_cbhm.i        648      U4b wk4b1,wk4b2,total_tim;
           ssc_cbhm.i        649      S2b Ta_max,ta,stop_flg,dirct_flg,last_cnt_flg;
           ssc_cbhm.i        650      S4b xtim[20+20];//+20(2004-01-26 add 20)
           ssc_cbhm.i        651      S2b yLdig[20+20];//
           ssc_cbhm.i        652      S2b st_dig;
           ssc_cbhm.i        653      S2b Vmax;
           ssc_cbhm.i        654      S2b v_s,v_x,v_e,w_t;
           ssc_cbhm.i        655      S2b obj_Ldig,length;
           ssc_cbhm.i        656    
           ssc_cbhm.i        657      Ta_max=SET1_ACCLAT_TIM1/10;//1msec==>10msec
    00000D6E D130                   MOV.L       L215+6,R1  ; _SET1_ACCLAT_TIM1
    00000D70 6611                   MOV.W       @R1,R6     ; SET1_ACCLAT_TIM1
    00000D72 626D                   EXTU.W      R6,R2
    00000D74 D62F                   MOV.L       L215+10,R6 ; H'66666667
    00000D76 362D                   DMULS.L     R2,R6
    00000D78 020A                   STS         MACH,R2
    00000D7A 4221                   SHAR        R2
    00000D7C 4221                   SHAR        R2
    00000D7E 6623                   MOV         R2,R6
    00000D80 4604                   ROTL        R6
    00000D82 E101                   MOV         #1,R1      ; H'00000001
    00000D84 2619                   AND         R1,R6
    00000D86 6523                   MOV         R2,R5
    00000D88 356C                   ADD         R6,R5
    00000D8A 6153                   MOV         R5,R1
    00000D8C E020                   MOV         #32,R0     ; H'00000020
    00000D8E 0F15                   MOV.W       R1,@(R0,R15); Ta_max
           ssc_cbhm.i        658    
           ssc_cbhm.i        659      if(Ta_max==0){
    00000D90 611F                   EXTS.W      R1,R1
    00000D92 6213                   MOV         R1,R2
    00000D94 622F                   EXTS.W      R2,R2
    00000D96 2228                   TST         R2,R2
    00000D98 8B02                   BF          L161
           ssc_cbhm.i        660          Ta_max=1;
    00000D9A E101                   MOV         #1,R1      ; H'00000001
    00000D9C E020                   MOV         #32,R0     ; H'00000020
    00000D9E 0F15                   MOV.W       R1,@(R0,R15); Ta_max
    00000DA0              L161:
           ssc_cbhm.i        661      }
           ssc_cbhm.i        662    
           ssc_cbhm.i        663      dim_max=SET1_MTSTEP_MAXM;
    00000DA0 D125                   MOV.L       L215+14,R1 ; _SET1_MTSTEP_MAXM
    00000DA2 6611                   MOV.W       @R1,R6     ; SET1_MTSTEP_MAXM
    00000DA4 6263                   MOV         R6,R2
    00000DA6 6523                   MOV         R2,R5
           ssc_cbhm.i        664      step_max=SET1_MTSTEP_MAXM+1;
    00000DA8 666D                   EXTU.W      R6,R6
    00000DAA 6263                   MOV         R6,R2
    00000DAC 7201                   ADD         #1,R2
    00000DAE 6123                   MOV         R2,R1
    00000DB0 6013                   MOV         R1,R0
    00000DB2 2F01                   MOV.W       R0,@R15    ; step_max
           ssc_cbhm.i        665      if(SET1_INCPLS_HOSN){
    00000DB4 D121                   MOV.L       L215+18,R1 ; _SET1_INCPLS_HOSN
    00000DB6 6211                   MOV.W       @R1,R2     ; SET1_INCPLS_HOSN
    00000DB8 622D                   EXTU.W      R2,R2
    00000DBA 2228                   TST         R2,R2
    00000DBC 8923                   BT          L163
           ssc_cbhm.i        666          wk4b1=SET1_MOTRPM_MAXM*SETY_INCPLS_HOSM01X;//SET1_INCPLS_HOSM;
    00000DBE D720                   MOV.L       L215+22,R7 ; _SET1_MOTRPM_MAXM
    00000DC0 6571                   MOV.W       @R7,R5     ; SET1_MOTRPM_MAXM
    00000DC2 675D                   EXTU.W      R5,R7
    00000DC4 D51F                   MOV.L       L215+26,R5 ; _SETY_INCPLS_HOSM01X
    00000DC6 6152                   MOV.L       @R5,R1     ; SETY_INCPLS_HOSM01X
    00000DC8 0177                   MUL.L       R7,R1
    00000DCA 021A                   STS         MACL,R2
    00000DCC 6423                   MOV         R2,R4
           ssc_cbhm.i        667          wk4b1=wk4b1/SET1_INCPLS_HOSN/(60*10);//2000.0rpm/60.0*360.0
    00000DCE D71B                   MOV.L       L215+18,R7 ; _SET1_INCPLS_HOSN
    00000DD0 6271                   MOV.W       @R7,R2     ; SET1_INCPLS_HOSN
    00000DD2 622D                   EXTU.W      R2,R2
    00000DD4 6143                   MOV         R4,R1
    00000DD6 6023                   MOV         R2,R0
    00000DD8 D31B                   MOV.L       L215+30,R3 ; __divlu
    00000DDA 430B                   JSR         @R3
    00000DDC 0009                   NOP
    00000DDE 6603                   MOV         R0,R6
    00000DE0 026A                   STS         FPSCR,R2
    00000DE2 D71A                   MOV.L       L215+34,R7 ; H'FFE7FFFF
    00000DE4 2279                   AND         R7,R2
    00000DE6 426A                   LDS         R2,FPSCR
    00000DE8 D219                   MOV.L       L215+38,R2 ; H'1B4E81B5
    00000DEA 3265                   DMULU.L     R6,R2
    00000DEC 040A                   STS         MACH,R4
    00000DEE E7FA                   MOV         #-6,R7     ; H'FFFFFFFA
    00000DF0 447D                   SHLD        R7,R4
           ssc_cbhm.i        668          Vmax=wk4b1;//0.1dig/s
    00000DF2 6743                   MOV         R4,R7
    00000DF4 9006                   MOV.W       L214+8,R0  ; H'0128
    00000DF6 0F75                   MOV.W       R7,@(R0,R15); Vmax
    00000DF8 A008                   BRA         L164
    00000DFA 0009                   NOP
    00000DFC              L214:
    00000DFC 0E10                   .DATA.W     H'0E10
    00000DFE 03E8                   .DATA.W     H'03E8
    00000E00 0708                   .DATA.W     H'0708
    00000E02 FEBC                   .DATA.W     H'FEBC
    00000E04 0128                   .DATA.W     H'0128
    00000E06              L163:
           ssc_cbhm.i        669      }else{
           ssc_cbhm.i        670          Vmax=1;//***.*度/sec
    00000E06 E101                   MOV         #1,R1      ; H'00000001
    00000E08 900F                   MOV.W       L215,R0    ; H'0128
    00000E0A 0F15                   MOV.W       R1,@(R0,R15); Vmax
    00000E0C              L164:
           ssc_cbhm.i        671      }
           ssc_cbhm.i        672    
           ssc_cbhm.i        673      if((step_max<0) || ((10+1)<step_max) ){//step_maxは保証されているからﾘﾐｯﾄは不要
    00000E0C 60F1                   MOV.W       @R15,R0    ; step_max
    00000E0E 6103                   MOV         R0,R1
    00000E10 4111                   CMP/PZ      R1
    00000E12 8B04                   BF          L166
    00000E14 60F1                   MOV.W       @R15,R0    ; step_max
    00000E16 6103                   MOV         R0,R1
    00000E18 E70B                   MOV         #11,R7     ; H'0000000B
    00000E1A 3177                   CMP/GT      R7,R1
    00000E1C 8B1A                   BF          L167
    00000E1E              L166:
           ssc_cbhm.i        674          data_cnt=2;//x,y座標ﾃﾞｰﾀ数
    00000E1E EC02                   MOV         #2,R12     ; H'00000002
           ssc_cbhm.i        675          step_max=1;
    00000E20 E101                   MOV         #1,R1      ; H'00000001
    00000E22 6013                   MOV         R1,R0
    00000E24 2F01                   MOV.W       R0,@R15    ; step_max
    00000E26 A1D0                   BRA         L168
    00000E28 0009                   NOP
    00000E2A              L215:
    00000E2A 0128                   .DATA.W     H'0128
    00000E2C <00000000>             .DATA.L     _SETX_UPAREA_DIG
    00000E30 <00000000>             .DATA.L     _SET1_ACCLAT_TIM1
    00000E34 66666667               .DATA.L     H'66666667
    00000E38 <00000000>             .DATA.L     _SET1_MTSTEP_MAXM
    00000E3C <00000000>             .DATA.L     _SET1_INCPLS_HOSN
    00000E40 <00000000>             .DATA.L     _SET1_MOTRPM_MAXM
    00000E44 <00000000>             .DATA.L     _SETY_INCPLS_HOSM01X
    00000E48 <00000000>             .DATA.L     __divlu
    00000E4C FFE7FFFF               .DATA.L     H'FFE7FFFF
    00000E50 1B4E81B5               .DATA.L     H'1B4E81B5
    00000E54              L167:
           ssc_cbhm.i        676      }else{
           ssc_cbhm.i        677          //時間の算出
           ssc_cbhm.i        678          //開始ﾎﾟｲﾝﾄ
           ssc_cbhm.i        679          data_cnt=1;//x,y座標ﾃﾞｰﾀ数
    00000E54 EC01                   MOV         #1,R12     ; H'00000001
           ssc_cbhm.i        680          xtim[0]=0;
    00000E56 E700                   MOV         #0,R7      ; H'00000000
    00000E58 1F7D                   MOV.L       R7,@(52,R15); xtim[]
           ssc_cbhm.i        681          yLdig[0]=SETX_UPAREA_DIG;//ﾘﾝｸ角度
    00000E5A D792                   MOV.L       L217+8,R7  ; _SETX_UPAREA_DIG
    00000E5C 6171                   MOV.W       @R7,R1     ; SETX_UPAREA_DIG
    00000E5E 6213                   MOV         R1,R2
    00000E60 90B1                   MOV.W       L216,R0    ; H'00D4
    00000E62 0F25                   MOV.W       R2,@(R0,R15); yLdig[]
           ssc_cbhm.i        682          i=1;
    00000E64 ED01                   MOV         #1,R13     ; H'00000001
           ssc_cbhm.i        683          v_x=0;//top速度
    00000E66 E900                   MOV         #0,R9      ; H'00000000
           ssc_cbhm.i        684          v_s=0;//start速度
    00000E68 E100                   MOV         #0,R1      ; H'00000000
           ssc_cbhm.i        685          v_e=0;//end速度
    00000E6A E700                   MOV         #0,R7      ; H'00000000
           ssc_cbhm.i        686          last_cnt_flg=0;
    00000E6C E700                   MOV         #0,R7      ; H'00000000
    00000E6E E030                   MOV         #48,R0     ; H'00000030
    00000E70 0F75                   MOV.W       R7,@(R0,R15); last_cnt_flg
           ssc_cbhm.i        687          dirct_flg=0;//正転より開始
    00000E72 E800                   MOV         #0,R8      ; H'00000000
           ssc_cbhm.i        688          stop_flg=1;//前回停止
    00000E74 E701                   MOV         #1,R7      ; H'00000001
    00000E76 E028                   MOV         #40,R0     ; H'00000028
    00000E78 0F75                   MOV.W       R7,@(R0,R15); stop_flg
           ssc_cbhm.i        689          total_tim=0;
    00000E7A EE00                   MOV         #0,R14     ; H'00000000
           ssc_cbhm.i        690          //mode
           ssc_cbhm.i        691  E       if(MODE_SEL&0x8){
    00000E7C D78A                   MOV.L       L217+12,R7 ; _MODE_SEL
    00000E7E 6171                   MOV.W       @R7,R1     ; MODE_SEL
    00000E80 621D                   EXTU.W      R1,R2
    00000E82 6023                   MOV         R2,R0
    00000E84 C808                   TST         #8,R0
    00000E86 892A                   BT          L170
           ssc_cbhm.i        692  E           if(SET1_MRTION_SEL1&0x1){
    00000E88 D188                   MOV.L       L217+16,R1 ; _SET1_MRTION_SEL1
    00000E8A 6711                   MOV.W       @R1,R7     ; SET1_MRTION_SEL1
    00000E8C 627D                   EXTU.W      R7,R2
    00000E8E 6023                   MOV         R2,R0
    00000E90 C801                   TST         #1,R0
    00000E92 8924                   BT          L170
           ssc_cbhm.i        693                  if(SVP_UPAREA_TIM0==0){//待機点停止なし
    00000E94 D186                   MOV.L       L217+20,R1 ; _SVP_UPAREA_TIM0
    00000E96 6711                   MOV.W       @R1,R7     ; SVP_UPAREA_TIM0
    00000E98 627D                   EXTU.W      R7,R2
    00000E9A 2228                   TST         R2,R2
    00000E9C 8B1F                   BF          L170
           ssc_cbhm.i        694                      v_s=SVP_OBJECT_SPD_TOP[step_max-1]*Vmax/1000;//100.0% 1段目
    00000E9E D585                   MOV.L       L217+24,R5 ; _SVP_OBJECT_SPD_TOP
    00000EA0 60F1                   MOV.W       @R15,R0    ; step_max
    00000EA2 6403                   MOV         R0,R4
    00000EA4 6243                   MOV         R4,R2
    00000EA6 622F                   EXTS.W      R2,R2
    00000EA8 6623                   MOV         R2,R6
    00000EAA 76FF                   ADD         #-1,R6
    00000EAC 6263                   MOV         R6,R2
    00000EAE 4200                   SHLL        R2
    00000EB0 6023                   MOV         R2,R0
    00000EB2 065D                   MOV.W       @(R0,R5),R6; SVP_OBJECT_SPD_TOP[]
    00000EB4 626D                   EXTU.W      R6,R2
    00000EB6 9087                   MOV.W       L216+2,R0  ; H'0128
    00000EB8 04FD                   MOV.W       @(R0,R15),R4; Vmax
    00000EBA 0427                   MUL.L       R2,R4
    00000EBC 061A                   STS         MACL,R6
    00000EBE D27E                   MOV.L       L217+28,R2 ; H'10624DD3
    00000EC0 326D                   DMULS.L     R6,R2
    00000EC2 060A                   STS         MACH,R6
    00000EC4 E4FA                   MOV         #-6,R4     ; H'FFFFFFFA
    00000EC6 464C                   SHAD        R4,R6
    00000EC8 6263                   MOV         R6,R2
    00000ECA 4204                   ROTL        R2
    00000ECC E401                   MOV         #1,R4      ; H'00000001
    00000ECE 2249                   AND         R4,R2
    00000ED0 6163                   MOV         R6,R1
    00000ED2 312C                   ADD         R2,R1
           ssc_cbhm.i        695                      v_x=v_s;
    00000ED4 6913                   MOV         R1,R9
           ssc_cbhm.i        696                      v_e=v_s;
    00000ED6 6713                   MOV         R1,R7
           ssc_cbhm.i        697                      stop_flg=0;//前回停止なし
    00000ED8 E400                   MOV         #0,R4      ; H'00000000
    00000EDA E028                   MOV         #40,R0     ; H'00000028
    00000EDC 0F45                   MOV.W       R4,@(R0,R15); stop_flg
    00000EDE              L170:
           ssc_cbhm.i        698                  }
           ssc_cbhm.i        699              }
           ssc_cbhm.i        700          }
           ssc_cbhm.i        701      
           ssc_cbhm.i        702          //
           ssc_cbhm.i        703          while(i <= step_max){
    00000EDE 60F1                   MOV.W       @R15,R0    ; step_max
    00000EE0 6103                   MOV         R0,R1
    00000EE2 6DDF                   EXTS.W      R13,R13
    00000EE4 3D17                   CMP/GT      R1,R13
    00000EE6 8B01                   BF          L223
    00000EE8 A14D                   BRA         L173
    00000EEA 0009                   NOP
    00000EEC              L223:
    00000EEC              L174:
           ssc_cbhm.i        704              if(i!=step_max){//1,2,,,,,
    00000EEC 60F1                   MOV.W       @R15,R0    ; step_max
    00000EEE 6103                   MOV         R0,R1
    00000EF0 6DDF                   EXTS.W      R13,R13
    00000EF2 3D10                   CMP/EQ      R1,R13
    00000EF4 895C                   BT          L176
           ssc_cbhm.i        705                  if(stop_flg){
    00000EF6 E028                   MOV         #40,R0     ; H'00000028
    00000EF8 01FD                   MOV.W       @(R0,R15),R1; stop_flg
    00000EFA 6213                   MOV         R1,R2
    00000EFC 622F                   EXTS.W      R2,R2
    00000EFE 2228                   TST         R2,R2
    00000F00 8904                   BT          L178
           ssc_cbhm.i        706                      v_s=0;//前回停止
    00000F02 E100                   MOV         #0,R1      ; H'00000000
    00000F04 9061                   MOV.W       L216+4,R0  ; H'012C
    00000F06 0F15                   MOV.W       R1,@(R0,R15); v_s
    00000F08 A003                   BRA         L179
    00000F0A 0009                   NOP
    00000F0C              L178:
           ssc_cbhm.i        707                  }else{
           ssc_cbhm.i        708                      v_s=v_x;//開始速度
    00000F0C 6193                   MOV         R9,R1
    00000F0E 905C                   MOV.W       L216+4,R0  ; H'012C
    00000F10 0F15                   MOV.W       R1,@(R0,R15); v_s
    00000F12              L179:
           ssc_cbhm.i        709                  }
           ssc_cbhm.i        710                  v_x=SVP_OBJECT_SPD_TOP[i-1]*Vmax/1000;//100.0%　目標速度
    00000F12 D568                   MOV.L       L217+24,R5 ; _SVP_OBJECT_SPD_TOP
    00000F14 62D3                   MOV         R13,R2
    00000F16 622F                   EXTS.W      R2,R2
    00000F18 6623                   MOV         R2,R6
    00000F1A 76FF                   ADD         #-1,R6
    00000F1C 6263                   MOV         R6,R2
    00000F1E 4200                   SHLL        R2
    00000F20 6023                   MOV         R2,R0
    00000F22 065D                   MOV.W       @(R0,R5),R6; SVP_OBJECT_SPD_TOP[]
    00000F24 626D                   EXTU.W      R6,R2
    00000F26 904F                   MOV.W       L216+2,R0  ; H'0128
    00000F28 01FD                   MOV.W       @(R0,R15),R1; Vmax
    00000F2A 0127                   MUL.L       R2,R1
    00000F2C 021A                   STS         MACL,R2
    00000F2E D162                   MOV.L       L217+28,R1 ; H'10624DD3
    00000F30 6613                   MOV         R1,R6
    00000F32 362D                   DMULS.L     R2,R6
    00000F34 060A                   STS         MACH,R6
    00000F36 E1FA                   MOV         #-6,R1     ; H'FFFFFFFA
    00000F38 461C                   SHAD        R1,R6
    00000F3A 6263                   MOV         R6,R2
    00000F3C 4204                   ROTL        R2
    00000F3E E101                   MOV         #1,R1      ; H'00000001
    00000F40 2219                   AND         R1,R2
    00000F42 6563                   MOV         R6,R5
    00000F44 352C                   ADD         R2,R5
    00000F46 6953                   MOV         R5,R9
           ssc_cbhm.i        711                  v_e=0;
    00000F48 E700                   MOV         #0,R7      ; H'00000000
    00000F4A 903F                   MOV.W       L216+6,R0  ; H'0134
    00000F4C 0F75                   MOV.W       R7,@(R0,R15); v_e
           ssc_cbhm.i        712                  w_t=SVP_OBJECT_TIM_TOP[i-1];
    00000F4E D55B                   MOV.L       L217+32,R5 ; _SVP_OBJECT_TIM_TOP
    00000F50 62D3                   MOV         R13,R2
    00000F52 622F                   EXTS.W      R2,R2
    00000F54 6623                   MOV         R2,R6
    00000F56 76FF                   ADD         #-1,R6
    00000F58 6263                   MOV         R6,R2
    00000F5A 4200                   SHLL        R2
    00000F5C 6023                   MOV         R2,R0
    00000F5E 065D                   MOV.W       @(R0,R5),R6; SVP_OBJECT_TIM_TOP[]
    00000F60 6263                   MOV         R6,R2
    00000F62 6B23                   MOV         R2,R11
           ssc_cbhm.i        713                  st_dig=yLdig[data_cnt-1];
    00000F64 62F3                   MOV         R15,R2
    00000F66 912E                   MOV.W       L216,R1    ; H'00D4
    00000F68 321C                   ADD         R1,R2
    00000F6A 66C3                   MOV         R12,R6
    00000F6C 666F                   EXTS.W      R6,R6
    00000F6E 6563                   MOV         R6,R5
    00000F70 75FF                   ADD         #-1,R5
    00000F72 6653                   MOV         R5,R6
    00000F74 4600                   SHLL        R6
    00000F76 6063                   MOV         R6,R0
    00000F78 052D                   MOV.W       @(R0,R2),R5; yLdig[]
           ssc_cbhm.i        714                  obj_Ldig=SET1_OBJECT_DIG_TOP[i-1];
    00000F7A D451                   MOV.L       L217+36,R4 ; _SET1_OBJECT_DIG_TOP
    00000F7C 66D3                   MOV         R13,R6
    00000F7E 666F                   EXTS.W      R6,R6
    00000F80 6263                   MOV         R6,R2
    00000F82 72FF                   ADD         #-1,R2
    00000F84 4200                   SHLL        R2
    00000F86 6023                   MOV         R2,R0
    00000F88 064D                   MOV.W       @(R0,R4),R6; SET1_OBJECT_DIG_TOP[]
    00000F8A 6263                   MOV         R6,R2
    00000F8C 6A23                   MOV         R2,R10
           ssc_cbhm.i        715                  if(w_t==0){
    00000F8E 62B3                   MOV         R11,R2
    00000F90 622F                   EXTS.W      R2,R2
    00000F92 2228                   TST         R2,R2
    00000F94 8B07                   BF          L181
           ssc_cbhm.i        716                      v_e=v_x;
    00000F96 6793                   MOV         R9,R7
    00000F98 9018                   MOV.W       L216+6,R0  ; H'0134
    00000F9A 0F75                   MOV.W       R7,@(R0,R15); v_e
           ssc_cbhm.i        717                      stop_flg=0;//non stop
    00000F9C E100                   MOV         #0,R1      ; H'00000000
    00000F9E E028                   MOV         #40,R0     ; H'00000028
    00000FA0 0F15                   MOV.W       R1,@(R0,R15); stop_flg
    00000FA2 A060                   BRA         L182
    00000FA4 0009                   NOP
    00000FA6              L181:
           ssc_cbhm.i        718                  }else{
           ssc_cbhm.i        719                      stop_flg=1;//stop
    00000FA6 E101                   MOV         #1,R1      ; H'00000001
    00000FA8 E028                   MOV         #40,R0     ; H'00000028
    00000FAA 0F15                   MOV.W       R1,@(R0,R15); stop_flg
    00000FAC A05B                   BRA         L182
    00000FAE 0009                   NOP
    00000FB0              L176:
           ssc_cbhm.i        720                  }
           ssc_cbhm.i        721              }else{//max
           ssc_cbhm.i        722                  if(stop_flg){
    00000FB0 E028                   MOV         #40,R0     ; H'00000028
    00000FB2 01FD                   MOV.W       @(R0,R15),R1; stop_flg
    00000FB4 6213                   MOV         R1,R2
    00000FB6 622F                   EXTS.W      R2,R2
    00000FB8 2228                   TST         R2,R2
    00000FBA 8908                   BT          L184
           ssc_cbhm.i        723                      v_s=0;//前回停止
    00000FBC E100                   MOV         #0,R1      ; H'00000000
    00000FBE 9004                   MOV.W       L216+4,R0  ; H'012C
    00000FC0 0F15                   MOV.W       R1,@(R0,R15); v_s
    00000FC2 A007                   BRA         L185
    00000FC4 0009                   NOP
    00000FC6              L216:
    00000FC6 00D4                   .DATA.W     H'00D4
    00000FC8 0128                   .DATA.W     H'0128
    00000FCA 012C                   .DATA.W     H'012C
    00000FCC 0134                   .DATA.W     H'0134
    00000FCE              L184:
           ssc_cbhm.i        724                  }else{
           ssc_cbhm.i        725                      v_s=v_x;
    00000FCE 6193                   MOV         R9,R1
    00000FD0 9064                   MOV.W       L217,R0    ; H'012C
    00000FD2 0F15                   MOV.W       R1,@(R0,R15); v_s
    00000FD4              L185:
           ssc_cbhm.i        726                  }
           ssc_cbhm.i        727                  v_x=SVP_UPAREA_SPD0*Vmax/1000;//100.0% 1段目
    00000FD4 D13B                   MOV.L       L217+40,R1 ; _SVP_UPAREA_SPD0
    00000FD6 6411                   MOV.W       @R1,R4     ; SVP_UPAREA_SPD0
    00000FD8 624D                   EXTU.W      R4,R2
    00000FDA 9060                   MOV.W       L217+2,R0  ; H'0128
    00000FDC 01FD                   MOV.W       @(R0,R15),R1; Vmax
    00000FDE 0127                   MUL.L       R2,R1
    00000FE0 021A                   STS         MACL,R2
    00000FE2 D135                   MOV.L       L217+28,R1 ; H'10624DD3
    00000FE4 6613                   MOV         R1,R6
    00000FE6 362D                   DMULS.L     R2,R6
    00000FE8 060A                   STS         MACH,R6
    00000FEA E1FA                   MOV         #-6,R1     ; H'FFFFFFFA
    00000FEC 461C                   SHAD        R1,R6
    00000FEE 6263                   MOV         R6,R2
    00000FF0 4204                   ROTL        R2
    00000FF2 E101                   MOV         #1,R1      ; H'00000001
    00000FF4 2219                   AND         R1,R2
    00000FF6 6963                   MOV         R6,R9
    00000FF8 392C                   ADD         R2,R9
           ssc_cbhm.i        728                  v_e=0;//連続のnonstop以外は0で終わる
    00000FFA E700                   MOV         #0,R7      ; H'00000000
    00000FFC 9050                   MOV.W       L217+4,R0  ; H'0134
    00000FFE 0F75                   MOV.W       R7,@(R0,R15); v_e
           ssc_cbhm.i        729                  w_t=SVP_UPAREA_TIM0;
    00001000 D12B                   MOV.L       L217+20,R1 ; _SVP_UPAREA_TIM0
    00001002 6411                   MOV.W       @R1,R4     ; SVP_UPAREA_TIM0
    00001004 6243                   MOV         R4,R2
    00001006 6B23                   MOV         R2,R11
           ssc_cbhm.i        730  E               if(MODE_SEL&0x8){
    00001008 D127                   MOV.L       L217+12,R1 ; _MODE_SEL
    0000100A 6411                   MOV.W       @R1,R4     ; MODE_SEL
    0000100C 624D                   EXTU.W      R4,R2
    0000100E 6023                   MOV         R2,R0
    00001010 C808                   TST         #8,R0
    00001012 890C                   BT          L187
           ssc_cbhm.i        731  E                   if(SET1_MRTION_SEL1&0x1){
    00001014 D125                   MOV.L       L217+16,R1 ; _SET1_MRTION_SEL1
    00001016 6711                   MOV.W       @R1,R7     ; SET1_MRTION_SEL1
    00001018 627D                   EXTU.W      R7,R2
    0000101A 6023                   MOV         R2,R0
    0000101C C801                   TST         #1,R0
    0000101E 8906                   BT          L187
           ssc_cbhm.i        732                          if(w_t==0){
    00001020 62B3                   MOV         R11,R2
    00001022 622F                   EXTS.W      R2,R2
    00001024 2228                   TST         R2,R2
    00001026 8B02                   BF          L187
           ssc_cbhm.i        733                              v_e=v_x;
    00001028 6793                   MOV         R9,R7
    0000102A 9039                   MOV.W       L217+4,R0  ; H'0134
    0000102C 0F75                   MOV.W       R7,@(R0,R15); v_e
    0000102E              L187:
           ssc_cbhm.i        734                          }
           ssc_cbhm.i        735                      }
           ssc_cbhm.i        736                  }
           ssc_cbhm.i        737                  st_dig=yLdig[data_cnt-1];
    0000102E 62F3                   MOV         R15,R2
    00001030 9137                   MOV.W       L217+6,R1  ; H'00D4
    00001032 321C                   ADD         R1,R2
    00001034 65C3                   MOV         R12,R5
    00001036 655F                   EXTS.W      R5,R5
    00001038 6653                   MOV         R5,R6
    0000103A 76FF                   ADD         #-1,R6
    0000103C 4600                   SHLL        R6
    0000103E 6063                   MOV         R6,R0
    00001040 052D                   MOV.W       @(R0,R2),R5; yLdig[]
           ssc_cbhm.i        738  E               if(SET1_MRTION_SEL1&0x1){
    00001042 D11A                   MOV.L       L217+16,R1 ; _SET1_MRTION_SEL1
    00001044 6711                   MOV.W       @R1,R7     ; SET1_MRTION_SEL1
    00001046 627D                   EXTU.W      R7,R2
    00001048 6023                   MOV         R2,R0
    0000104A C801                   TST         #1,R0
    0000104C 8907                   BT          L191
           ssc_cbhm.i        739                      obj_Ldig=SETX_UPAREA_DIG;//ﾘﾝｸ角度
    0000104E D115                   MOV.L       L217+8,R1  ; _SETX_UPAREA_DIG
    00001050 6211                   MOV.W       @R1,R2     ; SETX_UPAREA_DIG
    00001052 6A23                   MOV         R2,R10
           ssc_cbhm.i        740                      last_cnt_flg=1;
    00001054 E101                   MOV         #1,R1      ; H'00000001
    00001056 E030                   MOV         #48,R0     ; H'00000030
    00001058 0F15                   MOV.W       R1,@(R0,R15); last_cnt_flg
    0000105A A004                   BRA         L182
    0000105C 0009                   NOP
    0000105E              L191:
           ssc_cbhm.i        741                  }else{
           ssc_cbhm.i        742                      obj_Ldig=SETX_UPAREA_DIG;//ﾘﾝｸ角度
    0000105E D111                   MOV.L       L217+8,R1  ; _SETX_UPAREA_DIG
    00001060 6711                   MOV.W       @R1,R7     ; SETX_UPAREA_DIG
    00001062 6273                   MOV         R7,R2
    00001064 6A23                   MOV         R2,R10
    00001066              L182:
           ssc_cbhm.i        743                  }
           ssc_cbhm.i        744              }
           ssc_cbhm.i        745              
           ssc_cbhm.i        746              length=mot_length_make1(obj_Ldig,st_dig,last_cnt_flg);//符号付
    00001066 E030                   MOV         #48,R0     ; H'00000030
    00001068 06FD                   MOV.W       @(R0,R15),R6; last_cnt_flg
    0000106A 655F                   EXTS.W      R5,R5
    0000106C 64AF                   EXTS.W      R10,R4
    0000106E BD87                   BSR         _mot_length_make1
    00001070 0009                   NOP
    00001072 6603                   MOV         R0,R6
    00001074 026A                   STS         FPSCR,R2
    00001076 D114                   MOV.L       L217+44,R1 ; H'FFE7FFFF
    00001078 2219                   AND         R1,R2
    0000107A 426A                   LDS         R2,FPSCR
    0000107C 646F                   EXTS.W      R6,R4
    0000107E 644F                   EXTS.W      R4,R4
           ssc_cbhm.i        747              if(length<0){
    00001080 4411                   CMP/PZ      R4
    00001082 8923                   BT          L193
           ssc_cbhm.i        748                  if(dirct_flg==0){//前は正転
    00001084 6283                   MOV         R8,R2
    00001086 622F                   EXTS.W      R2,R2
    00001088 2228                   TST         R2,R2
    0000108A 8B02                   BF          L195
           ssc_cbhm.i        749                      v_s=0;
    0000108C E100                   MOV         #0,R1      ; H'00000000
    0000108E 9005                   MOV.W       L217,R0    ; H'012C
    00001090 0F15                   MOV.W       R1,@(R0,R15); v_s
    00001092              L195:
           ssc_cbhm.i        750                  }
           ssc_cbhm.i        751                  dirct_flg=1;//逆転
    00001092 E801                   MOV         #1,R8      ; H'00000001
           ssc_cbhm.i        752                  length=length*-1;
    00001094 624B                   NEG         R4,R2
    00001096 6423                   MOV         R2,R4
    00001098 A01F                   BRA         L196
    0000109A 0009                   NOP
    0000109C              L217:
    0000109C 012C                   .DATA.W     H'012C
    0000109E 0128                   .DATA.W     H'0128
    000010A0 0134                   .DATA.W     H'0134
    000010A2 00D4                   .DATA.W     H'00D4
    000010A4 <00000000>             .DATA.L     _SETX_UPAREA_DIG
    000010A8 <00000000>             .DATA.L     _MODE_SEL
    000010AC <00000000>             .DATA.L     _SET1_MRTION_SEL1
    000010B0 <00000000>             .DATA.L     _SVP_UPAREA_TIM0
    000010B4 <00000000>             .DATA.L     _SVP_OBJECT_SPD_TOP
    000010B8 10624DD3               .DATA.L     H'10624DD3
    000010BC <00000000>             .DATA.L     _SVP_OBJECT_TIM_TOP
    000010C0 <00000000>             .DATA.L     _SET1_OBJECT_DIG_TOP
    000010C4 <00000000>             .DATA.L     _SVP_UPAREA_SPD0
    000010C8 FFE7FFFF               .DATA.L     H'FFE7FFFF
    000010CC              L193:
           ssc_cbhm.i        753              }else{
           ssc_cbhm.i        754                  if(dirct_flg!=0){//前は逆転
    000010CC 688F                   EXTS.W      R8,R8
    000010CE 2888                   TST         R8,R8
    000010D0 8902                   BT          L198
           ssc_cbhm.i        755                      v_s=0;
    000010D2 E100                   MOV         #0,R1      ; H'00000000
    000010D4 9087                   MOV.W       L218,R0    ; H'012C
    000010D6 0F15                   MOV.W       R1,@(R0,R15); v_s
    000010D8              L198:
           ssc_cbhm.i        756                  }
           ssc_cbhm.i        757                  dirct_flg=0;//正転
    000010D8 E800                   MOV         #0,R8      ; H'00000000
    000010DA              L196:
           ssc_cbhm.i        758              }
           ssc_cbhm.i        759              //通常の計算
           ssc_cbhm.i        760              wk4b1=tim_calc_up_dn(length,v_s,v_x,v_e,Ta_max,Vmax);
    000010DA 7FFC                   ADD         #-4,R15
    000010DC 9083                   MOV.W       L218,R0    ; H'012C
    000010DE 07FD                   MOV.W       @(R0,R15),R7; Vmax
    000010E0 2F72                   MOV.L       R7,@R15
    000010E2 7FFC                   ADD         #-4,R15
    000010E4 E028                   MOV         #40,R0     ; H'00000028
    000010E6 07FD                   MOV.W       @(R0,R15),R7; Ta_max
    000010E8 2F72                   MOV.L       R7,@R15
    000010EA 669F                   EXTS.W      R9,R6
    000010EC 907C                   MOV.W       L218+2,R0  ; H'0134
    000010EE 01FD                   MOV.W       @(R0,R15),R1; v_s
    000010F0 6513                   MOV         R1,R5
    000010F2 907A                   MOV.W       L218+4,R0  ; H'013C
    000010F4 07FD                   MOV.W       @(R0,R15),R7; v_e
    000010F6 644F                   EXTS.W      R4,R4
    000010F8 BC20                   BSR         _tim_calc_up_dn
    000010FA 0009                   NOP
    000010FC 6403                   MOV         R0,R4
    000010FE 026A                   STS         FPSCR,R2
    00001100 D73C                   MOV.L       L218+14,R7 ; H'FFE7FFFF
    00001102 2279                   AND         R7,R2
    00001104 426A                   LDS         R2,FPSCR
    00001106 7F08                   ADD         #8,R15
           ssc_cbhm.i        761              wk4b2=0;
    00001108 E100                   MOV         #0,R1      ; H'00000000
           ssc_cbhm.i        762              xtim[data_cnt]=wk4b1-wk4b2;
    0000110A 6543                   MOV         R4,R5
    0000110C 3518                   SUB         R1,R5
    0000110E 66F3                   MOV         R15,R6
    00001110 7634                   ADD         #52,R6
    00001112 62C3                   MOV         R12,R2
    00001114 622F                   EXTS.W      R2,R2
    00001116 4208                   SHLL2       R2
    00001118 6023                   MOV         R2,R0
    0000111A 0656                   MOV.L       R5,@(R0,R6); xtim[]
           ssc_cbhm.i        763              total_tim=total_tim+wk4b1-wk4b2;
    0000111C 3E4C                   ADD         R4,R14
    0000111E 3E18                   SUB         R1,R14
           ssc_cbhm.i        764              yLdig[data_cnt]=obj_Ldig;
    00001120 62F3                   MOV         R15,R2
    00001122 9763                   MOV.W       L218+6,R7  ; H'00D4
    00001124 327C                   ADD         R7,R2
    00001126 66C3                   MOV         R12,R6
    00001128 666F                   EXTS.W      R6,R6
    0000112A 4600                   SHLL        R6
    0000112C 6063                   MOV         R6,R0
    0000112E 02A5                   MOV.W       R10,@(R0,R2); yLdig[]
           ssc_cbhm.i        765              data_cnt++;
    00001130 6CCF                   EXTS.W      R12,R12
    00001132 62C3                   MOV         R12,R2
    00001134 7201                   ADD         #1,R2
    00001136 6C23                   MOV         R2,R12
           ssc_cbhm.i        766              if(w_t!=0){
    00001138 62B3                   MOV         R11,R2
    0000113A 622F                   EXTS.W      R2,R2
    0000113C 2228                   TST         R2,R2
    0000113E 8917                   BT          L200
           ssc_cbhm.i        767                  xtim[data_cnt]=w_t;
    00001140 66F3                   MOV         R15,R6
    00001142 7634                   ADD         #52,R6
    00001144 65C3                   MOV         R12,R5
    00001146 655F                   EXTS.W      R5,R5
    00001148 6253                   MOV         R5,R2
    0000114A 4208                   SHLL2       R2
    0000114C 6BBF                   EXTS.W      R11,R11
    0000114E 6023                   MOV         R2,R0
    00001150 06B6                   MOV.L       R11,@(R0,R6); xtim[]
           ssc_cbhm.i        768                  total_tim=total_tim+(U4b)w_t;
    00001152 6BBF                   EXTS.W      R11,R11
    00001154 3EBC                   ADD         R11,R14
           ssc_cbhm.i        769                  yLdig[data_cnt]=obj_Ldig;
    00001156 66F3                   MOV         R15,R6
    00001158 9148                   MOV.W       L218+6,R1  ; H'00D4
    0000115A 361C                   ADD         R1,R6
    0000115C 65C3                   MOV         R12,R5
    0000115E 655F                   EXTS.W      R5,R5
    00001160 6253                   MOV         R5,R2
    00001162 4200                   SHLL        R2
    00001164 6023                   MOV         R2,R0
    00001166 06A5                   MOV.W       R10,@(R0,R6); yLdig[]
           ssc_cbhm.i        770                  data_cnt++;
    00001168 6CCF                   EXTS.W      R12,R12
    0000116A 62C3                   MOV         R12,R2
    0000116C 7201                   ADD         #1,R2
    0000116E 6C23                   MOV         R2,R12
    00001170              L200:
           ssc_cbhm.i        771              }
           ssc_cbhm.i        772              i++;
    00001170 6DDF                   EXTS.W      R13,R13
    00001172 62D3                   MOV         R13,R2
    00001174 7201                   ADD         #1,R2
    00001176 6D23                   MOV         R2,R13
    00001178 60F1                   MOV.W       @R15,R0    ; step_max
    0000117A 6103                   MOV         R0,R1
    0000117C 6DDF                   EXTS.W      R13,R13
    0000117E 3D17                   CMP/GT      R1,R13
    00001180 8901                   BT          L224
    00001182 AEB3                   BRA         L174
    00001184 0009                   NOP
    00001186              L224:
    00001186              L173:
           ssc_cbhm.i        773          }
           ssc_cbhm.i        774    
           ssc_cbhm.i        775      //  ***************************
           ssc_cbhm.i        776      //  *** ﾀｲﾑ積算     ***
           ssc_cbhm.i        777      //  ***************************
           ssc_cbhm.i        778          i=0;
    00001186 ED00                   MOV         #0,R13     ; H'00000000
           ssc_cbhm.i        779          wk4b1=0;
    00001188 E400                   MOV         #0,R4      ; H'00000000
           ssc_cbhm.i        780          while(i<data_cnt){
    0000118A 6CCF                   EXTS.W      R12,R12
    0000118C 6DDF                   EXTS.W      R13,R13
    0000118E 3DC3                   CMP/GE      R12,R13
    00001190 8910                   BT          L201
    00001192              L202:
           ssc_cbhm.i        781              wk4b1=wk4b1+(S4b)xtim[i];
    00001192 66F3                   MOV         R15,R6
    00001194 7634                   ADD         #52,R6
    00001196 65D3                   MOV         R13,R5
    00001198 655F                   EXTS.W      R5,R5
    0000119A 6253                   MOV         R5,R2
    0000119C 4208                   SHLL2       R2
    0000119E 6023                   MOV         R2,R0
    000011A0 056E                   MOV.L       @(R0,R6),R5; xtim[]
    000011A2 345C                   ADD         R5,R4
           ssc_cbhm.i        782              i++;
    000011A4 6DDF                   EXTS.W      R13,R13
    000011A6 62D3                   MOV         R13,R2
    000011A8 7201                   ADD         #1,R2
    000011AA 6D23                   MOV         R2,R13
    000011AC 6CCF                   EXTS.W      R12,R12
    000011AE 6DDF                   EXTS.W      R13,R13
    000011B0 3DC3                   CMP/GE      R12,R13
    000011B2 8BEE                   BF          L202
    000011B4              L201:
           ssc_cbhm.i        783          }
           ssc_cbhm.i        784          
           ssc_cbhm.i        785          if(wk4b1!=0){
    000011B4 2448                   TST         R4,R4
    000011B6 8908                   BT          L168
           ssc_cbhm.i        786              PVP_1ROT_CALSPM=(60*100)/wk4b1  ;//予想運転速度 wk4b1*10msec:1rot 6000
    000011B8 9719                   MOV.W       L218+8,R7  ; H'1770
    000011BA 6173                   MOV         R7,R1
    000011BC 6043                   MOV         R4,R0
    000011BE D30E                   MOV.L       L218+18,R3 ; __divlu
    000011C0 430B                   JSR         @R3
    000011C2 0009                   NOP
    000011C4 6203                   MOV         R0,R2
    000011C6 D70D                   MOV.L       L218+22,R7 ; _PVP_1ROT_CALSPM
    000011C8 2721                   MOV.W       R2,@R7     ; PVP_1ROT_CALSPM
    000011CA              L168:
    000011CA 9311                   MOV.W       L218+10,R3 ; H'0144
    000011CC 3F3C                   ADD         R3,R15
    000011CE 4F06                   LDS.L       @R15+,MACH
    000011D0 4F16                   LDS.L       @R15+,MACL
    000011D2 4F26                   LDS.L       @R15+,PR
    000011D4 6EF6                   MOV.L       @R15+,R14
    000011D6 6DF6                   MOV.L       @R15+,R13
    000011D8 6CF6                   MOV.L       @R15+,R12
    000011DA 6BF6                   MOV.L       @R15+,R11
    000011DC 6AF6                   MOV.L       @R15+,R10
    000011DE 69F6                   MOV.L       @R15+,R9
    000011E0 68F6                   MOV.L       @R15+,R8
           ssc_cbhm.i        787          }
           ssc_cbhm.i        788          
           ssc_cbhm.i        789      }
           ssc_cbhm.i        790    
           ssc_cbhm.i        791    }
    000011E2 000B                   RTS
    000011E4 0009                   NOP
    000011E6              L218:
    000011E6 012C                   .DATA.W     H'012C
    000011E8 0134                   .DATA.W     H'0134
    000011EA 013C                   .DATA.W     H'013C
    000011EC 00D4                   .DATA.W     H'00D4
    000011EE 1770                   .DATA.W     H'1770
    000011F0 0144                   .DATA.W     H'0144
    000011F2 00000002               .RES.W      1
    000011F4 FFE7FFFF               .DATA.L     H'FFE7FFFF
    000011F8 <00000000>             .DATA.L     __divlu
    000011FC <00000000>             .DATA.L     _PVP_1ROT_CALSPM
           ssc_cbhm.i        792    
              ssc_k.c        198    
SH SERIES C/C++ Compiler (V.9.04.01.002)                                                         12-Dec-2017 19:19:34  PAGE    1


******** STATISTICS INFORMATION ********


********** ERROR INFORMATION ***********

NUMBER OF ERRORS:           0
NUMBER OF WARNINGS:         0




******* SOURCE LINE INFORMATION ********

COMPILED SOURCE LINE:      198



******* SECTION SIZE INFORMATION *******

PROGRAM  SECTION (P):                                 00001200 Byte(s)
CONSTANT SECTION (C):                                 00000000 Byte(s)
DATA     SECTION (D):                                 00000000 Byte(s)
BSS      SECTION (B):                                 00000000 Byte(s)

TOTAL PROGRAM  SECTION: 00001200 Byte(s)
TOTAL CONSTANT SECTION: 00000000 Byte(s)
TOTAL DATA     SECTION: 00000000 Byte(s)
TOTAL BSS      SECTION: 00000000 Byte(s)

    TOTAL PROGRAM SIZE: 00001200 Byte(s)



********** LABEL INFORMATION ***********

NUMBER OF EXTERNAL REFERENCE SYMBOLS:           34
NUMBER OF EXTERNAL DEFINITION SYMBOLS:          16
NUMBER OF INTERNAL/EXTERNAL SYMBOLS:           160



*** COMMAND PARAMETER ***

-subcommand=D:\SIT4S_MC\cpua\cpua\cpua\Debug\ssc_k.shc
-cpu=sh4
-include="D:\SIT4S_MC\cpua\cpua\HW_SRC","D:\SIT4S_MC\comon","D:\SIT4S_MC\cpua\cpua","D:\SIT4S_MC\cpua\cpua\SEQ_SRC","D:\SIT4S_MC\cpua\cpua\cb_src\COMON","D:\SIT4S_MC\cpua\cpua\cb_src\K_SRC","D:\SIT4S_MC\comon\cpua_inc"
-object="D:\SIT4S_MC\cpua\cpua\cpua\Debug\ssc_k.obj"
-debug
-listfile="D:\SIT4S_MC\cpua\cpua\cpua\Debug\ssc_k.lst"
-show=source,include,expansion,tab=4
-optimize=0
-noinline
-gbr=auto
-chgincpath
-errorpath
"D:\SIT4S_MC\cpua\cpua\cb_src\K_SRC\ssc_k.c"
-global_volatile=0
-opt_range=all
-infinite_loop=0
-del_vacant_loop=0
-struct_alloc=1
-lang=c
-nologo
