*** SuperH RISC engine ASSEMBLER V.7.01.02.000 ***    11/14/21 17:05:49                                                  PAGE     1
PROGRAM NAME =

    1                               1     ;------------------------------------------------------------------------
    2                               2     ;                                                                       |
    3                               3     ;   FILE        :intprg.src                                             |
    4                               4     ;   DATE        :Mon, Jun 25, 2001                                      |
    5                               5     ;   DESCRIPTION :Interrupt Program                                      |
    6                               6     ;   CPU TYPE    :SH7750                                                 |
    7                               7     ;                                                                       |
    8                               8     ;   This file is generated by Hitachi Project Generator (Ver.1.1).      |
    9                               9     ;                                                                       |
   10                              10     ;------------------------------------------------------------------------
   11                              11     
 1877                              18     
 1878                              19             .import         _BOOT_CALL                      ;
 1879                              20     
 1880 00000000                     21             .section        IntPRG, code
 1881                              22     
 1882                              23     
 1883                              24     ;H'140 TBL Reset (DATA TBL Reset)
 1884 00000000                     25     _TBL_Reset
 1885 00000000 001B                26         sleep
 1886 00000002 0009                27         nop
 1887                              28     
 1888                              29     
 1889                              30     ;H'040 TLB miss/invalid (load)
 1890 00000004                     31     _INT_TLBMiss_Load
 1891                              32             SUB_START
 1892 00000004 4F22                   M           STS.L   PR,@-R15                ;[必要]
 1893                                 M   ;;;;;;; ADD     #-4,R15                 ;[不要?]
 1894                              33             PUSH_REG1 R0
 1895 00000006 2F06                   M           MOV.L   R0,@-R15                ;PUSH=SP-4
 1896                                 M                                           ;REG=>[SP]
 1897                                 M                                           ;"-4" FF,FF,FF,FC
 1898                              34             PUSH_REG1 R1
 1899 00000008 2F16                   M           MOV.L   R1,@-R15                ;PUSH=SP-4
 1900                                 M                                           ;REG=>[SP]
 1901                                 M                                           ;"-4" FF,FF,FF,FC
 1902 0000000A E002                35             MOV     #2,R0
 1903                              36             M_JMP   #_BOOT_CALL,R1
 1904 0000000C D101                   M           MOV.L   #_BOOT_CALL,R1
 1905 0000000E 412B                   M           JMP     @R1
 1906 00000010 0009                   M           NOP
 1907                              37     
 1908                              38     ;H'060 TLB miss/invalid (store)
 1909                                     ***** BEGIN-POOL *****
 1910 00000012 0000                       ALIGNMENT CODE
 1911 00000014 00000000                   DATA FOR SOURCE-LINE 36
 1912                                     ***** END-POOL *****
 1913 00000018                     39     _INT_TLBMiss_Store
 1914                              40             SUB_START
 1915 00000018 4F22                   M           STS.L   PR,@-R15                ;[必要]
 1916                                 M   ;;;;;;; ADD     #-4,R15                 ;[不要?]
 1917                              41             PUSH_REG1 R0
 1918 0000001A 2F06                   M           MOV.L   R0,@-R15                ;PUSH=SP-4
 1919                                 M                                           ;REG=>[SP]
 1920                                 M                                           ;"-4" FF,FF,FF,FC
 1921                              42             PUSH_REG1 R1
 1922 0000001C 2F16                   M           MOV.L   R1,@-R15                ;PUSH=SP-4
*** SuperH RISC engine ASSEMBLER V.7.01.02.000 ***    11/14/21 17:05:49                                                  PAGE     2
PROGRAM NAME =

 1923                                 M                                           ;REG=>[SP]
 1924                                 M                                           ;"-4" FF,FF,FF,FC
 1925 0000001E E003                43             MOV     #3,R0
 1926                              44             M_JMP   #_BOOT_CALL,R1
 1927 00000020 D101                   M           MOV.L   #_BOOT_CALL,R1
 1928 00000022 412B                   M           JMP     @R1
 1929 00000024 0009                   M           NOP
 1930                              45     
 1931                              46     ;H'080 Initial page write
 1932                                     ***** BEGIN-POOL *****
 1933 00000026 0000                       ALIGNMENT CODE
 1934 00000028 00000000                   DATA FOR SOURCE-LINE 44
 1935                                     ***** END-POOL *****
 1936 0000002C                     47     _INT_TLBInitial_Page
 1937                              48             SUB_START
 1938 0000002C 4F22                   M           STS.L   PR,@-R15                ;[必要]
 1939                                 M   ;;;;;;; ADD     #-4,R15                 ;[不要?]
 1940                              49             PUSH_REG1 R0
 1941 0000002E 2F06                   M           MOV.L   R0,@-R15                ;PUSH=SP-4
 1942                                 M                                           ;REG=>[SP]
 1943                                 M                                           ;"-4" FF,FF,FF,FC
 1944                              50             PUSH_REG1 R1
 1945 00000030 2F16                   M           MOV.L   R1,@-R15                ;PUSH=SP-4
 1946                                 M                                           ;REG=>[SP]
 1947                                 M                                           ;"-4" FF,FF,FF,FC
 1948 00000032 E004                51             MOV     #4,R0
 1949                              52             M_JMP   #_BOOT_CALL,R1
 1950 00000034 D101                   M           MOV.L   #_BOOT_CALL,R1
 1951 00000036 412B                   M           JMP     @R1
 1952 00000038 0009                   M           NOP
 1953                              53     
 1954                              54     ;H'0A0 TLB protect (load)
 1955                                     ***** BEGIN-POOL *****
 1956 0000003A 0000                       ALIGNMENT CODE
 1957 0000003C 00000000                   DATA FOR SOURCE-LINE 52
 1958                                     ***** END-POOL *****
 1959 00000040                     55     _INT_TLBProtect_Load
 1960                              56             SUB_START
 1961 00000040 4F22                   M           STS.L   PR,@-R15                ;[必要]
 1962                                 M   ;;;;;;; ADD     #-4,R15                 ;[不要?]
 1963                              57             PUSH_REG1 R0
 1964 00000042 2F06                   M           MOV.L   R0,@-R15                ;PUSH=SP-4
 1965                                 M                                           ;REG=>[SP]
 1966                                 M                                           ;"-4" FF,FF,FF,FC
 1967                              58             PUSH_REG1 R1
 1968 00000044 2F16                   M           MOV.L   R1,@-R15                ;PUSH=SP-4
 1969                                 M                                           ;REG=>[SP]
 1970                                 M                                           ;"-4" FF,FF,FF,FC
 1971 00000046 E005                59             MOV     #5,R0
 1972                              60             M_JMP   #_BOOT_CALL,R1
 1973 00000048 D101                   M           MOV.L   #_BOOT_CALL,R1
 1974 0000004A 412B                   M           JMP     @R1
 1975 0000004C 0009                   M           NOP
 1976                              61     
 1977                              62     ;H'0C0 TLB protect (store)
 1978                                     ***** BEGIN-POOL *****
 1979 0000004E 0000                       ALIGNMENT CODE
*** SuperH RISC engine ASSEMBLER V.7.01.02.000 ***    11/14/21 17:05:49                                                  PAGE     3
PROGRAM NAME =

 1980 00000050 00000000                   DATA FOR SOURCE-LINE 60
 1981                                     ***** END-POOL *****
 1982 00000054                     63     _INT_TLBProtect_Store
 1983                              64             SUB_START
 1984 00000054 4F22                   M           STS.L   PR,@-R15                ;[必要]
 1985                                 M   ;;;;;;; ADD     #-4,R15                 ;[不要?]
 1986                              65             PUSH_REG1 R0
 1987 00000056 2F06                   M           MOV.L   R0,@-R15                ;PUSH=SP-4
 1988                                 M                                           ;REG=>[SP]
 1989                                 M                                           ;"-4" FF,FF,FF,FC
 1990                              66             PUSH_REG1 R1
 1991 00000058 2F16                   M           MOV.L   R1,@-R15                ;PUSH=SP-4
 1992                                 M                                           ;REG=>[SP]
 1993                                 M                                           ;"-4" FF,FF,FF,FC
 1994 0000005A E006                67             MOV     #6,R0
 1995                              68             M_JMP   #_BOOT_CALL,R1
 1996 0000005C D101                   M           MOV.L   #_BOOT_CALL,R1
 1997 0000005E 412B                   M           JMP     @R1
 1998 00000060 0009                   M           NOP
 1999                              69     
 2000                              70     ;H'0E0 Address error (load)
 2001                                     ***** BEGIN-POOL *****
 2002 00000062 0000                       ALIGNMENT CODE
 2003 00000064 00000000                   DATA FOR SOURCE-LINE 68
 2004                                     ***** END-POOL *****
 2005 00000068                     71     _INT_Address_load
 2006                              72             SUB_START
 2007 00000068 4F22                   M           STS.L   PR,@-R15                ;[必要]
 2008                                 M   ;;;;;;; ADD     #-4,R15                 ;[不要?]
 2009                              73             PUSH_REG1 R0
 2010 0000006A 2F06                   M           MOV.L   R0,@-R15                ;PUSH=SP-4
 2011                                 M                                           ;REG=>[SP]
 2012                                 M                                           ;"-4" FF,FF,FF,FC
 2013                              74             PUSH_REG1 R1
 2014 0000006C 2F16                   M           MOV.L   R1,@-R15                ;PUSH=SP-4
 2015                                 M                                           ;REG=>[SP]
 2016                                 M                                           ;"-4" FF,FF,FF,FC
 2017 0000006E E007                75             MOV     #7,R0
 2018                              76             M_JMP   #_BOOT_CALL,R1
 2019 00000070 D101                   M           MOV.L   #_BOOT_CALL,R1
 2020 00000072 412B                   M           JMP     @R1
 2021 00000074 0009                   M           NOP
 2022                              77     
 2023                              78     ;H'100 Address error (store)
 2024                                     ***** BEGIN-POOL *****
 2025 00000076 0000                       ALIGNMENT CODE
 2026 00000078 00000000                   DATA FOR SOURCE-LINE 76
 2027                                     ***** END-POOL *****
 2028 0000007C                     79     _INT_Address_store
 2029                              80             SUB_START
 2030 0000007C 4F22                   M           STS.L   PR,@-R15                ;[必要]
 2031                                 M   ;;;;;;; ADD     #-4,R15                 ;[不要?]
 2032                              81             PUSH_REG1 R0
 2033 0000007E 2F06                   M           MOV.L   R0,@-R15                ;PUSH=SP-4
 2034                                 M                                           ;REG=>[SP]
 2035                                 M                                           ;"-4" FF,FF,FF,FC
 2036                              82             PUSH_REG1 R1
*** SuperH RISC engine ASSEMBLER V.7.01.02.000 ***    11/14/21 17:05:49                                                  PAGE     4
PROGRAM NAME =

 2037 00000080 2F16                   M           MOV.L   R1,@-R15                ;PUSH=SP-4
 2038                                 M                                           ;REG=>[SP]
 2039                                 M                                           ;"-4" FF,FF,FF,FC
 2040 00000082 E008                83             MOV     #8,R0
 2041                              84             M_JMP   #_BOOT_CALL,R1
 2042 00000084 D101                   M           MOV.L   #_BOOT_CALL,R1
 2043 00000086 412B                   M           JMP     @R1
 2044 00000088 0009                   M           NOP
 2045                              85     
 2046                              86     ;H'120 FPU invalid
 2047                                     ***** BEGIN-POOL *****
 2048 0000008A 0000                       ALIGNMENT CODE
 2049 0000008C 00000000                   DATA FOR SOURCE-LINE 84
 2050                                     ***** END-POOL *****
 2051 00000090                     87     _INT_FPU
 2052                              88             SUB_START
 2053 00000090 4F22                   M           STS.L   PR,@-R15                ;[必要]
 2054                                 M   ;;;;;;; ADD     #-4,R15                 ;[不要?]
 2055                              89             PUSH_REG1 R0
 2056 00000092 2F06                   M           MOV.L   R0,@-R15                ;PUSH=SP-4
 2057                                 M                                           ;REG=>[SP]
 2058                                 M                                           ;"-4" FF,FF,FF,FC
 2059                              90             PUSH_REG1 R1
 2060 00000094 2F16                   M           MOV.L   R1,@-R15                ;PUSH=SP-4
 2061                                 M                                           ;REG=>[SP]
 2062                                 M                                           ;"-4" FF,FF,FF,FC
 2063 00000096 E009                91             MOV     #9,R0
 2064                              92             M_JMP   #_BOOT_CALL,R1
 2065 00000098 D101                   M           MOV.L   #_BOOT_CALL,R1
 2066 0000009A 412B                   M           JMP     @R1
 2067 0000009C 0009                   M           NOP
 2068                              93     
 2069                              94     ;H'140 Reserved
 2070                                     ***** BEGIN-POOL *****
 2071 0000009E 0000                       ALIGNMENT CODE
 2072 000000A0 00000000                   DATA FOR SOURCE-LINE 92
 2073                                     ***** END-POOL *****
 2074 000000A4                     95     _INT_Reserved140
 2075                              96             SUB_START
 2076 000000A4 4F22                   M           STS.L   PR,@-R15                ;[必要]
 2077                                 M   ;;;;;;; ADD     #-4,R15                 ;[不要?]
 2078                              97             PUSH_REG1 R0
 2079 000000A6 2F06                   M           MOV.L   R0,@-R15                ;PUSH=SP-4
 2080                                 M                                           ;REG=>[SP]
 2081                                 M                                           ;"-4" FF,FF,FF,FC
 2082                              98             PUSH_REG1 R1
 2083 000000A8 2F16                   M           MOV.L   R1,@-R15                ;PUSH=SP-4
 2084                                 M                                           ;REG=>[SP]
 2085                                 M                                           ;"-4" FF,FF,FF,FC
 2086 000000AA E00A                99             MOV     #10,R0
 2087                             100             M_JMP   #_BOOT_CALL,R1
 2088 000000AC D101                   M           MOV.L   #_BOOT_CALL,R1
 2089 000000AE 412B                   M           JMP     @R1
 2090 000000B0 0009                   M           NOP
 2091                             101     
 2092                             102     ;H'160 TRAPA
 2093                                     ***** BEGIN-POOL *****
*** SuperH RISC engine ASSEMBLER V.7.01.02.000 ***    11/14/21 17:05:49                                                  PAGE     5
PROGRAM NAME =

 2094 000000B2 0000                       ALIGNMENT CODE
 2095 000000B4 00000000                   DATA FOR SOURCE-LINE 100
 2096                                     ***** END-POOL *****
 2097 000000B8                    103     _INT_TRAPA
 2098                             104             SUB_START
 2099 000000B8 4F22                   M           STS.L   PR,@-R15                ;[必要]
 2100                                 M   ;;;;;;; ADD     #-4,R15                 ;[不要?]
 2101                             105             PUSH_REG1 R0
 2102 000000BA 2F06                   M           MOV.L   R0,@-R15                ;PUSH=SP-4
 2103                                 M                                           ;REG=>[SP]
 2104                                 M                                           ;"-4" FF,FF,FF,FC
 2105                             106             PUSH_REG1 R1
 2106 000000BC 2F16                   M           MOV.L   R1,@-R15                ;PUSH=SP-4
 2107                                 M                                           ;REG=>[SP]
 2108                                 M                                           ;"-4" FF,FF,FF,FC
 2109 000000BE E00B               107             MOV     #11,R0
 2110                             108             M_JMP   #_BOOT_CALL,R1
 2111 000000C0 D101                   M           MOV.L   #_BOOT_CALL,R1
 2112 000000C2 412B                   M           JMP     @R1
 2113 000000C4 0009                   M           NOP
 2114                             109     
 2115                             110     ;H'180 Illegal code
 2116                                     ***** BEGIN-POOL *****
 2117 000000C6 0000                       ALIGNMENT CODE
 2118 000000C8 00000000                   DATA FOR SOURCE-LINE 108
 2119                                     ***** END-POOL *****
 2120 000000CC                    111     _INT_Illegal_code
 2121                             112             SUB_START
 2122 000000CC 4F22                   M           STS.L   PR,@-R15                ;[必要]
 2123                                 M   ;;;;;;; ADD     #-4,R15                 ;[不要?]
 2124                             113             PUSH_REG1 R0
 2125 000000CE 2F06                   M           MOV.L   R0,@-R15                ;PUSH=SP-4
 2126                                 M                                           ;REG=>[SP]
 2127                                 M                                           ;"-4" FF,FF,FF,FC
 2128                             114             PUSH_REG1 R1
 2129 000000D0 2F16                   M           MOV.L   R1,@-R15                ;PUSH=SP-4
 2130                                 M                                           ;REG=>[SP]
 2131                                 M                                           ;"-4" FF,FF,FF,FC
 2132 000000D2 E00C               115             MOV     #12,R0
 2133                             116             M_JMP   #_BOOT_CALL,R1
 2134 000000D4 D101                   M           MOV.L   #_BOOT_CALL,R1
 2135 000000D6 412B                   M           JMP     @R1
 2136 000000D8 0009                   M           NOP
 2137                             117     
 2138                             118     ;H'1A0 Illegal slot
 2139                                     ***** BEGIN-POOL *****
 2140 000000DA 0000                       ALIGNMENT CODE
 2141 000000DC 00000000                   DATA FOR SOURCE-LINE 116
 2142                                     ***** END-POOL *****
 2143 000000E0                    119     _INT_Illegal_slot
 2144                             120             SUB_START
 2145 000000E0 4F22                   M           STS.L   PR,@-R15                ;[必要]
 2146                                 M   ;;;;;;; ADD     #-4,R15                 ;[不要?]
 2147                             121             PUSH_REG1 R0
 2148 000000E2 2F06                   M           MOV.L   R0,@-R15                ;PUSH=SP-4
 2149                                 M                                           ;REG=>[SP]
 2150                                 M                                           ;"-4" FF,FF,FF,FC
*** SuperH RISC engine ASSEMBLER V.7.01.02.000 ***    11/14/21 17:05:49                                                  PAGE     6
PROGRAM NAME =

 2151                             122             PUSH_REG1 R1
 2152 000000E4 2F16                   M           MOV.L   R1,@-R15                ;PUSH=SP-4
 2153                                 M                                           ;REG=>[SP]
 2154                                 M                                           ;"-4" FF,FF,FF,FC
 2155 000000E6 E00D               123             MOV     #13,R0
 2156                             124             M_JMP   #_BOOT_CALL,R1
 2157 000000E8 D101                   M           MOV.L   #_BOOT_CALL,R1
 2158 000000EA 412B                   M           JMP     @R1
 2159 000000EC 0009                   M           NOP
 2160                             125     
 2161                             126     ;H'1C0 NMI
 2162                                     ***** BEGIN-POOL *****
 2163 000000EE 0000                       ALIGNMENT CODE
 2164 000000F0 00000000                   DATA FOR SOURCE-LINE 124
 2165                                     ***** END-POOL *****
 2166 000000F4                    127     _INT_NMI
 2167                             128             SUB_START
 2168 000000F4 4F22                   M           STS.L   PR,@-R15                ;[必要]
 2169                                 M   ;;;;;;; ADD     #-4,R15                 ;[不要?]
 2170                             129             PUSH_REG1 R0
 2171 000000F6 2F06                   M           MOV.L   R0,@-R15                ;PUSH=SP-4
 2172                                 M                                           ;REG=>[SP]
 2173                                 M                                           ;"-4" FF,FF,FF,FC
 2174                             130             PUSH_REG1 R1
 2175 000000F8 2F16                   M           MOV.L   R1,@-R15                ;PUSH=SP-4
 2176                                 M                                           ;REG=>[SP]
 2177                                 M                                           ;"-4" FF,FF,FF,FC
 2178 000000FA E00E               131             MOV     #14,R0
 2179                             132             M_JMP   #_BOOT_CALL,R1
 2180 000000FC D101                   M           MOV.L   #_BOOT_CALL,R1
 2181 000000FE 412B                   M           JMP     @R1
 2182 00000100 0009                   M           NOP
 2183                             133     
 2184                             134     ;H'1E0 User Break
 2185                                     ***** BEGIN-POOL *****
 2186 00000102 0000                       ALIGNMENT CODE
 2187 00000104 00000000                   DATA FOR SOURCE-LINE 132
 2188                                     ***** END-POOL *****
 2189 00000108                    135     _INT_User_Break
 2190                             136             SUB_START
 2191 00000108 4F22                   M           STS.L   PR,@-R15                ;[必要]
 2192                                 M   ;;;;;;; ADD     #-4,R15                 ;[不要?]
 2193                             137             PUSH_REG1 R0
 2194 0000010A 2F06                   M           MOV.L   R0,@-R15                ;PUSH=SP-4
 2195                                 M                                           ;REG=>[SP]
 2196                                 M                                           ;"-4" FF,FF,FF,FC
 2197                             138             PUSH_REG1 R1
 2198 0000010C 2F16                   M           MOV.L   R1,@-R15                ;PUSH=SP-4
 2199                                 M                                           ;REG=>[SP]
 2200                                 M                                           ;"-4" FF,FF,FF,FC
 2201 0000010E E00F               139             MOV     #15,R0
 2202                             140             M_JMP   #_BOOT_CALL,R1
 2203 00000110 D101                   M           MOV.L   #_BOOT_CALL,R1
 2204 00000112 412B                   M           JMP     @R1
 2205 00000114 0009                   M           NOP
 2206                             141     
 2207                             142     ;H'200 External hardware interrupt
*** SuperH RISC engine ASSEMBLER V.7.01.02.000 ***    11/14/21 17:05:49                                                  PAGE     7
PROGRAM NAME =

 2208                                     ***** BEGIN-POOL *****
 2209 00000116 0000                       ALIGNMENT CODE
 2210 00000118 00000000                   DATA FOR SOURCE-LINE 140
 2211                                     ***** END-POOL *****
 2212 0000011C                    143     _INT_Extern_0000
 2213                             144             SUB_START
 2214 0000011C 4F22                   M           STS.L   PR,@-R15                ;[必要]
 2215                                 M   ;;;;;;; ADD     #-4,R15                 ;[不要?]
 2216                             145             PUSH_REG1 R0
 2217 0000011E 2F06                   M           MOV.L   R0,@-R15                ;PUSH=SP-4
 2218                                 M                                           ;REG=>[SP]
 2219                                 M                                           ;"-4" FF,FF,FF,FC
 2220                             146             PUSH_REG1 R1
 2221 00000120 2F16                   M           MOV.L   R1,@-R15                ;PUSH=SP-4
 2222                                 M                                           ;REG=>[SP]
 2223                                 M                                           ;"-4" FF,FF,FF,FC
 2224 00000122 E010               147             MOV     #16,R0
 2225                             148             M_JMP   #_BOOT_CALL,R1
 2226 00000124 D101                   M           MOV.L   #_BOOT_CALL,R1
 2227 00000126 412B                   M           JMP     @R1
 2228 00000128 0009                   M           NOP
 2229                             149     
 2230                             150     ;H'220 External hardware interrupt
 2231                                     ***** BEGIN-POOL *****
 2232 0000012A 0000                       ALIGNMENT CODE
 2233 0000012C 00000000                   DATA FOR SOURCE-LINE 148
 2234                                     ***** END-POOL *****
 2235 00000130                    151     _INT_Extern_0001
 2236                             152             SUB_START
 2237 00000130 4F22                   M           STS.L   PR,@-R15                ;[必要]
 2238                                 M   ;;;;;;; ADD     #-4,R15                 ;[不要?]
 2239                             153             PUSH_REG1 R0
 2240 00000132 2F06                   M           MOV.L   R0,@-R15                ;PUSH=SP-4
 2241                                 M                                           ;REG=>[SP]
 2242                                 M                                           ;"-4" FF,FF,FF,FC
 2243                             154             PUSH_REG1 R1
 2244 00000134 2F16                   M           MOV.L   R1,@-R15                ;PUSH=SP-4
 2245                                 M                                           ;REG=>[SP]
 2246                                 M                                           ;"-4" FF,FF,FF,FC
 2247 00000136 E011               155             MOV     #17,R0
 2248                             156             M_JMP   #_BOOT_CALL,R1
 2249 00000138 D101                   M           MOV.L   #_BOOT_CALL,R1
 2250 0000013A 412B                   M           JMP     @R1
 2251 0000013C 0009                   M           NOP
 2252                             157     
 2253                             158     ;H'240 External hardware interrupt
 2254                                     ***** BEGIN-POOL *****
 2255 0000013E 0000                       ALIGNMENT CODE
 2256 00000140 00000000                   DATA FOR SOURCE-LINE 156
 2257                                     ***** END-POOL *****
 2258 00000144                    159     _INT_Extern_0010
 2259                             160             SUB_START
 2260 00000144 4F22                   M           STS.L   PR,@-R15                ;[必要]
 2261                                 M   ;;;;;;; ADD     #-4,R15                 ;[不要?]
 2262                             161             PUSH_REG1 R0
 2263 00000146 2F06                   M           MOV.L   R0,@-R15                ;PUSH=SP-4
 2264                                 M                                           ;REG=>[SP]
*** SuperH RISC engine ASSEMBLER V.7.01.02.000 ***    11/14/21 17:05:49                                                  PAGE     8
PROGRAM NAME =

 2265                                 M                                           ;"-4" FF,FF,FF,FC
 2266                             162             PUSH_REG1 R1
 2267 00000148 2F16                   M           MOV.L   R1,@-R15                ;PUSH=SP-4
 2268                                 M                                           ;REG=>[SP]
 2269                                 M                                           ;"-4" FF,FF,FF,FC
 2270 0000014A E012               163             MOV     #18,R0
 2271                             164             M_JMP   #_BOOT_CALL,R1
 2272 0000014C D101                   M           MOV.L   #_BOOT_CALL,R1
 2273 0000014E 412B                   M           JMP     @R1
 2274 00000150 0009                   M           NOP
 2275                             165     
 2276                             166     ;H'260 External hardware interrupt
 2277                                     ***** BEGIN-POOL *****
 2278 00000152 0000                       ALIGNMENT CODE
 2279 00000154 00000000                   DATA FOR SOURCE-LINE 164
 2280                                     ***** END-POOL *****
 2281 00000158                    167     _INT_Extern_0011
 2282                             168             SUB_START
 2283 00000158 4F22                   M           STS.L   PR,@-R15                ;[必要]
 2284                                 M   ;;;;;;; ADD     #-4,R15                 ;[不要?]
 2285                             169             PUSH_REG1 R0
 2286 0000015A 2F06                   M           MOV.L   R0,@-R15                ;PUSH=SP-4
 2287                                 M                                           ;REG=>[SP]
 2288                                 M                                           ;"-4" FF,FF,FF,FC
 2289                             170             PUSH_REG1 R1
 2290 0000015C 2F16                   M           MOV.L   R1,@-R15                ;PUSH=SP-4
 2291                                 M                                           ;REG=>[SP]
 2292                                 M                                           ;"-4" FF,FF,FF,FC
 2293 0000015E E013               171             MOV     #19,R0
 2294                             172             M_JMP   #_BOOT_CALL,R1
 2295 00000160 D101                   M           MOV.L   #_BOOT_CALL,R1
 2296 00000162 412B                   M           JMP     @R1
 2297 00000164 0009                   M           NOP
 2298                             173     
 2299                             174     ;H'280 External hardware interrupt
 2300                                     ***** BEGIN-POOL *****
 2301 00000166 0000                       ALIGNMENT CODE
 2302 00000168 00000000                   DATA FOR SOURCE-LINE 172
 2303                                     ***** END-POOL *****
 2304 0000016C                    175     _INT_Extern_0100
 2305                             176             SUB_START
 2306 0000016C 4F22                   M           STS.L   PR,@-R15                ;[必要]
 2307                                 M   ;;;;;;; ADD     #-4,R15                 ;[不要?]
 2308                             177             PUSH_REG1 R0
 2309 0000016E 2F06                   M           MOV.L   R0,@-R15                ;PUSH=SP-4
 2310                                 M                                           ;REG=>[SP]
 2311                                 M                                           ;"-4" FF,FF,FF,FC
 2312                             178             PUSH_REG1 R1
 2313 00000170 2F16                   M           MOV.L   R1,@-R15                ;PUSH=SP-4
 2314                                 M                                           ;REG=>[SP]
 2315                                 M                                           ;"-4" FF,FF,FF,FC
 2316 00000172 E014               179             MOV     #20,R0
 2317                             180             M_JMP   #_BOOT_CALL,R1
 2318 00000174 D101                   M           MOV.L   #_BOOT_CALL,R1
 2319 00000176 412B                   M           JMP     @R1
 2320 00000178 0009                   M           NOP
 2321                             181     
*** SuperH RISC engine ASSEMBLER V.7.01.02.000 ***    11/14/21 17:05:49                                                  PAGE     9
PROGRAM NAME =

 2322                             182     ;H'2A0 External hardware interrupt
 2323                                     ***** BEGIN-POOL *****
 2324 0000017A 0000                       ALIGNMENT CODE
 2325 0000017C 00000000                   DATA FOR SOURCE-LINE 180
 2326                                     ***** END-POOL *****
 2327 00000180                    183     _INT_Extern_0101
 2328                             184             SUB_START
 2329 00000180 4F22                   M           STS.L   PR,@-R15                ;[必要]
 2330                                 M   ;;;;;;; ADD     #-4,R15                 ;[不要?]
 2331                             185             PUSH_REG1 R0
 2332 00000182 2F06                   M           MOV.L   R0,@-R15                ;PUSH=SP-4
 2333                                 M                                           ;REG=>[SP]
 2334                                 M                                           ;"-4" FF,FF,FF,FC
 2335                             186             PUSH_REG1 R1
 2336 00000184 2F16                   M           MOV.L   R1,@-R15                ;PUSH=SP-4
 2337                                 M                                           ;REG=>[SP]
 2338                                 M                                           ;"-4" FF,FF,FF,FC
 2339 00000186 E015               187             MOV     #21,R0
 2340                             188             M_JMP   #_BOOT_CALL,R1
 2341 00000188 D101                   M           MOV.L   #_BOOT_CALL,R1
 2342 0000018A 412B                   M           JMP     @R1
 2343 0000018C 0009                   M           NOP
 2344                             189     
 2345                             190     ;H'2C0 External hardware interrupt
 2346                                     ***** BEGIN-POOL *****
 2347 0000018E 0000                       ALIGNMENT CODE
 2348 00000190 00000000                   DATA FOR SOURCE-LINE 188
 2349                                     ***** END-POOL *****
 2350 00000194                    191     _INT_Extern_0110
 2351                             192             SUB_START
 2352 00000194 4F22                   M           STS.L   PR,@-R15                ;[必要]
 2353                                 M   ;;;;;;; ADD     #-4,R15                 ;[不要?]
 2354                             193             PUSH_REG1 R0
 2355 00000196 2F06                   M           MOV.L   R0,@-R15                ;PUSH=SP-4
 2356                                 M                                           ;REG=>[SP]
 2357                                 M                                           ;"-4" FF,FF,FF,FC
 2358                             194             PUSH_REG1 R1
 2359 00000198 2F16                   M           MOV.L   R1,@-R15                ;PUSH=SP-4
 2360                                 M                                           ;REG=>[SP]
 2361                                 M                                           ;"-4" FF,FF,FF,FC
 2362 0000019A E016               195             MOV     #22,R0
 2363                             196             M_JMP   #_BOOT_CALL,R1
 2364 0000019C D101                   M           MOV.L   #_BOOT_CALL,R1
 2365 0000019E 412B                   M           JMP     @R1
 2366 000001A0 0009                   M           NOP
 2367                             197     
 2368                             198     ;H'2E0 External hardware interrupt
 2369                                     ***** BEGIN-POOL *****
 2370 000001A2 0000                       ALIGNMENT CODE
 2371 000001A4 00000000                   DATA FOR SOURCE-LINE 196
 2372                                     ***** END-POOL *****
 2373 000001A8                    199     _INT_Extern_0111
 2374                             200             SUB_START
 2375 000001A8 4F22                   M           STS.L   PR,@-R15                ;[必要]
 2376                                 M   ;;;;;;; ADD     #-4,R15                 ;[不要?]
 2377                             201             PUSH_REG1 R0
 2378 000001AA 2F06                   M           MOV.L   R0,@-R15                ;PUSH=SP-4
*** SuperH RISC engine ASSEMBLER V.7.01.02.000 ***    11/14/21 17:05:49                                                  PAGE    10
PROGRAM NAME =

 2379                                 M                                           ;REG=>[SP]
 2380                                 M                                           ;"-4" FF,FF,FF,FC
 2381                             202             PUSH_REG1 R1
 2382 000001AC 2F16                   M           MOV.L   R1,@-R15                ;PUSH=SP-4
 2383                                 M                                           ;REG=>[SP]
 2384                                 M                                           ;"-4" FF,FF,FF,FC
 2385 000001AE E017               203             MOV     #23,R0
 2386                             204             M_JMP   #_BOOT_CALL,R1
 2387 000001B0 D101                   M           MOV.L   #_BOOT_CALL,R1
 2388 000001B2 412B                   M           JMP     @R1
 2389 000001B4 0009                   M           NOP
 2390                             205     
 2391                             206     ;H'300 External hardware interrupt
 2392                                     ***** BEGIN-POOL *****
 2393 000001B6 0000                       ALIGNMENT CODE
 2394 000001B8 00000000                   DATA FOR SOURCE-LINE 204
 2395                                     ***** END-POOL *****
 2396 000001BC                    207     _INT_Extern_1000
 2397                             208             SUB_START
 2398 000001BC 4F22                   M           STS.L   PR,@-R15                ;[必要]
 2399                                 M   ;;;;;;; ADD     #-4,R15                 ;[不要?]
 2400                             209             PUSH_REG1 R0
 2401 000001BE 2F06                   M           MOV.L   R0,@-R15                ;PUSH=SP-4
 2402                                 M                                           ;REG=>[SP]
 2403                                 M                                           ;"-4" FF,FF,FF,FC
 2404                             210             PUSH_REG1 R1
 2405 000001C0 2F16                   M           MOV.L   R1,@-R15                ;PUSH=SP-4
 2406                                 M                                           ;REG=>[SP]
 2407                                 M                                           ;"-4" FF,FF,FF,FC
 2408 000001C2 E018               211             MOV     #24,R0
 2409                             212             M_JMP   #_BOOT_CALL,R1
 2410 000001C4 D101                   M           MOV.L   #_BOOT_CALL,R1
 2411 000001C6 412B                   M           JMP     @R1
 2412 000001C8 0009                   M           NOP
 2413                             213     
 2414                             214     ;H'320 External hardware interrupt
 2415                                     ***** BEGIN-POOL *****
 2416 000001CA 0000                       ALIGNMENT CODE
 2417 000001CC 00000000                   DATA FOR SOURCE-LINE 212
 2418                                     ***** END-POOL *****
 2419 000001D0                    215     _INT_Extern_1001
 2420                             216             SUB_START
 2421 000001D0 4F22                   M           STS.L   PR,@-R15                ;[必要]
 2422                                 M   ;;;;;;; ADD     #-4,R15                 ;[不要?]
 2423                             217             PUSH_REG1 R0
 2424 000001D2 2F06                   M           MOV.L   R0,@-R15                ;PUSH=SP-4
 2425                                 M                                           ;REG=>[SP]
 2426                                 M                                           ;"-4" FF,FF,FF,FC
 2427                             218             PUSH_REG1 R1
 2428 000001D4 2F16                   M           MOV.L   R1,@-R15                ;PUSH=SP-4
 2429                                 M                                           ;REG=>[SP]
 2430                                 M                                           ;"-4" FF,FF,FF,FC
 2431 000001D6 E019               219             MOV     #25,R0
 2432                             220             M_JMP   #_BOOT_CALL,R1
 2433 000001D8 D101                   M           MOV.L   #_BOOT_CALL,R1
 2434 000001DA 412B                   M           JMP     @R1
 2435 000001DC 0009                   M           NOP
*** SuperH RISC engine ASSEMBLER V.7.01.02.000 ***    11/14/21 17:05:49                                                  PAGE    11
PROGRAM NAME =

 2436                             221     
 2437                             222     ;H'340 External hardware interrupt
 2438                                     ***** BEGIN-POOL *****
 2439 000001DE 0000                       ALIGNMENT CODE
 2440 000001E0 00000000                   DATA FOR SOURCE-LINE 220
 2441                                     ***** END-POOL *****
 2442 000001E4                    223     _INT_Extern_1010
 2443                             224             SUB_START
 2444 000001E4 4F22                   M           STS.L   PR,@-R15                ;[必要]
 2445                                 M   ;;;;;;; ADD     #-4,R15                 ;[不要?]
 2446                             225             PUSH_REG1 R0
 2447 000001E6 2F06                   M           MOV.L   R0,@-R15                ;PUSH=SP-4
 2448                                 M                                           ;REG=>[SP]
 2449                                 M                                           ;"-4" FF,FF,FF,FC
 2450                             226             PUSH_REG1 R1
 2451 000001E8 2F16                   M           MOV.L   R1,@-R15                ;PUSH=SP-4
 2452                                 M                                           ;REG=>[SP]
 2453                                 M                                           ;"-4" FF,FF,FF,FC
 2454 000001EA E01A               227             MOV     #26,R0
 2455                             228             M_JMP   #_BOOT_CALL,R1
 2456 000001EC D101                   M           MOV.L   #_BOOT_CALL,R1
 2457 000001EE 412B                   M           JMP     @R1
 2458 000001F0 0009                   M           NOP
 2459                             229     
 2460                             230     ;H'360 External hardware interrupt
 2461                                     ***** BEGIN-POOL *****
 2462 000001F2 0000                       ALIGNMENT CODE
 2463 000001F4 00000000                   DATA FOR SOURCE-LINE 228
 2464                                     ***** END-POOL *****
 2465 000001F8                    231     _INT_Extern_1011
 2466                             232             SUB_START
 2467 000001F8 4F22                   M           STS.L   PR,@-R15                ;[必要]
 2468                                 M   ;;;;;;; ADD     #-4,R15                 ;[不要?]
 2469                             233             PUSH_REG1 R0
 2470 000001FA 2F06                   M           MOV.L   R0,@-R15                ;PUSH=SP-4
 2471                                 M                                           ;REG=>[SP]
 2472                                 M                                           ;"-4" FF,FF,FF,FC
 2473                             234             PUSH_REG1 R1
 2474 000001FC 2F16                   M           MOV.L   R1,@-R15                ;PUSH=SP-4
 2475                                 M                                           ;REG=>[SP]
 2476                                 M                                           ;"-4" FF,FF,FF,FC
 2477 000001FE E01B               235             MOV     #27,R0
 2478                             236             M_JMP   #_BOOT_CALL,R1
 2479 00000200 D101                   M           MOV.L   #_BOOT_CALL,R1
 2480 00000202 412B                   M           JMP     @R1
 2481 00000204 0009                   M           NOP
 2482                             237     
 2483                             238     ;H'380 External hardware interrupt
 2484                                     ***** BEGIN-POOL *****
 2485 00000206 0000                       ALIGNMENT CODE
 2486 00000208 00000000                   DATA FOR SOURCE-LINE 236
 2487                                     ***** END-POOL *****
 2488 0000020C                    239     _INT_Extern_1100
 2489                             240             SUB_START
 2490 0000020C 4F22                   M           STS.L   PR,@-R15                ;[必要]
 2491                                 M   ;;;;;;; ADD     #-4,R15                 ;[不要?]
 2492                             241             PUSH_REG1 R0
*** SuperH RISC engine ASSEMBLER V.7.01.02.000 ***    11/14/21 17:05:49                                                  PAGE    12
PROGRAM NAME =

 2493 0000020E 2F06                   M           MOV.L   R0,@-R15                ;PUSH=SP-4
 2494                                 M                                           ;REG=>[SP]
 2495                                 M                                           ;"-4" FF,FF,FF,FC
 2496                             242             PUSH_REG1 R1
 2497 00000210 2F16                   M           MOV.L   R1,@-R15                ;PUSH=SP-4
 2498                                 M                                           ;REG=>[SP]
 2499                                 M                                           ;"-4" FF,FF,FF,FC
 2500 00000212 E01C               243             MOV     #28,R0
 2501                             244             M_JMP   #_BOOT_CALL,R1
 2502 00000214 D101                   M           MOV.L   #_BOOT_CALL,R1
 2503 00000216 412B                   M           JMP     @R1
 2504 00000218 0009                   M           NOP
 2505                             245     
 2506                             246     ;H'3A0 External hardware interrupt
 2507                                     ***** BEGIN-POOL *****
 2508 0000021A 0000                       ALIGNMENT CODE
 2509 0000021C 00000000                   DATA FOR SOURCE-LINE 244
 2510                                     ***** END-POOL *****
 2511 00000220                    247     _INT_Extern_1101
 2512                             248             SUB_START
 2513 00000220 4F22                   M           STS.L   PR,@-R15                ;[必要]
 2514                                 M   ;;;;;;; ADD     #-4,R15                 ;[不要?]
 2515                             249             PUSH_REG1 R0
 2516 00000222 2F06                   M           MOV.L   R0,@-R15                ;PUSH=SP-4
 2517                                 M                                           ;REG=>[SP]
 2518                                 M                                           ;"-4" FF,FF,FF,FC
 2519                             250             PUSH_REG1 R1
 2520 00000224 2F16                   M           MOV.L   R1,@-R15                ;PUSH=SP-4
 2521                                 M                                           ;REG=>[SP]
 2522                                 M                                           ;"-4" FF,FF,FF,FC
 2523 00000226 E01D               251             MOV     #29,R0
 2524                             252             M_JMP   #_BOOT_CALL,R1
 2525 00000228 D101                   M           MOV.L   #_BOOT_CALL,R1
 2526 0000022A 412B                   M           JMP     @R1
 2527 0000022C 0009                   M           NOP
 2528                             253     
 2529                             254     ;H'3C0 External hardware interrupt
 2530                                     ***** BEGIN-POOL *****
 2531 0000022E 0000                       ALIGNMENT CODE
 2532 00000230 00000000                   DATA FOR SOURCE-LINE 252
 2533                                     ***** END-POOL *****
 2534 00000234                    255     _INT_Extern_1110
 2535                             256             SUB_START
 2536 00000234 4F22                   M           STS.L   PR,@-R15                ;[必要]
 2537                                 M   ;;;;;;; ADD     #-4,R15                 ;[不要?]
 2538                             257             PUSH_REG1 R0
 2539 00000236 2F06                   M           MOV.L   R0,@-R15                ;PUSH=SP-4
 2540                                 M                                           ;REG=>[SP]
 2541                                 M                                           ;"-4" FF,FF,FF,FC
 2542                             258             PUSH_REG1 R1
 2543 00000238 2F16                   M           MOV.L   R1,@-R15                ;PUSH=SP-4
 2544                                 M                                           ;REG=>[SP]
 2545                                 M                                           ;"-4" FF,FF,FF,FC
 2546 0000023A E01E               259             MOV     #30,R0
 2547                             260             M_JMP   #_BOOT_CALL,R1
 2548 0000023C D101                   M           MOV.L   #_BOOT_CALL,R1
 2549 0000023E 412B                   M           JMP     @R1
*** SuperH RISC engine ASSEMBLER V.7.01.02.000 ***    11/14/21 17:05:49                                                  PAGE    13
PROGRAM NAME =

 2550 00000240 0009                   M           NOP
 2551                             261     
 2552                             262     ;H'3E0 Reserved
 2553                                     ***** BEGIN-POOL *****
 2554 00000242 0000                       ALIGNMENT CODE
 2555 00000244 00000000                   DATA FOR SOURCE-LINE 260
 2556                                     ***** END-POOL *****
 2557 00000248                    263     _INT_Reserved3E0
 2558                             264             SUB_START
 2559 00000248 4F22                   M           STS.L   PR,@-R15                ;[必要]
 2560                                 M   ;;;;;;; ADD     #-4,R15                 ;[不要?]
 2561                             265             PUSH_REG1 R0
 2562 0000024A 2F06                   M           MOV.L   R0,@-R15                ;PUSH=SP-4
 2563                                 M                                           ;REG=>[SP]
 2564                                 M                                           ;"-4" FF,FF,FF,FC
 2565                             266             PUSH_REG1 R1
 2566 0000024C 2F16                   M           MOV.L   R1,@-R15                ;PUSH=SP-4
 2567                                 M                                           ;REG=>[SP]
 2568                                 M                                           ;"-4" FF,FF,FF,FC
 2569 0000024E E01F               267             MOV     #31,R0
 2570                             268             M_JMP   #_BOOT_CALL,R1
 2571 00000250 D101                   M           MOV.L   #_BOOT_CALL,R1
 2572 00000252 412B                   M           JMP     @R1
 2573 00000254 0009                   M           NOP
 2574                             269     
 2575                             270     ;H'400 TMU0 TUNI0
 2576                                     ***** BEGIN-POOL *****
 2577 00000256 0000                       ALIGNMENT CODE
 2578 00000258 00000000                   DATA FOR SOURCE-LINE 268
 2579                                     ***** END-POOL *****
 2580 0000025C                    271     _INT_Timer_Under_0:
 2581                             272             SUB_START
 2582 0000025C 4F22                   M           STS.L   PR,@-R15                ;[必要]
 2583                                 M   ;;;;;;; ADD     #-4,R15                 ;[不要?]
 2584                             273             PUSH_REG1 R0
 2585 0000025E 2F06                   M           MOV.L   R0,@-R15                ;PUSH=SP-4
 2586                                 M                                           ;REG=>[SP]
 2587                                 M                                           ;"-4" FF,FF,FF,FC
 2588                             274             PUSH_REG1 R1
 2589 00000260 2F16                   M           MOV.L   R1,@-R15                ;PUSH=SP-4
 2590                                 M                                           ;REG=>[SP]
 2591                                 M                                           ;"-4" FF,FF,FF,FC
 2592 00000262 E020               275             MOV     #32,R0
 2593                             276             M_JMP   #_BOOT_CALL,R1
 2594 00000264 D101                   M           MOV.L   #_BOOT_CALL,R1
 2595 00000266 412B                   M           JMP     @R1
 2596 00000268 0009                   M           NOP
 2597                             277     
 2598                             278     ;H'420 TMU1 TUNI1
 2599                                     ***** BEGIN-POOL *****
 2600 0000026A 0000                       ALIGNMENT CODE
 2601 0000026C 00000000                   DATA FOR SOURCE-LINE 276
 2602                                     ***** END-POOL *****
 2603 00000270                    279     _INT_Timer_Under_1:
 2604                             280             SUB_START
 2605 00000270 4F22                   M           STS.L   PR,@-R15                ;[必要]
 2606                                 M   ;;;;;;; ADD     #-4,R15                 ;[不要?]
*** SuperH RISC engine ASSEMBLER V.7.01.02.000 ***    11/14/21 17:05:49                                                  PAGE    14
PROGRAM NAME =

 2607                             281             PUSH_REG1 R0
 2608 00000272 2F06                   M           MOV.L   R0,@-R15                ;PUSH=SP-4
 2609                                 M                                           ;REG=>[SP]
 2610                                 M                                           ;"-4" FF,FF,FF,FC
 2611                             282             PUSH_REG1 R1
 2612 00000274 2F16                   M           MOV.L   R1,@-R15                ;PUSH=SP-4
 2613                                 M                                           ;REG=>[SP]
 2614                                 M                                           ;"-4" FF,FF,FF,FC
 2615 00000276 E021               283             MOV     #33,R0
 2616                             284             M_JMP   #_BOOT_CALL,R1
 2617 00000278 D101                   M           MOV.L   #_BOOT_CALL,R1
 2618 0000027A 412B                   M           JMP     @R1
 2619 0000027C 0009                   M           NOP
 2620                             285     
 2621                             286     ;H'440 TMU2 TUNI2
 2622                                     ***** BEGIN-POOL *****
 2623 0000027E 0000                       ALIGNMENT CODE
 2624 00000280 00000000                   DATA FOR SOURCE-LINE 284
 2625                                     ***** END-POOL *****
 2626 00000284                    287     _INT_Timer_Under_2
 2627                             288             SUB_START
 2628 00000284 4F22                   M           STS.L   PR,@-R15                ;[必要]
 2629                                 M   ;;;;;;; ADD     #-4,R15                 ;[不要?]
 2630                             289             PUSH_REG1 R0
 2631 00000286 2F06                   M           MOV.L   R0,@-R15                ;PUSH=SP-4
 2632                                 M                                           ;REG=>[SP]
 2633                                 M                                           ;"-4" FF,FF,FF,FC
 2634                             290             PUSH_REG1 R1
 2635 00000288 2F16                   M           MOV.L   R1,@-R15                ;PUSH=SP-4
 2636                                 M                                           ;REG=>[SP]
 2637                                 M                                           ;"-4" FF,FF,FF,FC
 2638 0000028A E022               291             MOV     #34,R0
 2639                             292             M_JMP   #_BOOT_CALL,R1
 2640 0000028C D101                   M           MOV.L   #_BOOT_CALL,R1
 2641 0000028E 412B                   M           JMP     @R1
 2642 00000290 0009                   M           NOP
 2643                             293     
 2644                             294     ;H'460 TMU2 TICPI2
 2645                                     ***** BEGIN-POOL *****
 2646 00000292 0000                       ALIGNMENT CODE
 2647 00000294 00000000                   DATA FOR SOURCE-LINE 292
 2648                                     ***** END-POOL *****
 2649 00000298                    295     _INT_Input_Capture
 2650                             296             SUB_START
 2651 00000298 4F22                   M           STS.L   PR,@-R15                ;[必要]
 2652                                 M   ;;;;;;; ADD     #-4,R15                 ;[不要?]
 2653                             297             PUSH_REG1 R0
 2654 0000029A 2F06                   M           MOV.L   R0,@-R15                ;PUSH=SP-4
 2655                                 M                                           ;REG=>[SP]
 2656                                 M                                           ;"-4" FF,FF,FF,FC
 2657                             298             PUSH_REG1 R1
 2658 0000029C 2F16                   M           MOV.L   R1,@-R15                ;PUSH=SP-4
 2659                                 M                                           ;REG=>[SP]
 2660                                 M                                           ;"-4" FF,FF,FF,FC
 2661 0000029E E023               299             MOV     #35,R0
 2662                             300             M_JMP   #_BOOT_CALL,R1
 2663 000002A0 D101                   M           MOV.L   #_BOOT_CALL,R1
*** SuperH RISC engine ASSEMBLER V.7.01.02.000 ***    11/14/21 17:05:49                                                  PAGE    15
PROGRAM NAME =

 2664 000002A2 412B                   M           JMP     @R1
 2665 000002A4 0009                   M           NOP
 2666                             301     
 2667                             302     ;H'480 RTC ATI
 2668                                     ***** BEGIN-POOL *****
 2669 000002A6 0000                       ALIGNMENT CODE
 2670 000002A8 00000000                   DATA FOR SOURCE-LINE 300
 2671                                     ***** END-POOL *****
 2672 000002AC                    303     _INT_RTC_ATI
 2673                             304             SUB_START
 2674 000002AC 4F22                   M           STS.L   PR,@-R15                ;[必要]
 2675                                 M   ;;;;;;; ADD     #-4,R15                 ;[不要?]
 2676                             305             PUSH_REG1 R0
 2677 000002AE 2F06                   M           MOV.L   R0,@-R15                ;PUSH=SP-4
 2678                                 M                                           ;REG=>[SP]
 2679                                 M                                           ;"-4" FF,FF,FF,FC
 2680                             306             PUSH_REG1 R1
 2681 000002B0 2F16                   M           MOV.L   R1,@-R15                ;PUSH=SP-4
 2682                                 M                                           ;REG=>[SP]
 2683                                 M                                           ;"-4" FF,FF,FF,FC
 2684 000002B2 E024               307             MOV     #36,R0
 2685                             308             M_JMP   #_BOOT_CALL,R1
 2686 000002B4 D101                   M           MOV.L   #_BOOT_CALL,R1
 2687 000002B6 412B                   M           JMP     @R1
 2688 000002B8 0009                   M           NOP
 2689                             309     
 2690                             310     ;H'4A0 RTC PRI
 2691                                     ***** BEGIN-POOL *****
 2692 000002BA 0000                       ALIGNMENT CODE
 2693 000002BC 00000000                   DATA FOR SOURCE-LINE 308
 2694                                     ***** END-POOL *****
 2695 000002C0                    311     _INT_RTC_PRI
 2696                             312             SUB_START
 2697 000002C0 4F22                   M           STS.L   PR,@-R15                ;[必要]
 2698                                 M   ;;;;;;; ADD     #-4,R15                 ;[不要?]
 2699                             313             PUSH_REG1 R0
 2700 000002C2 2F06                   M           MOV.L   R0,@-R15                ;PUSH=SP-4
 2701                                 M                                           ;REG=>[SP]
 2702                                 M                                           ;"-4" FF,FF,FF,FC
 2703                             314             PUSH_REG1 R1
 2704 000002C4 2F16                   M           MOV.L   R1,@-R15                ;PUSH=SP-4
 2705                                 M                                           ;REG=>[SP]
 2706                                 M                                           ;"-4" FF,FF,FF,FC
 2707 000002C6 E025               315             MOV     #37,R0
 2708                             316             M_JMP   #_BOOT_CALL,R1
 2709 000002C8 D101                   M           MOV.L   #_BOOT_CALL,R1
 2710 000002CA 412B                   M           JMP     @R1
 2711 000002CC 0009                   M           NOP
 2712                             317     
 2713                             318     ;H'4C0 RTC CUI
 2714                                     ***** BEGIN-POOL *****
 2715 000002CE 0000                       ALIGNMENT CODE
 2716 000002D0 00000000                   DATA FOR SOURCE-LINE 316
 2717                                     ***** END-POOL *****
 2718 000002D4                    319     _INT_RTC_CUI
 2719                             320             SUB_START
 2720 000002D4 4F22                   M           STS.L   PR,@-R15                ;[必要]
*** SuperH RISC engine ASSEMBLER V.7.01.02.000 ***    11/14/21 17:05:49                                                  PAGE    16
PROGRAM NAME =

 2721                                 M   ;;;;;;; ADD     #-4,R15                 ;[不要?]
 2722                             321             PUSH_REG1 R0
 2723 000002D6 2F06                   M           MOV.L   R0,@-R15                ;PUSH=SP-4
 2724                                 M                                           ;REG=>[SP]
 2725                                 M                                           ;"-4" FF,FF,FF,FC
 2726                             322             PUSH_REG1 R1
 2727 000002D8 2F16                   M           MOV.L   R1,@-R15                ;PUSH=SP-4
 2728                                 M                                           ;REG=>[SP]
 2729                                 M                                           ;"-4" FF,FF,FF,FC
 2730 000002DA E026               323             MOV     #38,R0
 2731                             324             M_JMP   #_BOOT_CALL,R1
 2732 000002DC D101                   M           MOV.L   #_BOOT_CALL,R1
 2733 000002DE 412B                   M           JMP     @R1
 2734 000002E0 0009                   M           NOP
 2735                             325     
 2736                             326     ;H'4E0 SCI ERI
 2737                                     ***** BEGIN-POOL *****
 2738 000002E2 0000                       ALIGNMENT CODE
 2739 000002E4 00000000                   DATA FOR SOURCE-LINE 324
 2740                                     ***** END-POOL *****
 2741 000002E8                    327     _INT_SCI_ERI
 2742                             328             SUB_START
 2743 000002E8 4F22                   M           STS.L   PR,@-R15                ;[必要]
 2744                                 M   ;;;;;;; ADD     #-4,R15                 ;[不要?]
 2745                             329             PUSH_REG1 R0
 2746 000002EA 2F06                   M           MOV.L   R0,@-R15                ;PUSH=SP-4
 2747                                 M                                           ;REG=>[SP]
 2748                                 M                                           ;"-4" FF,FF,FF,FC
 2749                             330             PUSH_REG1 R1
 2750 000002EC 2F16                   M           MOV.L   R1,@-R15                ;PUSH=SP-4
 2751                                 M                                           ;REG=>[SP]
 2752                                 M                                           ;"-4" FF,FF,FF,FC
 2753 000002EE E027               331             MOV     #39,R0
 2754                             332             M_JMP   #_BOOT_CALL,R1
 2755 000002F0 D101                   M           MOV.L   #_BOOT_CALL,R1
 2756 000002F2 412B                   M           JMP     @R1
 2757 000002F4 0009                   M           NOP
 2758                             333     
 2759                             334     ;H'500 SCI RXI
 2760                                     ***** BEGIN-POOL *****
 2761 000002F6 0000                       ALIGNMENT CODE
 2762 000002F8 00000000                   DATA FOR SOURCE-LINE 332
 2763                                     ***** END-POOL *****
 2764 000002FC                    335     _INT_SCI_RXI
 2765                             336             SUB_START
 2766 000002FC 4F22                   M           STS.L   PR,@-R15                ;[必要]
 2767                                 M   ;;;;;;; ADD     #-4,R15                 ;[不要?]
 2768                             337             PUSH_REG1 R0
 2769 000002FE 2F06                   M           MOV.L   R0,@-R15                ;PUSH=SP-4
 2770                                 M                                           ;REG=>[SP]
 2771                                 M                                           ;"-4" FF,FF,FF,FC
 2772                             338             PUSH_REG1 R1
 2773 00000300 2F16                   M           MOV.L   R1,@-R15                ;PUSH=SP-4
 2774                                 M                                           ;REG=>[SP]
 2775                                 M                                           ;"-4" FF,FF,FF,FC
 2776 00000302 E028               339             MOV     #40,R0
 2777                             340             M_JMP   #_BOOT_CALL,R1
*** SuperH RISC engine ASSEMBLER V.7.01.02.000 ***    11/14/21 17:05:49                                                  PAGE    17
PROGRAM NAME =

 2778 00000304 D101                   M           MOV.L   #_BOOT_CALL,R1
 2779 00000306 412B                   M           JMP     @R1
 2780 00000308 0009                   M           NOP
 2781                             341     
 2782                             342     ;H'520 SCI TXI
 2783                                     ***** BEGIN-POOL *****
 2784 0000030A 0000                       ALIGNMENT CODE
 2785 0000030C 00000000                   DATA FOR SOURCE-LINE 340
 2786                                     ***** END-POOL *****
 2787 00000310                    343     _INT_SCI_TXI
 2788                             344             SUB_START
 2789 00000310 4F22                   M           STS.L   PR,@-R15                ;[必要]
 2790                                 M   ;;;;;;; ADD     #-4,R15                 ;[不要?]
 2791                             345             PUSH_REG1 R0
 2792 00000312 2F06                   M           MOV.L   R0,@-R15                ;PUSH=SP-4
 2793                                 M                                           ;REG=>[SP]
 2794                                 M                                           ;"-4" FF,FF,FF,FC
 2795                             346             PUSH_REG1 R1
 2796 00000314 2F16                   M           MOV.L   R1,@-R15                ;PUSH=SP-4
 2797                                 M                                           ;REG=>[SP]
 2798                                 M                                           ;"-4" FF,FF,FF,FC
 2799 00000316 E029               347             MOV     #41,R0
 2800                             348             M_JMP   #_BOOT_CALL,R1
 2801 00000318 D101                   M           MOV.L   #_BOOT_CALL,R1
 2802 0000031A 412B                   M           JMP     @R1
 2803 0000031C 0009                   M           NOP
 2804                             349     
 2805                             350     ;H'540 SCI TEI
 2806                                     ***** BEGIN-POOL *****
 2807 0000031E 0000                       ALIGNMENT CODE
 2808 00000320 00000000                   DATA FOR SOURCE-LINE 348
 2809                                     ***** END-POOL *****
 2810 00000324                    351     _INT_SCI_TEI
 2811                             352             SUB_START
 2812 00000324 4F22                   M           STS.L   PR,@-R15                ;[必要]
 2813                                 M   ;;;;;;; ADD     #-4,R15                 ;[不要?]
 2814                             353             PUSH_REG1 R0
 2815 00000326 2F06                   M           MOV.L   R0,@-R15                ;PUSH=SP-4
 2816                                 M                                           ;REG=>[SP]
 2817                                 M                                           ;"-4" FF,FF,FF,FC
 2818                             354             PUSH_REG1 R1
 2819 00000328 2F16                   M           MOV.L   R1,@-R15                ;PUSH=SP-4
 2820                                 M                                           ;REG=>[SP]
 2821                                 M                                           ;"-4" FF,FF,FF,FC
 2822 0000032A E02A               355             MOV     #42,R0
 2823                             356             M_JMP   #_BOOT_CALL,R1
 2824 0000032C D101                   M           MOV.L   #_BOOT_CALL,R1
 2825 0000032E 412B                   M           JMP     @R1
 2826 00000330 0009                   M           NOP
 2827                             357     
 2828                             358     ;H'560 WDT ITI
 2829                                     ***** BEGIN-POOL *****
 2830 00000332 0000                       ALIGNMENT CODE
 2831 00000334 00000000                   DATA FOR SOURCE-LINE 356
 2832                                     ***** END-POOL *****
 2833 00000338                    359     _INT_WDT
 2834                             360             SUB_START
*** SuperH RISC engine ASSEMBLER V.7.01.02.000 ***    11/14/21 17:05:49                                                  PAGE    18
PROGRAM NAME =

 2835 00000338 4F22                   M           STS.L   PR,@-R15                ;[必要]
 2836                                 M   ;;;;;;; ADD     #-4,R15                 ;[不要?]
 2837                             361             PUSH_REG1 R0
 2838 0000033A 2F06                   M           MOV.L   R0,@-R15                ;PUSH=SP-4
 2839                                 M                                           ;REG=>[SP]
 2840                                 M                                           ;"-4" FF,FF,FF,FC
 2841                             362             PUSH_REG1 R1
 2842 0000033C 2F16                   M           MOV.L   R1,@-R15                ;PUSH=SP-4
 2843                                 M                                           ;REG=>[SP]
 2844                                 M                                           ;"-4" FF,FF,FF,FC
 2845 0000033E E02B               363             MOV     #43,R0
 2846                             364             M_JMP   #_BOOT_CALL,R1
 2847 00000340 D101                   M           MOV.L   #_BOOT_CALL,R1
 2848 00000342 412B                   M           JMP     @R1
 2849 00000344 0009                   M           NOP
 2850                             365     
 2851                             366     ;H'580 REF RCMI
 2852                                     ***** BEGIN-POOL *****
 2853 00000346 0000                       ALIGNMENT CODE
 2854 00000348 00000000                   DATA FOR SOURCE-LINE 364
 2855                                     ***** END-POOL *****
 2856 0000034C                    367     _INT_REF_RCMI
 2857                             368             SUB_START
 2858 0000034C 4F22                   M           STS.L   PR,@-R15                ;[必要]
 2859                                 M   ;;;;;;; ADD     #-4,R15                 ;[不要?]
 2860                             369             PUSH_REG1 R0
 2861 0000034E 2F06                   M           MOV.L   R0,@-R15                ;PUSH=SP-4
 2862                                 M                                           ;REG=>[SP]
 2863                                 M                                           ;"-4" FF,FF,FF,FC
 2864                             370             PUSH_REG1 R1
 2865 00000350 2F16                   M           MOV.L   R1,@-R15                ;PUSH=SP-4
 2866                                 M                                           ;REG=>[SP]
 2867                                 M                                           ;"-4" FF,FF,FF,FC
 2868 00000352 E02C               371             MOV     #44,R0
 2869                             372             M_JMP   #_BOOT_CALL,R1
 2870 00000354 D101                   M           MOV.L   #_BOOT_CALL,R1
 2871 00000356 412B                   M           JMP     @R1
 2872 00000358 0009                   M           NOP
 2873                             373     
 2874                             374     ;H'5A0 REF ROVI
 2875                                     ***** BEGIN-POOL *****
 2876 0000035A 0000                       ALIGNMENT CODE
 2877 0000035C 00000000                   DATA FOR SOURCE-LINE 372
 2878                                     ***** END-POOL *****
 2879 00000360                    375     _INT_REF_ROVI
 2880                             376             SUB_START
 2881 00000360 4F22                   M           STS.L   PR,@-R15                ;[必要]
 2882                                 M   ;;;;;;; ADD     #-4,R15                 ;[不要?]
 2883                             377             PUSH_REG1 R0
 2884 00000362 2F06                   M           MOV.L   R0,@-R15                ;PUSH=SP-4
 2885                                 M                                           ;REG=>[SP]
 2886                                 M                                           ;"-4" FF,FF,FF,FC
 2887                             378             PUSH_REG1 R1
 2888 00000364 2F16                   M           MOV.L   R1,@-R15                ;PUSH=SP-4
 2889                                 M                                           ;REG=>[SP]
 2890                                 M                                           ;"-4" FF,FF,FF,FC
 2891 00000366 E02D               379             MOV     #45,R0
*** SuperH RISC engine ASSEMBLER V.7.01.02.000 ***    11/14/21 17:05:49                                                  PAGE    19
PROGRAM NAME =

 2892                             380             M_JMP   #_BOOT_CALL,R1
 2893 00000368 D101                   M           MOV.L   #_BOOT_CALL,R1
 2894 0000036A 412B                   M           JMP     @R1
 2895 0000036C 0009                   M           NOP
 2896                             381     
 2897                             382     ;H'5C0 Reserved
 2898                                     ***** BEGIN-POOL *****
 2899 0000036E 0000                       ALIGNMENT CODE
 2900 00000370 00000000                   DATA FOR SOURCE-LINE 380
 2901                                     ***** END-POOL *****
 2902 00000374                    383     _INT_Reserved5C0
 2903                             384             SUB_START
 2904 00000374 4F22                   M           STS.L   PR,@-R15                ;[必要]
 2905                                 M   ;;;;;;; ADD     #-4,R15                 ;[不要?]
 2906                             385             PUSH_REG1 R0
 2907 00000376 2F06                   M           MOV.L   R0,@-R15                ;PUSH=SP-4
 2908                                 M                                           ;REG=>[SP]
 2909                                 M                                           ;"-4" FF,FF,FF,FC
 2910                             386             PUSH_REG1 R1
 2911 00000378 2F16                   M           MOV.L   R1,@-R15                ;PUSH=SP-4
 2912                                 M                                           ;REG=>[SP]
 2913                                 M                                           ;"-4" FF,FF,FF,FC
 2914 0000037A E02E               387             MOV     #46,R0
 2915                             388             M_JMP   #_BOOT_CALL,R1
 2916 0000037C D101                   M           MOV.L   #_BOOT_CALL,R1
 2917 0000037E 412B                   M           JMP     @R1
 2918 00000380 0009                   M           NOP
 2919                             389     
 2920                             390     ;H'5E0 Reserved
 2921                                     ***** BEGIN-POOL *****
 2922 00000382 0000                       ALIGNMENT CODE
 2923 00000384 00000000                   DATA FOR SOURCE-LINE 388
 2924                                     ***** END-POOL *****
 2925 00000388                    391     _INT_Reserved5E0
 2926                             392             SUB_START
 2927 00000388 4F22                   M           STS.L   PR,@-R15                ;[必要]
 2928                                 M   ;;;;;;; ADD     #-4,R15                 ;[不要?]
 2929                             393             PUSH_REG1 R0
 2930 0000038A 2F06                   M           MOV.L   R0,@-R15                ;PUSH=SP-4
 2931                                 M                                           ;REG=>[SP]
 2932                                 M                                           ;"-4" FF,FF,FF,FC
 2933                             394             PUSH_REG1 R1
 2934 0000038C 2F16                   M           MOV.L   R1,@-R15                ;PUSH=SP-4
 2935                                 M                                           ;REG=>[SP]
 2936                                 M                                           ;"-4" FF,FF,FF,FC
 2937 0000038E E02F               395             MOV     #47,R0
 2938                             396             M_JMP   #_BOOT_CALL,R1
 2939 00000390 D101                   M           MOV.L   #_BOOT_CALL,R1
 2940 00000392 412B                   M           JMP     @R1
 2941 00000394 0009                   M           NOP
 2942                             397     
 2943                             398     ;H'600 Hitachi-UDI
 2944                                     ***** BEGIN-POOL *****
 2945 00000396 0000                       ALIGNMENT CODE
 2946 00000398 00000000                   DATA FOR SOURCE-LINE 396
 2947                                     ***** END-POOL *****
 2948 0000039C                    399     _INT_HUDI
*** SuperH RISC engine ASSEMBLER V.7.01.02.000 ***    11/14/21 17:05:49                                                  PAGE    20
PROGRAM NAME =

 2949                             400             SUB_START
 2950 0000039C 4F22                   M           STS.L   PR,@-R15                ;[必要]
 2951                                 M   ;;;;;;; ADD     #-4,R15                 ;[不要?]
 2952                             401             PUSH_REG1 R0
 2953 0000039E 2F06                   M           MOV.L   R0,@-R15                ;PUSH=SP-4
 2954                                 M                                           ;REG=>[SP]
 2955                                 M                                           ;"-4" FF,FF,FF,FC
 2956                             402             PUSH_REG1 R1
 2957 000003A0 2F16                   M           MOV.L   R1,@-R15                ;PUSH=SP-4
 2958                                 M                                           ;REG=>[SP]
 2959                                 M                                           ;"-4" FF,FF,FF,FC
 2960 000003A2 E030               403             MOV     #48,R0
 2961                             404             M_JMP   #_BOOT_CALL,R1
 2962 000003A4 D101                   M           MOV.L   #_BOOT_CALL,R1
 2963 000003A6 412B                   M           JMP     @R1
 2964 000003A8 0009                   M           NOP
 2965                             405     
 2966                             406     ;H'620 Reserved
 2967                                     ***** BEGIN-POOL *****
 2968 000003AA 0000                       ALIGNMENT CODE
 2969 000003AC 00000000                   DATA FOR SOURCE-LINE 404
 2970                                     ***** END-POOL *****
 2971 000003B0                    407     _INT_Reserved620
 2972                             408             SUB_START
 2973 000003B0 4F22                   M           STS.L   PR,@-R15                ;[必要]
 2974                                 M   ;;;;;;; ADD     #-4,R15                 ;[不要?]
 2975                             409             PUSH_REG1 R0
 2976 000003B2 2F06                   M           MOV.L   R0,@-R15                ;PUSH=SP-4
 2977                                 M                                           ;REG=>[SP]
 2978                                 M                                           ;"-4" FF,FF,FF,FC
 2979                             410             PUSH_REG1 R1
 2980 000003B4 2F16                   M           MOV.L   R1,@-R15                ;PUSH=SP-4
 2981                                 M                                           ;REG=>[SP]
 2982                                 M                                           ;"-4" FF,FF,FF,FC
 2983 000003B6 E031               411             MOV     #49,R0
 2984                             412             M_JMP   #_BOOT_CALL,R1
 2985 000003B8 D101                   M           MOV.L   #_BOOT_CALL,R1
 2986 000003BA 412B                   M           JMP     @R1
 2987 000003BC 0009                   M           NOP
 2988                             413     
 2989                             414     ;H'640 DMAC DMTE0
 2990                                     ***** BEGIN-POOL *****
 2991 000003BE 0000                       ALIGNMENT CODE
 2992 000003C0 00000000                   DATA FOR SOURCE-LINE 412
 2993                                     ***** END-POOL *****
 2994 000003C4                    415     _INT_DMAC_DMTE0
 2995                             416             SUB_START
 2996 000003C4 4F22                   M           STS.L   PR,@-R15                ;[必要]
 2997                                 M   ;;;;;;; ADD     #-4,R15                 ;[不要?]
 2998                             417             PUSH_REG1 R0
 2999 000003C6 2F06                   M           MOV.L   R0,@-R15                ;PUSH=SP-4
 3000                                 M                                           ;REG=>[SP]
 3001                                 M                                           ;"-4" FF,FF,FF,FC
 3002                             418             PUSH_REG1 R1
 3003 000003C8 2F16                   M           MOV.L   R1,@-R15                ;PUSH=SP-4
 3004                                 M                                           ;REG=>[SP]
 3005                                 M                                           ;"-4" FF,FF,FF,FC
*** SuperH RISC engine ASSEMBLER V.7.01.02.000 ***    11/14/21 17:05:49                                                  PAGE    21
PROGRAM NAME =

 3006 000003CA E032               419             MOV     #50,R0
 3007                             420             M_JMP   #_BOOT_CALL,R1
 3008 000003CC D101                   M           MOV.L   #_BOOT_CALL,R1
 3009 000003CE 412B                   M           JMP     @R1
 3010 000003D0 0009                   M           NOP
 3011                             421     
 3012                             422     ;H'660 DMAC DMTE1
 3013                                     ***** BEGIN-POOL *****
 3014 000003D2 0000                       ALIGNMENT CODE
 3015 000003D4 00000000                   DATA FOR SOURCE-LINE 420
 3016                                     ***** END-POOL *****
 3017 000003D8                    423     _INT_DMAC_DMTE1
 3018                             424             SUB_START
 3019 000003D8 4F22                   M           STS.L   PR,@-R15                ;[必要]
 3020                                 M   ;;;;;;; ADD     #-4,R15                 ;[不要?]
 3021                             425             PUSH_REG1 R0
 3022 000003DA 2F06                   M           MOV.L   R0,@-R15                ;PUSH=SP-4
 3023                                 M                                           ;REG=>[SP]
 3024                                 M                                           ;"-4" FF,FF,FF,FC
 3025                             426             PUSH_REG1 R1
 3026 000003DC 2F16                   M           MOV.L   R1,@-R15                ;PUSH=SP-4
 3027                                 M                                           ;REG=>[SP]
 3028                                 M                                           ;"-4" FF,FF,FF,FC
 3029 000003DE E033               427             MOV     #51,R0
 3030                             428             M_JMP   #_BOOT_CALL,R1
 3031 000003E0 D101                   M           MOV.L   #_BOOT_CALL,R1
 3032 000003E2 412B                   M           JMP     @R1
 3033 000003E4 0009                   M           NOP
 3034                             429     
 3035                             430     ;H'680 DMAC DMTE2
 3036                                     ***** BEGIN-POOL *****
 3037 000003E6 0000                       ALIGNMENT CODE
 3038 000003E8 00000000                   DATA FOR SOURCE-LINE 428
 3039                                     ***** END-POOL *****
 3040 000003EC                    431     _INT_DMAC_DMTE2
 3041                             432             SUB_START
 3042 000003EC 4F22                   M           STS.L   PR,@-R15                ;[必要]
 3043                                 M   ;;;;;;; ADD     #-4,R15                 ;[不要?]
 3044                             433             PUSH_REG1 R0
 3045 000003EE 2F06                   M           MOV.L   R0,@-R15                ;PUSH=SP-4
 3046                                 M                                           ;REG=>[SP]
 3047                                 M                                           ;"-4" FF,FF,FF,FC
 3048                             434             PUSH_REG1 R1
 3049 000003F0 2F16                   M           MOV.L   R1,@-R15                ;PUSH=SP-4
 3050                                 M                                           ;REG=>[SP]
 3051                                 M                                           ;"-4" FF,FF,FF,FC
 3052 000003F2 E034               435             MOV     #52,R0
 3053                             436             M_JMP   #_BOOT_CALL,R1
 3054 000003F4 D101                   M           MOV.L   #_BOOT_CALL,R1
 3055 000003F6 412B                   M           JMP     @R1
 3056 000003F8 0009                   M           NOP
 3057                             437     
 3058                             438     ;H'6A0 DMAC DMTE3
 3059                                     ***** BEGIN-POOL *****
 3060 000003FA 0000                       ALIGNMENT CODE
 3061 000003FC 00000000                   DATA FOR SOURCE-LINE 436
 3062                                     ***** END-POOL *****
*** SuperH RISC engine ASSEMBLER V.7.01.02.000 ***    11/14/21 17:05:49                                                  PAGE    22
PROGRAM NAME =

 3063 00000400                    439     _INT_DMAC_DMTE3
 3064                             440             SUB_START
 3065 00000400 4F22                   M           STS.L   PR,@-R15                ;[必要]
 3066                                 M   ;;;;;;; ADD     #-4,R15                 ;[不要?]
 3067                             441             PUSH_REG1 R0
 3068 00000402 2F06                   M           MOV.L   R0,@-R15                ;PUSH=SP-4
 3069                                 M                                           ;REG=>[SP]
 3070                                 M                                           ;"-4" FF,FF,FF,FC
 3071                             442             PUSH_REG1 R1
 3072 00000404 2F16                   M           MOV.L   R1,@-R15                ;PUSH=SP-4
 3073                                 M                                           ;REG=>[SP]
 3074                                 M                                           ;"-4" FF,FF,FF,FC
 3075 00000406 E035               443             MOV     #53,R0
 3076                             444             M_JMP   #_BOOT_CALL,R1
 3077 00000408 D101                   M           MOV.L   #_BOOT_CALL,R1
 3078 0000040A 412B                   M           JMP     @R1
 3079 0000040C 0009                   M           NOP
 3080                             445     
 3081                             446     ;H'6C0 DMAC DMAE
 3082                                     ***** BEGIN-POOL *****
 3083 0000040E 0000                       ALIGNMENT CODE
 3084 00000410 00000000                   DATA FOR SOURCE-LINE 444
 3085                                     ***** END-POOL *****
 3086 00000414                    447     _INT_DMAC_DMAE
 3087                             448             SUB_START
 3088 00000414 4F22                   M           STS.L   PR,@-R15                ;[必要]
 3089                                 M   ;;;;;;; ADD     #-4,R15                 ;[不要?]
 3090                             449             PUSH_REG1 R0
 3091 00000416 2F06                   M           MOV.L   R0,@-R15                ;PUSH=SP-4
 3092                                 M                                           ;REG=>[SP]
 3093                                 M                                           ;"-4" FF,FF,FF,FC
 3094                             450             PUSH_REG1 R1
 3095 00000418 2F16                   M           MOV.L   R1,@-R15                ;PUSH=SP-4
 3096                                 M                                           ;REG=>[SP]
 3097                                 M                                           ;"-4" FF,FF,FF,FC
 3098 0000041A E036               451             MOV     #54,R0
 3099                             452             M_JMP   #_BOOT_CALL,R1
 3100 0000041C D101                   M           MOV.L   #_BOOT_CALL,R1
 3101 0000041E 412B                   M           JMP     @R1
 3102 00000420 0009                   M           NOP
 3103                             453     
 3104                             454     ;H'6E0 Reserved
 3105                                     ***** BEGIN-POOL *****
 3106 00000422 0000                       ALIGNMENT CODE
 3107 00000424 00000000                   DATA FOR SOURCE-LINE 452
 3108                                     ***** END-POOL *****
 3109 00000428                    455     _INT_Reserved6E0
 3110                             456             SUB_START
 3111 00000428 4F22                   M           STS.L   PR,@-R15                ;[必要]
 3112                                 M   ;;;;;;; ADD     #-4,R15                 ;[不要?]
 3113                             457             PUSH_REG1 R0
 3114 0000042A 2F06                   M           MOV.L   R0,@-R15                ;PUSH=SP-4
 3115                                 M                                           ;REG=>[SP]
 3116                                 M                                           ;"-4" FF,FF,FF,FC
 3117                             458             PUSH_REG1 R1
 3118 0000042C 2F16                   M           MOV.L   R1,@-R15                ;PUSH=SP-4
 3119                                 M                                           ;REG=>[SP]
*** SuperH RISC engine ASSEMBLER V.7.01.02.000 ***    11/14/21 17:05:49                                                  PAGE    23
PROGRAM NAME =

 3120                                 M                                           ;"-4" FF,FF,FF,FC
 3121 0000042E E037               459             MOV     #55,R0
 3122                             460             M_JMP   #_BOOT_CALL,R1
 3123 00000430 D101                   M           MOV.L   #_BOOT_CALL,R1
 3124 00000432 412B                   M           JMP     @R1
 3125 00000434 0009                   M           NOP
 3126                             461     
 3127                             462     ;H'700 SCIF ERI
 3128                                     ***** BEGIN-POOL *****
 3129 00000436 0000                       ALIGNMENT CODE
 3130 00000438 00000000                   DATA FOR SOURCE-LINE 460
 3131                                     ***** END-POOL *****
 3132 0000043C                    463     _INT_SCIF_ERI
 3133                             464             SUB_START
 3134 0000043C 4F22                   M           STS.L   PR,@-R15                ;[必要]
 3135                                 M   ;;;;;;; ADD     #-4,R15                 ;[不要?]
 3136                             465             PUSH_REG1 R0
 3137 0000043E 2F06                   M           MOV.L   R0,@-R15                ;PUSH=SP-4
 3138                                 M                                           ;REG=>[SP]
 3139                                 M                                           ;"-4" FF,FF,FF,FC
 3140                             466             PUSH_REG1 R1
 3141 00000440 2F16                   M           MOV.L   R1,@-R15                ;PUSH=SP-4
 3142                                 M                                           ;REG=>[SP]
 3143                                 M                                           ;"-4" FF,FF,FF,FC
 3144 00000442 E038               467             MOV     #56,R0
 3145                             468             M_JMP   #_BOOT_CALL,R1
 3146 00000444 D101                   M           MOV.L   #_BOOT_CALL,R1
 3147 00000446 412B                   M           JMP     @R1
 3148 00000448 0009                   M           NOP
 3149                             469     
 3150                             470     ;H'720 SCIF RXI
 3151                                     ***** BEGIN-POOL *****
 3152 0000044A 0000                       ALIGNMENT CODE
 3153 0000044C 00000000                   DATA FOR SOURCE-LINE 468
 3154                                     ***** END-POOL *****
 3155 00000450                    471     _INT_SCIF_RXI
 3156                             472             SUB_START
 3157 00000450 4F22                   M           STS.L   PR,@-R15                ;[必要]
 3158                                 M   ;;;;;;; ADD     #-4,R15                 ;[不要?]
 3159                             473             PUSH_REG1 R0
 3160 00000452 2F06                   M           MOV.L   R0,@-R15                ;PUSH=SP-4
 3161                                 M                                           ;REG=>[SP]
 3162                                 M                                           ;"-4" FF,FF,FF,FC
 3163                             474             PUSH_REG1 R1
 3164 00000454 2F16                   M           MOV.L   R1,@-R15                ;PUSH=SP-4
 3165                                 M                                           ;REG=>[SP]
 3166                                 M                                           ;"-4" FF,FF,FF,FC
 3167 00000456 E039               475             MOV     #57,R0
 3168                             476             M_JMP   #_BOOT_CALL,R1
 3169 00000458 D101                   M           MOV.L   #_BOOT_CALL,R1
 3170 0000045A 412B                   M           JMP     @R1
 3171 0000045C 0009                   M           NOP
 3172                             477     
 3173                             478     ;H'740 SCIF BRI
 3174                                     ***** BEGIN-POOL *****
 3175 0000045E 0000                       ALIGNMENT CODE
 3176 00000460 00000000                   DATA FOR SOURCE-LINE 476
*** SuperH RISC engine ASSEMBLER V.7.01.02.000 ***    11/14/21 17:05:49                                                  PAGE    24
PROGRAM NAME =

 3177                                     ***** END-POOL *****
 3178 00000464                    479     _INT_SCIF_BRI
 3179                             480             SUB_START
 3180 00000464 4F22                   M           STS.L   PR,@-R15                ;[必要]
 3181                                 M   ;;;;;;; ADD     #-4,R15                 ;[不要?]
 3182                             481             PUSH_REG1 R0
 3183 00000466 2F06                   M           MOV.L   R0,@-R15                ;PUSH=SP-4
 3184                                 M                                           ;REG=>[SP]
 3185                                 M                                           ;"-4" FF,FF,FF,FC
 3186                             482             PUSH_REG1 R1
 3187 00000468 2F16                   M           MOV.L   R1,@-R15                ;PUSH=SP-4
 3188                                 M                                           ;REG=>[SP]
 3189                                 M                                           ;"-4" FF,FF,FF,FC
 3190 0000046A E03A               483             MOV     #58,R0
 3191                             484             M_JMP   #_BOOT_CALL,R1
 3192 0000046C D101                   M           MOV.L   #_BOOT_CALL,R1
 3193 0000046E 412B                   M           JMP     @R1
 3194 00000470 0009                   M           NOP
 3195                             485     
 3196                             486     ;H'760 SCIF TXI
 3197                                     ***** BEGIN-POOL *****
 3198 00000472 0000                       ALIGNMENT CODE
 3199 00000474 00000000                   DATA FOR SOURCE-LINE 484
 3200                                     ***** END-POOL *****
 3201 00000478                    487     _INT_SCIF_TXI
 3202                             488             SUB_START
 3203 00000478 4F22                   M           STS.L   PR,@-R15                ;[必要]
 3204                                 M   ;;;;;;; ADD     #-4,R15                 ;[不要?]
 3205                             489             PUSH_REG1 R0
 3206 0000047A 2F06                   M           MOV.L   R0,@-R15                ;PUSH=SP-4
 3207                                 M                                           ;REG=>[SP]
 3208                                 M                                           ;"-4" FF,FF,FF,FC
 3209                             490             PUSH_REG1 R1
 3210 0000047C 2F16                   M           MOV.L   R1,@-R15                ;PUSH=SP-4
 3211                                 M                                           ;REG=>[SP]
 3212                                 M                                           ;"-4" FF,FF,FF,FC
 3213 0000047E E03B               491             MOV     #59,R0
 3214                             492             M_JMP   #_BOOT_CALL,R1
 3215 00000480 D101                   M           MOV.L   #_BOOT_CALL,R1
 3216 00000482 412B                   M           JMP     @R1
 3217 00000484 0009                   M           NOP
 3218                             493     
 3219                             494     ;H'780 Reserved
 3220                                     ***** BEGIN-POOL *****
 3221 00000486 0000                       ALIGNMENT CODE
 3222 00000488 00000000                   DATA FOR SOURCE-LINE 492
 3223                                     ***** END-POOL *****
 3224 0000048C                    495     _INT_Reserved780
 3225                             496             SUB_START
 3226 0000048C 4F22                   M           STS.L   PR,@-R15                ;[必要]
 3227                                 M   ;;;;;;; ADD     #-4,R15                 ;[不要?]
 3228                             497             PUSH_REG1 R0
 3229 0000048E 2F06                   M           MOV.L   R0,@-R15                ;PUSH=SP-4
 3230                                 M                                           ;REG=>[SP]
 3231                                 M                                           ;"-4" FF,FF,FF,FC
 3232                             498             PUSH_REG1 R1
 3233 00000490 2F16                   M           MOV.L   R1,@-R15                ;PUSH=SP-4
*** SuperH RISC engine ASSEMBLER V.7.01.02.000 ***    11/14/21 17:05:49                                                  PAGE    25
PROGRAM NAME =

 3234                                 M                                           ;REG=>[SP]
 3235                                 M                                           ;"-4" FF,FF,FF,FC
 3236 00000492 E03C               499             MOV     #60,R0
 3237                             500             M_JMP   #_BOOT_CALL,R1
 3238 00000494 D101                   M           MOV.L   #_BOOT_CALL,R1
 3239 00000496 412B                   M           JMP     @R1
 3240 00000498 0009                   M           NOP
 3241                             501     
 3242                             502     ;H'7A0 Reserved
 3243                                     ***** BEGIN-POOL *****
 3244 0000049A 0000                       ALIGNMENT CODE
 3245 0000049C 00000000                   DATA FOR SOURCE-LINE 500
 3246                                     ***** END-POOL *****
 3247 000004A0                    503     _INT_Reserved7A0
 3248                             504             SUB_START
 3249 000004A0 4F22                   M           STS.L   PR,@-R15                ;[必要]
 3250                                 M   ;;;;;;; ADD     #-4,R15                 ;[不要?]
 3251                             505             PUSH_REG1 R0
 3252 000004A2 2F06                   M           MOV.L   R0,@-R15                ;PUSH=SP-4
 3253                                 M                                           ;REG=>[SP]
 3254                                 M                                           ;"-4" FF,FF,FF,FC
 3255                             506             PUSH_REG1 R1
 3256 000004A4 2F16                   M           MOV.L   R1,@-R15                ;PUSH=SP-4
 3257                                 M                                           ;REG=>[SP]
 3258                                 M                                           ;"-4" FF,FF,FF,FC
 3259 000004A6 E03D               507             MOV     #61,R0
 3260                             508             M_JMP   #_BOOT_CALL,R1
 3261 000004A8 D101                   M           MOV.L   #_BOOT_CALL,R1
 3262 000004AA 412B                   M           JMP     @R1
 3263 000004AC 0009                   M           NOP
 3264                             509     
 3265                             510     ;H'7C0 Reserved
 3266                                     ***** BEGIN-POOL *****
 3267 000004AE 0000                       ALIGNMENT CODE
 3268 000004B0 00000000                   DATA FOR SOURCE-LINE 508
 3269                                     ***** END-POOL *****
 3270 000004B4                    511     _INT_Reserved7C0
 3271                             512             SUB_START
 3272 000004B4 4F22                   M           STS.L   PR,@-R15                ;[必要]
 3273                                 M   ;;;;;;; ADD     #-4,R15                 ;[不要?]
 3274                             513             PUSH_REG1 R0
 3275 000004B6 2F06                   M           MOV.L   R0,@-R15                ;PUSH=SP-4
 3276                                 M                                           ;REG=>[SP]
 3277                                 M                                           ;"-4" FF,FF,FF,FC
 3278                             514             PUSH_REG1 R1
 3279 000004B8 2F16                   M           MOV.L   R1,@-R15                ;PUSH=SP-4
 3280                                 M                                           ;REG=>[SP]
 3281                                 M                                           ;"-4" FF,FF,FF,FC
 3282 000004BA E03E               515             MOV     #62,R0
 3283                             516             M_JMP   #_BOOT_CALL,R1
 3284 000004BC D101                   M           MOV.L   #_BOOT_CALL,R1
 3285 000004BE 412B                   M           JMP     @R1
 3286 000004C0 0009                   M           NOP
 3287                             517     
 3288                             518     ;H'7E0 Reserved
 3289                                     ***** BEGIN-POOL *****
 3290 000004C2 0000                       ALIGNMENT CODE
*** SuperH RISC engine ASSEMBLER V.7.01.02.000 ***    11/14/21 17:05:49                                                  PAGE    26
PROGRAM NAME =

 3291 000004C4 00000000                   DATA FOR SOURCE-LINE 516
 3292                                     ***** END-POOL *****
 3293 000004C8                    519     _INT_Reserved7E0
 3294                             520             SUB_START
 3295 000004C8 4F22                   M           STS.L   PR,@-R15                ;[必要]
 3296                                 M   ;;;;;;; ADD     #-4,R15                 ;[不要?]
 3297                             521             PUSH_REG1 R0
 3298 000004CA 2F06                   M           MOV.L   R0,@-R15                ;PUSH=SP-4
 3299                                 M                                           ;REG=>[SP]
 3300                                 M                                           ;"-4" FF,FF,FF,FC
 3301                             522             PUSH_REG1 R1
 3302 000004CC 2F16                   M           MOV.L   R1,@-R15                ;PUSH=SP-4
 3303                                 M                                           ;REG=>[SP]
 3304                                 M                                           ;"-4" FF,FF,FF,FC
 3305 000004CE E03F               523             MOV     #63,R0
 3306                             524             M_JMP   #_BOOT_CALL,R1
 3307 000004D0 D101                   M           MOV.L   #_BOOT_CALL,R1
 3308 000004D2 412B                   M           JMP     @R1
 3309 000004D4 0009                   M           NOP
 3310                             525     
 3311                             526     ;H'800 Illegal FPU
 3312                                     ***** BEGIN-POOL *****
 3313 000004D6 0000                       ALIGNMENT CODE
 3314 000004D8 00000000                   DATA FOR SOURCE-LINE 524
 3315                                     ***** END-POOL *****
 3316 000004DC                    527     _INT_Illegal_FPU
 3317                             528             SUB_START
 3318 000004DC 4F22                   M           STS.L   PR,@-R15                ;[必要]
 3319                                 M   ;;;;;;; ADD     #-4,R15                 ;[不要?]
 3320                             529             PUSH_REG1 R0
 3321 000004DE 2F06                   M           MOV.L   R0,@-R15                ;PUSH=SP-4
 3322                                 M                                           ;REG=>[SP]
 3323                                 M                                           ;"-4" FF,FF,FF,FC
 3324                             530             PUSH_REG1 R1
 3325 000004E0 2F16                   M           MOV.L   R1,@-R15                ;PUSH=SP-4
 3326                                 M                                           ;REG=>[SP]
 3327                                 M                                           ;"-4" FF,FF,FF,FC
 3328 000004E2 E040               531             MOV     #64,R0
 3329                             532             M_JMP   #_BOOT_CALL,R1
 3330 000004E4 D101                   M           MOV.L   #_BOOT_CALL,R1
 3331 000004E6 412B                   M           JMP     @R1
 3332 000004E8 0009                   M           NOP
 3333                             533     
 3334                             534     ;H'820 Illegal slot FPU
 3335                                     ***** BEGIN-POOL *****
 3336 000004EA 0000                       ALIGNMENT CODE
 3337 000004EC 00000000                   DATA FOR SOURCE-LINE 532
 3338                                     ***** END-POOL *****
 3339 000004F0                    535     _INT_Illegal_slot_FPU
 3340                             536             SUB_START
 3341 000004F0 4F22                   M           STS.L   PR,@-R15                ;[必要]
 3342                                 M   ;;;;;;; ADD     #-4,R15                 ;[不要?]
 3343                             537             PUSH_REG1 R0
 3344 000004F2 2F06                   M           MOV.L   R0,@-R15                ;PUSH=SP-4
 3345                                 M                                           ;REG=>[SP]
 3346                                 M                                           ;"-4" FF,FF,FF,FC
 3347                             538             PUSH_REG1 R1
*** SuperH RISC engine ASSEMBLER V.7.01.02.000 ***    11/14/21 17:05:49                                                  PAGE    27
PROGRAM NAME =

 3348 000004F4 2F16                   M           MOV.L   R1,@-R15                ;PUSH=SP-4
 3349                                 M                                           ;REG=>[SP]
 3350                                 M                                           ;"-4" FF,FF,FF,FC
 3351 000004F6 E041               539             MOV     #65,R0
 3352                             540             M_JMP   #_BOOT_CALL,R1
 3353 000004F8 D101                   M           MOV.L   #_BOOT_CALL,R1
 3354 000004FA 412B                   M           JMP     @R1
 3355 000004FC 0009                   M           NOP
 3356                             541     
 3357                                     ***** BEGIN-POOL *****
 3358 000004FE 0000                       ALIGNMENT CODE
 3359 00000500 00000000                   DATA FOR SOURCE-LINE 540
 3360                                     ***** END-POOL *****
 3361 00000504 001B               542         sleep
 3362 00000506 0009               543         nop
 3363                             544         .end
  *****TOTAL ERRORS       0
  *****TOTAL WARNINGS     0
*** SuperH RISC engine ASSEMBLER V.7.01.02.000 ***    11/14/21 17:05:49                                                  PAGE    28

*** CROSS REFERENCE LIST

NAME                             SECTION  ATTR VALUE             SEQUENCE

BIT0                                      EQU  00000001   1607*
BIT1                                      EQU  00000002   1608*
BIT10                                     EQU  00000400   1617*
BIT11                                     EQU  00000800   1618*
BIT12                                     EQU  00001000   1619*
BIT13                                     EQU  00002000   1620*
BIT14                                     EQU  00004000   1621*
BIT15                                     EQU  00008000   1622*
BIT16                                     EQU  00010000   1623*
BIT17                                     EQU  00020000   1624*
BIT18                                     EQU  00040000   1625*
BIT19                                     EQU  00080000   1626*
BIT2                                      EQU  00000004   1609*
BIT20                                     EQU  00100000   1627*
BIT21                                     EQU  00200000   1628*
BIT22                                     EQU  00400000   1629*
BIT23                                     EQU  00800000   1630*
BIT24                                     EQU  01000000   1631*
BIT25                                     EQU  02000000   1632*
BIT26                                     EQU  04000000   1633*
BIT27                                     EQU  08000000   1634*
BIT28                                     EQU  10000000   1635*
BIT29                                     EQU  20000000   1636*
BIT3                                      EQU  00000008   1610*
BIT30                                     EQU  40000000   1637*
BIT31                                     EQU  80000000   1638*
BIT4                                      EQU  00000010   1611*
BIT5                                      EQU  00000020   1612*
BIT6                                      EQU  00000040   1613*
BIT7                                      EQU  00000080   1614*
BIT8                                      EQU  00000100   1615*
BIT9                                      EQU  00000200   1616*
H_BYTE                                    EQU  00000000   1674*
IntPRG                           IntPRG   SCT  00000000   1880*
L_BYTE                                    EQU  00000001   1673*
NBIT0                                     EQU  000000FE   1641*
NBIT1                                     EQU  000000FD   1642*
NBIT10                                    EQU  0000FBFF   1652*
NBIT11                                    EQU  0000F7FF   1653*
NBIT12                                    EQU  0000EFFF   1654*
NBIT13                                    EQU  0000DFFF   1655*
NBIT14                                    EQU  0000BFFF   1656*
NBIT15                                    EQU  00007FFF   1657*
NBIT2                                     EQU  000000FB   1643*
NBIT3                                     EQU  000000F7   1644*
NBIT4                                     EQU  000000EF   1645*
NBIT5                                     EQU  000000DF   1646*
NBIT6                                     EQU  000000BF   1647*
NBIT7                                     EQU  0000007F   1648*
NBIT8                                     EQU  0000FEFF   1650*
NBIT9                                     EQU  0000FDFF   1651*
SR_Init                                   EQU  000000F0     27*
SR_Init_DI                                EQU  400000F0     28*
XBIT0                                     EQU  00000000   1660*
*** SuperH RISC engine ASSEMBLER V.7.01.02.000 ***    11/14/21 17:05:49                                                  PAGE    29

*** CROSS REFERENCE LIST

NAME                             SECTION  ATTR VALUE             SEQUENCE

XBIT1                                     EQU  00000001   1661*
XBIT2                                     EQU  00000002   1662*
XBIT3                                     EQU  00000003   1663*
XBIT4                                     EQU  00000004   1664*
XBIT5                                     EQU  00000005   1665*
XBIT6                                     EQU  00000006   1666*
XBIT7                                     EQU  00000007   1667*
_BAMRA                                    IMPT 00000000   1505 
_BAMRB                                    IMPT 00000000   1508 
_BARA                                     IMPT 00000000   1504 
_BARB                                     IMPT 00000000   1507 
_BASRA                                    IMPT 00000000   1493 
_BASRB                                    IMPT 00000000   1494 
_BBRA                                     IMPT 00000000   1506 
_BBRB                                     IMPT 00000000   1509 
_BCR1                                     IMPT 00000000   1515 
_BCR2                                     IMPT 00000000   1516 
_BDMRB                                    IMPT 00000000   1511 
_BDRB                                     IMPT 00000000   1510 
_BOOT_CALL                                IMPT 00000000   1878  1904  1927  1950  1973  1996  2019  2042  2065  2088  2111  2134 
                                                          2157  2180  2203  2226  2249  2272  2295  2318  2341  2364  2387  2410 
                                                          2433  2456  2479  2502  2525  2548  2571  2594  2617  2640  2663  2686 
                                                          2709  2732  2755  2778  2801  2824  2847  2870  2893  2916  2939  2962 
                                                          2985  3008  3031  3054  3077  3100  3123  3146  3169  3192  3215  3238 
                                                          3261  3284  3307  3330  3353 
_BRCR                                     IMPT 00000000   1512 
_CB_BAKUP_CMD1                            EQU  00005678   1706*
_CB_BAKUP_CMD2                            EQU  00001234   1707*
_CB_BAK_SUM_COD1                          EQU  5AA51234   1704*
_CB_BAK_SUM_COD2                          EQU  A55A4321   1705*
_CB_ERR_INFO_MEM                          EQU  00000080   1730*
_CB_ERR_INFO_PSIZE                        EQU  00000008   1731*
_CB_STS_BUF_1BLK                          EQU  00000040   1709* 1711 
_CB_STS_BUF_BLKMAX                        EQU  00000008   1710* 1711 
_CB_STS_BUF_MAX                           EQU  00000200   1711*
_CB_TRD_BEFORE                            EQU  00000060   1719*
_CB_TRD_BUF_DP_MAX                        EQU  00000080   1723*
_CB_TRD_BUF_MAX                           EQU  00000800   1720*
_CB_TRD_DP_1CNT                           EQU  00000008   1722*
_CB_TRD_DP_CH                             EQU  00000004   1715*
_CB_TRD_SMP_CNT                           EQU  00000080   1718*
_CCR                                      IMPT 00000000   1495 
_CHCR0                                    IMPT 00000000   1536 
_CHCR1                                    IMPT 00000000   1540 
_CHCR2                                    IMPT 00000000   1544 
_CHCR3                                    IMPT 00000000   1548 
_DAR0                                     IMPT 00000000   1534 
_DAR1                                     IMPT 00000000   1538 
_DAR2                                     IMPT 00000000   1542 
_DAR3                                     IMPT 00000000   1546 
_DMAOR                                    IMPT 00000000   1549 
_DMATCR0                                  IMPT 00000000   1535 
_DMATCR1                                  IMPT 00000000   1539 
_DMATCR2                                  IMPT 00000000   1543 
*** SuperH RISC engine ASSEMBLER V.7.01.02.000 ***    11/14/21 17:05:49                                                  PAGE    30

*** CROSS REFERENCE LIST

NAME                             SECTION  ATTR VALUE             SEQUENCE

_DMATCR3                                  IMPT 00000000   1547 
_DUMMY_SUM_CODE                           EQU  5AA53CC3   1697*
_EXPEVT                                   IMPT 00000000   1497 
_FRQCR                                    IMPT 00000000   1552 
_GPIOIC                                   IMPT 00000000   1530 
_ICR                                      IMPT 00000000   1559 
_INTEVT                                   IMPT 00000000   1498 
_INT_Address_load                IntPRG   EXPT 00000068     54  2005*
_INT_Address_store               IntPRG   EXPT 0000007C     56  2028*
_INT_DMAC_DMAE                   IntPRG   EXPT 00000414    148  3086*
_INT_DMAC_DMTE0                  IntPRG   EXPT 000003C4    140  2994*
_INT_DMAC_DMTE1                  IntPRG   EXPT 000003D8    142  3017*
_INT_DMAC_DMTE2                  IntPRG   EXPT 000003EC    144  3040*
_INT_DMAC_DMTE3                  IntPRG   EXPT 00000400    146  3063*
_INT_Extern_0000                 IntPRG   EXPT 0000011C     72  2212*
_INT_Extern_0001                 IntPRG   EXPT 00000130     74  2235*
_INT_Extern_0010                 IntPRG   EXPT 00000144     76  2258*
_INT_Extern_0011                 IntPRG   EXPT 00000158     78  2281*
_INT_Extern_0100                 IntPRG   EXPT 0000016C     80  2304*
_INT_Extern_0101                 IntPRG   EXPT 00000180     82  2327*
_INT_Extern_0110                 IntPRG   EXPT 00000194     84  2350*
_INT_Extern_0111                 IntPRG   EXPT 000001A8     86  2373*
_INT_Extern_1000                 IntPRG   EXPT 000001BC     88  2396*
_INT_Extern_1001                 IntPRG   EXPT 000001D0     90  2419*
_INT_Extern_1010                 IntPRG   EXPT 000001E4     92  2442*
_INT_Extern_1011                 IntPRG   EXPT 000001F8     94  2465*
_INT_Extern_1100                 IntPRG   EXPT 0000020C     96  2488*
_INT_Extern_1101                 IntPRG   EXPT 00000220     98  2511*
_INT_Extern_1110                 IntPRG   EXPT 00000234    100  2534*
_INT_FPU                         IntPRG   EXPT 00000090     58  2051*
_INT_HUDI                        IntPRG   EXPT 0000039C    136  2948*
_INT_Illegal_FPU                 IntPRG   EXPT 000004DC    168  3316*
_INT_Illegal_code                IntPRG   EXPT 000000CC     64  2120*
_INT_Illegal_slot                IntPRG   EXPT 000000E0     66  2143*
_INT_Illegal_slot_FPU            IntPRG   EXPT 000004F0    170  3339*
_INT_Input_Capture               IntPRG   EXPT 00000298    110  2649*
_INT_NMI                         IntPRG   EXPT 000000F4     68  2166*
_INT_REF_RCMI                    IntPRG   EXPT 0000034C    128  2856*
_INT_REF_ROVI                    IntPRG   EXPT 00000360    130  2879*
_INT_RTC_ATI                     IntPRG   EXPT 000002AC    112  2672*
_INT_RTC_CUI                     IntPRG   EXPT 000002D4    116  2718*
_INT_RTC_PRI                     IntPRG   EXPT 000002C0    114  2695*
_INT_Reserved140                 IntPRG   EXPT 000000A4     60  2074*
_INT_Reserved3E0                 IntPRG   EXPT 00000248    102  2557*
_INT_Reserved5C0                 IntPRG   EXPT 00000374    132  2902*
_INT_Reserved5E0                 IntPRG   EXPT 00000388    134  2925*
_INT_Reserved620                 IntPRG   EXPT 000003B0    138  2971*
_INT_Reserved6E0                 IntPRG   EXPT 00000428    150  3109*
_INT_Reserved780                 IntPRG   EXPT 0000048C    160  3224*
_INT_Reserved7A0                 IntPRG   EXPT 000004A0    162  3247*
_INT_Reserved7C0                 IntPRG   EXPT 000004B4    164  3270*
_INT_Reserved7E0                 IntPRG   EXPT 000004C8    166  3293*
_INT_SCIF_BRI                    IntPRG   EXPT 00000464    156  3178*
_INT_SCIF_ERI                    IntPRG   EXPT 0000043C    152  3132*
*** SuperH RISC engine ASSEMBLER V.7.01.02.000 ***    11/14/21 17:05:49                                                  PAGE    31

*** CROSS REFERENCE LIST

NAME                             SECTION  ATTR VALUE             SEQUENCE

_INT_SCIF_RXI                    IntPRG   EXPT 00000450    154  3155*
_INT_SCIF_TXI                    IntPRG   EXPT 00000478    158  3201*
_INT_SCI_ERI                     IntPRG   EXPT 000002E8    118  2741*
_INT_SCI_RXI                     IntPRG   EXPT 000002FC    120  2764*
_INT_SCI_TEI                     IntPRG   EXPT 00000324    124  2810*
_INT_SCI_TXI                     IntPRG   EXPT 00000310    122  2787*
_INT_TLBInitial_Page             IntPRG   EXPT 0000002C     48  1936*
_INT_TLBMiss_Load                IntPRG   EXPT 00000004     44  1890*
_INT_TLBMiss_Store               IntPRG   EXPT 00000018     46  1913*
_INT_TLBProtect_Load             IntPRG   EXPT 00000040     50  1959*
_INT_TLBProtect_Store            IntPRG   EXPT 00000054     52  1982*
_INT_TRAPA                       IntPRG   EXPT 000000B8     62  2097*
_INT_Timer_Under_0               IntPRG   EXPT 0000025C    104  2580*
_INT_Timer_Under_1               IntPRG   EXPT 00000270    106  2603*
_INT_Timer_Under_2               IntPRG   EXPT 00000284    108  2626*
_INT_User_Break                  IntPRG   EXPT 00000108     70  2189*
_INT_WDT                         IntPRG   EXPT 00000338    126  2833*
_IPRA                                     IMPT 00000000   1560 
_IPRB                                     IMPT 00000000   1561 
_IPRC                                     IMPT 00000000   1562 
_IPRD                                     IMPT 00000000   1563 
_MCR                                      IMPT 00000000   1520 
_MMUCR                                    IMPT 00000000   1492 
_Manual_Reset                             IMPT 00000000     36 
_PCR                                      IMPT 00000000   1521 
_PCTRA                                    IMPT 00000000   1526 
_PCTRB                                    IMPT 00000000   1528 
_PDTRA                                    IMPT 00000000   1527 
_PDTRB                                    IMPT 00000000   1529 
_PTEA                                     IMPT 00000000   1499 
_PTEH                                     IMPT 00000000   1488 
_PTEL                                     IMPT 00000000   1489 
_PowerON_Reset                            IMPT 00000000     32 
_QACR0                                    IMPT 00000000   1500 
_QACR1                                    IMPT 00000000   1501 
_RFCR                                     IMPT 00000000   1525 
_RTCNT                                    IMPT 00000000   1523 
_RTCOR                                    IMPT 00000000   1524 
_RTCSR                                    IMPT 00000000   1522 
_SAR0                                     IMPT 00000000   1533 
_SAR1                                     IMPT 00000000   1537 
_SAR2                                     IMPT 00000000   1541 
_SAR3                                     IMPT 00000000   1545 
_SCBRR1                                   IMPT 00000000   1581 
_SCBRR2                                   IMPT 00000000   1591 
_SCFCR2                                   IMPT 00000000   1596 
_SCFDR2                                   IMPT 00000000   1597 
_SCFRDR2                                  IMPT 00000000   1595 
_SCFSR2                                   IMPT 00000000   1594 
_SCFTDR2                                  IMPT 00000000   1593 
_SCLSR2                                   IMPT 00000000   1599 
_SCRDR1                                   IMPT 00000000   1585 
_SCSCMR1                                  IMPT 00000000   1586 
_SCSCR1                                   IMPT 00000000   1582 
*** SuperH RISC engine ASSEMBLER V.7.01.02.000 ***    11/14/21 17:05:49                                                  PAGE    32

*** CROSS REFERENCE LIST

NAME                             SECTION  ATTR VALUE             SEQUENCE

_SCSCR2                                   IMPT 00000000   1592 
_SCSMR1                                   IMPT 00000000   1580 
_SCSMR2                                   IMPT 00000000   1590 
_SCSPTR1                                  IMPT 00000000   1587 
_SCSPTR2                                  IMPT 00000000   1598 
_SCSSR1                                   IMPT 00000000   1584 
_SCTDR1                                   IMPT 00000000   1583 
_START_ACK_COD                            EQU  00004321   1805*
_START_REQ_COD                            EQU  00009876   1804*
_STBCR                                    IMPT 00000000   1553 
_STBCR2                                   IMPT 00000000   1556 
_TBL_Reset                       IntPRG   EXPT 00000000     40  1884*
_TCNT0                                    IMPT 00000000   1569 
_TCNT1                                    IMPT 00000000   1572 
_TCNT2                                    IMPT 00000000   1575 
_TCOR0                                    IMPT 00000000   1568 
_TCOR1                                    IMPT 00000000   1571 
_TCOR2                                    IMPT 00000000   1574 
_TCPR2                                    IMPT 00000000   1577 
_TCR0                                     IMPT 00000000   1570 
_TCR1                                     IMPT 00000000   1573 
_TCR2                                     IMPT 00000000   1576 
_TEA                                      IMPT 00000000   1491 
_TOCR                                     IMPT 00000000   1566 
_TRA                                      IMPT 00000000   1496 
_TSTR                                     IMPT 00000000   1567 
_TTB                                      IMPT 00000000   1490 
_VUPCHECK_EQU                             EQU  11AB3739   1690*
_WCR1                                     IMPT 00000000   1517 
_WCR2                                     IMPT 00000000   1518 
_WCR3                                     IMPT 00000000   1519 
_WTCNT                                    IMPT 00000000   1554 
_WTCSR                                    IMPT 00000000   1555 
*** SuperH RISC engine ASSEMBLER V.7.01.02.000 ***    11/14/21 17:05:49                                                  PAGE    33

*** SECTION DATA LIST

SECTION                          ATTRIBUTE    SIZE             START

IntPRG                           REL-CODE    000000508        
