*** SuperH RISC engine ASSEMBLER V.7.01.02.000 ***    11/14/21 17:04:29                                                  PAGE     1
PROGRAM NAME =

    1                               1     ;       ***************************************************
    2                               2     ;       ***                                             ***
    3                               3     ;       ***                                             ***
    4                               4     ;       ***     ET1-SOFT(設定転送,ﾄﾚﾝﾄﾞ転送,mem,dp)     ***
    5                               5     ;       ***                                             ***
    6                               6     ;       ***                                             ***
    7                               7     ;       ***************************************************
 2088                              16     
 2089                              17     ;
 2090                              18             .INCLUDE        "dp_et1.ext"            ; //
 2091                               1 I1  ;       *******************************************************************
 2092                               2 I1  ;       ***                                                             ***
 2093                               3 I1  ;       ***                                                             ***
 2094                               4 I1  ;       ***                                                             ***
 2095                               5 I1  ;       ***                                                             ***
 2096                               6 I1  ;       ***                                                             ***
 2097                               7 I1  ;       ***                                                             ***
 2098                               8 I1  ;       *******************************************************************
 2099                               9 I1  ;       このファイルはsh2またはsh4のアセンブラソースにインクルードされ
 2100                              10 I1  ;       その中で、実アドレスを割り付ける
 2101                              11 I1  ;       このではdpramのオフセットアドレスを定義する
 2102                              12 I1  ;       このファイルのextern宣言として
 2103                              13 I1  
 2104                              14 I1  
 2105                              15 I1  ;       ===========================================
 2106                              16 I1  ;       ===             ET1 SV DATA             ===
 2107                              17 I1  ;       ===========================================
 2108                              18 I1  ;       --------------------------------------------------
 2109                              19 I1          .GLOBAL         _ET_CPUB_SND_INI_ET1    ;INITAL CODE REQ
 2110                              20 I1          .GLOBAL         _ET_CPUB_RCV_INI_ET1    ;INITAL CODE ACK
 2111                              21 I1  ;;;;    .GLOBAL         _ET_CPUB_SND_REQ_ET1    ;H'12345678(req)
 2112                              22 I1  ;;;;    .GLOBAL         _ET_CPUB_RCV_ACK_ET1    ;H'87654321(ack)
 2113                              23 I1  ;       ---------------------------------------------------
 2114                              24 I1  ;;;;    .GLOBAL         _ET_CPUB_SND_REQ_ADR    ;TOPADRESS (192K+32K 256Kbyte)
 2115                              25 I1  ;;;;    .GLOBAL         _ET_CPUB_SND_REQ_CNT    ;1~128個
 2116                              26 I1  ;;;;    .GLOBAL         _ET_CPUB_SND_DAT        ;(256byte MAX)
 2117                              27 I1  ;;;;    .GLOBAL         _ET_CPUB_SND_END        ;
 2118                              28 I1  
 2119                              29 I1  ;       ===========================================
 2120                              30 I1  ;       ===             ET1 TOREND DATA         ===
 2121                              31 I1  ;       ===========================================
 2122                              32 I1  ;       --------------------------------------------------
 2123                              33 I1          .GLOBAL         _ET_CPUA_SND_INI_ET1    ;INITAL CODE REQ
 2124                              34 I1          .GLOBAL         _ET_CPUA_RCV_INI_ET1    ;INITAL CODE ACK
 2125                              35 I1          .GLOBAL         _ET_CPUA_SND_REQ_ET1    ;H'12345678(req)
 2126                              36 I1          .GLOBAL         _ET_CPUA_RCV_ACK_ET1    ;H'87654321(ack)
 2127                              37 I1  ;       ---------------------------------------------------
 2128                              38 I1          .GLOBAL         _ET_CPUA_SND_REQ_ADR    ;TOPADRESS (192K+32K 256Kbyte)
 2129                              39 I1          .GLOBAL         _ET_CPUA_SND_REQ_CNT    ;1~128個
 2130                              40 I1          .GLOBAL         _ET_CPUA_SND_DAT        ;(256byte MAX)
 2131                              41 I1          .GLOBAL         _ET_CPUA_SND_END        ;
 2132                              42 I1  
 2133                              43 I1  ;       ===========================================
 2134                              44 I1  ;       ===             ET1 loder DATA          ===
 2135                              45 I1  ;       ===========================================
 2136                              46 I1  ;       2006-12-01
 2137                              47 I1  
*** SuperH RISC engine ASSEMBLER V.7.01.02.000 ***    11/14/21 17:04:29                                                  PAGE     2
PROGRAM NAME =

 2138                              48 I1          .GLOBAL         _ET_LDCMND_AREA         ;LdCmnd set area
 2139                              49 I1          .GLOBAL         _ET_LDCMND_REQ          ;LdCmnd Request Flag
 2140                              50 I1          .GLOBAL         _ET_LDCMND_RES          ;LdCmnd Response Flag
 2141                              51 I1          .GLOBAL         _ET1_VER                ;ET1 VERSION            V05
 2142                              52 I1  
 2143                              53 I1  ;       ===== HMI V05j 2007/12/07 =====
 2144                              54 I1          .GLOBAL         _ET1_IPS_ENT            ;IPｱﾄﾞﾚｽ確定
 2145                              55 I1          .GLOBAL         _ET1_IPS_ADR0           ;IPｱﾄﾞﾚｽ
 2146                              56 I1          .GLOBAL         _ET1_IPS_ADR1           ;IPｱﾄﾞﾚｽ
 2147                              57 I1          .GLOBAL         _ET1_IPS_ADR2           ;IPｱﾄﾞﾚｽ
 2148                              58 I1          .GLOBAL         _ET1_IPS_ADR3           ;IPｱﾄﾞﾚｽ
 2149                              59 I1          .GLOBAL         _ET1_SUB_NET0           ;ｻﾌﾞﾈｯﾄﾏｽｸ
 2150                              60 I1          .GLOBAL         _ET1_SUB_NET1           ;ｻﾌﾞﾈｯﾄﾏｽｸ
 2151                              61 I1          .GLOBAL         _ET1_SUB_NET2           ;ｻﾌﾞﾈｯﾄﾏｽｸ
 2152                              62 I1          .GLOBAL         _ET1_SUB_NET3           ;ｻﾌﾞﾈｯﾄﾏｽｸ
 2153                              63 I1          .GLOBAL         _ET1_DEF_GAT0           ;ﾃﾞﾌｫﾙﾄｹﾞｰﾄｳｪｲ
 2154                              64 I1          .GLOBAL         _ET1_DEF_GAT1           ;ﾃﾞﾌｫﾙﾄｹﾞｰﾄｳｪｲ
 2155                              65 I1          .GLOBAL         _ET1_DEF_GAT2           ;ﾃﾞﾌｫﾙﾄｹﾞｰﾄｳｪｲ
 2156                              66 I1          .GLOBAL         _ET1_DEF_GAT3           ;ﾃﾞﾌｫﾙﾄｹﾞｰﾄｳｪｲ
 2157                              67 I1          .GLOBAL         _ET1_IPM_ADR0           ;IPｱﾄﾞﾚｽ(ﾓﾆﾀ)
 2158                              68 I1          .GLOBAL         _ET1_IPM_ADR1           ;IPｱﾄﾞﾚｽ(ﾓﾆﾀ)
 2159                              69 I1          .GLOBAL         _ET1_IPM_ADR2           ;IPｱﾄﾞﾚｽ(ﾓﾆﾀ)
 2160                              70 I1          .GLOBAL         _ET1_IPM_ADR3           ;IPｱﾄﾞﾚｽ(ﾓﾆﾀ)
 2161                              71 I1  
 2162                              72 I1  ;       ===========================================
 2163                              73 I1  ;       ===     ET1==>CPUA(読出 32BYTE) ｽﾃｰﾀｽRD ===
 2164                              74 I1  ;       ===     2008-10-20                      ===
 2165                              75 I1  ;       ===========================================
 2166                              76 I1          .GLOBAL         _ET_CPUA_RD_REQ         ;CPUA-->ET1 READ REQ
 2167                              77 I1          .GLOBAL         _ET_CPUA_RD_ACK         ;ET1-->CPUA data SET ACK
 2168                              78 I1          .GLOBAL         _ET_CPUA_RD_CNT         ;読出個数
 2169                              79 I1          .GLOBAL         _ET_CPUA_RD_ADR         ;読出ｱﾄﾞﾚｽ
 2170                              80 I1          .GLOBAL         _ET_CPUA_RD_BUF         ;32byte(16w)
 2171                              81 I1  ;       ===========================================
 2172                              82 I1  ;       ===     CPUA==>書込2(32byte)    ｽﾃｰﾀｽWR ===
 2173                              83 I1  ;       ===     2008-10-20                      ===
 2174                              84 I1  ;       ===========================================
 2175                              85 I1          .GLOBAL         _ET_CPUA_WR2_ADR        ;STS WR LINE
 2176                              86 I1          .GLOBAL         _ET_CPUA_WR2_BUF        ;32byte(16w)
 2177                              87 I1          .GLOBAL         _ET_CPUA_WR2_REQ        ;
 2178                              88 I1          .GLOBAL         _ET_CPUA_WR2_ACK        ;
 2179                              89 I1          .GLOBAL         _ET_CPUA_WR2_CNT        ;
 2180                              90 I1  
 2181                              91 I1  
 2182                              92 I1  ;;;     ===========================================
 2183                              93 I1  ;;;     ===     2009-06-19 komtrax(ET2)対応     ===
 2184                              94 I1  ;;;     ===========================================
 2185                              95 I1  ;;;     .GLOBAL         _ET2_SEQ_IDT01          ;FA2,3 seq-->et2
 2186                              96 I1  ;;;     .GLOBAL         _ET2_SEQ_IDT02          ;FA4,5 seq-->et2
 2187                              97 I1  ;;;     .GLOBAL         _ET2_SEQ_QDT01          ;FA6,7 et2-->seq
 2188                              98 I1  ;;;     .GLOBAL         _ET2_SEQ_QDT02          ;FA8,9 et2-->seq
 2189                              99 I1  ;;;;    ============== 使用付加(2009-06-19)　後はﾊﾞﾝｸだけ============
 2190                             100 I1  ;       ===========================================
 2191                             101 I1  ;       ===     2009-07-24 komtrax(ET2)対応     ===
 2192                             102 I1  ;       ===========================================
 2193                             103 I1  ;       ------------(KOMTRAX空間に対して SIT_MEM)
 2194                             104 I1          .GLOBAL         _ET2_SITM_ADR           ;FA2,3 SIT4->ET1  R/W ADR
*** SuperH RISC engine ASSEMBLER V.7.01.02.000 ***    11/14/21 17:04:29                                                  PAGE     3
PROGRAM NAME =

 2195                             105 I1          .GLOBAL         _ET2_SITM_REQ           ;FA4   SIT4->ET1  HND=BIT7 R/W=BIT6(BIT5~B
                                          IT0は空間)
 2196                             106 I1          .GLOBAL         _ET2_SITM_ACK           ;FA5   SIT4<-ET1
 2197                             107 I1          .GLOBAL         _ET2_SITM_WRDT          ;FA6,7 SIT4->ET1  WR data
 2198                             108 I1          .GLOBAL         _ET2_SITM_RDDT          ;FA8,9(SIT4<-ET1) RD data
 2199                             109 I1          .GLOBAL         _ET2_SEQ_IDT01          ;FAA,B seq(SQ149)-->et2
 2200                             110 I1          .GLOBAL         _ET2_SEQ_QDT01          ;FAC,D et2-->seq(SQ86)
 2201                             111 I1  ;;;;    ============== 使用不可(2009-07-24)　後はﾊﾞﾝｸだけ============
 2202                             112 I1  
 2203                             113 I1  
 2204                              19             .import         _MEM_ARI                        ;1BYTE(H'840 statu "A5")
 2205                              20             .import         _MEM_BNK_ADR1                   ;1BYTE(H'900 d0=0/d0=1 bank)
 2206                              21     
 2207                              22             .import         _MEM_ARI_REAL           ;MC
 2208                              23     
 2209                              24             .IMPORT _CPUD_ET1_DP_TOP
 2210                              25             .IMPORT _ET1_DP_TOP
 2211                              26             .IMPORT _OPTION_ET1_ARI                 ;005A CPUB-->CPUD
 2212                              27     
 2213                              28     
 2214                              29     _BAS_ET1_DP_TOP         .DEFINE         "_CPUD_ET1_DP_TOP"
 2215                              30     _ET1_ET1_DP_TOP         .DEFINE         "_ET1_DP_TOP"
 2216                              31     
 2217          00000000            32     __BAS_TOP               .EQU    -_CPUD_ET1_DP_TOP+_CPUD_ET1_DP_TOP
 2218          00000000            33     __ET1_TOP               .EQU    -_CPUD_ET1_DP_TOP+_ET1_DP_TOP
 2219                              34     
 2220                              35     ;;_ET2_DEBUG_TRG        .DEFINE         "1"             ; ﾃﾞﾊﾞｯｸ
 2221                              36     _ET2_DEBUG_TRG  .DEFINE         "0"             ;出荷
 2222                              37     
 2223                              38     
 2224                              39     
 2225                              40     ;       ===========================================
 2226                              41     ;       ===             ET1 TOREND DATA         ===
 2227                              42     ;       ===========================================
 2228                              43             .IMPORT         _CPUA_SND_INI_ET1       ;INITAL CODE REQ
 2229                              44             .IMPORT         _CPUA_RCV_INI_ET1       ;INITAL CODE ACK
 2230                              45     ;;;;    .IMPORT         _CPUA_SND_REQ_ET1       ;H'12345678(req)
 2231                              46     ;;;;    .IMPORT         _CPUA_RCV_ACK_ET1       ;H'87654321(ack)
 2232                              47     ;;;;    .IMPORT         _CPUA_SND_REQ_ADR       ;TOPADRESS (192K+32K 256Kbyte)
 2233                              48     ;;;;    .IMPORT         _CPUA_SND_REQ_CNT       ;1~128個
 2234                              49     ;;;;    .IMPORT         _CPUA_SND_DAT           ;(256byte MAX)
 2235                              50     ;;;;    .IMPORT         _CPUA_SND_END           ;
 2236                              51     
 2237                              52     
 2238                              53             .EXPORT _ET1_CPU_MAIN_MOV
 2239                              54             .EXPORT _ET1_CPU_HIGH_MOV
 2240                              55     
 2241                              56     ;       --------KOMTRAXのためのEXTERN
 2242                              57     ;;;     .IMPORT         _SEQ_024_SV             ;DPRAM(島村参照使用設定)2009-*-*   24.6
 2243                              58             .IMPORT         _SEQAB_DP_TOP           ;高速アクセス用
 2244                              59     
 2245                              60     ;       ------2011-01-14 処理軽減のため10msec作成---
 2246                              61     
 2247                              62     ;       ***************************************************
 2248                              63     ;       ***                                             ***
 2249                              64     ;       ***                                             ***
 2250                              65     ;       ***     ET1-SOFT(設定転送,ﾄﾚﾝﾄﾞ転送)            ***
*** SuperH RISC engine ASSEMBLER V.7.01.02.000 ***    11/14/21 17:04:29                                                  PAGE     4
PROGRAM NAME =

 2251                              66     ;       ***     (high:TREND)                            ***
 2252                              67     ;       ***                                             ***
 2253                              68     ;       ***                                             ***
 2254                              69     ;       ***************************************************
 2255 00000000                     70             .SECTION        Bfram, DATA                     ; B4007000H
 2256 00000000                     71             .SECTION        P,CODE                  ;
 2257 00000000                     72             .ALIGN  4                                       ;
 2258 00000000                     73     _ET1_CPU_HIGH_MOV
 2259                              74             SUB_START
 2260 00000000 4F22                   M           STS.L   PR,@-R15                ;[必要]
 2261                                 M   ;;;;;;; ADD     #-4,R15                 ;[不要?]
 2262 00000002 D10A                75             MOV.L   #_ET1_INITAL_FLG,R1                     ;
 2263 00000004 6011                76             MOV.W   @R1,R0                                  ;
 2264 00000006 C840                77             TST     #BIT6,R0                                ;
 2265                              78             TST_BIT_OF ET1_CPU_HIGHMV_END                   ;
 2266 00000008 890C                   M           BT      ET1_CPU_HIGHMV_END
 2267                              79     
 2268                              80     ;       ---------- ET1/CPUA ﾃﾞｰﾀ転送--------------
 2269                              81             FAR_JSR #_ET1_CPUA_DT_MOVE,R0
 2270 0000000A D009                   M           MOV.L   #_ET1_CPUA_DT_MOVE,R0           ;ﾃｰﾌﾞﾙｱﾄﾞﾚｽの内容をREGへ
 2271 0000000C 400B                   M           JSR     @R0                     ;
 2272 0000000E 0009                   M           NOP                                     ;
 2273                              82             FAR_JSR #_CPUD_TO_ET1_SET,R0
 2274 00000010 D008                   M           MOV.L   #_CPUD_TO_ET1_SET,R0            ;ﾃｰﾌﾞﾙｱﾄﾞﾚｽの内容をREGへ
 2275 00000012 400B                   M           JSR     @R0                     ;
 2276 00000014 0009                   M           NOP                                     ;
 2277                              83     
 2278 00000016 D108                84             MOV.L   #_SEQAB_DP_TOP+24*2,R1          ;[MC]
 2279 00000018 6011                85             MOV.W   @R1,R0                          ;
 2280 0000001A C840                86             TST     #BIT6,R0                        ;24.6(仕様設定135)
 2281                              87             TST_BIT_OF ET1_CPU_HIGHMV_END           ;
 2282 0000001C 8902                   M           BT      ET1_CPU_HIGHMV_END
 2283                              88     
 2284                              89             FAR_JSR #_KOMTRAX_DAT_CPUD_TO_ET1,R0
 2285 0000001E D007                   M           MOV.L   #_KOMTRAX_DAT_CPUD_TO_ET1,R0            ;ﾃｰﾌﾞﾙｱﾄﾞﾚｽの内容をREGへ
 2286 00000020 400B                   M           JSR     @R0                     ;
 2287 00000022 0009                   M           NOP                                     ;
 2288                              90     
 2289 00000024                     91     ET1_CPU_HIGHMV_END
 2290                              92             SUB_END
 2291                                 M   ;;;;;;; ADD     #4,R15                  ;[不要?]
 2292 00000024 4F26                   M           LDS.L   @R15+,PR                ;[必要]
 2293                              93             M_RTS
 2294 00000026 000B                   M           RTS                             ;RTSの後ろの
 2295 00000028 0009                   M           NOP                             ;@R15+,PRはﾀﾞﾒ
 2296                              94     
 2297                              95     ;       ***************************************************
 2298                              96     ;       ***                                             ***
 2299                              97     ;       ***                                             ***
 2300                              98     ;       ***     ET1-SOFT(設定転送,ﾄﾚﾝﾄﾞ転送)            ***
 2301                              99     ;       ***     (MAIN:SV)                               ***
 2302                             100     ;       ***                                             ***
 2303                             101     ;       ***************************************************
 2304                                     ***** BEGIN-POOL *****
 2305 0000002A 0000                       ALIGNMENT CODE
 2306 0000002C 00000000                   DATA FOR SOURCE-LINE 75
 2307 00000030 00000000                   DATA FOR SOURCE-LINE 81
*** SuperH RISC engine ASSEMBLER V.7.01.02.000 ***    11/14/21 17:04:29                                                  PAGE     5
PROGRAM NAME =

 2308 00000034 00000000                   DATA FOR SOURCE-LINE 82
 2309 00000038 00000000                   DATA FOR SOURCE-LINE 84
 2310 0000003C 00000000                   DATA FOR SOURCE-LINE 89
 2311                                     ***** END-POOL *****
 2312 00000040                    102     _ET1_CPU_MAIN_MOV
 2313                             103             SUB_START
 2314 00000040 4F22                   M           STS.L   PR,@-R15                ;[必要]
 2315                                 M   ;;;;;;; ADD     #-4,R15                 ;[不要?]
 2316                             104     
 2317 00000042 D104               105             MOV.L   #_ET1_INITAL_FLG,R1                     ;
 2318 00000044 6011               106             MOV.W   @R1,R0                                  ;
 2319 00000046 C840               107             TST     #BIT6,R0                                ;
 2320                             108             TST_BIT_ON ET1_CPU_MNMV_100                     ;
 2321 00000048 8B08                   M           BF      ET1_CPU_MNMV_100
 2322                             109             FAR_JSR #_ET1_INITAL_CHK,R0                     ;[ずっとチェックするのはへん]
 2323 0000004A D003                   M           MOV.L   #_ET1_INITAL_CHK,R0             ;ﾃｰﾌﾞﾙｱﾄﾞﾚｽの内容をREGへ
 2324 0000004C 400B                   M           JSR     @R0                     ;
 2325 0000004E 0009                   M           NOP                                     ;
 2326                             110             M_BRA   ET1_CPU_MNMV_END                        ;
 2327 00000050 A007                   M           BRA     ET1_CPU_MNMV_END
 2328 00000052 0009                   M           NOP
 2329                             111     
 2330                                     ***** BEGIN-POOL *****
 2331 00000054 00000000                   DATA FOR SOURCE-LINE 105
 2332 00000058 00000000                   DATA FOR SOURCE-LINE 109
 2333                                     ***** END-POOL *****
 2334 0000005C                    112     ET1_CPU_MNMV_100:
 2335                             113             FAR_JSR #_ET1_INIEND_MOVE,R0                    ;
 2336 0000005C D002                   M           MOV.L   #_ET1_INIEND_MOVE,R0            ;ﾃｰﾌﾞﾙｱﾄﾞﾚｽの内容をREGへ
 2337 0000005E 400B                   M           JSR     @R0                     ;
 2338 00000060 0009                   M           NOP                                     ;
 2339                             114     
 2340                             115     
 2341 00000062                    116     ET1_CPU_MNMV_END:
 2342                             117     
 2343                             118     
 2344                             119             SUB_END
 2345                                 M   ;;;;;;; ADD     #4,R15                  ;[不要?]
 2346 00000062 4F26                   M           LDS.L   @R15+,PR                ;[必要]
 2347                             120             M_RTS
 2348 00000064 000B                   M           RTS                             ;RTSの後ろの
 2349 00000066 0009                   M           NOP                             ;@R15+,PRはﾀﾞﾒ
 2350                             121     
 2351                             122     
 2352                             123     ;       ***************************************************
 2353                             124     ;       ***                                             ***
 2354                             125     ;       ***                                             ***
 2355                             126     ;       ***     INITAL                                  ***
 2356                             127     ;       ***     (MAIN)                                  ***
 2357                             128     ;       ***                                             ***
 2358                             129     ;       ***************************************************
 2359                             130     ;       ET1からINITL終了があった
 2360                                     ***** BEGIN-POOL *****
 2361 00000068 00000000                   DATA FOR SOURCE-LINE 113
 2362                                     ***** END-POOL *****
 2363 0000006C                    131     _ET1_INITAL_CHK:
 2364                             132             SUB_START
*** SuperH RISC engine ASSEMBLER V.7.01.02.000 ***    11/14/21 17:04:29                                                  PAGE     6
PROGRAM NAME =

 2365 0000006C 4F22                   M           STS.L   PR,@-R15                ;[必要]
 2366                                 M   ;;;;;;; ADD     #-4,R15                 ;[不要?]
 2367 0000006E D10E               133             MOV.L   #_ET1_INITAL_FLG,R1             ;
 2368 00000070 6011               134             MOV.W   @R1,R0                          ;
 2369 00000072 C840               135             TST     #BIT6,R0                        ;
 2370                             136             TST_BIT_ON ET1_INIT_CHK_END             ;
 2371 00000074 8B36                   M           BF      ET1_INIT_CHK_END
 2372                             137     
 2373                             138     ;;;;2013-12-12  MOV.L   #_MEM_ARI,R1                    ;
 2374 00000076 D10D               139             MOV.L   #_MEM_ARI_REAL,R1               ;一時
 2375 00000078 6010               140             MOV.B   @R1,R0                          ;
 2376 0000007A 600C               141             EXTU.B  R0,R0                           ;
 2377 0000007C 9111               142             MOV.W   #H'00A5,R1                      ;
 2378                             143     
 2379 0000007E 3010               144             CMP/EQ  R1,R0                           ;
 2380 00000080 8B30               145             BF      ET1_INIT_CHK_END                ;未接続
 2381                             146     
 2382 00000082 D10B               147             MOV.L   #_OPTION_ET1_ARI,R1             ;005A CPUB-->CPUD 2013-12-12
 2383 00000084 2101               148             MOV.W   R0,@R1                          ;
 2384                             149     
 2385                             150             FAR_JSR #_ET1_BANK_SEL0_OUT,R1                          ;
 2386 00000086 D10B                   M           MOV.L   #_ET1_BANK_SEL0_OUT,R1          ;ﾃｰﾌﾞﾙｱﾄﾞﾚｽの内容をREGへ
 2387 00000088 410B                   M           JSR     @R1                     ;
 2388 0000008A 0009                   M           NOP                                     ;
 2389                             151     
 2390                             152     
 2391                             153     ;       --------IPｱﾄﾞﾚｽ----------
 2392                             154      MEM_WORD_BLOCK_MOV1    SRC_ADR=_ET1_IPS_ENT+__BAS_TOP,
 2393                             155     +                       DST_ADR=_ET1_IPS_ENT+__ET1_TOP,
 2394                             156     +                       CNT_DAT=(_ET1_DEF_GAT3+2-_ET1_IPS_ENT)/2,DT_REG=R2,CNT_REG=R3
 2395 0000008C DA0A                   M           MOV.L   #_ET1_IPS_ENT+__BAS_TOP,R10                     ;
 2396 0000008E DB0B                   M           MOV.L   #_ET1_IPS_ENT+__ET1_TOP,R11                     ;
 2397 00000090 9308                   M           MOV.W   #(_ET1_DEF_GAT3+2-_ET1_IPS_ENT)/2,R3            ;
 2398                                 M           BLOCK_MOV1      W,2,R10,R11,R2,R3
 2399 00000092                        M   JMP000000:                                      ;
 2400 00000092 2338                   M           TST     R3,R3   ;
 2401                                 M           TST_BIT_OF JMP100000            ;
 2402 00000094 8914                   M           BT      JMP100000
 2403 00000096 62A5                   M           MOV.W   @R10+,R2        ;
 2404 00000098 2B21                   M           MOV.W   R2,@R11 ;
 2405 0000009A 7B02                   M           ADD     #2,R11  ;
 2406 0000009C 73FF                   M           ADD     #H'FF,R3                ;
 2407                                 M           M_BRA   JMP000000                       ;
 2408 0000009E AFF8                   M           BRA     JMP000000
 2409 000000A0 0009                   M           NOP
 2410                                 M   ***** BEGIN-POOL *****
 2411 000000A2 00A5                   M   DATA FOR SOURCE-LINE 142
 2412 000000A4 0000                   M   DATA FOR SOURCE-LINE 154
 2413 000000A6 0000                   M   ALIGNMENT CODE
 2414 000000A8 00000000               M   DATA FOR SOURCE-LINE 133
 2415 000000AC 00000000               M   DATA FOR SOURCE-LINE 139
 2416 000000B0 00000000               M   DATA FOR SOURCE-LINE 147
 2417 000000B4 00000000               M   DATA FOR SOURCE-LINE 150
 2418 000000B8 00000000               M   DATA FOR SOURCE-LINE 154
 2419 000000BC 00000000               M   DATA FOR SOURCE-LINE 154
 2420                                 M   ***** END-POOL *****
 2421 000000C0                        M   JMP100000:                                      ;
*** SuperH RISC engine ASSEMBLER V.7.01.02.000 ***    11/14/21 17:04:29                                                  PAGE     7
PROGRAM NAME =

 2422                             157     
 2423                             158     
 2424 000000C0 D10A               159             MOV.L   #_ET_CPUB_RCV_INI_ET1+__ET1_TOP,R1              ;
 2425 000000C2 6012               160             MOV.L   @R1,R0                                          ;
 2426 000000C4 D10A               161             MOV.L   #_ET_CPUB_RCV_INI_ET1+__BAS_TOP,R1              ;
 2427 000000C6 2102               162             MOV.L   R0,@R1                                          ;
 2428                             163     
 2429 000000C8 D40A               164             MOV.L   #_ET1_INIT_ACK,R4                               ;
 2430 000000CA 3040               165             CMP/EQ  R4,R0                                           ;
 2431 000000CC 8B0A               166             BF      ET1_INIT_CHK_END                                ;未完了
 2432                             167     
 2433 000000CE D10A               168             MOV.L   #_ET_CPUA_RCV_INI_ET1+__ET1_TOP,R1              ;
 2434 000000D0 6012               169             MOV.L   @R1,R0                                          ;
 2435 000000D2 D10A               170             MOV.L   #_ET_CPUA_RCV_INI_ET1+__BAS_TOP,R1              ;
 2436 000000D4 2102               171             MOV.L   R0,@R1                                          ;
 2437                             172     
 2438 000000D6 D407               173             MOV.L   #_ET1_INIT_ACK,R4                               ;
 2439 000000D8 3040               174             CMP/EQ  R4,R0                                           ;
 2440 000000DA 8B03               175             BF      ET1_INIT_CHK_END                                ;未完了
 2441                             176     
 2442                             177             MEM1_BIT0_TO_BIT7_ORSET MEM=_ET1_INITAL_FLG,LG=W,BIT=BIT6,WKREG=R1      ;bit-set
 2443 000000DC D108                   M           MOV.L   #_ET1_INITAL_FLG,R1             ;
 2444 000000DE 6011                   M           MOV.W   @R1,R0          ;
 2445 000000E0 CB40                   M           OR      #BIT6,R0                ;
 2446 000000E2 2101                   M           MOV.W   R0,@R1          ;
 2447                             178     
 2448 000000E4                    179     ET1_INIT_CHK_END:
 2449                             180             SUB_END
 2450                                 M   ;;;;;;; ADD     #4,R15                  ;[不要?]
 2451 000000E4 4F26                   M           LDS.L   @R15+,PR                ;[必要]
 2452                             181             M_RTS
 2453 000000E6 000B                   M           RTS                             ;RTSの後ろの
 2454 000000E8 0009                   M           NOP                             ;@R15+,PRはﾀﾞﾒ
 2455                             182     
 2456                             183     ;       ***********************************
 2457                             184     ;       ***                             ***
 2458                             185     ;       ***     INITAL-CODE             ***
 2459                             186     ;       ***                             ***
 2460                             187     ;       ***********************************
 2461                                     ***** BEGIN-POOL *****
 2462 000000EA 0000                       ALIGNMENT CODE
 2463 000000EC 00000000                   DATA FOR SOURCE-LINE 159
 2464 000000F0 00000000                   DATA FOR SOURCE-LINE 161
 2465 000000F4 56789ABC                   DATA FOR SOURCE-LINE 164,173
 2466 000000F8 00000000                   DATA FOR SOURCE-LINE 168
 2467 000000FC 00000000                   DATA FOR SOURCE-LINE 170
 2468 00000100 00000000                   DATA FOR SOURCE-LINE 177
 2469                                     ***** END-POOL *****
 2470 00000104                    188     _ET1_INIEND_MOVE:
 2471                             189             SUB_START
 2472 00000104 4F22                   M           STS.L   PR,@-R15                ;[必要]
 2473                                 M   ;;;;;;; ADD     #-4,R15                 ;[不要?]
 2474                             190             FAR_JSR #_ET1_BANK_SEL0_OUT,R1  ;
 2475 00000106 D10D                   M           MOV.L   #_ET1_BANK_SEL0_OUT,R1          ;ﾃｰﾌﾞﾙｱﾄﾞﾚｽの内容をREGへ
 2476 00000108 410B                   M           JSR     @R1                     ;
 2477 0000010A 0009                   M           NOP                                     ;
 2478                             191     
*** SuperH RISC engine ASSEMBLER V.7.01.02.000 ***    11/14/21 17:04:29                                                  PAGE     8
PROGRAM NAME =

 2479                             192     
 2480                             193     
 2481                             194     ;;;[MC] MOV.L   #_ET1_INIT_REQ,R0
 2482                             195     ;;;[MC] REG_MOV_TO_MEM  DST_ADR=_ET_CPUB_SND_INI_ET1,L1=L,DT_REG=R0,WKREG1=R1
 2483                             196     
 2484                             197     
 2485                             198             MEM_MOV_TO_MEM  SRC_ADR=_ET_CPUB_SND_INI_ET1+__BAS_TOP,L1=L,
 2486                             199     +                       DST_ADR=_ET_CPUB_SND_INI_ET1+__ET1_TOP,L2=L,
 2487                             200     +                       WKREG1=R1,WKREG2=R2,WKREG3=R3
 2488 0000010C D10C                   M           MOV.L   #_ET_CPUB_SND_INI_ET1+__BAS_TOP,R1
 2489 0000010E 6212                   M           MOV.L   @R1,R2  ;WK1=SRC_ADR WK2=data
 2490 00000110 D30C                   M           MOV.L   #_ET_CPUB_SND_INI_ET1+__ET1_TOP,R3      ;DST_ADR
 2491 00000112 2322                   M           MOV.L   R2,@R3  ;DST_ADR
 2492                             201     
 2493                             202     ;       ==== CPUA<=>ET1 ====
 2494                             203             MEM_MOV_TO_MEM  SRC_ADR=_ET_CPUA_SND_INI_ET1+__BAS_TOP,L1=L,
 2495                             204     +                       DST_ADR=_ET_CPUA_SND_INI_ET1+__ET1_TOP,L2=L,
 2496                             205     +                       WKREG1=R1,WKREG2=R2,WKREG3=R3
 2497 00000114 D10C                   M           MOV.L   #_ET_CPUA_SND_INI_ET1+__BAS_TOP,R1
 2498 00000116 6212                   M           MOV.L   @R1,R2  ;WK1=SRC_ADR WK2=data
 2499 00000118 D30C                   M           MOV.L   #_ET_CPUA_SND_INI_ET1+__ET1_TOP,R3      ;DST_ADR
 2500 0000011A 2322                   M           MOV.L   R2,@R3  ;DST_ADR
 2501                             206     
 2502                             207             MEM_MOV_TO_MEM  SRC_ADR=_ET_CPUA_RCV_INI_ET1+__ET1_TOP,L1=L,
 2503                             208     +                       DST_ADR=_ET_CPUA_RCV_INI_ET1+__BAS_TOP,L2=L,
 2504                             209     +                       WKREG1=R1,WKREG2=R2,WKREG3=R3
 2505 0000011C D10C                   M           MOV.L   #_ET_CPUA_RCV_INI_ET1+__ET1_TOP,R1
 2506 0000011E 6212                   M           MOV.L   @R1,R2  ;WK1=SRC_ADR WK2=data
 2507 00000120 D30C                   M           MOV.L   #_ET_CPUA_RCV_INI_ET1+__BAS_TOP,R3      ;DST_ADR
 2508 00000122 2322                   M           MOV.L   R2,@R3  ;DST_ADR
 2509                             210     
 2510                             211     
 2511                             212     ;       ------MC CPUB-----
 2512 00000124 D10C               213             MOV.L   #_ET_CPUB_RCV_INI_ET1+__ET1_TOP,R1              ;
 2513 00000126 6012               214             MOV.L   @R1,R0                                          ;
 2514 00000128 D10C               215             MOV.L   #_ET_CPUB_RCV_INI_ET1+__BAS_TOP,R1              ;
 2515 0000012A 2102               216             MOV.L   R0,@R1                                          ;
 2516                             217     
 2517 0000012C D108               218             MOV.L   #_ET_CPUA_RCV_INI_ET1+__ET1_TOP,R1              ;
 2518 0000012E 6012               219             MOV.L   @R1,R0                                          ;
 2519 00000130 D108               220             MOV.L   #_ET_CPUA_RCV_INI_ET1+__BAS_TOP,R1              ;
 2520 00000132 2102               221             MOV.L   R0,@R1                                          ;
 2521                             222     
 2522                             223             SUB_END
 2523                                 M   ;;;;;;; ADD     #4,R15                  ;[不要?]
 2524 00000134 4F26                   M           LDS.L   @R15+,PR                ;[必要]
 2525                             224             M_RTS
 2526 00000136 000B                   M           RTS                             ;RTSの後ろの
 2527 00000138 0009                   M           NOP                             ;@R15+,PRはﾀﾞﾒ
 2528                             225     
 2529                             226     ;       ***********************************
 2530                             227     ;       ***                             ***
 2531                             228     ;       ***     Input R2                ***
 2532                             229     ;       ***                             ***
 2533                             230     ;       ***********************************
 2534                                     ***** BEGIN-POOL *****
 2535 0000013A 0000                       ALIGNMENT CODE
*** SuperH RISC engine ASSEMBLER V.7.01.02.000 ***    11/14/21 17:04:29                                                  PAGE     9
PROGRAM NAME =

 2536 0000013C 00000000                   DATA FOR SOURCE-LINE 190
 2537 00000140 00000000                   DATA FOR SOURCE-LINE 198
 2538 00000144 00000000                   DATA FOR SOURCE-LINE 198
 2539 00000148 00000000                   DATA FOR SOURCE-LINE 203
 2540 0000014C 00000000                   DATA FOR SOURCE-LINE 203
 2541 00000150 00000000                   DATA FOR SOURCE-LINE 207,218
 2542 00000154 00000000                   DATA FOR SOURCE-LINE 207,220
 2543 00000158 00000000                   DATA FOR SOURCE-LINE 213
 2544 0000015C 00000000                   DATA FOR SOURCE-LINE 215
 2545                                     ***** END-POOL *****
 2546 00000160                    231     _ET1_BANK_SEL0_OUT:
 2547                             232             SUB_START
 2548 00000160 4F22                   M           STS.L   PR,@-R15                ;[必要]
 2549                                 M   ;;;;;;; ADD     #-4,R15                 ;[不要?]
 2550 00000162 222A               233             XOR     R2,R2
 2551 00000164 D103               234             MOV.L   #_ET1_BANK_SEL,R1                       ;
 2552 00000166 2121               235             MOV.W   R2,@R1                                  ;
 2553                             236     
 2554 00000168 D103               237             MOV.L   #_MEM_BNK_ADR1,R1               ;1BYTE(H'900 d0=0/d0=1 bank)
 2555 0000016A 2120               238             MOV.B   R2,@R1                          ;BANK OUT
 2556                             239             SUB_END
 2557                                 M   ;;;;;;; ADD     #4,R15                  ;[不要?]
 2558 0000016C 4F26                   M           LDS.L   @R15+,PR                ;[必要]
 2559                             240             M_RTS
 2560 0000016E 000B                   M           RTS                             ;RTSの後ろの
 2561 00000170 0009                   M           NOP                             ;@R15+,PRはﾀﾞﾒ
 2562                             241     
 2563                             242     ;       ***********************************
 2564                             243     ;       ***                             ***
 2565                             244     ;       ***     CPUA-->ET1              ***
 2566                             245     ;       ***             DATA,TRIG       ***
 2567                             246     ;       ***     ET1-->CPUA              ***
 2568                             247     ;       ***                             ***
 2569                             248     ;       ***********************************
 2570                                     ***** BEGIN-POOL *****
 2571 00000172 0000                       ALIGNMENT CODE
 2572 00000174 00000000                   DATA FOR SOURCE-LINE 234
 2573 00000178 00000000                   DATA FOR SOURCE-LINE 237
 2574                                     ***** END-POOL *****
 2575 0000017C                    249     _ET1_CPUA_DT_MOVE:
 2576                             250             SUB_START
 2577 0000017C 4F22                   M           STS.L   PR,@-R15                ;[必要]
 2578                                 M   ;;;;;;; ADD     #-4,R15                 ;[不要?]
 2579                             251     
 2580                             252     
 2581 0000017E D10A               253             MOV.L   #_ET_CPUA_SND_REQ_ET1+__BAS_TOP,R1      ;_CPUA_SND_REQ_ET1
 2582 00000180 6212               254             MOV.L   @R1,R2                                                          ;
 2583 00000182 D10A               255             MOV.L   #_CPUA_REQ_OLD,R1                                               ;
 2584 00000184 6012               256             MOV.L   @R1,R0                                                          ;
 2585 00000186 2122               257             MOV.L   R2,@R1                                                          ;
 2586 00000188 202A               258             XOR     R2,R0                                                           ;
 2587 0000018A 2008               259             TST     R0,R0                                                           ;
 2588                             260             TST_BIT_OF ET1_CPUA_DT_MV100                                            ;ﾄﾘｶﾞ変化
                                          なし
 2589 0000018C 8920                   M           BT      ET1_CPUA_DT_MV100
 2590                             261     
 2591                             262      MEM_WORD_BLOCK_MOV1    SRC_ADR=_ET_CPUA_SND_DAT+__BAS_TOP,
*** SuperH RISC engine ASSEMBLER V.7.01.02.000 ***    11/14/21 17:04:29                                                  PAGE    10
PROGRAM NAME =

 2592                             263     +                       DST_ADR=_ET_CPUA_SND_DAT+__ET1_TOP,
 2593                             264     +                       CNT_DAT=_ET1_CPUAB_BUF_MAX/2,DT_REG=R2,CNT_REG=R3
 2594 0000018E DA08                   M           MOV.L   #_ET_CPUA_SND_DAT+__BAS_TOP,R10                 ;
 2595 00000190 DB08                   M           MOV.L   #_ET_CPUA_SND_DAT+__ET1_TOP,R11                 ;
 2596 00000192 9307                   M           MOV.W   #_ET1_CPUAB_BUF_MAX/2,R3                ;
 2597                                 M           BLOCK_MOV1      W,2,R10,R11,R2,R3
 2598 00000194                        M   JMP000001:                                      ;
 2599 00000194 2338                   M           TST     R3,R3   ;
 2600                                 M           TST_BIT_OF JMP100001            ;
 2601 00000196 890F                   M           BT      JMP100001
 2602 00000198 62A5                   M           MOV.W   @R10+,R2        ;
 2603 0000019A 2B21                   M           MOV.W   R2,@R11 ;
 2604 0000019C 7B02                   M           ADD     #2,R11  ;
 2605 0000019E 73FF                   M           ADD     #H'FF,R3                ;
 2606                                 M           M_BRA   JMP000001                       ;
 2607 000001A0 AFF8                   M           BRA     JMP000001
 2608 000001A2 0009                   M           NOP
 2609                                 M   ***** BEGIN-POOL *****
 2610 000001A4 0080                   M   DATA FOR SOURCE-LINE 262
 2611 000001A6 0000                   M   ALIGNMENT CODE
 2612 000001A8 00000000               M   DATA FOR SOURCE-LINE 253
 2613 000001AC 00000000               M   DATA FOR SOURCE-LINE 255
 2614 000001B0 00000000               M   DATA FOR SOURCE-LINE 262
 2615 000001B4 00000000               M   DATA FOR SOURCE-LINE 262
 2616                                 M   ***** END-POOL *****
 2617 000001B8                        M   JMP100001:                                      ;
 2618                             265     
 2619                             266      MEM_MOV_TO_MEM         SRC_ADR=_ET_CPUA_SND_REQ_CNT+__BAS_TOP,L1=L,
 2620                             267     +                       DST_ADR=_ET_CPUA_SND_REQ_CNT+__ET1_TOP,L2=L,
 2621                             268     +                       WKREG1=R1,WKREG2=R2,WKREG3=R3
 2622 000001B8 D109                   M           MOV.L   #_ET_CPUA_SND_REQ_CNT+__BAS_TOP,R1
 2623 000001BA 6212                   M           MOV.L   @R1,R2  ;WK1=SRC_ADR WK2=data
 2624 000001BC D309                   M           MOV.L   #_ET_CPUA_SND_REQ_CNT+__ET1_TOP,R3      ;DST_ADR
 2625 000001BE 2322                   M           MOV.L   R2,@R3  ;DST_ADR
 2626                             269     
 2627                             270     
 2628                             271      MEM_MOV_TO_MEM         SRC_ADR=_ET_CPUA_SND_REQ_ADR+__BAS_TOP,L1=L,
 2629                             272     +                       DST_ADR=_ET_CPUA_SND_REQ_ADR+__ET1_TOP,L2=L,
 2630                             273     +                       WKREG1=R1,WKREG2=R2,WKREG3=R3
 2631 000001C0 D109                   M           MOV.L   #_ET_CPUA_SND_REQ_ADR+__BAS_TOP,R1
 2632 000001C2 6212                   M           MOV.L   @R1,R2  ;WK1=SRC_ADR WK2=data
 2633 000001C4 D309                   M           MOV.L   #_ET_CPUA_SND_REQ_ADR+__ET1_TOP,R3      ;DST_ADR
 2634 000001C6 2322                   M           MOV.L   R2,@R3  ;DST_ADR
 2635                             274     
 2636                             275      MEM_MOV_TO_MEM         SRC_ADR=_ET_CPUA_SND_REQ_ET1+__BAS_TOP,L1=L,
 2637                             276     +                       DST_ADR=_ET_CPUA_SND_REQ_ET1+__ET1_TOP,L2=L,
 2638                             277     +                       WKREG1=R1,WKREG2=R2,WKREG3=R3
 2639 000001C8 D109                   M           MOV.L   #_ET_CPUA_SND_REQ_ET1+__BAS_TOP,R1
 2640 000001CA 6212                   M           MOV.L   @R1,R2  ;WK1=SRC_ADR WK2=data
 2641 000001CC D309                   M           MOV.L   #_ET_CPUA_SND_REQ_ET1+__ET1_TOP,R3      ;DST_ADR
 2642 000001CE 2322                   M           MOV.L   R2,@R3  ;DST_ADR
 2643                             278     
 2644                             279     
 2645                             280     
 2646                             281     
 2647                             282     
 2648 000001D0                    283     ET1_CPUA_DT_MV100:
*** SuperH RISC engine ASSEMBLER V.7.01.02.000 ***    11/14/21 17:04:29                                                  PAGE    11
PROGRAM NAME =

 2649                             284     
 2650                             285     ;       ------------- ET1 --> CPUA ---------------
 2651                             286      MEM_MOV_TO_MEM SRC_ADR=_ET_CPUA_RCV_ACK_ET1+__ET1_TOP,L1=L,
 2652                             287     +               DST_ADR=_ET_CPUA_RCV_ACK_ET1+__BAS_TOP,L2=L,
 2653                             288     +               WKREG1=R1,WKREG2=R2,WKREG3=R3
 2654 000001D0 D109                   M           MOV.L   #_ET_CPUA_RCV_ACK_ET1+__ET1_TOP,R1
 2655 000001D2 6212                   M           MOV.L   @R1,R2  ;WK1=SRC_ADR WK2=data
 2656 000001D4 D309                   M           MOV.L   #_ET_CPUA_RCV_ACK_ET1+__BAS_TOP,R3      ;DST_ADR
 2657 000001D6 2322                   M           MOV.L   R2,@R3  ;DST_ADR
 2658                             289     
 2659                             290             SUB_END
 2660                                 M   ;;;;;;; ADD     #4,R15                  ;[不要?]
 2661 000001D8 4F26                   M           LDS.L   @R15+,PR                ;[必要]
 2662                             291             M_RTS
 2663 000001DA 000B                   M           RTS                             ;RTSの後ろの
 2664 000001DC 0009                   M           NOP                             ;@R15+,PRはﾀﾞﾒ
 2665                             292     
 2666                             293     
 2667                             294     ;       *******************************************
 2668                             295     ;       ***                                     ***
 2669                             296     ;       ***             無条件転送              ***
 2670                             297     ;       ***                                     ***
 2671                             298     ;       ***                                     ***
 2672                             299     ;       *******************************************
 2673                             300     ;
 2674                                     ***** BEGIN-POOL *****
 2675 000001DE 0000                       ALIGNMENT CODE
 2676 000001E0 00000000                   DATA FOR SOURCE-LINE 266
 2677 000001E4 00000000                   DATA FOR SOURCE-LINE 266
 2678 000001E8 00000000                   DATA FOR SOURCE-LINE 271
 2679 000001EC 00000000                   DATA FOR SOURCE-LINE 271
 2680 000001F0 00000000                   DATA FOR SOURCE-LINE 275
 2681 000001F4 00000000                   DATA FOR SOURCE-LINE 275
 2682 000001F8 00000000                   DATA FOR SOURCE-LINE 286
 2683 000001FC 00000000                   DATA FOR SOURCE-LINE 286
 2684                                     ***** END-POOL *****
 2685 00000200                    301     _CPUD_TO_ET1_SET
 2686                             302             SUB_START
 2687 00000200 4F22                   M           STS.L   PR,@-R15                ;[必要]
 2688                                 M   ;;;;;;; ADD     #-4,R15                 ;[不要?]
 2689                             303     
 2690                             304     ;;2014 MEM_WORD_BLOCK_MOV1      SRC_ADR=_ET1_IPS_ENT+__BAS_TOP,
 2691                             305     ;;2014                  DST_ADR=_ET1_IPS_ENT+__ET1_TOP,
 2692                             306     ;;2014                  CNT_DAT=(_ET1_DEF_GAT3+2-_ET1_IPS_ENT)/2,DT_REG=R2,CNT_REG=R3
 2693                             307     
 2694                             308     
 2695                             309     
 2696                             310     ;_ET1_IPS_ENT           .SRES   2                       ;[PON.CLR]IPｱﾄﾞﾚｽ確定
 2697                             311     ;_ET1_IPS_ADR0          .SRES   2                       ;IPｱﾄﾞﾚｽ
 2698                             312     ;_ET1_IPS_ADR1          .SRES   2                       ;IPｱﾄﾞﾚｽ
 2699                             313     ;_ET1_IPS_ADR2          .SRES   2                       ;IPｱﾄﾞﾚｽ
 2700                             314     ;_ET1_IPS_ADR3          .SRES   2                       ;IPｱﾄﾞﾚｽ
 2701                             315     ;_ET1_SUB_NET0          .SRES   2                       ;ｻﾌﾞﾈｯﾄﾏｽｸ
 2702                             316     ;_ET1_SUB_NET1          .SRES   2                       ;ｻﾌﾞﾈｯﾄﾏｽｸ
 2703                             317     ;_ET1_SUB_NET2          .SRES   2                       ;ｻﾌﾞﾈｯﾄﾏｽｸ
 2704                             318     ;_ET1_SUB_NET3          .SRES   2                       ;ｻﾌﾞﾈｯﾄﾏｽｸ
 2705                             319     ;_ET1_DEF_GAT0          .SRES   2                       ;ﾃﾞﾌｫﾙﾄｹﾞｰﾄｳｪｲ
*** SuperH RISC engine ASSEMBLER V.7.01.02.000 ***    11/14/21 17:04:29                                                  PAGE    12
PROGRAM NAME =

 2706                             320     ;_ET1_DEF_GAT1          .SRES   2                       ;ﾃﾞﾌｫﾙﾄｹﾞｰﾄｳｪｲ
 2707                             321     ;_ET1_DEF_GAT2          .SRES   2                       ;ﾃﾞﾌｫﾙﾄｹﾞｰﾄｳｪｲ
 2708                             322     ;_ET1_DEF_GAT3          .SRES   2                       ;ﾃﾞﾌｫﾙﾄｹﾞｰﾄｳｪｲ
 2709                             323     
 2710                             324     ;       ET1==>CPUD ADR.MONI
 2711                             325      MEM_WORD_BLOCK_MOV1    SRC_ADR=_ET1_IPM_ADR0+__ET1_TOP,
 2712                             326     +                       DST_ADR=_ET1_IPM_ADR0+__BAS_TOP,
 2713                             327     +                       CNT_DAT=(_ET1_IPM_ADR3+2-_ET1_IPM_ADR0)/2,DT_REG=R2,CNT_REG=R3
 2714 00000202 DA06                   M           MOV.L   #_ET1_IPM_ADR0+__ET1_TOP,R10                    ;
 2715 00000204 DB06                   M           MOV.L   #_ET1_IPM_ADR0+__BAS_TOP,R11                    ;
 2716 00000206 9307                   M           MOV.W   #(_ET1_IPM_ADR3+2-_ET1_IPM_ADR0)/2,R3           ;
 2717                                 M           BLOCK_MOV1      W,2,R10,R11,R2,R3
 2718 00000208                        M   JMP000002:                                      ;
 2719 00000208 2338                   M           TST     R3,R3   ;
 2720                                 M           TST_BIT_OF JMP100002            ;
 2721 0000020A 890B                   M           BT      JMP100002
 2722 0000020C 62A5                   M           MOV.W   @R10+,R2        ;
 2723 0000020E 2B21                   M           MOV.W   R2,@R11 ;
 2724 00000210 7B02                   M           ADD     #2,R11  ;
 2725 00000212 73FF                   M           ADD     #H'FF,R3                ;
 2726                                 M           M_BRA   JMP000002                       ;
 2727 00000214 AFF8                   M           BRA     JMP000002
 2728 00000216 0009                   M           NOP
 2729                                 M   ***** BEGIN-POOL *****
 2730 00000218 0000                   M   DATA FOR SOURCE-LINE 325
 2731 0000021A 0000                   M   ALIGNMENT CODE
 2732 0000021C 00000000               M   DATA FOR SOURCE-LINE 325
 2733 00000220 00000000               M   DATA FOR SOURCE-LINE 325
 2734                                 M   ***** END-POOL *****
 2735 00000224                        M   JMP100002:                                      ;
 2736                             328     
 2737                             329     ;       ET1==>CPUD VER.MONI
 2738                             330     ;       -------2014-01-07
 2739 00000224 D109               331             MOV.L   #_ET1_VER+__ET1_TOP,R1          ;
 2740 00000226 6012               332             MOV.L   @R1,R0                          ;
 2741 00000228 D109               333             MOV.L   #_ET1_VER+__BAS_TOP,R1          ;
 2742 0000022A 2102               334             MOV.L   R0,@R1
 2743                             335     
 2744                             336     
 2745                             337     
 2746                             338     
 2747                             339     
 2748                             340     ;;_ET1_IPM_ADR0         .SRES   2                       ;IPｱﾄﾞﾚｽ(ﾓﾆﾀ)
 2749                             341     ;;_ET1_IPM_ADR1         .SRES   2                       ;IPｱﾄﾞﾚｽ(ﾓﾆﾀ)
 2750                             342     ;;_ET1_IPM_ADR2         .SRES   2                       ;IPｱﾄﾞﾚｽ(ﾓﾆﾀ)
 2751                             343     ;;_ET1_IPM_ADR3         .SRES   2                       ;IPｱﾄﾞﾚｽ(ﾓﾆﾀ)
 2752                             344     
 2753 0000022C                    345     _CPUD2ET_000:
 2754 0000022C DA09               346             MOV.L   #_ET_LDCMND_REQ+__ET1_TOP,R10
 2755 0000022E 60A0               347             MOV.B   @R10,R0
 2756 00000230 8801               348             CMP/EQ  #1,R0
 2757 00000232 8B1C               349             BF      _CPUD2ET_100
 2758                             350     
 2759                             351     ;       <<< ET1からのﾛｰﾀﾞｺﾏﾝﾄﾞ発行 >>>
 2760                             352     ;                                                       ; ET1ﾛｰﾀﾞｺﾏﾝﾄﾞ -> CPUD
 2761                             353             MEM_WORD_BLOCK_MOV1     SRC_ADR=_ET_LDCMND_AREA+__ET1_TOP,
 2762                             354     +                               DST_ADR=_ET_LDCMND_AREA+__BAS_TOP,
*** SuperH RISC engine ASSEMBLER V.7.01.02.000 ***    11/14/21 17:04:29                                                  PAGE    13
PROGRAM NAME =

 2763                             355     +                               CNT_DAT=(512/2), DT_REG=R2, CNT_REG=R3
 2764 00000234 DA08                   M           MOV.L   #_ET_LDCMND_AREA+__ET1_TOP,R10                  ;
 2765 00000236 DB09                   M           MOV.L   #_ET_LDCMND_AREA+__BAS_TOP,R11                  ;
 2766 00000238 9307                   M           MOV.W   #(512/2),R3             ;
 2767                                 M           BLOCK_MOV1      W,2,R10,R11,R2,R3
 2768 0000023A                        M   JMP000003:                                      ;
 2769 0000023A 2338                   M           TST     R3,R3   ;
 2770                                 M           TST_BIT_OF JMP100003            ;
 2771 0000023C 8910                   M           BT      JMP100003
 2772 0000023E 62A5                   M           MOV.W   @R10+,R2        ;
 2773 00000240 2B21                   M           MOV.W   R2,@R11 ;
 2774 00000242 7B02                   M           ADD     #2,R11  ;
 2775 00000244 73FF                   M           ADD     #H'FF,R3                ;
 2776                                 M           M_BRA   JMP000003                       ;
 2777 00000246 AFF8                   M           BRA     JMP000003
 2778 00000248 0009                   M           NOP
 2779                                 M   ***** BEGIN-POOL *****
 2780 0000024A 0100                   M   DATA FOR SOURCE-LINE 353
 2781 0000024C 00000000               M   DATA FOR SOURCE-LINE 331
 2782 00000250 00000000               M   DATA FOR SOURCE-LINE 333
 2783 00000254 00000000               M   DATA FOR SOURCE-LINE 346
 2784 00000258 00000000               M   DATA FOR SOURCE-LINE 353
 2785 0000025C 00000000               M   DATA FOR SOURCE-LINE 353
 2786                                 M   ***** END-POOL *****
 2787 00000260                        M   JMP100003:                                      ;
 2788                             356     
 2789 00000260 DA0B               357             MOV.L   #_ET_LDCMND_REQ+__BAS_TOP,R10
 2790 00000262 D00C               358             MOV.L   #1,R0
 2791 00000264 6008               359             SWAP.B  R0,R0
 2792 00000266 2A01               360             MOV.W   R0,@R10                                 ; CPUDへﾛｰﾀﾞｺﾏﾝﾄﾞ有り通知
 2793                             361     
 2794 00000268 DA0B               362             MOV.L   #_ET_LDCMND_REQ+__ET1_TOP,R10
 2795 0000026A D00C               363             MOV.L   #0,R0
 2796 0000026C 2A00               364             MOV.B   R0,@R10
 2797                             365     
 2798                             366     
 2799                             367     ;       << CPUDからのﾚｽﾎﾟﾝｽ待ち>>
 2800 0000026E                    368     _CPUD2ET_100:
 2801 0000026E DA0C               369             MOV.L   #_ET_LDCMND_RES+__BAS_TOP,R10
 2802 00000270 60A1               370             MOV.W   @R10,R0
 2803 00000272 6008               371             SWAP.B  R0,R0
 2804 00000274 8801               372             CMP/EQ  #1,R0                                   ; 1:CPUDﾛｰﾀﾞｺﾏﾝﾄﾞ有り
 2805 00000276 8B1F               373             BF      _CPUD2ET_200
 2806                             374     
 2807                             375     ;       <<< CPUDからのﾛｰﾀﾞｺﾏﾝﾄﾞ応答 >>>
 2808                             376     ;                                                       ; CPUDﾛｰﾀﾞｺﾏﾝﾄﾞ -> ET1
 2809                             377             MEM_WORD_BLOCK_MOV1     SRC_ADR=_ET_LDCMND_AREA+__BAS_TOP,
 2810                             378     +                               DST_ADR=_ET_LDCMND_AREA+__ET1_TOP,
 2811                             379     +                               CNT_DAT=(512/2), DT_REG=R2, CNT_REG=R3
 2812 00000278 DA0A                   M           MOV.L   #_ET_LDCMND_AREA+__BAS_TOP,R10                  ;
 2813 0000027A DB0B                   M           MOV.L   #_ET_LDCMND_AREA+__ET1_TOP,R11                  ;
 2814 0000027C 9307                   M           MOV.W   #(512/2),R3             ;
 2815                                 M           BLOCK_MOV1      W,2,R10,R11,R2,R3
 2816 0000027E                        M   JMP000004:                                      ;
 2817 0000027E 2338                   M           TST     R3,R3   ;
 2818                                 M           TST_BIT_OF JMP100004            ;
 2819 00000280 8914                   M           BT      JMP100004
*** SuperH RISC engine ASSEMBLER V.7.01.02.000 ***    11/14/21 17:04:29                                                  PAGE    14
PROGRAM NAME =

 2820 00000282 62A5                   M           MOV.W   @R10+,R2        ;
 2821 00000284 2B21                   M           MOV.W   R2,@R11 ;
 2822 00000286 7B02                   M           ADD     #2,R11  ;
 2823 00000288 73FF                   M           ADD     #H'FF,R3                ;
 2824                                 M           M_BRA   JMP000004                       ;
 2825 0000028A AFF8                   M           BRA     JMP000004
 2826 0000028C 0009                   M           NOP
 2827                                 M   ***** BEGIN-POOL *****
 2828 0000028E 0100                   M   DATA FOR SOURCE-LINE 377
 2829 00000290 00000000               M   DATA FOR SOURCE-LINE 357
 2830 00000294 00000001               M   DATA FOR SOURCE-LINE 358
 2831 00000298 00000000               M   DATA FOR SOURCE-LINE 362
 2832 0000029C 00000000               M   DATA FOR SOURCE-LINE 363
 2833 000002A0 00000000               M   DATA FOR SOURCE-LINE 369
 2834 000002A4 00000000               M   DATA FOR SOURCE-LINE 377
 2835 000002A8 00000000               M   DATA FOR SOURCE-LINE 377
 2836                                 M   ***** END-POOL *****
 2837 000002AC                        M   JMP100004:                                      ;
 2838                             380     
 2839 000002AC DA04               381             MOV.L   #_ET_LDCMND_RES+__ET1_TOP,R10           ;
 2840 000002AE D005               382             MOV.L   #1,R0
 2841 000002B0 2A00               383             MOV.B   R0,@R10                                 ; ET1へﾛｰﾀﾞｺﾏﾝﾄﾞ有り通知()本当はSW
                                          APしてﾜｰﾄﾞﾗｲﾄが正解
 2842                             384     
 2843 000002B2 DA05               385             MOV.L   #_ET_LDCMND_RES+__BAS_TOP,R10           ;
 2844 000002B4 D005               386             MOV.L   #0,R0                                   ;
 2845 000002B6 2A01               387             MOV.W   R0,@R10                                 ;
 2846                             388     
 2847 000002B8                    389     _CPUD2ET_200:
 2848                             390     
 2849                             391     
 2850                             392     
 2851                             393             SUB_END
 2852                                 M   ;;;;;;; ADD     #4,R15                  ;[不要?]
 2853 000002B8 4F26                   M           LDS.L   @R15+,PR                ;[必要]
 2854                             394             M_RTS
 2855 000002BA 000B                   M           RTS                             ;RTSの後ろの
 2856 000002BC 0009                   M           NOP                             ;@R15+,PRはﾀﾞﾒ
 2857                             395     
 2858                             396     ;       ***********************************
 2859                             397     ;       ***                             ***
 2860                             398     ;       ***     CPUB-->ET1              ***
 2861                             399     ;       ***             DATA,TRIG       ***
 2862                             400     ;       ***                             ***
 2863                             401     ;       ***********************************
 2864                             402     ;       128byte単位で7FFFまで転送する
 2865                             403     
 2866                             404     
 2867                             405     ;       *******************************************
 2868                             406     ;       ***                                     ***
 2869                             407     ;       ***                                     ***
 2870                             408     ;       ***                                     ***
 2871                             409     ;       ***     KOMTRAXデータ部                 ***
 2872                             410     ;       ***     (有効だけにしておく)            ***
 2873                             411     ;       ***     2014-09-30                      ***
 2874                             412     ;       ***     品番/WDT/                       ***
 2875                             413     ;       ***     CPUD<=>ET1                      ***
*** SuperH RISC engine ASSEMBLER V.7.01.02.000 ***    11/14/21 17:04:29                                                  PAGE    15
PROGRAM NAME =

 2876                             414     ;       ***                                     ***
 2877                             415     ;       *******************************************
 2878                             416     ;_ET2_SITM_ADR          .SRES   2                       ;FA2,3 SIT4->ET1  R/W ADR
 2879                             417     ;_ET2_SITM_REQ          .SRES   1                       ;[PON.CLR]FA4   SIT4->ET1  HND=BIT
                                          7 R/W=BIT6(BIT5~BIT0は空間)
 2880                             418     ;_ET2_SITM_ACK          .SRES   1                       ;[PON.CLR]FA5   SIT4<-ET1;
 2881                             419     ;_ET2_SITM_WRDT         .SRES   2                       ;FA6,7 SIT4->ET1  WR data
 2882                             420     ;_ET2_SITM_RDDT         .SRES   2                       ;FA8,9(SIT4<-ET1) RD data
 2883                             421     ;_ET2_SEQ_IDT01         .sres   2                       ;[PON.CLR]FAA,B seq(SQ149)-->et2
 2884                             422     ;_ET2_SEQ_QDT01         .sres   2                       ;[PON.CLR]FAC,D et2-->seq(SQ86)
 2885                             423     
 2886                             424             .IMPORT _ET2_WORD_SITM_REQ              ;CPUD/B間はﾜｰﾄﾞで行う ET2_SITM_REQ
 2887                             425             .IMPORT _ET2_WORD_SITM_ACK              ;CPUD/B間はﾜｰﾄﾞで行う ET2_SITM_ACK
 2888                             426     
 2889                                     ***** BEGIN-POOL *****
 2890 000002BE 0000                       ALIGNMENT CODE
 2891 000002C0 00000000                   DATA FOR SOURCE-LINE 381
 2892 000002C4 00000001                   DATA FOR SOURCE-LINE 382
 2893 000002C8 00000000                   DATA FOR SOURCE-LINE 385
 2894 000002CC 00000000                   DATA FOR SOURCE-LINE 386
 2895                                     ***** END-POOL *****
 2896 000002D0                    427             .ALIGN  4
 2897 000002D0                    428     _KOMTRAX_DAT_CPUD_TO_ET1
 2898                             429             SUB_START
 2899 000002D0 4F22                   M           STS.L   PR,@-R15                ;[必要]
 2900                                 M   ;;;;;;; ADD     #-4,R15                 ;[不要?]
 2901                             430     
 2902                             431     ;       -------高速ｼｰｹﾝｽ 1ｻｲｸﾙ信号 CPUD(SQ149)==>ET1 -----------------
 2903                             432      MEM_MOV_TO_MEM         SRC_ADR=_ET2_SEQ_IDT01+__BAS_TOP,L1=W,
 2904                             433     +                       DST_ADR=_ET2_SEQ_IDT01+__ET1_TOP,L2=W,
 2905                             434     +                       WKREG1=R1,WKREG2=R2,WKREG3=R3
 2906 000002D2 D118                   M           MOV.L   #_ET2_SEQ_IDT01+__BAS_TOP,R1
 2907 000002D4 6211                   M           MOV.W   @R1,R2  ;WK1=SRC_ADR WK2=data
 2908 000002D6 D318                   M           MOV.L   #_ET2_SEQ_IDT01+__ET1_TOP,R3    ;DST_ADR
 2909 000002D8 2321                   M           MOV.W   R2,@R3  ;DST_ADR
 2910                             435     
 2911                             436     ;       -------高速ｼｰｹﾝｽ ｱﾝﾃﾅ     ET1==>CPUD(SQ87) -----------------
 2912                             437      MEM_MOV_TO_MEM         SRC_ADR=_ET2_SEQ_QDT01+__ET1_TOP,L1=W,
 2913                             438     +                       DST_ADR=_ET2_SEQ_QDT01+__BAS_TOP,L2=W,
 2914                             439     +                       WKREG1=R1,WKREG2=R2,WKREG3=R3
 2915 000002DA D118                   M           MOV.L   #_ET2_SEQ_QDT01+__ET1_TOP,R1
 2916 000002DC 6211                   M           MOV.W   @R1,R2  ;WK1=SRC_ADR WK2=data
 2917 000002DE D318                   M           MOV.L   #_ET2_SEQ_QDT01+__BAS_TOP,R3    ;DST_ADR
 2918 000002E0 2321                   M           MOV.W   R2,@R3  ;DST_ADR
 2919                             440     
 2920                             441     
 2921                             442     ;       -------------- 書込コマンド CPUD==>ET1-----------------
 2922                             443     ;;;;;;;;;       MOV.L   #_ET2_SITM_REQ+__BAS_TOP,R1             ;CPUDのDPRAMはﾜｰﾄﾞｱｸｾｽのみ
 2923                             444     ;;;;;;;;;       MOV.W   @R1,R2                                  ;+0番地側
 2924                             445     ;;;;;;;;;       SHLR8   R2                                      ;
 2925                             446     ;;;;;;;;;       EXTU.B  R2,R2                                   ;
 2926                             447     
 2927 000002E2 D118               448             MOV.L   #_ET2_WORD_SITM_REQ,R1                  ;CPUD/B間はﾜｰﾄﾞで行う ET2_SITM_REQ
 2928 000002E4 6211               449             MOV.W   @R1,R2                                  ;
 2929 000002E6 622C               450             EXTU.B  R2,R2                                   ;
 2930 000002E8 D117               451             MOV.L   #_CPUD_ET2_REQ_OLD,R1                   ;
 2931 000002EA 6011               452             MOV.W   @R1,R0                                  ;
*** SuperH RISC engine ASSEMBLER V.7.01.02.000 ***    11/14/21 17:04:29                                                  PAGE    16
PROGRAM NAME =

 2932 000002EC 2121               453             MOV.W   R2,@R1                                  ;
 2933                             454     
 2934 000002EE 202A               455             XOR     R2,R0                                   ;
 2935 000002F0 2008               456             TST     R0,R0                                   ;
 2936                             457             TST_BIT_OF ET1_CPUD_DT_MV100                    ;ﾄﾘｶﾞ変化なし
 2937 000002F2 890B                   M           BT      ET1_CPUD_DT_MV100
 2938                             458     
 2939                             459     
 2940                             460     
 2941                             461      MEM_MOV_TO_MEM         SRC_ADR=_ET2_SITM_ADR+__BAS_TOP,L1=W,
 2942                             462     +                       DST_ADR=_ET2_SITM_ADR+__ET1_TOP,L2=W,
 2943                             463     +                       WKREG1=R1,WKREG2=R2,WKREG3=R3
 2944 000002F4 D115                   M           MOV.L   #_ET2_SITM_ADR+__BAS_TOP,R1
 2945 000002F6 6211                   M           MOV.W   @R1,R2  ;WK1=SRC_ADR WK2=data
 2946 000002F8 D315                   M           MOV.L   #_ET2_SITM_ADR+__ET1_TOP,R3     ;DST_ADR
 2947 000002FA 2321                   M           MOV.W   R2,@R3  ;DST_ADR
 2948                             464     
 2949                             465      MEM_MOV_TO_MEM         SRC_ADR=_ET2_SITM_WRDT+__BAS_TOP,L1=W,
 2950                             466     +                       DST_ADR=_ET2_SITM_WRDT+__ET1_TOP,L2=W,
 2951                             467     +                       WKREG1=R1,WKREG2=R2,WKREG3=R3
 2952 000002FC D115                   M           MOV.L   #_ET2_SITM_WRDT+__BAS_TOP,R1
 2953 000002FE 6211                   M           MOV.W   @R1,R2  ;WK1=SRC_ADR WK2=data
 2954 00000300 D315                   M           MOV.L   #_ET2_SITM_WRDT+__ET1_TOP,R3    ;DST_ADR
 2955 00000302 2321                   M           MOV.W   R2,@R3  ;DST_ADR
 2956                             468     
 2957 00000304 D110               469             MOV.L   #_CPUD_ET2_REQ_OLD,R1                   ;
 2958 00000306 6011               470             MOV.W   @R1,R0                                  ;
 2959 00000308 D114               471             MOV.L   #_ET2_SITM_REQ+__ET1_TOP,R1             ;
 2960 0000030A 2100               472             MOV.B   R0,@R1                                  ;
 2961                             473     
 2962                             474     
 2963 0000030C                    475     ET1_CPUD_DT_MV100
 2964                             476     
 2965                             477     
 2966                             478     ;       -------------- 読出コマンド ET1=>CPUD-----------------
 2967 0000030C D114               479             MOV.L   #_ET2_SITM_ACK+__ET1_TOP,R1             ;
 2968 0000030E 6210               480             MOV.B   @R1,R2                                  ;
 2969 00000310 622C               481             EXTU.B  R2,R2                                   ;
 2970                             482     
 2971 00000312 D114               483             MOV.L   #_ET2_CPUD_ACK_OLD,R1                   ;
 2972 00000314 6011               484             MOV.W   @R1,R0                                  ;
 2973 00000316 2121               485             MOV.W   R2,@R1                                  ;
 2974 00000318 202A               486             XOR     R2,R0                                   ;
 2975 0000031A 2008               487             TST     R0,R0                                   ;
 2976                             488             TST_BIT_OF ET1_CPUD_DT_MV200                    ;
 2977 0000031C 8907                   M           BT      ET1_CPUD_DT_MV200
 2978                             489     
 2979                             490      MEM_MOV_TO_MEM         SRC_ADR=_ET2_SITM_RDDT+__ET1_TOP,L1=W,
 2980                             491     +                       DST_ADR=_ET2_SITM_RDDT+__BAS_TOP,L2=W,
 2981                             492     +                       WKREG1=R1,WKREG2=R2,WKREG3=R3
 2982 0000031E D112                   M           MOV.L   #_ET2_SITM_RDDT+__ET1_TOP,R1
 2983 00000320 6211                   M           MOV.W   @R1,R2  ;WK1=SRC_ADR WK2=data
 2984 00000322 D312                   M           MOV.L   #_ET2_SITM_RDDT+__BAS_TOP,R3    ;DST_ADR
 2985 00000324 2321                   M           MOV.W   R2,@R3  ;DST_ADR
 2986                             493     
 2987                             494     
 2988                             495     ;       --_ET2_SITM_ACKにﾊﾞｲﾄﾗｲﾄできない--------
*** SuperH RISC engine ASSEMBLER V.7.01.02.000 ***    11/14/21 17:04:29                                                  PAGE    17
PROGRAM NAME =

 2989 00000326 D10F               496             MOV.L   #_ET2_CPUD_ACK_OLD,R1                   ;
 2990 00000328 6011               497             MOV.W   @R1,R0                                  ;
 2991 0000032A D111               498             MOV.L   #_ET2_WORD_SITM_ACK,R1                  ;CPUD-B間専用
 2992 0000032C 2101               499             MOV.W   R0,@R1                                  ;
 2993                             500     
 2994 0000032E                    501     ET1_CPUD_DT_MV200
 2995                             502     
 2996                             503     
 2997                             504     
 2998                             505             SUB_END
 2999                                 M   ;;;;;;; ADD     #4,R15                  ;[不要?]
 3000 0000032E 4F26                   M           LDS.L   @R15+,PR                ;[必要]
 3001                             506             M_RTS
 3002 00000330 000B                   M           RTS                             ;RTSの後ろの
 3003 00000332 0009                   M           NOP                             ;@R15+,PRはﾀﾞﾒ
 3004                             507     
 3005                             508     
 3006                             509     
 3007                             510     
 3008                             511     
 3009                             512     ;       ***************************************************
 3010                             513     ;       ***                                             ***
 3011                             514     ;       ***                                             ***
 3012                             515     ;       ***             wkram定義                       ***
 3013                             516     ;       ***                                             ***
 3014                             517     ;       ***                                             ***
 3015                             518     ;       ***************************************************
 3016                                     ***** BEGIN-POOL *****
 3017 00000334 00000000                   DATA FOR SOURCE-LINE 432
 3018 00000338 00000000                   DATA FOR SOURCE-LINE 432
 3019 0000033C 00000000                   DATA FOR SOURCE-LINE 437
 3020 00000340 00000000                   DATA FOR SOURCE-LINE 437
 3021 00000344 00000000                   DATA FOR SOURCE-LINE 448
 3022 00000348 00000000                   DATA FOR SOURCE-LINE 451,469
 3023 0000034C 00000000                   DATA FOR SOURCE-LINE 461
 3024 00000350 00000000                   DATA FOR SOURCE-LINE 461
 3025 00000354 00000000                   DATA FOR SOURCE-LINE 465
 3026 00000358 00000000                   DATA FOR SOURCE-LINE 465
 3027 0000035C 00000000                   DATA FOR SOURCE-LINE 471
 3028 00000360 00000000                   DATA FOR SOURCE-LINE 479
 3029 00000364 00000000                   DATA FOR SOURCE-LINE 483,496
 3030 00000368 00000000                   DATA FOR SOURCE-LINE 490
 3031 0000036C 00000000                   DATA FOR SOURCE-LINE 490
 3032 00000370 00000000                   DATA FOR SOURCE-LINE 498
 3033                                     ***** END-POOL *****
 3034 00000000                    519             .SECTION        Bwkram1,DATA                    ;
 3035                             520     
 3036                             521             .EXPORT         _ET1_INITAL_FLG                 ; SHIMA
 3037                             522     
 3038 00000000                    523             .ALIGN  4                                       ;
 3039 00000000 00000004           524     _CPU_REQ_DAT_CNT        .SRES   4                       ;
 3040 00000004 00000002           525     _ET1_INITAL_FLG         .SRES   2                       ;
 3041 00000006 00000002           526     _ET1_BANK_SEL           .SRES   2                       ;現在選択バック
 3042 00000008 00000002           527     _ET1_BANK_ACS           .SRES   2                       ;ﾊﾞﾝｸｱｸｾｽ中
 3043 0000000A 00000002           528     _CPU_REQ_DAT_FLG        .SRES   2                       ;
 3044                             529     
 3045 0000000C                    530             .ALIGN  4                                       ;
*** SuperH RISC engine ASSEMBLER V.7.01.02.000 ***    11/14/21 17:04:29                                                  PAGE    18
PROGRAM NAME =

 3046 0000000C 00000004           531     _CPUA_REQ_OLD           .SRES   4                       ;
 3047                             532     
 3048                             533     
 3049                             534     
 3050                             535     ;       ***************************************************
 3051                             536     ;       ***                                             ***
 3052                             537     ;       ***             2014-09-29                      ***
 3053                             538     ;       ***             komtrax cpub                    ***
 3054                             539     ;       ***             cpub通り道だけ                  ***
 3055                             540     ;       ***                                             ***
 3056                             541     ;       ***************************************************
 3057 00000010 00000002           542     _CPUD_ET2_REQ_OLD               .SRES   2                       ;
 3058 00000012 00000002           543     _ET2_CPUD_ACK_OLD               .SRES   2                       ;
 3059                             544     
 3060                             545     
 3061                             546     
 3062                             547     
 3063                             548     ;       -------------------------------------------
 3064                             549     ;       ---                                     ---
 3065                             550     ;       ---     2009-07-27 KOMTRAX              ---
 3066                             551     ;       ---                                     ---
 3067                             552     ;       ---                                     ---
 3068                             553     ;       -------------------------------------------
 3069                             554     ;       -------- 2009-07-27(PROCESS)---------------
 3070 00000014                    555             .ALIGN  4                                       ;
 3071                             556     ;;[[]]_KMT_TRS_CMD              .SRES   2                       ;=ADR(_KMT_TRSSV1_CMD)
 3072                             557     ;;[[]]_KMT_TRSPV_CNT            .SRES   2                       ;書込/読出ﾃﾞｰﾀ数
 3073                             558     ;;[[]]_KMT_TRS_SCAN             .SRES   2                       ;16ﾌﾟﾛｾｽまで起動可能なよう
                                          に監視
 3074                             559     ;;[[]]_KMT_REQ_SIG              .SRES   2                       ;
 3075                             560     ;;[[]]
 3076                             561     ;;[[]]; -------- ﾌﾟﾛｾｽのﾗｯﾁﾃﾞｰﾀ -------
 3077                             562     ;;[[]]  .ALIGN  4                                       ;
 3078                             563     ;;[[]]_KMT_TRSLT_TOPADR .SRES   4                       ;ｽﾄﾗｸﾁｬ
 3079                             564     ;;[[]]_KMT_TRSLT_MEMKND .SRES   2                       ;0:固定 (SIT_MEMを対象)
 3080                             565     ;;[[]]_KMT_TRSLT_OBJADR .SRES   2                       ;TOP_ADR
 3081                             566     ;;[[]]_KMT_TRSLT_CNT            .SRES   2                       ;MAX 1~256 word
 3082                             567     ;;[[]]_KMT_TRSLT_DAT            .SRES   2*256                   ;MAX 256word
 3083                             568     ;;[[]]
 3084                             569     ;;[[]]; --------------------------------
 3085                             570     ;;[[]]; ----    EVENT SOFT->TRANS SOFT
 3086                             571     ;;[[]]; -------- 2009-07-27(API1)-------
 3087                             572     ;;[[]]  .ALIGN  4                                                       ;
 3088                             573     ;;[[]]_KMT_TRSSV1_FORM:                                 ;配列
 3089                             574     ;;[[]]_KMT_TRSSV1_TOP:                                  ;配列
 3090                             575     ;;[[]]_KMT_TRSSV1_CMD           .SRES   2                       ;1:WRITE 2:READ ANS=0:IDLE
 3091                             576     ;;[[]]_KMT_TRSSV1_MEMKND        .SRES   2                       ;0:固定 (SIT_MEMを対象)
 3092                             577     ;;[[]]_KMT_TRSSV1_OBJADR        .SRES   2                       ;TOP_ADR()
 3093                             578     ;;[[]]_KMT_TRSSV1_CNT           .SRES   2                       ;MAX 1~256 word
 3094                             579     ;;[[]]_KMT_TRSSV1_DAT           .SRES   2*8                     ;MAX 256word "8CHAR MAX16C
                                          HAR"
 3095                             580     ;;[[]]
 3096                             581     ;;[[]]
 3097                             582     ;;[[]]; ============= HAND WRITE ==========
 3098                             583     ;;[[]]_KMT_TRSSV2_TOP:  .SRES   2*4+2*2                 ;配列(1word MAX 2word)
 3099                             584     ;;[[]]_KMT_TRSSV3_TOP:  .SRES   2*4+2*50                ;配列32word(MAX64word)
 3100                             585     ;;[[]]_KMT_TRSSV4_TOP:  .SRES   2*4+2*64                ;配列32word(MAX50word)
*** SuperH RISC engine ASSEMBLER V.7.01.02.000 ***    11/14/21 17:04:29                                                  PAGE    19
PROGRAM NAME =

 3101                             586     ;;[[]]_KMT_TRSSV5_TOP:  .SRES   2*4+2*80                ;80WORD
 3102                             587     ;;[[]]_KMT_TRSSV6_TOP:  .SRES   2*4+2*64                ;32WORD
 3103                             588     ;;[[]]_KMT_EVENT_FLG            .SRES   2                       ;ｲﾍﾞﾝﾄのｽﾃｯﾌﾟ管理BIT1,2,3
                                          ??なぜBIT0使わなかった?
 3104                             589     ;;[[]]_KMT_EVENT_CHAR           .SRES   8                       ;8文字*8:64文字
 3105                             590     ;;[[]]_KMT_EVENT_SIGTIM .SRES   2                       ;
 3106                             591     ;;[[]]_KMT_EVENT_CHGF           .SRES   2                       ;ｷｬﾗｸﾀﾃﾞｰﾀ
 3107                             592     ;;[[]]_KMT_DLYSCAN_TIM  .SRES   2                       ;
 3108                             593     ;;[[]]_KMT_OLD_CHRNO            .SRES   2*8                     ;FFFF->dataの時のみ
 3109                             594     ;;[[]]_KMT_USE_CHRNO            .SRES   2*8                     ;
 3110                             595     ;;[[]]_KMT_CHK_CHRNO            .SRES   2*8                     ;
 3111                             596     ;;[[]]_KMT_STS_SQ087            .SRES   2                       ;
 3112                             597     ;;[[]]_KMT_1CYCL_SIGTIM .SRES   2                       ;
 3113                             598     ;;[[]]_KMT_HANDWR_FLG           .SRES   2                       ;HANDｼｪｲｸWR
 3114                             599     ;;[[]]_KMT_HANDWDT_CNT  .SRES   2                       ;
 3115                             600     ;;[[]]_KMT_HANDWDT_TIM  .SRES   2                       ;
 3116                             601     ;;[[]]_KMT_STS1RD_FLG           .SRES   2                       ;ｽﾃｰﾀｽREAD　50WMAX
 3117                             602     ;;[[]]_KMT_STS1_SET             .SRES   2                       ;BIT0~BIT7(確定ﾃﾞｰﾀあり)
 3118                             603     ;;[[]]_KMT_STS1_AREA            .SRES   2*50                    ;MAX50word(16WORD)
 3119                             604     ;;[[]]_KMT_STS1MN_SQ87  .SRES   2                       ;
 3120                             605     ;;[[]]_KMT_COM1_AREA            .SRES   2*50                    ;
 3121                             606     ;;[[]]_KMT_TYP_011              .SRES   2                       ;0:010型/:011型機能
 3122                             607     ;;[[]]_KMT_PROC_10MS            .SRES   2                       ;10msecﾀｲﾏ作成
 3123                             608     ;;[[]]_KMT_HINBAN_SIGTIM        .SRES   2       ;150msec信号作成用
 3124                             609     ;;[[]]_KMT_HINBAN_FLG           .SRES   2       ;150msec信号作成用
 3125                             610     ;;[[]]_KMT_HINBAN_SEL           .SRES   2       ;BIT0=1:開始(87.4)　BIT1=1:終了(87.4)
 3126                             611     ;;[[]]_KMT_HINBAN_CHGF  .SRES   2       ;BIT0=1開始ｲﾍﾞﾝﾄ BIT1:終了ｲﾍﾞﾝﾄ
 3127                             612     ;;[[]]
 3128                             613     ;;[[]];
 3129                             614     ;;[[]]_KMT_HINBAN_TRG_NUM       .SRES   2                       ;0個[保留なし],1個,2個,3個
                                          ,4個
 3130                             615     ;;[[]];;;;;;;_KMT_HINBAN_TRG_FLG        .SRES   2*_HINBAN_BUF_MAX               ;保留が発
                                          生した場合の処理
 3131                             616     ;;[[]]                                                  ;0:ﾃﾞｰﾀ存在なし BIT0=1[開始],BIT1=
                                          1[終了]
 3132                             617     ;;[[]]                                                  ;+0:現在
 3133                             618     ;;[[]]                                                  ;+1:次回
 3134                             619     ;;[[]]                                                  ;+2:次々回
 3135                             620     ;;[[]]                                                  ;+3:次次々回
 3136                             621     ;;[[]]                                                  ;+4:次次次々回
 3137                             622     ;;[[]]                                                  ;
 3138                             623     ;;[[]]; -------- 4byteﾃﾞｰﾀでも2byteｱｸｾｽしかしない------------
 3139                             624     ;;[[]]
 3140                             625     ;;[[]]
 3141                             626     ;;[[]]; -------- 消耗処理-------------
 3142                             627     ;;[[]]_KMT_SYOUMO_SIGTIM        .SRES   2       ;150msec信号作成用
 3143                             628     ;;[[]]_KMT_SYOUMO_FLG           .SRES   2       ;150msec信号作成用
 3144                             629     ;;[[]]_KMT_SYOUMO_CHGF  .SRES   2       ;BIT0=1開始ｲﾍﾞﾝﾄ BIT1:終了ｲﾍﾞﾝﾄ
 3145                             630     ;;[[]]
 3146                             631     ;;[[]]; -------------------------------------------
 3147                             632     ;;[[]]; ---     確定して送るだけの状態のデータ  ---
 3148                             633     ;;[[]]; ---     2011-01-14                      ---
 3149                             634     ;;[[]]; -------------------------------------------
 3150                             635     ;;[[]]; -------- 4byteﾃﾞｰﾀでも2byteｱｸｾｽしかしない------------
 3151                             636     ;;;;;;;_KMT_HMI_SYOUMO_DAT      .SRES   __SITM_SYOUMO_CNT       ;64byte
 3152                             637     ;;;;;;;_KMT_HMI_HINBAN_BUF      .SRES   __SITM_HINBAN_CNT*_HINBAN_BUF_MAX       ;6BUFF
 3153                             638     
*** SuperH RISC engine ASSEMBLER V.7.01.02.000 ***    11/14/21 17:04:29                                                  PAGE    20
PROGRAM NAME =

 3154                             639     ;       ----- CPUD <-> ET1 -----------------------
 3155                             640     ;;;;;;;;_ET1_REQ_FLG            .SRES   2               ; ET1ﾛｰﾀﾞｺﾏﾝﾄﾞ REQ FLG
 3156                             641     ;;;;;;;;_CPUD_RES_FLG           .SRES   2               ; CPUDﾛｰﾀﾞｺﾏﾝﾄﾞ REQ FLG
 3157                             642     
 3158                             643     ;
 3159                             644     ;;;;    .SECTION        P,CODE                  ;
 3160                             645     
 3161                             646             .END
  *****TOTAL ERRORS       0
  *****TOTAL WARNINGS     0
*** SuperH RISC engine ASSEMBLER V.7.01.02.000 ***    11/14/21 17:04:29                                                  PAGE    21

*** CROSS REFERENCE LIST

NAME                             SECTION  ATTR VALUE             SEQUENCE

BIT0                                      EQU  00000001     15*
BIT1                                      EQU  00000002     16*
BIT10                                     EQU  00000400     25*
BIT11                                     EQU  00000800     26*
BIT12                                     EQU  00001000     27*
BIT13                                     EQU  00002000     28*
BIT14                                     EQU  00004000     29*
BIT15                                     EQU  00008000     30*
BIT16                                     EQU  00010000     31*
BIT17                                     EQU  00020000     32*
BIT18                                     EQU  00040000     33*
BIT19                                     EQU  00080000     34*
BIT2                                      EQU  00000004     17*
BIT20                                     EQU  00100000     35*
BIT21                                     EQU  00200000     36*
BIT22                                     EQU  00400000     37*
BIT23                                     EQU  00800000     38*
BIT24                                     EQU  01000000     39*
BIT25                                     EQU  02000000     40*
BIT26                                     EQU  04000000     41*
BIT27                                     EQU  08000000     42*
BIT28                                     EQU  10000000     43*
BIT29                                     EQU  20000000     44*
BIT3                                      EQU  00000008     18*
BIT30                                     EQU  40000000     45*
BIT31                                     EQU  80000000     46*
BIT4                                      EQU  00000010     19*
BIT5                                      EQU  00000020     20*
BIT6                                      EQU  00000040     21* 2264  2280  2319  2369  2445 
BIT7                                      EQU  00000080     22*
BIT8                                      EQU  00000100     23*
BIT9                                      EQU  00000200     24*
Bfram                            Bfram    SCT  00000000   2255*
Bwkram1                          Bwkram1  SCT  00000000   3034*
ET1_CPUA_DT_MV100                P             000001D0   2589  2648*
ET1_CPUD_DT_MV100                P             0000030C   2937  2963*
ET1_CPUD_DT_MV200                P             0000032E   2977  2994*
ET1_CPU_HIGHMV_END               P             00000024   2266  2282  2289*
ET1_CPU_MNMV_100                 P             0000005C   2321  2334*
ET1_CPU_MNMV_END                 P             00000062   2327  2341*
ET1_INIT_CHK_END                 P             000000E4   2371  2380  2431  2440  2448*
H_BYTE                                    EQU  00000000     82*
JMP000000                        P             00000092   2399* 2408 
JMP000001                        P             00000194   2598* 2607 
JMP000002                        P             00000208   2718* 2727 
JMP000003                        P             0000023A   2768* 2777 
JMP000004                        P             0000027E   2816* 2825 
JMP100000                        P             000000C0   2402  2421*
JMP100001                        P             000001B8   2601  2617*
JMP100002                        P             00000224   2721  2735*
JMP100003                        P             00000260   2771  2787*
JMP100004                        P             000002AC   2819  2837*
L_BYTE                                    EQU  00000001     81*
NBIT0                                     EQU  000000FE     49*
*** SuperH RISC engine ASSEMBLER V.7.01.02.000 ***    11/14/21 17:04:29                                                  PAGE    22

*** CROSS REFERENCE LIST

NAME                             SECTION  ATTR VALUE             SEQUENCE

NBIT1                                     EQU  000000FD     50*
NBIT10                                    EQU  0000FBFF     60*
NBIT11                                    EQU  0000F7FF     61*
NBIT12                                    EQU  0000EFFF     62*
NBIT13                                    EQU  0000DFFF     63*
NBIT14                                    EQU  0000BFFF     64*
NBIT15                                    EQU  00007FFF     65*
NBIT2                                     EQU  000000FB     51*
NBIT3                                     EQU  000000F7     52*
NBIT4                                     EQU  000000EF     53*
NBIT5                                     EQU  000000DF     54*
NBIT6                                     EQU  000000BF     55*
NBIT7                                     EQU  0000007F     56*
NBIT8                                     EQU  0000FEFF     58*
NBIT9                                     EQU  0000FDFF     59*
P                                P        SCT  00000000   2256*
XBIT0                                     EQU  00000000     68*
XBIT1                                     EQU  00000001     69*
XBIT2                                     EQU  00000002     70*
XBIT3                                     EQU  00000003     71*
XBIT4                                     EQU  00000004     72*
XBIT5                                     EQU  00000005     73*
XBIT6                                     EQU  00000006     74*
XBIT7                                     EQU  00000007     75*
_CB_BAKUP_CMD1                            EQU  00005678    114*
_CB_BAKUP_CMD2                            EQU  00001234    115*
_CB_BAK_SUM_COD1                          EQU  5AA51234    112*
_CB_BAK_SUM_COD2                          EQU  A55A4321    113*
_CB_ERR_INFO_MEM                          EQU  00000080    138*
_CB_ERR_INFO_PSIZE                        EQU  00000008    139*
_CB_STS_BUF_1BLK                          EQU  00000040    117*  119 
_CB_STS_BUF_BLKMAX                        EQU  00000008    118*  119 
_CB_STS_BUF_MAX                           EQU  00000200    119*
_CB_TRD_BEFORE                            EQU  00000060    127*
_CB_TRD_BUF_DP_MAX                        EQU  00000080    131*
_CB_TRD_BUF_MAX                           EQU  00000800    128*
_CB_TRD_DP_1CNT                           EQU  00000008    130*
_CB_TRD_DP_CH                             EQU  00000004    123*
_CB_TRD_SMP_CNT                           EQU  00000080    126*
_CPUA_RCV_INI_ET1                         IMPT 00000000   2229 
_CPUA_REQ_OLD                    Bwkram1       0000000C   2583  3046*
_CPUA_SND_INI_ET1                         IMPT 00000000   2228 
_CPUD2ET_000                     P             0000022C   2753*
_CPUD2ET_100                     P             0000026E   2757  2800*
_CPUD2ET_200                     P             000002B8   2805  2847*
_CPUD_ET1_DP_TOP                          IMPT 00000000   2209  2217  2217  2218 
_CPUD_ET2_REQ_OLD                Bwkram1       00000010   2930  2957  3057*
_CPUD_TO_ET1_SET                 P             00000200   2274  2685*
_CPU_REQ_DAT_CNT                 Bwkram1       00000000   3039*
_CPU_REQ_DAT_FLG                 Bwkram1       0000000A   3043*
_DUMMY_SUM_CODE                           EQU  5AA53CC3    105*
_ET1_BANK_ACS                    Bwkram1       00000008   3042*
_ET1_BANK_SEL                    Bwkram1       00000006   2551  3041*
_ET1_BANK_SEL0_OUT               P             00000160   2386  2475  2546*
*** SuperH RISC engine ASSEMBLER V.7.01.02.000 ***    11/14/21 17:04:29                                                  PAGE    23

*** CROSS REFERENCE LIST

NAME                             SECTION  ATTR VALUE             SEQUENCE

_ET1_CPUAB_BUF_MAX                        EQU  00000100   2072* 2596 
_ET1_CPUA_ADR_MAX                         EQU  00060000   2075*
_ET1_CPUA_DT_MOVE                P             0000017C   2270  2575*
_ET1_CPUB_ADR_MAX                         EQU  00008000   2073*
_ET1_CPU_HIGH_MOV                P        EXPT 00000000   2239  2258*
_ET1_CPU_MAIN_MOV                P        EXPT 00000040   2238  2312*
_ET1_DATA_COD                             EQU  5A3CC3A5   2079*
_ET1_DEF_GAT0                             IMPT 00000000   2153 
_ET1_DEF_GAT1                             IMPT 00000000   2154 
_ET1_DEF_GAT2                             IMPT 00000000   2155 
_ET1_DEF_GAT3                             IMPT 00000000   2156  2397 
_ET1_DP_TOP                               IMPT 00000000   2210  2218 
_ET1_INIEND_MOVE                 P             00000104   2336  2470*
_ET1_INITAL_CHK                  P             0000006C   2323  2363*
_ET1_INITAL_FLG                  Bwkram1  EXPT 00000004   2262  2317  2367  2443  3036  3040*
_ET1_INIT_ACK                             EQU  56789ABC   2078* 2429  2438 
_ET1_INIT_REQ                             EQU  12345678   2077*
_ET1_IPM_ADR0                             IMPT 00000000   2157  2714  2715  2716 
_ET1_IPM_ADR1                             IMPT 00000000   2158 
_ET1_IPM_ADR2                             IMPT 00000000   2159 
_ET1_IPM_ADR3                             IMPT 00000000   2160  2716 
_ET1_IPS_ADR0                             IMPT 00000000   2145 
_ET1_IPS_ADR1                             IMPT 00000000   2146 
_ET1_IPS_ADR2                             IMPT 00000000   2147 
_ET1_IPS_ADR3                             IMPT 00000000   2148 
_ET1_IPS_ENT                              IMPT 00000000   2144  2395  2396  2397 
_ET1_RDWR2_BUFMAX                         EQU  00000020   2083*
_ET1_SUB_NET0                             IMPT 00000000   2149 
_ET1_SUB_NET1                             IMPT 00000000   2150 
_ET1_SUB_NET2                             IMPT 00000000   2151 
_ET1_SUB_NET3                             IMPT 00000000   2152 
_ET1_VER                                  IMPT 00000000   2141  2739  2741 
_ET1_WD_HAND_COD                          EQU  00001234   2084*
_ET2_CPUD_ACK_OLD                Bwkram1       00000012   2971  2989  3058*
_ET2_SEQ_IDT01                            IMPT 00000000   2199  2906  2908 
_ET2_SEQ_QDT01                            IMPT 00000000   2200  2915  2917 
_ET2_SITM_ACK                             IMPT 00000000   2196  2967 
_ET2_SITM_ADR                             IMPT 00000000   2194  2944  2946 
_ET2_SITM_RDDT                            IMPT 00000000   2198  2982  2984 
_ET2_SITM_REQ                             IMPT 00000000   2195  2959 
_ET2_SITM_WRDT                            IMPT 00000000   2197  2952  2954 
_ET2_WORD_SITM_ACK                        IMPT 00000000   2887  2991 
_ET2_WORD_SITM_REQ                        IMPT 00000000   2886  2927 
_ET_CPUA_RCV_ACK_ET1                      IMPT 00000000   2126  2654  2656 
_ET_CPUA_RCV_INI_ET1                      IMPT 00000000   2124  2433  2435  2505  2507  2517  2519 
_ET_CPUA_RD_ACK                           IMPT 00000000   2167 
_ET_CPUA_RD_ADR                           IMPT 00000000   2169 
_ET_CPUA_RD_BUF                           IMPT 00000000   2170 
_ET_CPUA_RD_CNT                           IMPT 00000000   2168 
_ET_CPUA_RD_REQ                           IMPT 00000000   2166 
_ET_CPUA_SND_DAT                          IMPT 00000000   2130  2594  2595 
_ET_CPUA_SND_END                          IMPT 00000000   2131 
_ET_CPUA_SND_INI_ET1                      IMPT 00000000   2123  2497  2499 
_ET_CPUA_SND_REQ_ADR                      IMPT 00000000   2128  2631  2633 
*** SuperH RISC engine ASSEMBLER V.7.01.02.000 ***    11/14/21 17:04:29                                                  PAGE    24

*** CROSS REFERENCE LIST

NAME                             SECTION  ATTR VALUE             SEQUENCE

_ET_CPUA_SND_REQ_CNT                      IMPT 00000000   2129  2622  2624 
_ET_CPUA_SND_REQ_ET1                      IMPT 00000000   2125  2581  2639  2641 
_ET_CPUA_WR2_ACK                          IMPT 00000000   2178 
_ET_CPUA_WR2_ADR                          IMPT 00000000   2175 
_ET_CPUA_WR2_BUF                          IMPT 00000000   2176 
_ET_CPUA_WR2_CNT                          IMPT 00000000   2179 
_ET_CPUA_WR2_REQ                          IMPT 00000000   2177 
_ET_CPUB_RCV_INI_ET1                      IMPT 00000000   2110  2424  2426  2512  2514 
_ET_CPUB_SND_INI_ET1                      IMPT 00000000   2109  2488  2490 
_ET_LDCMND_AREA                           IMPT 00000000   2138  2764  2765  2812  2813 
_ET_LDCMND_REQ                            IMPT 00000000   2139  2754  2789  2794 
_ET_LDCMND_RES                            IMPT 00000000   2140  2801  2839  2843 
_KOMTRAX_DAT_CPUD_TO_ET1         P             000002D0   2285  2897*
_MEM_ARI                                  IMPT 00000000   2204 
_MEM_ARI_REAL                             IMPT 00000000   2207  2374 
_MEM_BNK_ADR1                             IMPT 00000000   2205  2554 
_OPTION_ET1_ARI                           IMPT 00000000   2211  2382 
_SEQAB_DP_TOP                             IMPT 00000000   2243  2278 
_START_ACK_COD                            EQU  00004321    213*
_START_REQ_COD                            EQU  00009876    212*
_VUPCHECK_EQU                             EQU  11AB3739     98*
__BAS_TOP                                 EQU  00000000   2217* 2395  2426  2435  2488  2497  2507  2514  2519  2581  2594  2622 
                                                          2631  2639  2656  2715  2741  2765  2789  2801  2812  2843  2906  2917 
                                                          2944  2952  2984 
__ET1_TOP                                 EQU  00000000   2218* 2396  2424  2433  2490  2499  2505  2512  2517  2595  2624  2633 
                                                          2641  2654  2714  2739  2754  2764  2794  2813  2839  2908  2915  2946 
                                                          2954  2959  2967  2982 
*** SuperH RISC engine ASSEMBLER V.7.01.02.000 ***    11/14/21 17:04:29                                                  PAGE    25

*** SECTION DATA LIST

SECTION                          ATTRIBUTE    SIZE             START

Bfram                            REL-DATA    000000000        
P                                REL-CODE    000000374        
Bwkram1                          REL-DATA    000000014        
