*** SuperH RISC engine ASSEMBLER V.7.01.02.000 ***    11/14/21 17:24:16                                                  PAGE     1
PROGRAM NAME =

    1                               1     ;------------------------------------------------------------------------
    2                               2     ;                                                                       |
    3                               3     ;   FILE        :hwsetup.src                                            |
    4                               4     ;   DATE        :Tue, Jun 27, 2006                                      |
    5                               5     ;   DESCRIPTION :Hardware Setup file                                    |
    6                               6     ;   CPU TYPE    :SH7727                                                 |
    7                               7     ;                                                                       |
    8                               8     ;   This file is generated by Renesas Project Generator (Ver.4.0).      |
    9                               9     ;                                                                       |
   10                              10     ;------------------------------------------------------------------------
 2543                              21     
 2544                              22     
 2545                              23             .IMPORT         _CPUA_WR_CPUB_RD
 2546                              24     
 2547          FFFFE440            25     _SDMR           .EQU            H'FFFFE440      ; CASﾚｲﾃﾝｼ＝2／ﾊﾞｰｽﾄﾀｲﾌﾟ＝ｼｰｹﾝｼｬﾙ／ﾊﾞｰｽﾄ長
                                          ＝1 16bit
 2548                              26     ;//2013-11-26_SDMR              .EQU            H'FFFFE880      ; CASﾚｲﾃﾝｼ＝2／ﾊﾞｰｽﾄﾀｲﾌﾟ＝
                                          ｼｰｹﾝｼｬﾙ／ﾊﾞｰｽﾄ長＝1 32bit
 2549                              27     
 2550                              28     
 2551 00000000                     29             .SECTION        Phwsetup1, CODE                 ;
 2552                              30     
 2553                              31             .export         _HardwareSetup1
 2554 00000000                     32     _HardwareSetup1:
 2555                              33             SUB_START
 2556 00000000 4F22                   M           STS.L   PR,@-R15                ;[必要]
 2557                                 M   ;;;;;;; ADD     #-4,R15                 ;[不要?]
 2558                              34     
 2559                              35     ;ＣＰＧ関係
 2560 00000002 D168                36             MOV.L   #_WTCSR,R1
 2561 00000004 90B3                37             MOV.W   #H'A507,R0
 2562 00000006 2101                38             MOV.W   R0,@R1
 2563 00000008 D167                39             MOV.L   #_FRQCR,R1                      ; 周波数制御レジスタ
 2564 0000000A 90B1                40             MOV.W   #H'0112,R0                      ; 入力ｸﾛｯｸ=14.7456MHz  8:4:2  Iφ=117.9648
                                          MHz／Bφ=58.9824MHz／Pφ=29.4912MHz
 2565 0000000C 2101                41             MOV.W   R0,@R1
 2566                              42     
 2567                              43     ;ＢＳＣ関係
 2568 0000000E D167                44             MOV.L   #_BCR1,R1                       ; バスコントロールレジスタ１
 2569 00000010 90AF                45             MOV.W   #H'0008,R0                      ; ｴﾘｱ3=SDRAM／その他のｴﾘｱ=通常ﾒﾓﾘ
 2570 00000012 2101                46             MOV.W   R0,@R1
 2571                              47     
 2572 00000014 D166                48             MOV.L   #_BCR2,R1                       ; バスコントロールレジスタ２
 2573 00000016 90AD                49             MOV.W   #H'26A0,R0                      ; ｴﾘｱ2(未使用)=16ﾋﾞｯﾄ幅／ｴﾘｱ3=16ﾋﾞｯﾄ幅／ｴﾘ
                                          ｱ4=16ﾋﾞｯﾄ幅／ｴﾘｱ5=8ﾋﾞｯﾄ幅／ｴﾘｱ6=16ﾋﾞｯﾄ幅
 2574                              50     ;//2013-11-26   MOV.W   #H'26D0,R0                      ; ｴﾘｱ2(未使用)=16ﾋﾞｯﾄ幅／ｴﾘｱ3=32ﾋﾞ
                                          ｯﾄ幅／ｴﾘｱ4=16ﾋﾞｯﾄ幅／ｴﾘｱ5=8ﾋﾞｯﾄ幅／ｴﾘｱ6=16ﾋﾞｯﾄ幅
 2575 00000018 2101                51             MOV.W   R0,@R1
 2576                              52     
 2577 0000001A D166                53             MOV.L   #_WCR1,R1                       ; ウェイトコントロールレジスタ１
 2578 0000001C 90AB                54             MOV.W   #H'BFF3,R0                      ; とりあえず、ｻｲｸﾙ間のｱｲﾄﾞﾙは、全ｴﾘｱ＝3ｱｲﾄ
                                          ﾞﾙｻｲｸﾙ挿入
 2579 0000001E 2101                55             MOV.W   R0,@R1
 2580                              56     
 2581                              57     
 2582                              58     ;---------2021-11-15-----------
 2583                              59     ;;      MOV.L   #_WCR2,R1                       ; ウェイトコントロールレジスタ２
*** SuperH RISC engine ASSEMBLER V.7.01.02.000 ***    11/14/21 17:24:16                                                  PAGE     2
PROGRAM NAME =

 2584                              60     ;;      MOV.W   #H'B7DD,R0                      ; ｴﾘｱ0＝6ｳｪｲﾄ／ｴﾘｱ2(未使用)＝10ｳｪｲﾄ／ｴﾘｱ3
                                          ＝CASﾚｲﾃﾝｼ2／ｴﾘｱ4＝10ｳｪｲﾄ／
 2585                              61     ;;      MOV.W   R0,@R1                          ; ｴﾘｱ5＝6ｳｪｲﾄ／ｴﾘｱ6＝6ｳｪｲﾄ
 2586                              62     
 2587                              63     ;---------2021-11-15-----------
 2588 00000020 D165                64             MOV.L   #_WCR2,R1                       ; ウェイトコントロールレジスタ２
 2589 00000022 90A9                65             MOV.W   #H'BBDD,R0                      ; ｴﾘｱ0＝6ｳｪｲﾄ／ｴﾘｱ2(未使用)＝10ｳｪｲﾄ／ｴﾘｱ3
                                          ＝CASﾚｲﾃﾝｼ2／ｴﾘｱ4＝10ｳｪｲﾄ／
 2590 00000024 2101                66             MOV.W   R0,@R1                          ; ｴﾘｱ5＝6ｳｪｲﾄ／ｴﾘｱ6＝8ｳｪｲﾄ(2021-09-22 ver
                                          B2d)
 2591                              67     
 2592 00000026 D165                68             MOV.L   #_SDMR,R1                       ; シンクロナスＤＲＡＭモードレジスタ
 2593 00000028 E000                69             MOV.B   #0,R0                           ; CASﾚｲﾃﾝｼ＝2／ﾊﾞｰｽﾄﾀｲﾌﾟ＝ｼｰｹﾝｼｬﾙ／ﾊﾞｰｽﾄ長
                                          ＝1
 2594                              70     ;//2013-11-26   MOV.B   #2,R0                           ; CASﾚｲﾃﾝｼ＝2／ﾊﾞｰｽﾄﾀｲﾌﾟ＝ｼｰｹﾝｼｬﾙ
                                          ／ﾊﾞｰｽﾄ長＝1
 2595 0000002A 2100                71             MOV.B   R0,@R1
 2596                              72     
 2597 0000002C D164                73             MOV.L   #_MCR,R1                        ; 個別メモリコントロールレジスタ
 2598 0000002E 90A4                74             MOV.W   #H'5224,R0
 2599 00000030 2101                75             MOV.W   R0,@R1
 2600                              76     
 2601 00000032 D164                77             MOV.L   #_RTCOR,R1                      ; リフレッシュタイムコンスタントレジスタ
 2602 00000034 90A2                78             MOV.W   #H'A573,R0                      ; 7.798us（CKIO/4＝14.7456MHz）
 2603 00000036 2101                79             MOV.W   R0,@R1
 2604                              80     
 2605 00000038 D163                81             MOV.L   #_RTCSR,R1                      ; リフレッシュタイマコントロール／ステータ
                                          スレジスタ
 2606 0000003A 90A0                82             MOV.W   #H'A508,R0                      ; ｸﾛｯｸｾﾚｸﾄ＝CKIO/4
 2607 0000003C 2101                83             MOV.W   R0,@R1
 2608                              84     
 2609 0000003E 9298                85             MOV.W   #8,R2                           ; ダミーオートリフレッシュ８回
 2610 00000040                     86     _ARF_WAIT:
 2611 00000040 D162                87             MOV.L   #_RFCR,R1
 2612 00000042 6011                88             MOV.W   @R1,R0                          ; リフレッシュカウンタ
 2613 00000044 3022                89             CMP/HS  R2,R0
 2614 00000046 8BFB                90             BF      _ARF_WAIT
 2615                              91     
 2616                              92     ;ＰＦＣ関係
 2617 00000048 D161                93             MOV.L   #_PACR,R1                       ; ポートＡコントロールレジスタ
 2618 0000004A 9099                94             MOV.W   #H'5555,R0                      ; 全出力ポート
 2619 0000004C 2101                95             MOV.W   R0,@R1
 2620                              96     
 2621                              97     ;       ----2006-08-05 PORT "L"OUTPUT --------------
 2622 0000004E D161                98             MOV.L   #_PADR,R1                       ;
 2623 00000050 9097                99             MOV.W   #0,R0                           ;
 2624 00000052 2100               100             MOV.B   R0,@R1                          ;
 2625                             101     ;       --------------------------------------------
 2626                             102     
 2627 00000054 D160               103             MOV.L   #_PBCR,R1                       ; ポートＢコントロールレジスタ
 2628 00000056 9095               104             MOV.W   #H'AAAA,R0                      ; 全入力ポート
 2629 00000058 2101               105             MOV.W   R0,@R1
 2630                             106     
 2631 0000005A D160               107             MOV.L   #_PCCR,R1                       ; ポートＣコントロールレジスタ
 2632 0000005C 9091               108             MOV.W   #H'0000,R0                      ; ＬＣＤＣ関係
 2633 0000005E 2101               109             MOV.W   R0,@R1
 2634                             110     
*** SuperH RISC engine ASSEMBLER V.7.01.02.000 ***    11/14/21 17:24:16                                                  PAGE     3
PROGRAM NAME =

 2635 00000060 D15F               111             MOV.L   #_PDCR,R1                       ; ポートＤコントロールレジスタ
 2636 00000062 9090               112             MOV.W   #H'2200,R0                      ; ４と６は入力ポート ／ その他はＬＣＤＣ関
                                          係
 2637 00000064 2101               113             MOV.W   R0,@R1
 2638                             114     
 2639 00000066 D15F               115             MOV.L   #_PEDR,R1                       ; ポートＥデータレジスタ
 2640 00000068 E010               116             MOV.B   #H'10,R0                        ; 出力ポート４(*LCD_ON)は初期値「High」
 2641 0000006A 2100               117             MOV.B   R0,@R1
 2642 0000006C D15E               118             MOV.L   #_PECR,R1                       ; ポートＥコントロールレジスタ
 2643                             119     ;//2013-11-26   MOV.W   #H'4515,R0                      ; ０、１、２、４、５、７は出力ポー
                                          ト ／ ３、６はＬＣＤＣ関係
 2644 0000006E 908B               120             MOV.W   #H'4514,R0                      ; ０、１、２、４、５、７は出力ポート ／ ３
                                          、６はＬＣＤＣ関係
 2645 00000070 2101               121             MOV.W   R0,@R1
 2646                             122     
 2647 00000072 D15E               123             MOV.L   #_PFCR,R1                       ; ポートＦコントロールレジスタ
 2648 00000074 9086               124             MOV.W   #H'AAAA,R0                      ; 全入力ポート
 2649                             125     ;//2013-11-26   MOV.W   R0,@R1
 2650                             126     
 2651 00000076 D15E               127             MOV.L   #_PGCR,R1                       ; ポートＧコントロールレジスタ
 2652 00000078 9084               128             MOV.W   #H'AAAA,R0                      ; 全入力ポート
 2653                             129     ;//2013-11-26   MOV.W   R0,@R1
 2654                             130     
 2655 0000007A D15E               131             MOV.L   #_PHCR,R1                       ; ポートＨコントロールレジスタ
 2656 0000007C 9085               132             MOV.W   #H'2800,R0                      ; ０〜４はＩＲＱ ／ ５，６は入力ポート ／
                                          ７はＬＣＤＣ関係
 2657 0000007E 2101               133             MOV.W   R0,@R1
 2658                             134     
 2659 00000080 D15D               135             MOV.L   #_PJCR,R1                       ; ポートＪコントロールレジスタ
 2660 00000082 9083               136             MOV.W   #H'5544,R0                      ; ０は＊ＲＡＳ３ ／ ２は＊ＣＡＳ ／ その他
                                          は出力ポート
 2661 00000084 2101               137             MOV.W   R0,@R1
 2662                             138     
 2663 00000086 D15D               139             MOV.L   #_PKCR,R1                       ; ポートＫコントロールレジスタ
 2664 00000088 9081               140             MOV.W   #H'5105,R0                      ; ２は＊ＣＳ４ ／ ３は＊ＣＳ５ ／ ５はＣＫ
                                          Ｅ ／ その他は出力ポート
 2665 0000008A 2101               141             MOV.W   R0,@R1
 2666                             142     
 2667 0000008C D15C               143             MOV.L   #_PLCR,R1                       ; ポートＬコントロールレジスタ
 2668 0000008E 9078               144             MOV.W   #H'0000,R0                      ; 全ＡＩ
 2669 00000090 2101               145             MOV.W   R0,@R1
 2670                             146     
 2671 00000092 D15C               147             MOV.L   #_PMCR,R1                       ; ポートＭコントロールレジスタ
 2672 00000094 907C               148             MOV.W   #H'5500,R0                      ; ４〜７は入力ポート ／ ０〜３はＬＣＤＣ関
                                          係
 2673 00000096 2101               149             MOV.W   R0,@R1
 2674                             150     
 2675                             151     ;2009/03/19
 2676                             152     ;///////        MOV.L   #_SCPDR,R1                      ; ＳＣポートデータレジスタ
 2677                             153     ;///////        MOV.B   #H'02,R0                        ; 出力ポート１(RTS)は初期値「High
                                          」
 2678                             154     ;///////        MOV.B   R0,@R1
 2679                             155     ;///////        MOV.L   #_SCPCR,R1                      ; ＳＣポートコントロールレジスタ
 2680                             156     ;///////;///////        MOV.W   #H'1554,R0                      ;
 2681                             157     ;///////        MOV.W   #H'9554,R0                      ; V05j 2007/12/07
 2682                             158     ;///////        MOV.W   R0,@R1
 2683 00000098 D15B               159             MOV.L   #_SCPDR,R1                      ; ＳＣポートデータレジスタ
*** SuperH RISC engine ASSEMBLER V.7.01.02.000 ***    11/14/21 17:24:16                                                  PAGE     4
PROGRAM NAME =

 2684 0000009A E001               160             MOV.B   #H'01,R0                        ; 出力ポート0(TXD)は初期値「High」, RTSは
                                          「Low」(後でHighにする)
 2685 0000009C 2100               161             MOV.B   R0,@R1
 2686 0000009E D15B               162             MOV.L   #_SCPCR,R1                      ; ＳＣポートコントロールレジスタ
 2687 000000A0 9077               163             MOV.W   #H'9555,R0                      ; V05j 2007/12/07
 2688 000000A2 2101               164             MOV.W   R0,@R1
 2689                             165     
 2690                             166     
 2691                             167     
 2692                             168     ;ＩＮＴＣ関係
 2693 000000A4 D15A               169             MOV.L   #_IPRA,R1                       ; 割り込み優先順位設定レジスタＡ
 2694                             170                                                     ; BIT15~12:TMU0         定周期500μs
 2695                             171                                                     ; BIT11~ 8:TMU1         定周期1ms
 2696                             172                                                     ; BIT 7~ 4:TMU2         定周期5ms
 2697                             173                                                     ; BIT 3~ 0:RTC
 2698 000000A6 9075               174             MOV.W   #H'8760,R0
 2699 000000A8 2101               175             MOV.W   R0,@R1
 2700                             176     
 2701 000000AA D15A               177             MOV.L   #_IPRB,R1                       ; 割り込み優先順位設定レジスタＢ
 2702                             178                                                     ; BIT15~12:WDT
 2703                             179                                                     ; BIT11~ 8:REF
 2704                             180                                                     ; BIT 7~ 4:SCI
 2705                             181                                                     ; BIT 3~ 0:予約
 2706 000000AC 9073               182             MOV.W   #H'00E0,R0
 2707 000000AE 2101               183             MOV.W   R0,@R1
 2708                             184     
 2709 000000B0 D159               185             MOV.L   #_IPRC,R1                       ; 割り込み優先順位設定レジスタＣ
 2710                             186                                                     ; BIT15~12:IRQ3         ACTB(定周期より低
                                          くする 3)
 2711                             187                                                     ; BIT11~ 8:IRQ2         DP_INT
 2712                             188                                                     ; BIT 7~ 4:IRQ1         ENC_BUSY(高)
 2713                             189                                                     ; BIT 3~ 0:IRQ0         EMG(定周期より低く
                                          する 3)
 2714 000000B2 9071               190             MOV.W   #H'30A3,R0
 2715 000000B4 2101               191             MOV.W   R0,@R1
 2716                             192     
 2717 000000B6 D159               193             MOV.L   #_IPRD,R1                       ; 割り込み優先順位設定レジスタＤ
 2718                             194                                                     ; BIT15~12:IRQ7
 2719                             195                                                     ; BIT12~ 8:IRQ6
 2720                             196                                                     ; BIT 7~ 4:IRQ5         PD
 2721                             197                                                     ; BIT 3~ 0:IRQ4         STBX(定周期より低
                                          くする 2)
 2722 000000B8 906F               198             MOV.W   #H'0002,R0
 2723 000000BA 2101               199             MOV.W   R0,@R1
 2724                             200     
 2725 000000BC D158               201             MOV.L   #_IPRE,R1                       ; 割り込み優先順位設定レジスタＥ
 2726 000000BE 9060               202             MOV.W   #H'0,R0
 2727 000000C0 2101               203             MOV.W   R0,@R1
 2728                             204     
 2729 000000C2 D158               205             MOV.L   #_IPRF,R1                       ; 割り込み優先順位設定レジスタＦ
 2730 000000C4 905D               206             MOV.W   #H'0,R0
 2731 000000C6 2101               207             MOV.W   R0,@R1
 2732                             208     
 2733 000000C8 D157               209             MOV.L   #_IPRG,R1                       ; 割り込み優先順位設定レジスタＧ
 2734 000000CA 905A               210             MOV.W   #H'0,R0
 2735 000000CC 2101               211             MOV.W   R0,@R1
 2736                             212     
*** SuperH RISC engine ASSEMBLER V.7.01.02.000 ***    11/14/21 17:24:16                                                  PAGE     5
PROGRAM NAME =

 2737 000000CE D157               213             MOV.L   #_ICR0,R1                       ; 割り込みコントロールレジスタ０
 2738                             214     ;       初期値でＯＫ
 2739                             215     
 2740 000000D0 D157               216             MOV.L   #_ICR1,R1                       ; 割り込みコントロールレジスタ１
 2741 000000D2 9056               217             MOV.W   #H'0,R0                         ; ＩＲＱは独立で全て立ち下がりエッジ
 2742 000000D4 2101               218             MOV.W   R0,@R1
 2743                             219     
 2744 000000D6 D157               220             MOV.L   #_ICR2,R1                       ; 割り込みコントロールレジスタ２
 2745                             221     ;       初期値でＯＫ（PINTは未使用）
 2746                             222     
 2747 000000D8 D157               223             MOV.L   #_ICR3,R1                       ; 割り込みコントロールレジスタ３
 2748                             224     ;       初期値でＯＫ
 2749                             225     
 2750 000000DA D158               226             MOV.L   #_PINTER,R1                     ; PINT割り込みイネーブルレジスタ
 2751                             227     ;       初期値でＯＫ（PINTは未使用）
 2752                             228     
 2753                             229     ;ＴＭＵ関係
 2754 000000DC D158               230             MOV.L   #_TCR0,R1
 2755 000000DE 905D               231             MOV.W   #H'0001,R0                      ; Pφ／16でカウント（1.8432MHz）
 2756 000000E0 2101               232             MOV.W   R0,@R1
 2757 000000E2 D158               233             MOV.L   #_TCOR0,R1
 2758 000000E4 D058               234             MOV.L   #921,R0                         ; 500us
 2759 000000E6 2102               235             MOV.L   R0,@R1
 2760 000000E8 D158               236             MOV.L   #_TCNT0,R1
 2761 000000EA 2102               237             MOV.L   R0,@R1
 2762                             238     
 2763 000000EC D158               239             MOV.L   #_TCR1,R1
 2764 000000EE 9055               240             MOV.W   #H'0001,R0                      ; Pφ／16でカウント（1.8432MHz）
 2765 000000F0 2101               241             MOV.W   R0,@R1
 2766 000000F2 D158               242             MOV.L   #_TCOR1,R1
 2767 000000F4 D058               243             MOV.L   #1843,R0                        ; 1ms
 2768 000000F6 2102               244             MOV.L   R0,@R1
 2769 000000F8 D158               245             MOV.L   #_TCNT1,R1
 2770 000000FA 2102               246             MOV.L   R0,@R1
 2771                             247     
 2772 000000FC D158               248             MOV.L   #_TCR2,R1
 2773 000000FE 904D               249             MOV.W   #H'0001,R0                      ; Pφ／16でカウント（1.8432MHz）
 2774 00000100 2101               250             MOV.W   R0,@R1
 2775 00000102 D158               251             MOV.L   #_TCOR2,R1
 2776 00000104 D058               252             MOV.L   #9216,R0                        ; 5ms
 2777 00000106 2102               253             MOV.L   R0,@R1
 2778 00000108 D158               254             MOV.L   #_TCNT2,R1
 2779 0000010A 2102               255             MOV.L   R0,@R1
 2780                             256     
 2781 0000010C D14C               257             MOV.L   #_TCR0,R1
 2782 0000010E 6011               258             MOV.W   @R1,R0
 2783 00000110 9245               259             MOV.W   #H'0020,R2
 2784 00000112 202B               260             OR      R2,R0
 2785                             261     ;;;;;;;;        MOV.W   R0,@R1                          ; TMU0 EI
 2786                             262     
 2787 00000114 D14E               263             MOV.L   #_TCR1,R1
 2788 00000116 6011               264             MOV.W   @R1,R0
 2789 00000118 202B               265             OR      R2,R0
 2790 0000011A 2101               266             MOV.W   R0,@R1                          ; TMU1 EI
 2791                             267     
 2792 0000011C D150               268             MOV.L   #_TCR2,R1
 2793 0000011E 6011               269             MOV.W   @R1,R0
*** SuperH RISC engine ASSEMBLER V.7.01.02.000 ***    11/14/21 17:24:16                                                  PAGE     6
PROGRAM NAME =

 2794 00000120 202B               270             OR      R2,R0
 2795 00000122 2101               271             MOV.W   R0,@R1                          ; TMU2 EI
 2796                             272     
 2797 00000124 D152               273             MOV.L   #_TSTR,R1
 2798 00000126 E007               274             MOV.B   #H'07,R0                        ; 全タイマ動作開始
 2799 00000128 2100               275             MOV.B   R0,@R1
 2800                             276     
 2801                             277     ;ＳＣＩ関係
 2802 0000012A D152               278             MOV.L   #_SMR0,R1                               ; BIT7    : 0=調歩同期式ﾓｰﾄﾞ
 2803                             279                                                             ; BIT6    : 0=8ﾋﾞｯﾄﾃﾞｰﾀ
 2804                             280                                                             ; BIT5    : 1=ﾊﾟﾘﾃｨ有り
 2805                             281                                                             ; BIT4    : 0=偶数ﾊﾟﾘﾃｨ
 2806                             282                                                             ; BIT3    : 0=1ｽﾄｯﾌﾟﾋﾞｯﾄ
 2807                             283                                                             ; BIT2    : 0=ﾏﾙﾁﾌﾟﾛｾｯｻ機能禁止
 2808                             284                                                             ; BIT1〜0 : 0=ｸﾛｯｸｾﾚｸﾄPφ
 2809 0000012C E020               285             MOV.B   #H'20,R0                                ;
 2810 0000012E 2100               286             MOV.B   R0,@R1
 2811                             287     
 2812 00000130 D151               288             MOV.L   #_BRR0,R1
 2813 00000132 E05F               289             MOV.B   #D'95,R0                                ; 95=9600bps(SSRのｸﾛｯｸｾﾚｸﾄPφの場
                                          合)
 2814 00000134 E02F               290             MOV.B   #D'47,R0                                ; 47=19200bps(SSRのｸﾛｯｸｾﾚｸﾄPφの場
                                          合)
 2815 00000136 E017               291             MOV.B   #D'23,R0                                ; 23=38400bps(SSRのｸﾛｯｸｾﾚｸﾄPφの場
                                          合)
 2816 00000138 2100               292             MOV.B   R0,@R1
 2817                             293     
 2818 0000013A D150               294             MOV.L   #_SCR0,R1                               ; BIT7    : 0=送信ｴﾝﾌﾟﾃｨ割込み禁止
 2819                             295                                                             ; BIT6    : 1=受信ﾃﾞｰﾀ割込み許可
 2820                             296                                                             ; BIT5    : 0=送信動作を禁止
 2821                             297                                                             ; BIT4    : 1=受信動作を許可
 2822                             298                                                             ; BIT3    : 0=ﾏﾙﾁﾌﾟﾛｾｯｻ割込み禁止
 2823                             299                                                             ; BIT2    : 0=送信終了割込み禁止
 2824                             300                                                             ; BIT1〜0 : 0=内部ｸﾛｯｸ／SCK入出力
 2825 0000013C E050               301             MOV.B   #H'50,R0
 2826 0000013E 2100               302             MOV.B   R0,@R1
 2827                             303     
 2828                             304     
 2829                             305     ;2009/03/19
 2830 00000140 D131               306             MOV.L   #_SCPDR,R1                      ; ＳＣポートデータレジスタ
 2831 00000142 E003               307             MOV.B   #H'03,R0                        ; 出力ポート0(TXD)は初期値「High」, RTSは
                                          「High」
 2832 00000144 2100               308             MOV.B   R0,@R1
 2833                             309     
 2834                             310     
 2835                             311     
 2836                             312     ;*****  DPRAM割込み初期ｸﾘｱ *****
 2837 00000146 D14E               313             MOV.L   #_CPUA_WR_CPUB_RD,R1
 2838 00000148 6011               314             MOV.W   @R1,R0                                  ; DPRAM INT CLEAR
 2839                             315     
 2840                             316     
 2841                             317     ;       --- 2007-01-16 V05-S05a~:D/Aｺﾝﾊﾞｰﾀ　DA0(239Pin)とDA1(238pin)に2.5V固定で出力------
                                          -----
 2842                             318     ;       --- A/Dｺﾝﾊﾞｰﾀの基準電源とする.実際にはDA0を対象とする
 2843 0000014A D14E               319             MOV.L   #_DADR0,R1              ;DA0
 2844 0000014C 9028               320             MOV.W   #D'195,R0               ;
 2845 0000014E 2100               321             MOV.B   R0,@R1                  ;2.5V=3.3V*194D/255 or 2.5V=3.3V*193D/256
*** SuperH RISC engine ASSEMBLER V.7.01.02.000 ***    11/14/21 17:24:16                                                  PAGE     7
PROGRAM NAME =

 2846                             322     
 2847 00000150 D14D               323             MOV.L   #_DADR1,R1              ;DA1
 2848 00000152 9025               324             MOV.W   #D'195,R0               ;
 2849 00000154 2100               325             MOV.B   R0,@R1                  ;2.5V=3.3V*194D/255 or 2.5V=3.3V*193D/256
 2850                             326     
 2851 00000156 D14D               327             MOV.L   #_DACR1,R1
 2852 00000158 E05F               328             MOV.B   #B'00011111+BIT6,R0     ;BIT7,BIT6,BIT5=0,1,0(DA1(0),DA0(1),独立時=0)
 2853 0000015A 2100               329             MOV.B   R0,@R1                  ;
 2854                             330     ;       ------- ENB -------------
 2855                             331     
 2856 0000015C D149               332             MOV.L   #_DADR0,R1              ;DA0
 2857 0000015E 901F               333             MOV.W   #D'195,R0               ;
 2858 00000160 2100               334             MOV.B   R0,@R1                  ;2.5V=3.3V*194D/255 or 2.5V=3.3V*193D/256
 2859                             335     
 2860 00000162 D149               336             MOV.L   #_DADR1,R1              ;DA1
 2861 00000164 901C               337             MOV.W   #D'195,R0               ;
 2862 00000166 2100               338             MOV.B   R0,@R1                  ;2.5V=3.3V*194D/255 or 2.5V=3.3V*193D/256
 2863                             339     
 2864                             340     
 2865                             341             SUB_END
 2866                                 M   ;;;;;;; ADD     #4,R15                  ;[不要?]
 2867 00000168 4F26                   M           LDS.L   @R15+,PR                ;[必要]
 2868                             342             M_RTS
 2869 0000016A 000B                   M           RTS                             ;RTSの後ろの
 2870 0000016C 0009                   M           NOP                             ;@R15+,PRはﾀﾞﾒ
 2871                             343     
 2872                             344     
 2873                                     ***** BEGIN-POOL *****
 2874 0000016E A507                       DATA FOR SOURCE-LINE 37
 2875 00000170 0112                       DATA FOR SOURCE-LINE 40
 2876 00000172 0008                       DATA FOR SOURCE-LINE 45,85
 2877 00000174 26A0                       DATA FOR SOURCE-LINE 49
 2878 00000176 BFF3                       DATA FOR SOURCE-LINE 54
 2879 00000178 BBDD                       DATA FOR SOURCE-LINE 65
 2880 0000017A 5224                       DATA FOR SOURCE-LINE 74
 2881 0000017C A573                       DATA FOR SOURCE-LINE 78
 2882 0000017E A508                       DATA FOR SOURCE-LINE 82
 2883 00000180 5555                       DATA FOR SOURCE-LINE 94
 2884 00000182 0000                       DATA FOR SOURCE-LINE 99,108,144,202,206,210,217
 2885 00000184 AAAA                       DATA FOR SOURCE-LINE 104,124,128
 2886 00000186 2200                       DATA FOR SOURCE-LINE 112
 2887 00000188 4514                       DATA FOR SOURCE-LINE 120
 2888 0000018A 2800                       DATA FOR SOURCE-LINE 132
 2889 0000018C 5544                       DATA FOR SOURCE-LINE 136
 2890 0000018E 5105                       DATA FOR SOURCE-LINE 140
 2891 00000190 5500                       DATA FOR SOURCE-LINE 148
 2892 00000192 9555                       DATA FOR SOURCE-LINE 163
 2893 00000194 8760                       DATA FOR SOURCE-LINE 174
 2894 00000196 00E0                       DATA FOR SOURCE-LINE 182
 2895 00000198 30A3                       DATA FOR SOURCE-LINE 190
 2896 0000019A 0002                       DATA FOR SOURCE-LINE 198
 2897 0000019C 0001                       DATA FOR SOURCE-LINE 231,240,249
 2898 0000019E 0020                       DATA FOR SOURCE-LINE 259
 2899 000001A0 00C3                       DATA FOR SOURCE-LINE 320,324,333,337
 2900 000001A2 0000                       ALIGNMENT CODE
 2901 000001A4 00000000                   DATA FOR SOURCE-LINE 36
 2902 000001A8 00000000                   DATA FOR SOURCE-LINE 39
*** SuperH RISC engine ASSEMBLER V.7.01.02.000 ***    11/14/21 17:24:16                                                  PAGE     8
PROGRAM NAME =

 2903 000001AC 00000000                   DATA FOR SOURCE-LINE 44
 2904 000001B0 00000000                   DATA FOR SOURCE-LINE 48
 2905 000001B4 00000000                   DATA FOR SOURCE-LINE 53
 2906 000001B8 00000000                   DATA FOR SOURCE-LINE 64
 2907 000001BC FFFFE440                   DATA FOR SOURCE-LINE 68
 2908 000001C0 00000000                   DATA FOR SOURCE-LINE 73
 2909 000001C4 00000000                   DATA FOR SOURCE-LINE 77
 2910 000001C8 00000000                   DATA FOR SOURCE-LINE 81
 2911 000001CC 00000000                   DATA FOR SOURCE-LINE 87
 2912 000001D0 00000000                   DATA FOR SOURCE-LINE 93
 2913 000001D4 00000000                   DATA FOR SOURCE-LINE 98
 2914 000001D8 00000000                   DATA FOR SOURCE-LINE 103
 2915 000001DC 00000000                   DATA FOR SOURCE-LINE 107
 2916 000001E0 00000000                   DATA FOR SOURCE-LINE 111
 2917 000001E4 00000000                   DATA FOR SOURCE-LINE 115
 2918 000001E8 00000000                   DATA FOR SOURCE-LINE 118
 2919 000001EC 00000000                   DATA FOR SOURCE-LINE 123
 2920 000001F0 00000000                   DATA FOR SOURCE-LINE 127
 2921 000001F4 00000000                   DATA FOR SOURCE-LINE 131
 2922 000001F8 00000000                   DATA FOR SOURCE-LINE 135
 2923 000001FC 00000000                   DATA FOR SOURCE-LINE 139
 2924 00000200 00000000                   DATA FOR SOURCE-LINE 143
 2925 00000204 00000000                   DATA FOR SOURCE-LINE 147
 2926 00000208 00000000                   DATA FOR SOURCE-LINE 159,306
 2927 0000020C 00000000                   DATA FOR SOURCE-LINE 162
 2928 00000210 00000000                   DATA FOR SOURCE-LINE 169
 2929 00000214 00000000                   DATA FOR SOURCE-LINE 177
 2930 00000218 00000000                   DATA FOR SOURCE-LINE 185
 2931 0000021C 00000000                   DATA FOR SOURCE-LINE 193
 2932 00000220 00000000                   DATA FOR SOURCE-LINE 201
 2933 00000224 00000000                   DATA FOR SOURCE-LINE 205
 2934 00000228 00000000                   DATA FOR SOURCE-LINE 209
 2935 0000022C 00000000                   DATA FOR SOURCE-LINE 213
 2936 00000230 00000000                   DATA FOR SOURCE-LINE 216
 2937 00000234 00000000                   DATA FOR SOURCE-LINE 220
 2938 00000238 00000000                   DATA FOR SOURCE-LINE 223
 2939 0000023C 00000000                   DATA FOR SOURCE-LINE 226
 2940 00000240 00000000                   DATA FOR SOURCE-LINE 230,257
 2941 00000244 00000000                   DATA FOR SOURCE-LINE 233
 2942 00000248 00000399                   DATA FOR SOURCE-LINE 234
 2943 0000024C 00000000                   DATA FOR SOURCE-LINE 236
 2944 00000250 00000000                   DATA FOR SOURCE-LINE 239,263
 2945 00000254 00000000                   DATA FOR SOURCE-LINE 242
 2946 00000258 00000733                   DATA FOR SOURCE-LINE 243
 2947 0000025C 00000000                   DATA FOR SOURCE-LINE 245
 2948 00000260 00000000                   DATA FOR SOURCE-LINE 248,268
 2949 00000264 00000000                   DATA FOR SOURCE-LINE 251
 2950 00000268 00002400                   DATA FOR SOURCE-LINE 252
 2951 0000026C 00000000                   DATA FOR SOURCE-LINE 254
 2952 00000270 00000000                   DATA FOR SOURCE-LINE 273
 2953 00000274 00000000                   DATA FOR SOURCE-LINE 278
 2954 00000278 00000000                   DATA FOR SOURCE-LINE 288
 2955 0000027C 00000000                   DATA FOR SOURCE-LINE 294
 2956 00000280 00000000                   DATA FOR SOURCE-LINE 313
 2957 00000284 00000000                   DATA FOR SOURCE-LINE 319,332
 2958 00000288 00000000                   DATA FOR SOURCE-LINE 323,336
 2959 0000028C 00000000                   DATA FOR SOURCE-LINE 327
*** SuperH RISC engine ASSEMBLER V.7.01.02.000 ***    11/14/21 17:24:16                                                  PAGE     9
PROGRAM NAME =

 2960                                     ***** END-POOL *****
 2961 00000000                    345             .SECTION        Pstart1,CODE                    ;
 2962                             346     ;******************************************
 2963                             347     ;***                                    ***
 2964                             348     ;***    ＳＨ４キャッシュ有効            ***
 2965                             349     ;***                                    ***
 2966                             350     ;******************************************
 2967                             351             .export         _CASH_ENB
 2968 00000000                    352     _CASH_ENB:
 2969                             353             SUB_START
 2970 00000000 4F22                   M           STS.L   PR,@-R15                ;[必要]
 2971                                 M   ;;;;;;; ADD     #-4,R15                 ;[不要?]
 2972                             354     
 2973 00000002 D104               355             MOV.L   #_CCR,R1
 2974 00000004 6212               356             MOV.L   @R1,R2
 2975 00000006 D004               357             MOV.L   #BIT0,R0                ; BIT0:
 2976 00000008 202B               358             OR      R2,R0
 2977 0000000A 2102               359             MOV.L   R0,@R1
 2978                             360     
 2979                             361             SUB_END
 2980                                 M   ;;;;;;; ADD     #4,R15                  ;[不要?]
 2981 0000000C 4F26                   M           LDS.L   @R15+,PR                ;[必要]
 2982                             362             M_RTS
 2983 0000000E 000B                   M           RTS                             ;RTSの後ろの
 2984 00000010 0009                   M           NOP                             ;@R15+,PRはﾀﾞﾒ
 2985                             363     
 2986                             364     
 2987                                     ***** BEGIN-POOL *****
 2988 00000012 0000                       ALIGNMENT CODE
 2989 00000014 00000000                   DATA FOR SOURCE-LINE 355
 2990 00000018 00000001                   DATA FOR SOURCE-LINE 357
 2991                                     ***** END-POOL *****
 2992 0000001C                    365             .SECTION        Pstart1,CODE                    ;
 2993                             366     ;******************************************
 2994                             367     ;***                                    ***
 2995                             368     ;***    Ｐプログラム                    ***
 2996                             369     ;***    Ｐ -> ＰＲＡＭ                  ***
 2997                             370     ;***                                    ***
 2998                             371     ;******************************************
 2999                             372             .IMPORT         __P_BGN
 3000                             373             .IMPORT         __PRAM_BGN
 3001                             374             .IMPORT         __P_END
 3002                             375             .export         _P_TO_PRAM_COPY
 3003 0000001C                    376     _P_TO_PRAM_COPY:
 3004                             377             SUB_START
 3005 0000001C 4F22                   M           STS.L   PR,@-R15                ;[必要]
 3006                                 M   ;;;;;;; ADD     #-4,R15                 ;[不要?]
 3007                             378     
 3008 0000001E D017               379             MOV.L   #__P_BGN,R0
 3009 00000020 6502               380             MOV.L   @R0,R5                          ;DATA SORCE
 3010 00000022 D017               381             MOV.L   #__PRAM_BGN,R0
 3011 00000024 6602               382             MOV.L   @R0,R6                          ;DATA DIST
 3012 00000026 D017               383             MOV.L   #__P_END,R0
 3013 00000028 6402               384             MOV.L   @R0,R4                          ;
 3014 0000002A 3458               385             SUB     R5,R4                           ;
 3015 0000002C 4401               386             SHLR    R4                              ;
 3016                             387     
*** SuperH RISC engine ASSEMBLER V.7.01.02.000 ***    11/14/21 17:24:16                                                  PAGE    10
PROGRAM NAME =

 3017 0000002E                    388     _PTRC_LOOP:
 3018 0000002E 4415               389             CMP/PL  R4
 3019 00000030 8B35               390             BF      _PTRC_LOOP_END                  ;ZERO or MINS THEN EXIT
 3020                             391     
 3021 00000032 6055               392             MOV.W   @R5+,R0         ;
 3022 00000034 2601               393             MOV.W   R0,@R6          ;
 3023 00000036 7602               394             ADD     #2,R6           ;
 3024 00000038 74FF               395             ADD     #-1,R4  ;
 3025                             396             _WDT_CLR
 3026                                 M           PUSH_REG1 R0
 3027 0000003A 2F06                   M           MOV.L   R0,@-R15                ;PUSH=SP-4
 3028                                 M                                           ;REG=>[SP]
 3029                                 M                                           ;"-4" FF,FF,FF,FC
 3030                                 M           PUSH_REG1 R10
 3031 0000003C 2FA6                   M           MOV.L   R10,@-R15               ;PUSH=SP-4
 3032                                 M                                           ;REG=>[SP]
 3033                                 M                                           ;"-4" FF,FF,FF,FC
 3034                                 M           PUSH_REG1 R14
 3035 0000003E 2FE6                   M           MOV.L   R14,@-R15               ;PUSH=SP-4
 3036                                 M                                           ;REG=>[SP]
 3037                                 M                                           ;"-4" FF,FF,FF,FC
 3038                                 M   
 3039 00000040 DA11                   M           MOV.L   #_PJDR,R10                              ;?????????今は不要2015-01-05ｺﾒﾝﾄ
 3040 00000042 60A0                   M           MOV.B   @R10,R0
 3041 00000044 CB10                   M           OR      #BIT4,R0
 3042 00000046 2A00                   M           MOV.B   R0,@R10
 3043 00000048 C9EF                   M           AND     #NBIT4,R0
 3044 0000004A 2A00                   M           MOV.B   R0,@R10
 3045                                 M   
 3046                                 M           ;====== 2006-10-19 SAITO 追加　WDTﾎﾟｰﾄ変更 ======
 3047 0000004C DA0F                   M           MOV.L   #_IOGA2_CTRL_DAT1+_IOGA_P5,R10          ;
 3048 0000004E 60A1                   M           MOV.W   @R10,R0                                 ;
 3049 00000050 9E10                   M           MOV.W   #BIT0,R14                               ;
 3050 00000052 20EB                   M           OR      R14,R0                                  ;
 3051 00000054 2A01                   M           MOV.W   R0,@R10                                 ; WORK
 3052                                 M   
 3053                                 M   ;;      MOV.L   #_IOGA2_CTRL_DAT1+_IOGA_P5,R10  ; WORK ADDRESS
 3054                                 M   ;;      MOV.W   @R10,R0                                 ;
 3055 00000056 9E0E                   M           MOV.W   #_IO2B_P5EX,R14                         ;
 3056 00000058 20EA                   M           XOR     R14,R0                                  ;
 3057 0000005A DA0D                   M           MOV.L   #_dio_top2+_IOGA_PDR5,R10               ; IOGA PF ADDRESS
 3058 0000005C 2A01                   M           MOV.W   R0,@R10                                 ; 実出力SET
 3059                                 M   
 3060 0000005E DA0B                   M           MOV.L   #_IOGA2_CTRL_DAT1+_IOGA_P5,R10          ;
 3061 00000060 60A1                   M           MOV.W   @R10,R0                                 ;
 3062 00000062 9E09                   M           MOV.W   #NBIT0,R14                              ;
 3063 00000064 20E9                   M           AND     R14,R0                                  ;
 3064 00000066 2A01                   M           MOV.W   R0,@R10                                 ; WORK
 3065                                 M   
 3066                                 M   ;;      MOV.L   #_IOGA2_CTRL_DAT1+_IOGA_P5,R10  ; WORK ADDRESS
 3067                                 M   ;;      MOV.W   @R10,R0                                 ;
 3068 00000068 9E05                   M           MOV.W   #_IO2B_P5EX,R14                         ;
 3069 0000006A 20EA                   M           XOR     R14,R0                                  ;
 3070 0000006C DA08                   M           MOV.L   #_dio_top2+_IOGA_PDR5,R10               ; IOGA PF ADDRESS
 3071 0000006E 2A01                   M           MOV.W   R0,@R10                                 ; 実出力SET
 3072                                 M   
 3073                                 M           M_BRA   AAA00000
*** SuperH RISC engine ASSEMBLER V.7.01.02.000 ***    11/14/21 17:24:16                                                  PAGE    11
PROGRAM NAME =

 3074 00000070 A010                   M           BRA     AAA00000
 3075 00000072 0009                   M           NOP
 3076                                 M   ***** BEGIN-POOL *****
 3077 00000074 0001                   M   DATA FOR SOURCE-LINE 396
 3078 00000076 0000                   M   DATA FOR SOURCE-LINE 396,396
 3079 00000078 00FE                   M   DATA FOR SOURCE-LINE 396
 3080 0000007A 0000                   M   ALIGNMENT CODE
 3081 0000007C 00000000               M   DATA FOR SOURCE-LINE 379
 3082 00000080 00000000               M   DATA FOR SOURCE-LINE 381
 3083 00000084 00000000               M   DATA FOR SOURCE-LINE 383
 3084 00000088 00000000               M   DATA FOR SOURCE-LINE 396
 3085 0000008C 00000000               M   DATA FOR SOURCE-LINE 396,396
 3086 00000090 00000000               M   DATA FOR SOURCE-LINE 396,396
 3087                                 M   ***** END-POOL *****
 3088 00000094                        M   AAA00000:
 3089                                 M           POP_REG1 R14
 3090                                 M                                   ; RE"+4" 00,00,00,04
 3091 00000094 6EF6                   M           MOV.L   @R15+,R14        ;
 3092                                 M           POP_REG1 R10
 3093                                 M                                   ; RE"+4" 00,00,00,04
 3094 00000096 6AF6                   M           MOV.L   @R15+,R10        ;
 3095                                 M           POP_REG1 R0
 3096                                 M                                   ; RE"+4" 00,00,00,04
 3097 00000098 60F6                   M           MOV.L   @R15+,R0        ;
 3098                             397             M_BRA   _PTRC_LOOP      ;
 3099 0000009A AFC8                   M           BRA     _PTRC_LOOP
 3100 0000009C 0009                   M           NOP
 3101                             398     
 3102 0000009E                    399     _PTRC_LOOP_END:
 3103                             400             SUB_END
 3104                                 M   ;;;;;;; ADD     #4,R15                  ;[不要?]
 3105 0000009E 4F26                   M           LDS.L   @R15+,PR                ;[必要]
 3106                             401             M_RTS
 3107 000000A0 000B                   M           RTS                             ;RTSの後ろの
 3108 000000A2 0009                   M           NOP                             ;@R15+,PRはﾀﾞﾒ
 3109                             402     
 3110                             403     
 3111 000000A4                    404             .SECTION        Pstart1,CODE                    ;
 3112                             405     ;******************************************
 3113                             406     ;***                                    ***
 3114                             407     ;***    Ｐcall -> ＰcallＲＡＭ          ***
 3115                             408     ;***                                    ***
 3116                             409     ;******************************************
 3117                             410             .IMPORT         __Pcall_BGN
 3118                             411             .IMPORT         __PcallRAM_BGN
 3119                             412             .IMPORT         __Pcall_END
 3120                             413             .EXPORT         _PC_TO_PCRAM_COPY
 3121 000000A4                    414     _PC_TO_PCRAM_COPY:
 3122                             415             SUB_START
 3123 000000A4 4F22                   M           STS.L   PR,@-R15                ;[必要]
 3124                                 M   ;;;;;;; ADD     #-4,R15                 ;[不要?]
 3125                             416     
 3126 000000A6 D017               417             MOV.L   #__Pcall_BGN,R0
 3127 000000A8 6502               418             MOV.L   @R0,R5                          ;DATA SORCE
 3128 000000AA D017               419             MOV.L   #__PcallRAM_BGN,R0
 3129 000000AC 6602               420             MOV.L   @R0,R6                          ;DATA DIST
 3130 000000AE D017               421             MOV.L   #__Pcall_END,R0
*** SuperH RISC engine ASSEMBLER V.7.01.02.000 ***    11/14/21 17:24:16                                                  PAGE    12
PROGRAM NAME =

 3131 000000B0 6402               422             MOV.L   @R0,R4                          ;
 3132 000000B2 3458               423             SUB     R5,R4                           ;
 3133 000000B4 4401               424             SHLR    R4                              ;
 3134                             425     
 3135 000000B6                    426     _PCTRC_LOOP:
 3136 000000B6 4415               427             CMP/PL  R4
 3137 000000B8 8B35               428             BF      _PCTRC_LOOP_END                 ;ZERO or MINS THEN EXIT
 3138                             429     
 3139 000000BA 6055               430             MOV.W   @R5+,R0         ;
 3140 000000BC 2601               431             MOV.W   R0,@R6          ;
 3141 000000BE 7602               432             ADD     #2,R6           ;
 3142 000000C0 74FF               433             ADD     #-1,R4  ;
 3143                             434             _WDT_CLR
 3144                                 M           PUSH_REG1 R0
 3145 000000C2 2F06                   M           MOV.L   R0,@-R15                ;PUSH=SP-4
 3146                                 M                                           ;REG=>[SP]
 3147                                 M                                           ;"-4" FF,FF,FF,FC
 3148                                 M           PUSH_REG1 R10
 3149 000000C4 2FA6                   M           MOV.L   R10,@-R15               ;PUSH=SP-4
 3150                                 M                                           ;REG=>[SP]
 3151                                 M                                           ;"-4" FF,FF,FF,FC
 3152                                 M           PUSH_REG1 R14
 3153 000000C6 2FE6                   M           MOV.L   R14,@-R15               ;PUSH=SP-4
 3154                                 M                                           ;REG=>[SP]
 3155                                 M                                           ;"-4" FF,FF,FF,FC
 3156                                 M   
 3157 000000C8 DA11                   M           MOV.L   #_PJDR,R10                              ;?????????今は不要2015-01-05ｺﾒﾝﾄ
 3158 000000CA 60A0                   M           MOV.B   @R10,R0
 3159 000000CC CB10                   M           OR      #BIT4,R0
 3160 000000CE 2A00                   M           MOV.B   R0,@R10
 3161 000000D0 C9EF                   M           AND     #NBIT4,R0
 3162 000000D2 2A00                   M           MOV.B   R0,@R10
 3163                                 M   
 3164                                 M           ;====== 2006-10-19 SAITO 追加　WDTﾎﾟｰﾄ変更 ======
 3165 000000D4 DA0F                   M           MOV.L   #_IOGA2_CTRL_DAT1+_IOGA_P5,R10          ;
 3166 000000D6 60A1                   M           MOV.W   @R10,R0                                 ;
 3167 000000D8 9E10                   M           MOV.W   #BIT0,R14                               ;
 3168 000000DA 20EB                   M           OR      R14,R0                                  ;
 3169 000000DC 2A01                   M           MOV.W   R0,@R10                                 ; WORK
 3170                                 M   
 3171                                 M   ;;      MOV.L   #_IOGA2_CTRL_DAT1+_IOGA_P5,R10  ; WORK ADDRESS
 3172                                 M   ;;      MOV.W   @R10,R0                                 ;
 3173 000000DE 9E0E                   M           MOV.W   #_IO2B_P5EX,R14                         ;
 3174 000000E0 20EA                   M           XOR     R14,R0                                  ;
 3175 000000E2 DA0D                   M           MOV.L   #_dio_top2+_IOGA_PDR5,R10               ; IOGA PF ADDRESS
 3176 000000E4 2A01                   M           MOV.W   R0,@R10                                 ; 実出力SET
 3177                                 M   
 3178 000000E6 DA0B                   M           MOV.L   #_IOGA2_CTRL_DAT1+_IOGA_P5,R10          ;
 3179 000000E8 60A1                   M           MOV.W   @R10,R0                                 ;
 3180 000000EA 9E09                   M           MOV.W   #NBIT0,R14                              ;
 3181 000000EC 20E9                   M           AND     R14,R0                                  ;
 3182 000000EE 2A01                   M           MOV.W   R0,@R10                                 ; WORK
 3183                                 M   
 3184                                 M   ;;      MOV.L   #_IOGA2_CTRL_DAT1+_IOGA_P5,R10  ; WORK ADDRESS
 3185                                 M   ;;      MOV.W   @R10,R0                                 ;
 3186 000000F0 9E05                   M           MOV.W   #_IO2B_P5EX,R14                         ;
 3187 000000F2 20EA                   M           XOR     R14,R0                                  ;
*** SuperH RISC engine ASSEMBLER V.7.01.02.000 ***    11/14/21 17:24:16                                                  PAGE    13
PROGRAM NAME =

 3188 000000F4 DA08                   M           MOV.L   #_dio_top2+_IOGA_PDR5,R10               ; IOGA PF ADDRESS
 3189 000000F6 2A01                   M           MOV.W   R0,@R10                                 ; 実出力SET
 3190                                 M   
 3191                                 M           M_BRA   AAA00001
 3192 000000F8 A010                   M           BRA     AAA00001
 3193 000000FA 0009                   M           NOP
 3194                                 M   ***** BEGIN-POOL *****
 3195 000000FC 0001                   M   DATA FOR SOURCE-LINE 434
 3196 000000FE 0000                   M   DATA FOR SOURCE-LINE 434,434
 3197 00000100 00FE                   M   DATA FOR SOURCE-LINE 434
 3198 00000102 0000                   M   ALIGNMENT CODE
 3199 00000104 00000000               M   DATA FOR SOURCE-LINE 417
 3200 00000108 00000000               M   DATA FOR SOURCE-LINE 419
 3201 0000010C 00000000               M   DATA FOR SOURCE-LINE 421
 3202 00000110 00000000               M   DATA FOR SOURCE-LINE 434
 3203 00000114 00000000               M   DATA FOR SOURCE-LINE 434,434
 3204 00000118 00000000               M   DATA FOR SOURCE-LINE 434,434
 3205                                 M   ***** END-POOL *****
 3206 0000011C                        M   AAA00001:
 3207                                 M           POP_REG1 R14
 3208                                 M                                   ; RE"+4" 00,00,00,04
 3209 0000011C 6EF6                   M           MOV.L   @R15+,R14        ;
 3210                                 M           POP_REG1 R10
 3211                                 M                                   ; RE"+4" 00,00,00,04
 3212 0000011E 6AF6                   M           MOV.L   @R15+,R10        ;
 3213                                 M           POP_REG1 R0
 3214                                 M                                   ; RE"+4" 00,00,00,04
 3215 00000120 60F6                   M           MOV.L   @R15+,R0        ;
 3216                             435             M_BRA   _PCTRC_LOOP     ;
 3217 00000122 AFC8                   M           BRA     _PCTRC_LOOP
 3218 00000124 0009                   M           NOP
 3219                             436     
 3220 00000126                    437     _PCTRC_LOOP_END:
 3221                             438             SUB_END
 3222                                 M   ;;;;;;; ADD     #4,R15                  ;[不要?]
 3223 00000126 4F26                   M           LDS.L   @R15+,PR                ;[必要]
 3224                             439             M_RTS
 3225 00000128 000B                   M           RTS                             ;RTSの後ろの
 3226 0000012A 0009                   M           NOP                             ;@R15+,PRはﾀﾞﾒ
 3227                             440     
 3228                             441     
 3229 0000012C                    442             .SECTION        Pstart1,CODE                    ;
 3230                             443     ;******************************************
 3231                             444     ;***                                    ***
 3232                             445     ;***    PHiROM -> PHiRAM        V06b    ***
 3233                             446     ;***                                    ***
 3234                             447     ;******************************************
 3235                             448             .IMPORT         __PHiROM_BGN
 3236                             449             .IMPORT         __PHiRAM_BGN
 3237                             450             .IMPORT         __PHiROM_END
 3238                             451             .EXPORT         _PH_TO_PHRAM_COPY
 3239 0000012C                    452     _PH_TO_PHRAM_COPY:
 3240                             453             SUB_START
 3241 0000012C 4F22                   M           STS.L   PR,@-R15                ;[必要]
 3242                                 M   ;;;;;;; ADD     #-4,R15                 ;[不要?]
 3243                             454     
 3244 0000012E D017               455             MOV.L   #__PHiROM_BGN,R0
*** SuperH RISC engine ASSEMBLER V.7.01.02.000 ***    11/14/21 17:24:16                                                  PAGE    14
PROGRAM NAME =

 3245 00000130 6502               456             MOV.L   @R0,R5                          ;DATA SORCE
 3246 00000132 D017               457             MOV.L   #__PHiRAM_BGN,R0
 3247 00000134 6602               458             MOV.L   @R0,R6                          ;DATA DIST
 3248 00000136 D017               459             MOV.L   #__PHiROM_END,R0
 3249 00000138 6402               460             MOV.L   @R0,R4                          ;
 3250 0000013A 3458               461             SUB     R5,R4                           ;
 3251 0000013C 4401               462             SHLR    R4                              ;
 3252                             463     
 3253 0000013E                    464     _PHTRC_LOOP:
 3254 0000013E 4415               465             CMP/PL  R4
 3255 00000140 8B35               466             BF      _PHTRC_LOOP_END                 ;ZERO or MINS THEN EXIT
 3256                             467     
 3257 00000142 6055               468             MOV.W   @R5+,R0         ;
 3258 00000144 2601               469             MOV.W   R0,@R6          ;
 3259 00000146 7602               470             ADD     #2,R6           ;
 3260 00000148 74FF               471             ADD     #-1,R4  ;
 3261                             472             _WDT_CLR
 3262                                 M           PUSH_REG1 R0
 3263 0000014A 2F06                   M           MOV.L   R0,@-R15                ;PUSH=SP-4
 3264                                 M                                           ;REG=>[SP]
 3265                                 M                                           ;"-4" FF,FF,FF,FC
 3266                                 M           PUSH_REG1 R10
 3267 0000014C 2FA6                   M           MOV.L   R10,@-R15               ;PUSH=SP-4
 3268                                 M                                           ;REG=>[SP]
 3269                                 M                                           ;"-4" FF,FF,FF,FC
 3270                                 M           PUSH_REG1 R14
 3271 0000014E 2FE6                   M           MOV.L   R14,@-R15               ;PUSH=SP-4
 3272                                 M                                           ;REG=>[SP]
 3273                                 M                                           ;"-4" FF,FF,FF,FC
 3274                                 M   
 3275 00000150 DA11                   M           MOV.L   #_PJDR,R10                              ;?????????今は不要2015-01-05ｺﾒﾝﾄ
 3276 00000152 60A0                   M           MOV.B   @R10,R0
 3277 00000154 CB10                   M           OR      #BIT4,R0
 3278 00000156 2A00                   M           MOV.B   R0,@R10
 3279 00000158 C9EF                   M           AND     #NBIT4,R0
 3280 0000015A 2A00                   M           MOV.B   R0,@R10
 3281                                 M   
 3282                                 M           ;====== 2006-10-19 SAITO 追加　WDTﾎﾟｰﾄ変更 ======
 3283 0000015C DA0F                   M           MOV.L   #_IOGA2_CTRL_DAT1+_IOGA_P5,R10          ;
 3284 0000015E 60A1                   M           MOV.W   @R10,R0                                 ;
 3285 00000160 9E10                   M           MOV.W   #BIT0,R14                               ;
 3286 00000162 20EB                   M           OR      R14,R0                                  ;
 3287 00000164 2A01                   M           MOV.W   R0,@R10                                 ; WORK
 3288                                 M   
 3289                                 M   ;;      MOV.L   #_IOGA2_CTRL_DAT1+_IOGA_P5,R10  ; WORK ADDRESS
 3290                                 M   ;;      MOV.W   @R10,R0                                 ;
 3291 00000166 9E0E                   M           MOV.W   #_IO2B_P5EX,R14                         ;
 3292 00000168 20EA                   M           XOR     R14,R0                                  ;
 3293 0000016A DA0D                   M           MOV.L   #_dio_top2+_IOGA_PDR5,R10               ; IOGA PF ADDRESS
 3294 0000016C 2A01                   M           MOV.W   R0,@R10                                 ; 実出力SET
 3295                                 M   
 3296 0000016E DA0B                   M           MOV.L   #_IOGA2_CTRL_DAT1+_IOGA_P5,R10          ;
 3297 00000170 60A1                   M           MOV.W   @R10,R0                                 ;
 3298 00000172 9E09                   M           MOV.W   #NBIT0,R14                              ;
 3299 00000174 20E9                   M           AND     R14,R0                                  ;
 3300 00000176 2A01                   M           MOV.W   R0,@R10                                 ; WORK
 3301                                 M   
*** SuperH RISC engine ASSEMBLER V.7.01.02.000 ***    11/14/21 17:24:16                                                  PAGE    15
PROGRAM NAME =

 3302                                 M   ;;      MOV.L   #_IOGA2_CTRL_DAT1+_IOGA_P5,R10  ; WORK ADDRESS
 3303                                 M   ;;      MOV.W   @R10,R0                                 ;
 3304 00000178 9E05                   M           MOV.W   #_IO2B_P5EX,R14                         ;
 3305 0000017A 20EA                   M           XOR     R14,R0                                  ;
 3306 0000017C DA08                   M           MOV.L   #_dio_top2+_IOGA_PDR5,R10               ; IOGA PF ADDRESS
 3307 0000017E 2A01                   M           MOV.W   R0,@R10                                 ; 実出力SET
 3308                                 M   
 3309                                 M           M_BRA   AAA00002
 3310 00000180 A010                   M           BRA     AAA00002
 3311 00000182 0009                   M           NOP
 3312                                 M   ***** BEGIN-POOL *****
 3313 00000184 0001                   M   DATA FOR SOURCE-LINE 472
 3314 00000186 0000                   M   DATA FOR SOURCE-LINE 472,472
 3315 00000188 00FE                   M   DATA FOR SOURCE-LINE 472
 3316 0000018A 0000                   M   ALIGNMENT CODE
 3317 0000018C 00000000               M   DATA FOR SOURCE-LINE 455
 3318 00000190 00000000               M   DATA FOR SOURCE-LINE 457
 3319 00000194 00000000               M   DATA FOR SOURCE-LINE 459
 3320 00000198 00000000               M   DATA FOR SOURCE-LINE 472
 3321 0000019C 00000000               M   DATA FOR SOURCE-LINE 472,472
 3322 000001A0 00000000               M   DATA FOR SOURCE-LINE 472,472
 3323                                 M   ***** END-POOL *****
 3324 000001A4                        M   AAA00002:
 3325                                 M           POP_REG1 R14
 3326                                 M                                   ; RE"+4" 00,00,00,04
 3327 000001A4 6EF6                   M           MOV.L   @R15+,R14        ;
 3328                                 M           POP_REG1 R10
 3329                                 M                                   ; RE"+4" 00,00,00,04
 3330 000001A6 6AF6                   M           MOV.L   @R15+,R10        ;
 3331                                 M           POP_REG1 R0
 3332                                 M                                   ; RE"+4" 00,00,00,04
 3333 000001A8 60F6                   M           MOV.L   @R15+,R0        ;
 3334                             473             M_BRA   _PHTRC_LOOP     ;
 3335 000001AA AFC8                   M           BRA     _PHTRC_LOOP
 3336 000001AC 0009                   M           NOP
 3337                             474     
 3338 000001AE                    475     _PHTRC_LOOP_END:
 3339                             476             SUB_END
 3340                                 M   ;;;;;;; ADD     #4,R15                  ;[不要?]
 3341 000001AE 4F26                   M           LDS.L   @R15+,PR                ;[必要]
 3342                             477             M_RTS
 3343 000001B0 000B                   M           RTS                             ;RTSの後ろの
 3344 000001B2 0009                   M           NOP                             ;@R15+,PRはﾀﾞﾒ
 3345                             478     
 3346                             479     
 3347                             480             .end
  *****TOTAL ERRORS       0
  *****TOTAL WARNINGS     0
*** SuperH RISC engine ASSEMBLER V.7.01.02.000 ***    11/14/21 17:24:16                                                  PAGE    16

*** CROSS REFERENCE LIST

NAME                             SECTION  ATTR VALUE             SEQUENCE

AAA00000                         Pstart1       00000094   3074  3088*
AAA00001                         Pstart1       0000011C   3192  3206*
AAA00002                         Pstart1       000001A4   3310  3324*
BIT0                                      EQU  00000001     18* 2975  3049  3167  3285 
BIT1                                      EQU  00000002     19*
BIT10                                     EQU  00000400     28*
BIT11                                     EQU  00000800     29*
BIT12                                     EQU  00001000     30*
BIT13                                     EQU  00002000     31*
BIT14                                     EQU  00004000     32*
BIT15                                     EQU  00008000     33*
BIT16                                     EQU  00010000     34*
BIT17                                     EQU  00020000     35*
BIT18                                     EQU  00040000     36*
BIT19                                     EQU  00080000     37*
BIT2                                      EQU  00000004     20*
BIT20                                     EQU  00100000     38*
BIT21                                     EQU  00200000     39*
BIT22                                     EQU  00400000     40*
BIT23                                     EQU  00800000     41*
BIT24                                     EQU  01000000     42*
BIT25                                     EQU  02000000     43*
BIT26                                     EQU  04000000     44*
BIT27                                     EQU  08000000     45*
BIT28                                     EQU  10000000     46*
BIT29                                     EQU  20000000     47*
BIT3                                      EQU  00000008     21*
BIT30                                     EQU  40000000     48*
BIT31                                     EQU  80000000     49*
BIT4                                      EQU  00000010     22* 3041  3159  3277 
BIT5                                      EQU  00000020     23*
BIT6                                      EQU  00000040     24* 2852 
BIT7                                      EQU  00000080     25*
BIT8                                      EQU  00000100     26*
BIT9                                      EQU  00000200     27*
H_BYTE                                    EQU  00000000     85*
L_BYTE                                    EQU  00000001     84*
NBIT0                                     EQU  000000FE     52* 3062  3180  3298 
NBIT1                                     EQU  000000FD     53*
NBIT10                                    EQU  0000FBFF     63*
NBIT11                                    EQU  0000F7FF     64*
NBIT12                                    EQU  0000EFFF     65*
NBIT13                                    EQU  0000DFFF     66*
NBIT14                                    EQU  0000BFFF     67*
NBIT15                                    EQU  00007FFF     68*
NBIT2                                     EQU  000000FB     54*
NBIT3                                     EQU  000000F7     55*
NBIT4                                     EQU  000000EF     56* 3043  3161  3279 
NBIT5                                     EQU  000000DF     57*
NBIT6                                     EQU  000000BF     58*
NBIT7                                     EQU  0000007F     59*
NBIT8                                     EQU  0000FEFF     61*
NBIT9                                     EQU  0000FDFF     62*
Phwsetup1                        Phwsetup SCT  00000000   2551*
*** SuperH RISC engine ASSEMBLER V.7.01.02.000 ***    11/14/21 17:24:16                                                  PAGE    17

*** CROSS REFERENCE LIST

NAME                             SECTION  ATTR VALUE             SEQUENCE

Pstart1                          Pstart1  SCT  00000000   2961* 2992* 3111* 3229*
XBIT0                                     EQU  00000000     71*
XBIT1                                     EQU  00000001     72*
XBIT2                                     EQU  00000002     73*
XBIT3                                     EQU  00000003     74*
XBIT4                                     EQU  00000004     75*
XBIT5                                     EQU  00000005     76*
XBIT6                                     EQU  00000006     77*
XBIT7                                     EQU  00000007     78*
_ACDR                                     IMPT 00000000   1762 
_ACTR1                                    IMPT 00000000   1754 
_ACTR2                                    IMPT 00000000   1755 
_ADCR                                     IMPT 00000000   1696 
_ADCSR                                    IMPT 00000000   1695 
_ADDRAH                                   IMPT 00000000   1687 
_ADDRAL                                   IMPT 00000000   1688 
_ADDRBH                                   IMPT 00000000   1689 
_ADDRBL                                   IMPT 00000000   1690 
_ADDRCH                                   IMPT 00000000   1691 
_ADDRCL                                   IMPT 00000000   1692 
_ADDRDH                                   IMPT 00000000   1693 
_ADDRDL                                   IMPT 00000000   1694 
_AD_AVG_BUF                               IMPT 00000000   2284 
_AD_AVG_TOTAL                             IMPT 00000000   2285 
_AD_BUFCNT                                IMPT 00000000   2283 
_AD_CNV_DT0                               IMPT 00000000   2281 
_ARF_WAIT                        Phwsetup      00000040   2610* 2614 
_ASDR                                     IMPT 00000000   1763 
_ASTR1                                    IMPT 00000000   1756 
_ASTR2                                    IMPT 00000000   1757 
_BAMRA                                    IMPT 00000000   1901 
_BAMRB                                    IMPT 00000000   1897 
_BARA                                     IMPT 00000000   1900 
_BARB                                     IMPT 00000000   1896 
_BASRA                                    IMPT 00000000   1908 
_BASRB                                    IMPT 00000000   1909 
_BBRA                                     IMPT 00000000   1902 
_BBRB                                     IMPT 00000000   1898 
_BCR1                                     IMPT 00000000   1877  2568 
_BCR2                                     IMPT 00000000   1878  2572 
_BDMRB                                    IMPT 00000000   1893 
_BDRB                                     IMPT 00000000   1892 
_BETR                                     IMPT 00000000   1895 
_BRCR                                     IMPT 00000000   1894 
_BRDR                                     IMPT 00000000   1903 
_BRR0                                     IMPT 00000000   1842  2812 
_BRSR                                     IMPT 00000000   1899 
_BTNER_ERR_TM                             IMPT 00000000   2230 
_CASH_ENB                        Pstart1  EXPT 00000000   2967  2968*
_CB_BAKUP_CMD1                            EQU  00005678    117*
_CB_BAKUP_CMD2                            EQU  00001234    118*
_CB_BAK_SUM_COD1                          EQU  5AA51234    115*
_CB_BAK_SUM_COD2                          EQU  A55A4321    116*
_CB_ERR_INFO_MEM                          EQU  00000080    141*
*** SuperH RISC engine ASSEMBLER V.7.01.02.000 ***    11/14/21 17:24:16                                                  PAGE    18

*** CROSS REFERENCE LIST

NAME                             SECTION  ATTR VALUE             SEQUENCE

_CB_ERR_INFO_PSIZE                        EQU  00000008    142*
_CB_STS_BUF_1BLK                          EQU  00000040    120*  122 
_CB_STS_BUF_BLKMAX                        EQU  00000008    121*  122 
_CB_STS_BUF_MAX                           EQU  00000200    122*
_CB_TRD_BEFORE                            EQU  00000060    130*
_CB_TRD_BUF_DP_MAX                        EQU  00000080    134*
_CB_TRD_BUF_MAX                           EQU  00000800    131*
_CB_TRD_DP_1CNT                           EQU  00000008    133*
_CB_TRD_DP_CH                             EQU  00000004    126*
_CB_TRD_SMP_CNT                           EQU  00000080    129*
_CCR                                      IMPT 00000000   1910  2973 
_CCR2                                     IMPT 00000000   1700 
_CHCR0                                    IMPT 00000000   1669 
_CHCR1                                    IMPT 00000000   1673 
_CHCR2                                    IMPT 00000000   1677 
_CHCR3                                    IMPT 00000000   1681 
_CHRAR                                    IMPT 00000000   1774 
_CKIO2CR                                  IMPT 00000000   1779 
_CMCNT                                    IMPT 00000000   1685 
_CMCOR                                    IMPT 00000000   1686 
_CMCSR                                    IMPT 00000000   1684 
_CMP2_ERR_FIRST                           IMPT 00000000   2295 
_CMP2_ERR_TM2                             IMPT 00000000   2239 
_CMSTR                                    IMPT 00000000   1683 
_CPUA_EMG_IN_FLG                          IMPT 00000000   2376 
_CPUA_WR_CPUB_RD                          IMPT 00000000   2545  2837 
_CPUN_2CMP_DATA                           IMPT 00000000   2294 
_CPUN_2CMP_LATCH1                         IMPT 00000000   2298 
_CPUN_2CMP_LATCH2                         IMPT 00000000   2297 
_DACR1                                    IMPT 00000000   1699  2851 
_DADR0                                    IMPT 00000000   1697  2843  2856 
_DADR1                                    IMPT 00000000   1698  2847  2860 
_DAR0                                     IMPT 00000000   1667 
_DAR1                                     IMPT 00000000   1671 
_DAR2                                     IMPT 00000000   1675 
_DAR3                                     IMPT 00000000   1679 
_DBG_ERRCHK_NASI                          IMPT 00000000   2223 
_DMAOR                                    IMPT 00000000   1682 
_DMATCR0                                  IMPT 00000000   1668 
_DMATCR1                                  IMPT 00000000   1672 
_DMATCR2                                  IMPT 00000000   1676 
_DMATCR3                                  IMPT 00000000   1680 
_DPNQ                                     IMPT 00000000   1760 
_DPRAM_SIZE                               EQU  00003FFF   2063*
_DSET_SW_FLG                              IMPT 00000000   2350 
_DUMMY_SUM_CODE                           EQU  5AA53CC3    108*
_ERR_CHK_OK_FLG                           IMPT 00000000   2218 
_ER_SFTSW_CHG_OLD                         IMPT 00000000   2225 
_ER_SQRAM_WK1                             IMPT 00000000   2220 
_ER_SQRAM_WK2                             IMPT 00000000   2221 
_EXCPGCR                                  IMPT 00000000   1778 
_EXPEVT                                   IMPT 00000000   1905 
_EXPFC                                    IMPT 00000000   1777 
_FACT_IN_DATA                             IMPT 00000000   2303 
*** SuperH RISC engine ASSEMBLER V.7.01.02.000 ***    11/14/21 17:24:16                                                  PAGE    19

*** CROSS REFERENCE LIST

NAME                             SECTION  ATTR VALUE             SEQUENCE

_FDEV_IN_DATA                             IMPT 00000000   2305 
_FROM_SUMCHK_CODE                         IMPT 00000000   2227 
_FRQCR                                    IMPT 00000000   1887  2563 
_FSFT_TRERR_TM                            IMPT 00000000   2240 
_HANYO2_DI_DAT                            IMPT 00000000   2533 
_HANYO2_DI_OLD                            IMPT 00000000   2534 
_HardwareSetup1                  Phwsetup EXPT 00000000   2553  2554*
_ICR0                                     IMPT 00000000   1874  2737 
_ICR1                                     IMPT 00000000   1660  2740 
_ICR2                                     IMPT 00000000   1661  2744 
_ICR3                                     IMPT 00000000   1773  2747 
_INTEVT                                   IMPT 00000000   1906 
_INTEVT2                                  IMPT 00000000   1656 
_IN_RNA_REF_ERR_FLG1                      IMPT 00000000   2325 
_IN_RNA_REF_ERR_FLG2                      IMPT 00000000   2326 
_IO1A_P4EX                                EQU  00000000   2121*
_IO1A_P5EX                                EQU  0000007B   2122*
_IO1A_P6EX                                EQU  00000000   2123*
_IO1A_P7EX                                EQU  00000000   2124*
_IO1B_P4EX                                EQU  000000FF   2131*
_IO1B_P5EX                                EQU  00000070   2132*
_IO1B_P6EX                                EQU  00000000   2133*
_IO1B_P7EX                                EQU  00000000   2134*
_IO2A_P5EX                                EQU  0000002F   2126*
_IO2A_P6EX                                EQU  0000009C   2127*
_IO2A_P7EX                                EQU  00000000   2128*
_IO2B_P5EX                                EQU  00000000   2137* 3055  3068  3173  3186  3291  3304 
_IO2B_P6EX                                EQU  0000009C   2138*
_IO2B_P7EX                                EQU  00000000   2139*
_IOGA1_CTRL_DAT1                          IMPT 00000000   2497 
_IOGA1_PA_DT_OLD1                         IMPT 00000000   2502 
_IOGA1_PA_DT_OLD2                         IMPT 00000000   2508 
_IOGA1_PB_DT_OLD1                         IMPT 00000000   2503 
_IOGA1_PB_DT_OLD2                         IMPT 00000000   2509 
_IOGA1_PC_DT_OLD1                         IMPT 00000000   2504 
_IOGA1_PC_DT_OLD2                         IMPT 00000000   2510 
_IOGA1_PD_DT_OLD1                         IMPT 00000000   2505 
_IOGA1_PD_DT_OLD2                         IMPT 00000000   2511 
_IOGA1_PE_DT_OLD1                         IMPT 00000000   2506 
_IOGA1_PE_DT_OLD2                         IMPT 00000000   2512 
_IOGA2_CTRL_DAT1                          IMPT 00000000   2499  3047  3060  3165  3178  3283  3296 
_IOGA2_PA_DT_OLD1                         IMPT 00000000   2514 
_IOGA2_PA_DT_OLD2                         IMPT 00000000   2520 
_IOGA2_PB_DT_OLD1                         IMPT 00000000   2515 
_IOGA2_PB_DT_OLD2                         IMPT 00000000   2521 
_IOGA2_PC_DT_OLD1                         IMPT 00000000   2516 
_IOGA2_PC_DT_OLD2                         IMPT 00000000   2522 
_IOGA2_PD_DT_OLD1                         IMPT 00000000   2517 
_IOGA2_PD_DT_OLD2                         IMPT 00000000   2523 
_IOGA2_PE_DT_OLD1                         IMPT 00000000   2518 
_IOGA2_PE_DT_OLD2                         IMPT 00000000   2524 
_IOGA_P0                                  EQU  00000000   2080*
_IOGA_P1                                  EQU  00000002   2081*
_IOGA_P2                                  EQU  00000004   2082*
*** SuperH RISC engine ASSEMBLER V.7.01.02.000 ***    11/14/21 17:24:16                                                  PAGE    20

*** CROSS REFERENCE LIST

NAME                             SECTION  ATTR VALUE             SEQUENCE

_IOGA_P3                                  EQU  00000006   2083*
_IOGA_P4                                  EQU  00000008   2084*
_IOGA_P5                                  EQU  0000000A   2085* 3047  3060  3165  3178  3283  3296 
_IOGA_P6                                  EQU  0000000C   2086*
_IOGA_P7                                  EQU  0000000E   2087*
_IOGA_PDIR0                               EQU  00000002   2105*
_IOGA_PDIR1                               EQU  00000006   2106*
_IOGA_PDIR2                               EQU  0000000A   2107*
_IOGA_PDIR3                               EQU  0000000E   2108*
_IOGA_PDIR4                               EQU  00000012   2109*
_IOGA_PDIR5                               EQU  00000016   2110*
_IOGA_PDIR6                               EQU  0000001A   2111*
_IOGA_PDIR7                               EQU  0000001C   2112*
_IOGA_PDR0                                EQU  00000000   2095*
_IOGA_PDR1                                EQU  00000004   2096*
_IOGA_PDR2                                EQU  00000008   2097*
_IOGA_PDR3                                EQU  0000000C   2098*
_IOGA_PDR4                                EQU  00000010   2099*
_IOGA_PDR5                                EQU  00000014   2100* 3057  3070  3175  3188  3293  3306 
_IOGA_PDR6                                EQU  00000018   2101*
_IOGA_PDR7                                EQU  0000001C   2102*
_IOGAi_PA                                 EQU  00000000   2071*
_IOGAi_PB                                 EQU  00000002   2072*
_IOGAi_PC                                 EQU  00000004   2073*
_IOGAi_PD                                 EQU  00000006   2074*
_IOGAo_PE                                 EQU  00000008   2075*
_IOGAo_PF                                 EQU  0000000A   2076*
_IOGAo_PG                                 EQU  0000000C   2077*
_IOGAo_PH                                 EQU  0000000E   2078*
_IPR3                                     IMPT 00000000   1771 
_IPR4                                     IMPT 00000000   1772 
_IPRA                                     IMPT 00000000   1875  2693 
_IPRB                                     IMPT 00000000   1876  2701 
_IPRC                                     IMPT 00000000   1663  2709 
_IPRD                                     IMPT 00000000   1664  2717 
_IPRE                                     IMPT 00000000   1665  2725 
_IPRF                                     IMPT 00000000   1769  2729 
_IPRG                                     IMPT 00000000   1770  2733 
_IRAM_SIZE                                EQU  00007FFF   2062*
_IRAM_TOP                                 EQU  FFFF6000   2061*
_IRR0                                     IMPT 00000000   1657 
_IRR1                                     IMPT 00000000   1658 
_IRR2                                     IMPT 00000000   1659 
_KEEPRY_BKUP_ERR                          IMPT 00000000   2446 
_LDACLNR                                  IMPT 00000000   1836 
_LDCNTR                                   IMPT 00000000   1840 
_LDDFR                                    IMPT 00000000   1825 
_LDHCNR                                   IMPT 00000000   1831 
_LDHSYNR                                  IMPT 00000000   1832 
_LDICKR                                   IMPT 00000000   1823 
_LDINTR                                   IMPT 00000000   1837 
_LDLAOR                                   IMPT 00000000   1829 
_LDMTR                                    IMPT 00000000   1824 
_LDPALCR                                  IMPT 00000000   1830 
*** SuperH RISC engine ASSEMBLER V.7.01.02.000 ***    11/14/21 17:24:16                                                  PAGE    21

*** CROSS REFERENCE LIST

NAME                             SECTION  ATTR VALUE             SEQUENCE

_LDPMMR                                   IMPT 00000000   1838 
_LDPR00                                   IMPT 00000000   1822 
_LDPSPR                                   IMPT 00000000   1839 
_LDSARL                                   IMPT 00000000   1828 
_LDSARU                                   IMPT 00000000   1827 
_LDSMR                                    IMPT 00000000   1826 
_LDVDLNR                                  IMPT 00000000   1833 
_LDVSYNR                                  IMPT 00000000   1835 
_LDVTLNR                                  IMPT 00000000   1834 
_LT_RNA_REF_ERR_FLG1                      IMPT 00000000   2329 
_LT_RNA_REF_ERR_FLG2                      IMPT 00000000   2330 
_MCR                                      IMPT 00000000   1881  2597 
_MMUCR                                    IMPT 00000000   1907 
_MPCR                                     IMPT 00000000   1759 
_MRCR                                     IMPT 00000000   1758 
_NCHSW_ERR_TM1                            IMPT 00000000   2231 
_NCHSW_ERR_TM2                            IMPT 00000000   2232 
_PACR                                     IMPT 00000000   1716  2617 
_PADR                                     IMPT 00000000   1729  2622 
_PBCR                                     IMPT 00000000   1717  2627 
_PBDR                                     IMPT 00000000   1730 
_PB_INDT_OLD1                             IMPT 00000000   2386 
_PB_INDT_OLD2                             IMPT 00000000   2387 
_PB_PORT_CTL_DATA                         IMPT 00000000   2385 
_PCC0CSCIER                               IMPT 00000000   1753 
_PCC0CSCR                                 IMPT 00000000   1752 
_PCC0GCR                                  IMPT 00000000   1751 
_PCC0ISR                                  IMPT 00000000   1750 
_PCCR                                     IMPT 00000000   1718  2631 
_PCDR                                     IMPT 00000000   1731 
_PCR                                      IMPT 00000000   1882 
_PCTRC_LOOP                      Pstart1       000000B6   3135* 3217 
_PCTRC_LOOP_END                  Pstart1       00000126   3137  3220*
_PC_TO_PCRAM_COPY                Pstart1  EXPT 000000A4   3120  3121*
_PDCR                                     IMPT 00000000   1719  2635 
_PDDR                                     IMPT 00000000   1732 
_PECR                                     IMPT 00000000   1720  2642 
_PEDR                                     IMPT 00000000   1733  2639 
_PFCR                                     IMPT 00000000   1721  2647 
_PFDR                                     IMPT 00000000   1734 
_PGCR                                     IMPT 00000000   1722  2651 
_PGDR                                     IMPT 00000000   1735 
_PHCR                                     IMPT 00000000   1723  2655 
_PHDR                                     IMPT 00000000   1736 
_PHTRC_LOOP                      Pstart1       0000013E   3253* 3335 
_PHTRC_LOOP_END                  Pstart1       000001AE   3255  3338*
_PH_TO_PHRAM_COPY                Pstart1  EXPT 0000012C   3238  3239*
_PINTER                                   IMPT 00000000   1662  2750 
_PJCR                                     IMPT 00000000   1724  2659 
_PJDR                                     IMPT 00000000   1737  3039  3157  3275 
_PJ_INDT_OLD1                             IMPT 00000000   2391 
_PJ_INDT_OLD2                             IMPT 00000000   2392 
_PJ_PORT_CTL_DATA                         IMPT 00000000   2390 
_PKCR                                     IMPT 00000000   1725  2663 
*** SuperH RISC engine ASSEMBLER V.7.01.02.000 ***    11/14/21 17:24:16                                                  PAGE    22

*** CROSS REFERENCE LIST

NAME                             SECTION  ATTR VALUE             SEQUENCE

_PKDR                                     IMPT 00000000   1738 
_PK_INDT_OLD1                             IMPT 00000000   2396 
_PK_INDT_OLD2                             IMPT 00000000   2397 
_PK_PORT_CTL_DATA                         IMPT 00000000   2395 
_PLCR                                     IMPT 00000000   1726  2667 
_PLDR                                     IMPT 00000000   1739 
_PLSiCH1                                  EQU  00000000   2147*
_PLSiCH2                                  EQU  00000030   2148*
_PL_BitComdH                              EQU  00000002   2151*
_PL_BitComdL                              EQU  00000000   2150*
_PL_BitInfoH                              EQU  00000006   2153*
_PL_BitInfoL                              EQU  00000004   2152*
_PL_CtrlReg                               EQU  0000002A   2157*
_PL_INDT_OLD1                             IMPT 00000000   2401 
_PL_INDT_OLD2                             IMPT 00000000   2402 
_PL_NowPos1H                              EQU  00000026   2155*
_PL_NowPos1L                              EQU  00000024   2154*
_PL_NowPos2                               EQU  00000028   2156*
_PL_PORT_CTL_DATA                         IMPT 00000000   2400 
_PMCR                                     IMPT 00000000   1728  2671 
_PMDR                                     IMPT 00000000   1741 
_PTEH                                     IMPT 00000000   1911 
_PTEL                                     IMPT 00000000   1912 
_PTRC_LOOP                       Pstart1       0000002E   3017* 3099 
_PTRC_LOOP_END                   Pstart1       0000009E   3019  3102*
_PV0_SCRW_POS                             IMPT 00000000   2211 
_PV1_SCRW_POS                             IMPT 00000000   2209 
_PV_AD_DATA                               IMPT 00000000   2286 
_P_TO_PRAM_COPY                  Pstart1  EXPT 0000001C   3002  3003*
_R64CNT                                   IMPT 00000000   1858 
_RACT_IN_DATA                             IMPT 00000000   2304 
_RCNT                                     IMPT 00000000   1761 
_RCR1                                     IMPT 00000000   1872 
_RCR2                                     IMPT 00000000   1873 
_RDAYAR                                   IMPT 00000000   1870 
_RDAYCNT                                  IMPT 00000000   1863 
_RDEV_IN_DATA                             IMPT 00000000   2306 
_RDFP                                     IMPT 00000000   1765 
_RDR0                                     IMPT 00000000   1846 
_REAL_INP1_DATA                           IMPT 00000000   2380 
_REAL_INP1_DT_OLD1                        IMPT 00000000   2381 
_REAL_INP1_DT_OLD2                        IMPT 00000000   2382 
_REMOTE_ERR_CHKTM                         IMPT 00000000   2259 
_RFCR                                     IMPT 00000000   1886  2611 
_RHRAR                                    IMPT 00000000   1868 
_RHRCNT                                   IMPT 00000000   1861 
_RMINAR                                   IMPT 00000000   1867 
_RMINCNT                                  IMPT 00000000   1860 
_RMONAR                                   IMPT 00000000   1871 
_RMONCNT                                  IMPT 00000000   1864 
_RNA_ALM_BIT0_CNT                         IMPT 00000000   2337 
_RNA_ALM_BIT1_CNT                         IMPT 00000000   2338 
_RNA_ALM_BIT2_CNT                         IMPT 00000000   2339 
_RNA_ALM_BIT3_CNT                         IMPT 00000000   2340 
*** SuperH RISC engine ASSEMBLER V.7.01.02.000 ***    11/14/21 17:24:16                                                  PAGE    23

*** CROSS REFERENCE LIST

NAME                             SECTION  ATTR VALUE             SEQUENCE

_RNA_ALM_BIT4_CNT                         IMPT 00000000   2341 
_RNA_ALM_BIT5_CNT                         IMPT 00000000   2342 
_RNA_ALM_BIT6_CNT                         IMPT 00000000   2343 
_RNA_ALM_BIT7_CNT                         IMPT 00000000   2344 
_RNA_ALM_CNT                              IMPT 00000000   2345 
_RNA_ALM_DAT                              IMPT 00000000   2346 
_RNA_CMD_VERIFY_CNT                       IMPT 00000000   2332 
_RNA_CMD_VERIFY_DAT                       IMPT 00000000   2333 
_RNA_REF1_CNT                             IMPT 00000000   2347 
_RNA_REF2_CNT                             IMPT 00000000   2348 
_RNA_REF_ERR_FLG1                         IMPT 00000000   2327 
_RNA_REF_ERR_FLG2                         IMPT 00000000   2328 
_RNA_STS_ERR_DAT                          IMPT 00000000   2336 
_RNA_STS_REQERR_CNT                       IMPT 00000000   2335 
_RNA_STS_SYSERR_CNT                       IMPT 00000000   2334 
_ROM_SYSPAR_ERRADR                        IMPT 00000000   2261 
_RSECAR                                   IMPT 00000000   1866 
_RSECCNT                                  IMPT 00000000   1859 
_RSFT_TRERR_TM                            IMPT 00000000   2241 
_RTCNT                                    IMPT 00000000   1884 
_RTCOR                                    IMPT 00000000   1885  2601 
_RTCSR                                    IMPT 00000000   1883  2605 
_RWKAR                                    IMPT 00000000   1869 
_RWKCNT                                   IMPT 00000000   1862 
_RYRCNT                                   IMPT 00000000   1865 
_SAITO_ASM_RAM_TOP                        IMPT 00000000   2175 
_SAR0                                     IMPT 00000000   1666 
_SAR1                                     IMPT 00000000   1670 
_SAR2                                     IMPT 00000000   1674 
_SAR3                                     IMPT 00000000   1678 
_SCBRR2                                   IMPT 00000000   1743 
_SCFCR2                                   IMPT 00000000   1748 
_SCFDR2                                   IMPT 00000000   1749 
_SCFRDR2                                  IMPT 00000000   1747 
_SCFTDR2                                  IMPT 00000000   1745 
_SCPCR                                    IMPT 00000000   1727  2686 
_SCPDR                                    IMPT 00000000   1740  2683  2830 
_SCR0                                     IMPT 00000000   1843  2818 
_SCSCMR                                   IMPT 00000000   1847 
_SCSCR2                                   IMPT 00000000   1744 
_SCSMR2                                   IMPT 00000000   1742 
_SCSSR2                                   IMPT 00000000   1746 
_SDDRL                                    IMPT 00000000   1768 
_SDDR_SDDRH                               IMPT 00000000   1767 
_SDIR                                     IMPT 00000000   1766 
_SDMR                                     EQU  FFFFE440   2547* 2592 
_SELF_ACT_FLG                             IMPT 00000000   2269 
_SELF_CHK_FLG                             IMPT 00000000   2268 
_SELF_CHK_TIMER                           IMPT 00000000   2278 
_SELF_FSTY_USE                            IMPT 00000000   2275 
_SELF_HAND_FLG1                           IMPT 00000000   2272 
_SELF_HAND_FLG2                           IMPT 00000000   2273 
_SELF_RSTY_USE                            IMPT 00000000   2276 
_SFTSW_ERR_TM                             IMPT 00000000   2229 
*** SuperH RISC engine ASSEMBLER V.7.01.02.000 ***    11/14/21 17:24:16                                                  PAGE    24

*** CROSS REFERENCE LIST

NAME                             SECTION  ATTR VALUE             SEQUENCE

_SH4_SQERRAM                              IMPT 00000000   2222 
_SICDAR                                   IMPT 00000000   1705 
_SICTR                                    IMPT 00000000   1706 
_SIFCTR                                   IMPT 00000000   1707 
_SIFPR                                    IMPT 00000000   1715 
_SIIER                                    IMPT 00000000   1709 
_SIMDR                                    IMPT 00000000   1701 
_SIRCR                                    IMPT 00000000   1713 
_SIRDAR                                   IMPT 00000000   1704 
_SIRDR                                    IMPT 00000000   1711 
_SISCR                                    IMPT 00000000   1702 
_SISTR                                    IMPT 00000000   1708 
_SITCR                                    IMPT 00000000   1712 
_SITDAR                                   IMPT 00000000   1703 
_SITDR                                    IMPT 00000000   1710 
_SITMR                                    IMPT 00000000   1714 
_SMR0                                     IMPT 00000000   1841  2802 
_SQ_CBWK_TOP                              IMPT 00000000   2375 
_SRAM_SIZE                                EQU  001FFFFF   2060*
_SRAM_TOP                                 EQU  AC000000   2059*
_SRSTR                                    IMPT 00000000   1776 
_SSR0                                     IMPT 00000000   1845 
_START_ACK_COD                            EQU  00004321    216*
_START_REQ_COD                            EQU  00009876    215*
_STBCR                                    IMPT 00000000   1888 
_STBCR2                                   IMPT 00000000   1891 
_STBCR3                                   IMPT 00000000   1775 
_TCNT0                                    IMPT 00000000   1850  2760 
_TCNT1                                    IMPT 00000000   1853  2769 
_TCNT2                                    IMPT 00000000   1856  2778 
_TCOR0                                    IMPT 00000000   1849  2757 
_TCOR1                                    IMPT 00000000   1852  2766 
_TCOR2                                    IMPT 00000000   1855  2775 
_TCR0                                     IMPT 00000000   1851  2754  2781 
_TCR1                                     IMPT 00000000   1854  2763  2787 
_TCR2                                     IMPT 00000000   1857  2772  2792 
_TDFP                                     IMPT 00000000   1764 
_TDR0                                     IMPT 00000000   1844 
_TEA                                      IMPT 00000000   1914 
_TIM100US                                 EQU  000007D0   2050*
_TIM1MS                                   EQU  000009C4   2051*
_TINT3_10MS_CNT                           IMPT 00000000   2313 
_TRA                                      IMPT 00000000   1904 
_TSTR                                     IMPT 00000000   1848  2797 
_TTB                                      IMPT 00000000   1913 
_USBDASTS                                 IMPT 00000000   1788 
_USBDMA                                   IMPT 00000000   1797 
_USBEPDR0I                                IMPT 00000000   1782 
_USBEPDR0O                                IMPT 00000000   1783 
_USBEPDR0S                                IMPT 00000000   1787 
_USBEPDR1                                 IMPT 00000000   1794 
_USBEPDR2                                 IMPT 00000000   1789 
_USBEPDR3                                 IMPT 00000000   1798 
_USBEPSTL                                 IMPT 00000000   1791 
*** SuperH RISC engine ASSEMBLER V.7.01.02.000 ***    11/14/21 17:24:16                                                  PAGE    25

*** CROSS REFERENCE LIST

NAME                             SECTION  ATTR VALUE             SEQUENCE

_USBEPSZ0O                                IMPT 00000000   1786 
_USBEPSZ1                                 IMPT 00000000   1795 
_USBFCLR                                  IMPT 00000000   1785 
_USBHBCED                                 IMPT 00000000   1810 
_USBHBHED                                 IMPT 00000000   1809 
_USBHC                                    IMPT 00000000   1800 
_USBHCCED                                 IMPT 00000000   1808 
_USBHCHED                                 IMPT 00000000   1807 
_USBHCS                                   IMPT 00000000   1801 
_USBHDHED                                 IMPT 00000000   1811 
_USBHFI                                   IMPT 00000000   1812 
_USBHFN                                   IMPT 00000000   1814 
_USBHFR                                   IMPT 00000000   1813 
_USBHHCCA                                 IMPT 00000000   1805 
_USBHID                                   IMPT 00000000   1804 
_USBHIE                                   IMPT 00000000   1803 
_USBHIS                                   IMPT 00000000   1802 
_USBHLST                                  IMPT 00000000   1816 
_USBHPCED                                 IMPT 00000000   1806 
_USBHPS                                   IMPT 00000000   1815 
_USBHR                                    IMPT 00000000   1799 
_USBHRDA                                  IMPT 00000000   1817 
_USBHRDB                                  IMPT 00000000   1818 
_USBHRPS1                                 IMPT 00000000   1820 
_USBHRPS2                                 IMPT 00000000   1821 
_USBHRS                                   IMPT 00000000   1819 
_USBIER0                                  IMPT 00000000   1792 
_USBIER1                                  IMPT 00000000   1793 
_USBIFR0                                  IMPT 00000000   1780 
_USBIFR1                                  IMPT 00000000   1781 
_USBISR0                                  IMPT 00000000   1790 
_USBISR1                                  IMPT 00000000   1796 
_USBTFG                                   IMPT 00000000   1784 
_VLVER11_ERR_TM                           IMPT 00000000   2233 
_VLVER12_ERR_TM                           IMPT 00000000   2234 
_VLVER21_ERR_TM                           IMPT 00000000   2235 
_VLVER22_ERR_TM                           IMPT 00000000   2236 
_VLVER31_ERR_TM                           IMPT 00000000   2237 
_VLVER32_ERR_TM                           IMPT 00000000   2238 
_VUPCHECK_EQU                             EQU  11AB3739    101*
_WCR1                                     IMPT 00000000   1879  2577 
_WCR2                                     IMPT 00000000   1880  2588 
_WK_RCV_SCFDR2                            IMPT 00000000   2319 
_WK_RCV_SCFSR2                            IMPT 00000000   2318 
_WK_RCV_SCLSR2                            IMPT 00000000   2317 
_WPAR1_BTNER_TM                           IMPT 00000000   2245 
_WPAR1_CMPER2_TM                          IMPT 00000000   2254 
_WPAR1_FSFTTRER_TM                        IMPT 00000000   2255 
_WPAR1_MODSER_TM1                         IMPT 00000000   2246 
_WPAR1_MODSER_TM2                         IMPT 00000000   2247 
_WPAR1_RSFTTRER_TM                        IMPT 00000000   2256 
_WPAR1_SFTSWER_TM                         IMPT 00000000   2244 
_WPAR1_VLVER11_TM1                        IMPT 00000000   2248 
_WPAR1_VLVER12_TM1                        IMPT 00000000   2249 
*** SuperH RISC engine ASSEMBLER V.7.01.02.000 ***    11/14/21 17:24:16                                                  PAGE    26

*** CROSS REFERENCE LIST

NAME                             SECTION  ATTR VALUE             SEQUENCE

_WPAR1_VLVER21_TM1                        IMPT 00000000   2250 
_WPAR1_VLVER22_TM1                        IMPT 00000000   2251 
_WPAR1_VLVER31_TM1                        IMPT 00000000   2252 
_WPAR1_VLVER32_TM1                        IMPT 00000000   2253 
_WTCNT                                    IMPT 00000000   1889 
_WTCSR                                    IMPT 00000000   1890  2560 
__PHiRAM_BGN                              IMPT 00000000   3236  3246 
__PHiROM_BGN                              IMPT 00000000   3235  3244 
__PHiROM_END                              IMPT 00000000   3237  3248 
__PRAM_BGN                                IMPT 00000000   3000  3010 
__P_BGN                                   IMPT 00000000   2999  3008 
__P_END                                   IMPT 00000000   3001  3012 
__PcallRAM_BGN                            IMPT 00000000   3118  3128 
__Pcall_BGN                               IMPT 00000000   3117  3126 
__Pcall_END                               IMPT 00000000   3119  3130 
_dio_top2                                 IMPT 00000000   2541  3057  3070  3175  3188  3293  3306 
_rcv2_data_INcnt                          IMPT 00000000   2195 
_rcv2_data_buf                            IMPT 00000000   2197 
_rcv2_data_cnt                            IMPT 00000000   2196 
_rcv2_err_FRPRErrCnt                      IMPT 00000000   2189 
_rcv2_err_OverRunCnt                      IMPT 00000000   2188 
_rcv2_err_data_flg1                       IMPT 00000000   2183 
_rcv2_err_data_sts1                       IMPT 00000000   2187 
_rcv2_err_elseErrCnt                      IMPT 00000000   2190 
_rcv2_err_hard_INTflg1                    IMPT 00000000   2180 
_rcv2_err_hard_INTflg2                    IMPT 00000000   2181 
_rcv2_err_hard_INTflg3                    IMPT 00000000   2182 
_rcv2_err_hard_sts1                       IMPT 00000000   2184 
_rcv2_err_hard_sts2                       IMPT 00000000   2185 
_rcv2_err_hard_sts3                       IMPT 00000000   2186 
_rcv2_event_flg                           IMPT 00000000   2206 
_send2_data_buf                           IMPT 00000000   2202 
_send2_event_flg                          IMPT 00000000   2207 
*** SuperH RISC engine ASSEMBLER V.7.01.02.000 ***    11/14/21 17:24:16                                                  PAGE    27

*** SECTION DATA LIST

SECTION                          ATTRIBUTE    SIZE             START

Phwsetup1                        REL-CODE    000000290        
Pstart1                          REL-CODE    0000001B4        
