*** SuperH RISC engine ASSEMBLER V.7.01.02.000 ***    11/14/21 17:24:25                                                  PAGE     1
PROGRAM NAME =

    1                               1     ;       *******************************************
    2                               2     ;       ***                                     ***
    3                               3     ;       ***     共通演算／命令                  ***
    4                               4     ;       ***                                     ***
    5                               5     ;       *******************************************
 2227                              13     
 2228                              14     
 2229                              15             .AIF    3 EQ 3
 2230                              16 C   ;//2010/12/08   .SECTION        P,CODE                  ;
 2231 00000000                     17 C           .SECTION        PHiROM,CODE                     ;
 2232                              18 C   
 2233                              19             .AELSE
 2234                              20             .SECTION        P,CODE                          ;CPUA,SIT3
 2235                              21     
 2236                              22             .AENDI
 2237                              23     
 2238                              24     ;       ***********************************
 2239                              25     ;       ***                             ***
 2240                              26     ;       ***     BIT0~BIT7->1~8,0        ***
 2241                              27     ;       ***                             ***
 2242                              28     ;       ***********************************
 2243                              29     ;       Input   R0
 2244                              30     ;       Output  R2
 2245                              31     ;
 2246                              32     
 2247                              33     
 2248 00000000                     34             .ALIGN  4                               ;
 2249                              35             .EXPORT _LONG_BIT_TBL0
 2250                              36             .EXPORT _LONG_BIT_TBL1
 2251                              37             .EXPORT _LONG_BIT_TBL2
 2252                              38     
 2253                              39             .EXPORT _WORD_BIT_TBL0
 2254                              40             .EXPORT _WORD_BIT_TBL1
 2255                              41             .EXPORT _WORD_BIT_TBL2
 2256                              42             .EXPORT _WORD_BIT_TBL3
 2257                              43             .EXPORT _WORD_BIT_TBL4
 2258                              44             .EXPORT _WORD_BIT_TBL5
 2259                              45             .EXPORT _WORD_BIT_TBL6
 2260                              46             .EXPORT _WORD_BIT_TBL7
 2261                              47             .EXPORT _WORD_BIT_TBL8
 2262                              48             .EXPORT _WORD_BIT_TBL9
 2263                              49             .EXPORT _WORD_BIT_TBL10
 2264                              50     
 2265 00000000 00000000            51     _LONG_BIT_TBL0:         .DATA.L         0
 2266 00000004 00000001            52     _LONG_BIT_TBL1:         .DATA.L         BIT0
 2267 00000008 00000002            53     _LONG_BIT_TBL2:         .DATA.L         BIT1
 2268 0000000C 00000004            54                             .DATA.L         BIT2
 2269 00000010 00000008            55                             .DATA.L         BIT3
 2270 00000014 00000010            56                             .DATA.L         BIT4
 2271 00000018 00000020            57                             .DATA.L         BIT5
 2272 0000001C 00000040            58                             .DATA.L         BIT6
 2273 00000020 00000080            59                             .DATA.L         BIT7
 2274 00000024 00000100            60                             .DATA.L         BIT8
 2275 00000028 00000200            61                             .DATA.L         BIT9
 2276 0000002C 00000400            62                             .DATA.L         BIT10
 2277 00000030 00000800            63                             .DATA.L         BIT11
 2278 00000034 00001000            64                             .DATA.L         BIT12
*** SuperH RISC engine ASSEMBLER V.7.01.02.000 ***    11/14/21 17:24:25                                                  PAGE     2
PROGRAM NAME =

 2279 00000038 00002000            65                             .DATA.L         BIT13
 2280 0000003C 00004000            66                             .DATA.L         BIT14
 2281 00000040 00008000            67                             .DATA.L         BIT15
 2282 00000044 00010000            68                             .DATA.L         BIT16
 2283 00000048 00020000            69                             .DATA.L         BIT17
 2284 0000004C 00040000            70                             .DATA.L         BIT18
 2285 00000050 00080000            71                             .DATA.L         BIT19
 2286 00000054 00100000            72                             .DATA.L         BIT20
 2287 00000058 00200000            73                             .DATA.L         BIT21
 2288 0000005C 00400000            74                             .DATA.L         BIT22
 2289 00000060 00800000            75                             .DATA.L         BIT23
 2290 00000064 01000000            76                             .DATA.L         BIT24
 2291 00000068 02000000            77                             .DATA.L         BIT25
 2292 0000006C 04000000            78                             .DATA.L         BIT26
 2293 00000070 08000000            79                             .DATA.L         BIT27
 2294 00000074 10000000            80                             .DATA.L         BIT28
 2295 00000078 20000000            81                             .DATA.L         BIT29
 2296 0000007C 40000000            82                             .DATA.L         BIT30
 2297 00000080 80000000            83                             .DATA.L         BIT31
 2298                              84     
 2299                              85             .EXPORT         _DWORD_BIT0_TBL1
 2300                              86             .EXPORT         _DWORD_BIT1_TBL1
 2301                              87     
 2302 00000084 00000000            88     _DWORD_BIT0_TBL1                .DATA.L         0
 2303 00000088 00000001            89     _DWORD_BIT1_TBL1                .DATA.L         B'00000001
 2304 0000008C 00000003            90                                     .DATA.L         B'00000011
 2305 00000090 00000007            91                                     .DATA.L         B'00000111
 2306 00000094 0000000F            92                                     .DATA.L         B'00001111
 2307 00000098 0000001F            93                                     .DATA.L         B'00011111
 2308 0000009C 0000003F            94                                     .DATA.L         B'00111111
 2309 000000A0 0000007F            95                                     .DATA.L         B'01111111
 2310 000000A4 000000FF            96                                     .DATA.L         B'11111111
 2311 000000A8 000001FF            97                                     .DATA.L         H'000001FF
 2312 000000AC 000003FF            98                                     .DATA.L         H'000003FF
 2313 000000B0 000007FF            99                                     .DATA.L         H'000007FF
 2314 000000B4 00000FFF           100                                     .DATA.L         H'00000FFF
 2315 000000B8 00001FFF           101                                     .DATA.L         H'00001FFF
 2316 000000BC 00003FFF           102                                     .DATA.L         H'00003FFF
 2317 000000C0 00007FFF           103                                     .DATA.L         H'00007FFF
 2318 000000C4 0000FFFF           104                                     .DATA.L         H'0000FFFF
 2319 000000C8 0001FFFF           105                                     .DATA.L         H'0001FFFF
 2320 000000CC 0003FFFF           106                                     .DATA.L         H'0003FFFF
 2321 000000D0 0007FFFF           107                                     .DATA.L         H'0007FFFF
 2322 000000D4 000FFFFF           108                                     .DATA.L         H'000FFFFF
 2323 000000D8 001FFFFF           109                                     .DATA.L         H'001FFFFF
 2324 000000DC 003FFFFF           110                                     .DATA.L         H'003FFFFF
 2325 000000E0 007FFFFF           111                                     .DATA.L         H'007FFFFF
 2326 000000E4 00FFFFFF           112                                     .DATA.L         H'00FFFFFF
 2327 000000E8 01FFFFFF           113                                     .DATA.L         H'01FFFFFF
 2328 000000EC 03FFFFFF           114                                     .DATA.L         H'03FFFFFF
 2329 000000F0 07FFFFFF           115                                     .DATA.L         H'07FFFFFF
 2330 000000F4 0FFFFFFF           116                                     .DATA.L         H'0FFFFFFF
 2331 000000F8 1FFFFFFF           117                                     .DATA.L         H'1FFFFFFF
 2332 000000FC 3FFFFFFF           118                                     .DATA.L         H'3FFFFFFF
 2333 00000100 7FFFFFFF           119                                     .DATA.L         H'7FFFFFFF
 2334 00000104 FFFFFFFF           120                                     .DATA.L         H'FFFFFFFF
 2335 00000108 FFFFFFFF           121                                     .DATA.L         H'FFFFFFFF
*** SuperH RISC engine ASSEMBLER V.7.01.02.000 ***    11/14/21 17:24:25                                                  PAGE     3
PROGRAM NAME =

 2336                             122     
 2337 0000010C                    123             .ALIGN  4                               ;
 2338 0000010C 0000               124     _WORD_BIT_TBL0:         .DATA.W         0
 2339 0000010E 0001               125     _WORD_BIT_TBL1:         .DATA.W         BIT0
 2340 00000110 0002               126     _WORD_BIT_TBL2:         .DATA.W         BIT1
 2341 00000112 0004               127     _WORD_BIT_TBL3:         .DATA.W         BIT2
 2342 00000114 0008               128     _WORD_BIT_TBL4:         .DATA.W         BIT3
 2343 00000116 0010               129     _WORD_BIT_TBL5:         .DATA.W         BIT4
 2344 00000118 0020               130     _WORD_BIT_TBL6:         .DATA.W         BIT5
 2345 0000011A 0040               131     _WORD_BIT_TBL7:         .DATA.W         BIT6
 2346 0000011C 0080               132     _WORD_BIT_TBL8:         .DATA.W         BIT7
 2347 0000011E 0100               133     _WORD_BIT_TBL9:         .DATA.W         BIT8
 2348 00000120 0200               134     _WORD_BIT_TBL10:        .DATA.W         BIT9
 2349 00000122 0400               135                             .DATA.W         BIT10
 2350 00000124 0800               136                             .DATA.W         BIT11
 2351 00000126 1000               137                             .DATA.W         BIT12
 2352 00000128 2000               138                             .DATA.W         BIT13
 2353 0000012A 4000               139                             .DATA.W         BIT14
 2354 0000012C 8000               140                             .DATA.W         BIT15
 2355                             141     
 2356                             142     
 2357                             143     
 2358                             144     
 2359                             145     
 2360                             146     ;       *******************************************
 2361                             147     ;       ***                                     ***
 2362                             148     ;       ***     高速処理サブルーチン群          ***
 2363                             149     ;       ***                                     ***
 2364                             150     ;       *******************************************
 2365                             151     ;       *基本的に固有の処理はインクルードで読み込む
 2366                             152     ;       *演算ルーチンのみここに記述する
 2367                             153     ;       *FPUの保証をする事
 2368                             154     ;
 2369                             155     ;       ***************************************************
 2370                             156     ;       ***                                             ***
 2371                             157     ;       ***             アセンブラのメインループ        ***
 2372                             158     ;       ***                                             ***
 2373                             159     ;       ***                                             ***
 2374                             160     ;       ***************************************************
 2375                             161     ;       ”本当は高速セクション"
 2376                             162     ;;;;;;;;;;2013-03-15    .SECTION        P,CODE                  ;
 2377                             163     ;       /*      extern   宣言           */
 2378                             164     ;       /*      public 宣言             */
 2379                             165             .EXPORT         _DIVS_32REG2_32REG1_R4_32REG2_R2        ;(R2/R4-->R2)
 2380                             166             .EXPORT         _DIVS_64R1R2_32R4_32R2                  ;(R1,R2/R4-->R2)
 2381                             167             .EXPORT         _DIVU_64R1R2_32R4_32R2;shn_high.src
 2382                             168             .EXPORT         _HIGH_DIVS_32REG2_16REG1_R4_16REG2_R2   ;(R2/R4-->R2)
 2383                             169             .EXPORT         _HIGH_S32R2_MUL_S32R1_DIV_S32R4_S32R2   ;(R2*R1/R4-->R2)
 2384                             170     
 2385                             171             .EXPORT         _FPU_R2_MUL_R1_DIV_R4;
 2386                             172     ;;      .EXPORT         _FPU_R2_MUL_R1_DIV_R4_MOD_R1            ;
 2387                             173     
 2388                             174             .EXPORT         _FPU_R2_MUL_R1_R3_DIV_R4
 2389                             175             .EXPORT         _FPU_DIVS_32REG2_32REG1_R4_32REG2_R2;
 2390                             176             .EXPORT         _FPU_DIVS_32REG2_DIV_32REG4_R2_MOD_R1;
 2391                             177     
 2392                             178             .EXPORT         _MULDIV_R2S32mR1S32dR4S32aR1R2S64       ;
*** SuperH RISC engine ASSEMBLER V.7.01.02.000 ***    11/14/21 17:24:25                                                  PAGE     4
PROGRAM NAME =

 2393                             179             .EXPORT         _MULDIV_R1R2S64mR3S32dR4S32aR1R2S64     ;
 2394                             180             .EXPORT         _MUL_R1R2S64mR3S32aR1R2S64              ;
 2395                             181     
 2396                             182             .EXPORT         _DIVS_64R1R2_32R4_64R1R2        ;
 2397                             183             .EXPORT         _DIVU_64R1R2_32R4_64R1R2        ;
 2398                             184             .EXPORT         _X_R2_MUL_R1_DIV_R4
 2399                             185     
 2400                             186     ;       *******************************************************************
 2401                             187     ;       ***                                                             ***
 2402                             188     ;       ***     演算    符号付き 32bit(R2)/32bit(R4)->32bit(R2)         ***
 2403                             189     ;       ***             0割り算ﾁｪｯｸ付き                                 ***
 2404                             190     ;       ***                                                             ***
 2405                             191     ;       *******************************************************************
 2406                             192     ;       WKREGは保持
 2407                             193     ;       R2:結果それ以外は保持
 2408 00000130                    194             .ALIGN  4
 2409 00000130                    195     _DIVS_32REG2_32REG1_R4_32REG2_R2:
 2410                             196             SUB_START
 2411 00000130 4F22                   M           STS.L   PR,@-R15                ;[必要]
 2412                                 M   ;;;;;;; ADD     #-4,R15                 ;[不要?]
 2413                             197             PUSH_REG1       R0
 2414 00000132 2F06                   M           MOV.L   R0,@-R15                ;PUSH=SP-4
 2415                                 M                                           ;REG=>[SP]
 2416                                 M                                           ;"-4" FF,FF,FF,FC
 2417                             198             PUSH_REG1       R1
 2418 00000134 2F16                   M           MOV.L   R1,@-R15                ;PUSH=SP-4
 2419                                 M                                           ;REG=>[SP]
 2420                                 M                                           ;"-4" FF,FF,FF,FC
 2421                             199             MAC_DIVS_32REG2_32REG1_32REG2 REG1=R4,REG2=R2,WKREG1=R0,WKREG2=R1
 2422 00000136 2448                   M           TST     R4,R4           ;
 2423                                 M           TST_BIT_OF DIVS21_ZERO00000     ;
 2424 00000138 8949                   M           BT      DIVS21_ZERO00000
 2425                                 M   
 2426 0000013A 6023                   M           MOV     R2,R0           ;
 2427 0000013C 4024                   M           ROTCL   R0                      ;
 2428 0000013E 311A                   M           SUBC    R1,R1           ;符号拡張64ﾋﾞｯﾄ R4,R2
 2429 00000140 200A                   M           XOR     R0,R0           ;R3=0
 2430 00000142 320A                   M           SUBC    R0,R2           ;
 2431 00000144 2147                   M           DIV0S   R4,R1           ;
 2432                                 M           .arepeat        32              ;繰返展開
 2433                                 M           ROTCL   R2
 2434                                 M           DIV1    R4,R1           ;SHIFT 1 R1-R2 -->Q
 2435                                 M           .aendr                          ;
 2436 00000146 4224                   C           ROTCL   R2
 2437 00000148 3144                   C           DIV1    R4,R1           ;SHIFT 1 R1-R2 -->Q
 2438 0000014A 4224                   C           ROTCL   R2
 2439 0000014C 3144                   C           DIV1    R4,R1           ;SHIFT 1 R1-R2 -->Q
 2440 0000014E 4224                   C           ROTCL   R2
 2441 00000150 3144                   C           DIV1    R4,R1           ;SHIFT 1 R1-R2 -->Q
 2442 00000152 4224                   C           ROTCL   R2
 2443 00000154 3144                   C           DIV1    R4,R1           ;SHIFT 1 R1-R2 -->Q
 2444 00000156 4224                   C           ROTCL   R2
 2445 00000158 3144                   C           DIV1    R4,R1           ;SHIFT 1 R1-R2 -->Q
 2446 0000015A 4224                   C           ROTCL   R2
 2447 0000015C 3144                   C           DIV1    R4,R1           ;SHIFT 1 R1-R2 -->Q
 2448 0000015E 4224                   C           ROTCL   R2
 2449 00000160 3144                   C           DIV1    R4,R1           ;SHIFT 1 R1-R2 -->Q
*** SuperH RISC engine ASSEMBLER V.7.01.02.000 ***    11/14/21 17:24:25                                                  PAGE     5
PROGRAM NAME =

 2450 00000162 4224                   C           ROTCL   R2
 2451 00000164 3144                   C           DIV1    R4,R1           ;SHIFT 1 R1-R2 -->Q
 2452 00000166 4224                   C           ROTCL   R2
 2453 00000168 3144                   C           DIV1    R4,R1           ;SHIFT 1 R1-R2 -->Q
 2454 0000016A 4224                   C           ROTCL   R2
 2455 0000016C 3144                   C           DIV1    R4,R1           ;SHIFT 1 R1-R2 -->Q
 2456 0000016E 4224                   C           ROTCL   R2
 2457 00000170 3144                   C           DIV1    R4,R1           ;SHIFT 1 R1-R2 -->Q
 2458 00000172 4224                   C           ROTCL   R2
 2459 00000174 3144                   C           DIV1    R4,R1           ;SHIFT 1 R1-R2 -->Q
 2460 00000176 4224                   C           ROTCL   R2
 2461 00000178 3144                   C           DIV1    R4,R1           ;SHIFT 1 R1-R2 -->Q
 2462 0000017A 4224                   C           ROTCL   R2
 2463 0000017C 3144                   C           DIV1    R4,R1           ;SHIFT 1 R1-R2 -->Q
 2464 0000017E 4224                   C           ROTCL   R2
 2465 00000180 3144                   C           DIV1    R4,R1           ;SHIFT 1 R1-R2 -->Q
 2466 00000182 4224                   C           ROTCL   R2
 2467 00000184 3144                   C           DIV1    R4,R1           ;SHIFT 1 R1-R2 -->Q
 2468 00000186 4224                   C           ROTCL   R2
 2469 00000188 3144                   C           DIV1    R4,R1           ;SHIFT 1 R1-R2 -->Q
 2470 0000018A 4224                   C           ROTCL   R2
 2471 0000018C 3144                   C           DIV1    R4,R1           ;SHIFT 1 R1-R2 -->Q
 2472 0000018E 4224                   C           ROTCL   R2
 2473 00000190 3144                   C           DIV1    R4,R1           ;SHIFT 1 R1-R2 -->Q
 2474 00000192 4224                   C           ROTCL   R2
 2475 00000194 3144                   C           DIV1    R4,R1           ;SHIFT 1 R1-R2 -->Q
 2476 00000196 4224                   C           ROTCL   R2
 2477 00000198 3144                   C           DIV1    R4,R1           ;SHIFT 1 R1-R2 -->Q
 2478 0000019A 4224                   C           ROTCL   R2
 2479 0000019C 3144                   C           DIV1    R4,R1           ;SHIFT 1 R1-R2 -->Q
 2480 0000019E 4224                   C           ROTCL   R2
 2481 000001A0 3144                   C           DIV1    R4,R1           ;SHIFT 1 R1-R2 -->Q
 2482 000001A2 4224                   C           ROTCL   R2
 2483 000001A4 3144                   C           DIV1    R4,R1           ;SHIFT 1 R1-R2 -->Q
 2484 000001A6 4224                   C           ROTCL   R2
 2485 000001A8 3144                   C           DIV1    R4,R1           ;SHIFT 1 R1-R2 -->Q
 2486 000001AA 4224                   C           ROTCL   R2
 2487 000001AC 3144                   C           DIV1    R4,R1           ;SHIFT 1 R1-R2 -->Q
 2488 000001AE 4224                   C           ROTCL   R2
 2489 000001B0 3144                   C           DIV1    R4,R1           ;SHIFT 1 R1-R2 -->Q
 2490 000001B2 4224                   C           ROTCL   R2
 2491 000001B4 3144                   C           DIV1    R4,R1           ;SHIFT 1 R1-R2 -->Q
 2492 000001B6 4224                   C           ROTCL   R2
 2493 000001B8 3144                   C           DIV1    R4,R1           ;SHIFT 1 R1-R2 -->Q
 2494 000001BA 4224                   C           ROTCL   R2
 2495 000001BC 3144                   C           DIV1    R4,R1           ;SHIFT 1 R1-R2 -->Q
 2496 000001BE 4224                   C           ROTCL   R2
 2497 000001C0 3144                   C           DIV1    R4,R1           ;SHIFT 1 R1-R2 -->Q
 2498 000001C2 4224                   C           ROTCL   R2
 2499 000001C4 3144                   C           DIV1    R4,R1           ;SHIFT 1 R1-R2 -->Q
 2500 000001C6 4224                   M           ROTCL   R2                      ;
 2501 000001C8 320E                   M           ADDC    R0,R2           ;
 2502                                 M           M_BRA   DIVS21_EXT00000         ;
 2503 000001CA A001                   M           BRA     DIVS21_EXT00000
 2504 000001CC 0009                   M           NOP
 2505                                 M   
 2506 000001CE                        M   DIVS21_ZERO00000:                               ;R3/R1-->R2 IF R1=0 THEN R2=7FFF FFFF // 8
*** SuperH RISC engine ASSEMBLER V.7.01.02.000 ***    11/14/21 17:24:25                                                  PAGE     6
PROGRAM NAME =

                                          000 0000が本来か?
 2507 000001CE 222A                   M           XOR     R2,R2           ;
 2508 000001D0                        M   DIVS21_EXT00000:                                ;
 2509                             200             POP_REG1        R1
 2510                                 M                                   ; RE"+4" 00,00,00,04
 2511 000001D0 61F6                   M           MOV.L   @R15+,R1        ;
 2512                             201             POP_REG1        R0
 2513                                 M                                   ; RE"+4" 00,00,00,04
 2514 000001D2 60F6                   M           MOV.L   @R15+,R0        ;
 2515                             202             SUB_END
 2516                                 M   ;;;;;;; ADD     #4,R15                  ;[不要?]
 2517 000001D4 4F26                   M           LDS.L   @R15+,PR                ;[必要]
 2518                             203             M_RTS
 2519 000001D6 000B                   M           RTS                             ;RTSの後ろの
 2520 000001D8 0009                   M           NOP                             ;@R15+,PRはﾀﾞﾒ
 2521                             204     
 2522                             205     ;       *******************************************************************
 2523                             206     ;       ***                                                             ***
 2524                             207     ;       ***     演算    符号付き 32bit(R2)/32bit(R4)->32bit(R2)         ***
 2525                             208     ;       ***             0割り算ﾁｪｯｸ付き                                 ***
 2526                             209     ;       ***                                                             ***
 2527                             210     ;       *******************************************************************
 2528                             211     ;       WKREGは保持
 2529                             212     ;       R2:結果それ以外は保持
 2530 000001DA                    213     _DIVS_32REG2_32REG1_R4_32REG2_R2_MOD_R1:
 2531                             214             SUB_START
 2532 000001DA 4F22                   M           STS.L   PR,@-R15                ;[必要]
 2533                                 M   ;;;;;;; ADD     #-4,R15                 ;[不要?]
 2534                             215             PUSH_REG1       R2
 2535 000001DC 2F26                   M           MOV.L   R2,@-R15                ;PUSH=SP-4
 2536                                 M                                           ;REG=>[SP]
 2537                                 M                                           ;"-4" FF,FF,FF,FC
 2538                             216             PUSH_REG1       R4
 2539 000001DE 2F46                   M           MOV.L   R4,@-R15                ;PUSH=SP-4
 2540                                 M                                           ;REG=>[SP]
 2541                                 M                                           ;"-4" FF,FF,FF,FC
 2542                             217             MAC_DIVS_32REG2_32REG1_32REG2 REG1=R4,REG2=R2,WKREG1=R0,WKREG2=R1
 2543 000001E0 2448                   M           TST     R4,R4           ;
 2544                                 M           TST_BIT_OF DIVS21_ZERO00001     ;
 2545 000001E2 8949                   M           BT      DIVS21_ZERO00001
 2546                                 M   
 2547 000001E4 6023                   M           MOV     R2,R0           ;
 2548 000001E6 4024                   M           ROTCL   R0                      ;
 2549 000001E8 311A                   M           SUBC    R1,R1           ;符号拡張64ﾋﾞｯﾄ R4,R2
 2550 000001EA 200A                   M           XOR     R0,R0           ;R3=0
 2551 000001EC 320A                   M           SUBC    R0,R2           ;
 2552 000001EE 2147                   M           DIV0S   R4,R1           ;
 2553                                 M           .arepeat        32              ;繰返展開
 2554                                 M           ROTCL   R2
 2555                                 M           DIV1    R4,R1           ;SHIFT 1 R1-R2 -->Q
 2556                                 M           .aendr                          ;
 2557 000001F0 4224                   C           ROTCL   R2
 2558 000001F2 3144                   C           DIV1    R4,R1           ;SHIFT 1 R1-R2 -->Q
 2559 000001F4 4224                   C           ROTCL   R2
 2560 000001F6 3144                   C           DIV1    R4,R1           ;SHIFT 1 R1-R2 -->Q
 2561 000001F8 4224                   C           ROTCL   R2
 2562 000001FA 3144                   C           DIV1    R4,R1           ;SHIFT 1 R1-R2 -->Q
*** SuperH RISC engine ASSEMBLER V.7.01.02.000 ***    11/14/21 17:24:25                                                  PAGE     7
PROGRAM NAME =

 2563 000001FC 4224                   C           ROTCL   R2
 2564 000001FE 3144                   C           DIV1    R4,R1           ;SHIFT 1 R1-R2 -->Q
 2565 00000200 4224                   C           ROTCL   R2
 2566 00000202 3144                   C           DIV1    R4,R1           ;SHIFT 1 R1-R2 -->Q
 2567 00000204 4224                   C           ROTCL   R2
 2568 00000206 3144                   C           DIV1    R4,R1           ;SHIFT 1 R1-R2 -->Q
 2569 00000208 4224                   C           ROTCL   R2
 2570 0000020A 3144                   C           DIV1    R4,R1           ;SHIFT 1 R1-R2 -->Q
 2571 0000020C 4224                   C           ROTCL   R2
 2572 0000020E 3144                   C           DIV1    R4,R1           ;SHIFT 1 R1-R2 -->Q
 2573 00000210 4224                   C           ROTCL   R2
 2574 00000212 3144                   C           DIV1    R4,R1           ;SHIFT 1 R1-R2 -->Q
 2575 00000214 4224                   C           ROTCL   R2
 2576 00000216 3144                   C           DIV1    R4,R1           ;SHIFT 1 R1-R2 -->Q
 2577 00000218 4224                   C           ROTCL   R2
 2578 0000021A 3144                   C           DIV1    R4,R1           ;SHIFT 1 R1-R2 -->Q
 2579 0000021C 4224                   C           ROTCL   R2
 2580 0000021E 3144                   C           DIV1    R4,R1           ;SHIFT 1 R1-R2 -->Q
 2581 00000220 4224                   C           ROTCL   R2
 2582 00000222 3144                   C           DIV1    R4,R1           ;SHIFT 1 R1-R2 -->Q
 2583 00000224 4224                   C           ROTCL   R2
 2584 00000226 3144                   C           DIV1    R4,R1           ;SHIFT 1 R1-R2 -->Q
 2585 00000228 4224                   C           ROTCL   R2
 2586 0000022A 3144                   C           DIV1    R4,R1           ;SHIFT 1 R1-R2 -->Q
 2587 0000022C 4224                   C           ROTCL   R2
 2588 0000022E 3144                   C           DIV1    R4,R1           ;SHIFT 1 R1-R2 -->Q
 2589 00000230 4224                   C           ROTCL   R2
 2590 00000232 3144                   C           DIV1    R4,R1           ;SHIFT 1 R1-R2 -->Q
 2591 00000234 4224                   C           ROTCL   R2
 2592 00000236 3144                   C           DIV1    R4,R1           ;SHIFT 1 R1-R2 -->Q
 2593 00000238 4224                   C           ROTCL   R2
 2594 0000023A 3144                   C           DIV1    R4,R1           ;SHIFT 1 R1-R2 -->Q
 2595 0000023C 4224                   C           ROTCL   R2
 2596 0000023E 3144                   C           DIV1    R4,R1           ;SHIFT 1 R1-R2 -->Q
 2597 00000240 4224                   C           ROTCL   R2
 2598 00000242 3144                   C           DIV1    R4,R1           ;SHIFT 1 R1-R2 -->Q
 2599 00000244 4224                   C           ROTCL   R2
 2600 00000246 3144                   C           DIV1    R4,R1           ;SHIFT 1 R1-R2 -->Q
 2601 00000248 4224                   C           ROTCL   R2
 2602 0000024A 3144                   C           DIV1    R4,R1           ;SHIFT 1 R1-R2 -->Q
 2603 0000024C 4224                   C           ROTCL   R2
 2604 0000024E 3144                   C           DIV1    R4,R1           ;SHIFT 1 R1-R2 -->Q
 2605 00000250 4224                   C           ROTCL   R2
 2606 00000252 3144                   C           DIV1    R4,R1           ;SHIFT 1 R1-R2 -->Q
 2607 00000254 4224                   C           ROTCL   R2
 2608 00000256 3144                   C           DIV1    R4,R1           ;SHIFT 1 R1-R2 -->Q
 2609 00000258 4224                   C           ROTCL   R2
 2610 0000025A 3144                   C           DIV1    R4,R1           ;SHIFT 1 R1-R2 -->Q
 2611 0000025C 4224                   C           ROTCL   R2
 2612 0000025E 3144                   C           DIV1    R4,R1           ;SHIFT 1 R1-R2 -->Q
 2613 00000260 4224                   C           ROTCL   R2
 2614 00000262 3144                   C           DIV1    R4,R1           ;SHIFT 1 R1-R2 -->Q
 2615 00000264 4224                   C           ROTCL   R2
 2616 00000266 3144                   C           DIV1    R4,R1           ;SHIFT 1 R1-R2 -->Q
 2617 00000268 4224                   C           ROTCL   R2
 2618 0000026A 3144                   C           DIV1    R4,R1           ;SHIFT 1 R1-R2 -->Q
 2619 0000026C 4224                   C           ROTCL   R2
*** SuperH RISC engine ASSEMBLER V.7.01.02.000 ***    11/14/21 17:24:25                                                  PAGE     8
PROGRAM NAME =

 2620 0000026E 3144                   C           DIV1    R4,R1           ;SHIFT 1 R1-R2 -->Q
 2621 00000270 4224                   M           ROTCL   R2                      ;
 2622 00000272 320E                   M           ADDC    R0,R2           ;
 2623                                 M           M_BRA   DIVS21_EXT00001         ;
 2624 00000274 A001                   M           BRA     DIVS21_EXT00001
 2625 00000276 0009                   M           NOP
 2626                                 M   
 2627 00000278                        M   DIVS21_ZERO00001:                               ;R3/R1-->R2 IF R1=0 THEN R2=7FFF FFFF // 8
                                          000 0000が本来か?
 2628 00000278 222A                   M           XOR     R2,R2           ;
 2629 0000027A                        M   DIVS21_EXT00001:                                ;
 2630                             218     
 2631 0000027A 6023               219             MOV     R2,R0                                   ;R0 SAVE
 2632                             220             POP_REG1 R4
 2633                                 M                                   ; RE"+4" 00,00,00,04
 2634 0000027C 64F6                   M           MOV.L   @R15+,R4        ;
 2635 0000027E 342D               221             DMULS.L R2,R4                                   ;R2*R1()
 2636 00000280 041A               222             STS     MACL,R4                                 ;
 2637                             223             POP_REG1 R1                                     ;
 2638                                 M                                   ; RE"+4" 00,00,00,04
 2639 00000282 61F6                   M           MOV.L   @R15+,R1        ;
 2640 00000284 3148               224             SUB     R4,R1                                   ;余り
 2641 00000286 6203               225             MOV     R0,R2                                   ;商
 2642                             226             SUB_END
 2643                                 M   ;;;;;;; ADD     #4,R15                  ;[不要?]
 2644 00000288 4F26                   M           LDS.L   @R15+,PR                ;[必要]
 2645                             227             M_RTS
 2646 0000028A 000B                   M           RTS                             ;RTSの後ろの
 2647 0000028C 0009                   M           NOP                             ;@R15+,PRはﾀﾞﾒ
 2648                             228     
 2649                             229     
 2650                             230     ;       *******************************************************************
 2651                             231     ;       ***                                                             ***
 2652                             232     ;       ***     演算    符号付き 32bit(R2)/16bit(R4)->16bit(R2)         ***
 2653                             233     ;       ***     演算    符号付き 32bit(R2)/32bit(R4)->32bit(R2)         ***
 2654                             234     ;       ***             0割り算ﾁｪｯｸ付き                                 ***
 2655                             235     ;       ***                                                             ***
 2656                             236     ;       *******************************************************************
 2657                             237     ;       used r2,r4
 2658 0000028E                    238     _HIGH_DIVS_32REG2_16REG1_R4_16REG2_R2:
 2659                             239             SUB_START
 2660 0000028E 4F22                   M           STS.L   PR,@-R15                ;[必要]
 2661                                 M   ;;;;;;; ADD     #-4,R15                 ;[不要?]
 2662                             240             NEAR_BSR _FPU_DIVS_32REG2_32REG1_R4_32REG2_R2   ;
 2663 00000290 B0A2                   M           BSR     _FPU_DIVS_32REG2_32REG1_R4_32REG2_R2                            ;
 2664 00000292 0009                   M           NOP
 2665                             241             SUB_END
 2666                                 M   ;;;;;;; ADD     #4,R15                  ;[不要?]
 2667 00000294 4F26                   M           LDS.L   @R15+,PR                ;[必要]
 2668                             242             M_RTS
 2669 00000296 000B                   M           RTS                             ;RTSの後ろの
 2670 00000298 0009                   M           NOP                             ;@R15+,PRはﾀﾞﾒ
 2671                             243     
 2672                             244     ;       *******************************************************************
 2673                             245     ;       ***                                                             ***
 2674                             246     ;       ***     演算    符号付き 64bit(R1,R2)/32bit(R4)->32bit(R2)      ***
 2675                             247     ;       ***             0割り算ﾁｪｯｸ付き                                 ***
*** SuperH RISC engine ASSEMBLER V.7.01.02.000 ***    11/14/21 17:24:25                                                  PAGE     9
PROGRAM NAME =

 2676                             248     ;       ***                                                             ***
 2677                             249     ;       *******************************************************************
 2678                             250     ;       ***************************************************
 2679                             251     ;       ***     SHIN R1,R2[64]/R4[32]-->R2[32]          ***
 2680                             252     ;       ***************************************************
 2681                             253     ;       R1~R4 破壊
 2682 0000029C                    254             .ALIGN  4                               ;
 2683 0000029C                    255     _DIVS_64R1R2_32R4_32R2:                         ;
 2684                             256             SUB_START
 2685 0000029C 4F22                   M           STS.L   PR,@-R15                ;[必要]
 2686                                 M   ;;;;;;; ADD     #-4,R15                 ;[不要?]
 2687                             257             PUSH_REG1               R4              ;
 2688 0000029E 2F46                   M           MOV.L   R4,@-R15                ;PUSH=SP-4
 2689                                 M                                           ;REG=>[SP]
 2690                                 M                                           ;"-4" FF,FF,FF,FC
 2691                             258             PUSH_REG1               R1              ;
 2692 000002A0 2F16                   M           MOV.L   R1,@-R15                ;PUSH=SP-4
 2693                                 M                                           ;REG=>[SP]
 2694                                 M                                           ;"-4" FF,FF,FF,FC
 2695 000002A2 4411               259             CMP/PZ  R4                              ;
 2696 000002A4 8900               260             BT      DIVS6_020                       ;
 2697 000002A6 644B               261             NEG     R4,R4                           ;
 2698 000002A8                    262     DIVS6_020:
 2699 000002A8 4111               263             CMP/PZ  R1                              ;
 2700 000002AA 8905               264             BT      DIVS6_040                       ;
 2701                             265     
 2702                             266             NEG1_64 H_REG=R1,L_REG=R2,WKREG=R3
 2703 000002AC 6227                   M           NOT     R2,R2                           ;
 2704 000002AE 6117                   M           NOT     R1,R1                           ;
 2705 000002B0 233A                   M           XOR     R3,R3                           ;
 2706 000002B2 0018                   M           SETT
 2707 000002B4 323E                   M           ADDC    R3,R2                           ;0+1+R2
 2708 000002B6 313E                   M           ADDC    R3,R1                           ;
 2709                             267     
 2710 000002B8                    268     DIVS6_040:
 2711                             269             NEAR_BSR _DIVU_64R1R2_32R4_32R2         ;
 2712 000002B8 B014                   M           BSR     _DIVU_64R1R2_32R4_32R2                          ;
 2713 000002BA 0009                   M           NOP
 2714                             270     
 2715 000002BC D408               271             MOV.L   #H'7FFFFFFF,R4                  ;
 2716 000002BE 3422               272             CMP/HS  R2,R4                           ;7FFFFFFF >= data
 2717 000002C0 8900               273             BT      DIVS6_060                       ;
 2718 000002C2 6243               274             MOV     R4,R2                           ;7FFFFFFF >= data
 2719 000002C4                    275     DIVS6_060:                                      ;
 2720                             276     
 2721                             277             POP_REG1        R1                              ;
 2722                                 M                                   ; RE"+4" 00,00,00,04
 2723 000002C4 61F6                   M           MOV.L   @R15+,R1        ;
 2724                             278             POP_REG1        R4
 2725                                 M                                   ; RE"+4" 00,00,00,04
 2726 000002C6 64F6                   M           MOV.L   @R15+,R4        ;
 2727 000002C8 214A               279             XOR     R4,R1                           ;"BIT32=0" THEN +
 2728 000002CA 4111               280             CMP/PZ  R1                              ;
 2729 000002CC 8905               281             BT      DIVS6_100                       ;"+"
 2730                             282             NEG1_64 H_REG=R1,L_REG=R2,WKREG=R3      ;
 2731 000002CE 6227                   M           NOT     R2,R2                           ;
 2732 000002D0 6117                   M           NOT     R1,R1                           ;
*** SuperH RISC engine ASSEMBLER V.7.01.02.000 ***    11/14/21 17:24:25                                                  PAGE    10
PROGRAM NAME =

 2733 000002D2 233A                   M           XOR     R3,R3                           ;
 2734 000002D4 0018                   M           SETT
 2735 000002D6 323E                   M           ADDC    R3,R2                           ;0+1+R2
 2736 000002D8 313E                   M           ADDC    R3,R1                           ;
 2737 000002DA                    283     DIVS6_100:                                      ;
 2738                             284             SUB_END
 2739                                 M   ;;;;;;; ADD     #4,R15                  ;[不要?]
 2740 000002DA 4F26                   M           LDS.L   @R15+,PR                ;[必要]
 2741                             285             M_RTS
 2742 000002DC 000B                   M           RTS                             ;RTSの後ろの
 2743 000002DE 0009                   M           NOP                             ;@R15+,PRはﾀﾞﾒ
 2744                             286     
 2745                             287     
 2746                             288     ;       *******************************************************************
 2747                             289     ;       ***                                                             ***
 2748                             290     ;       ***     演算    符号なし 64bit(R1,R2)/32bit(R4)->32bit(R2)      ***
 2749                             291     ;       ***             0割り算ﾁｪｯｸ付き                                 ***
 2750                             292     ;       ***                                                             ***
 2751                             293     ;       *******************************************************************
 2752                             294     ;       ***********************************************************
 2753                             295     ;       ***     UNSHIN  R1,R2[64]/R4[32]-->R2[32]               ***
 2754                             296     ;       ***********************************************************
 2755                             297     ;       USED REG
 2756                             298     ;       余りなし演算
 2757                             299     ;       R1~R4破壊
 2758                                     ***** BEGIN-POOL *****
 2759 000002E0 7FFFFFFF                   DATA FOR SOURCE-LINE 271
 2760                                     ***** END-POOL *****
 2761 000002E4                    300             .ALIGN  4                               ;
 2762 000002E4                    301     _DIVU_64R1R2_32R4_32R2:                 ;
 2763                             302             SUB_START
 2764 000002E4 4F22                   M           STS.L   PR,@-R15                ;[必要]
 2765                                 M   ;;;;;;; ADD     #-4,R15                 ;[不要?]
 2766 000002E6 2448               303             TST     R4,R4                   ;
 2767                             304             TST_BIT_OF DIVU4_ZERO_DIV               ;ZERO DIV        ANS.MAX
 2768 000002E8 8945                   M           BT      DIVU4_ZERO_DIV
 2769 000002EA 3142               305             CMP/HS  R4,R1                   ;UNSHIN R0 >= R1 ANS.0...R0
 2770 000002EC 8943               306             BT      DIVU4_ZERO_DIV          ;OVER FLOW
 2771                             307     ;       ============================================
 2772 000002EE 0019               308             DIV0U                           ;FLAG M=Q=T=0
 2773                             309     
 2774                             310             .arepeat        32              ;繰返展開
 2775                             311             ROTCL   R2                      ;T bit -->
 2776                             312             DIV1    R4,R1                   ;SHIFT 1 R0-R1 -->Q,T
 2777                             313             .aendr                          ;
 2778 000002F0 4224                   C           ROTCL   R2                      ;T bit -->
 2779 000002F2 3144                   C           DIV1    R4,R1                   ;SHIFT 1 R0-R1 -->Q,T
 2780 000002F4 4224                   C           ROTCL   R2                      ;T bit -->
 2781 000002F6 3144                   C           DIV1    R4,R1                   ;SHIFT 1 R0-R1 -->Q,T
 2782 000002F8 4224                   C           ROTCL   R2                      ;T bit -->
 2783 000002FA 3144                   C           DIV1    R4,R1                   ;SHIFT 1 R0-R1 -->Q,T
 2784 000002FC 4224                   C           ROTCL   R2                      ;T bit -->
 2785 000002FE 3144                   C           DIV1    R4,R1                   ;SHIFT 1 R0-R1 -->Q,T
 2786 00000300 4224                   C           ROTCL   R2                      ;T bit -->
 2787 00000302 3144                   C           DIV1    R4,R1                   ;SHIFT 1 R0-R1 -->Q,T
 2788 00000304 4224                   C           ROTCL   R2                      ;T bit -->
 2789 00000306 3144                   C           DIV1    R4,R1                   ;SHIFT 1 R0-R1 -->Q,T
*** SuperH RISC engine ASSEMBLER V.7.01.02.000 ***    11/14/21 17:24:25                                                  PAGE    11
PROGRAM NAME =

 2790 00000308 4224                   C           ROTCL   R2                      ;T bit -->
 2791 0000030A 3144                   C           DIV1    R4,R1                   ;SHIFT 1 R0-R1 -->Q,T
 2792 0000030C 4224                   C           ROTCL   R2                      ;T bit -->
 2793 0000030E 3144                   C           DIV1    R4,R1                   ;SHIFT 1 R0-R1 -->Q,T
 2794 00000310 4224                   C           ROTCL   R2                      ;T bit -->
 2795 00000312 3144                   C           DIV1    R4,R1                   ;SHIFT 1 R0-R1 -->Q,T
 2796 00000314 4224                   C           ROTCL   R2                      ;T bit -->
 2797 00000316 3144                   C           DIV1    R4,R1                   ;SHIFT 1 R0-R1 -->Q,T
 2798 00000318 4224                   C           ROTCL   R2                      ;T bit -->
 2799 0000031A 3144                   C           DIV1    R4,R1                   ;SHIFT 1 R0-R1 -->Q,T
 2800 0000031C 4224                   C           ROTCL   R2                      ;T bit -->
 2801 0000031E 3144                   C           DIV1    R4,R1                   ;SHIFT 1 R0-R1 -->Q,T
 2802 00000320 4224                   C           ROTCL   R2                      ;T bit -->
 2803 00000322 3144                   C           DIV1    R4,R1                   ;SHIFT 1 R0-R1 -->Q,T
 2804 00000324 4224                   C           ROTCL   R2                      ;T bit -->
 2805 00000326 3144                   C           DIV1    R4,R1                   ;SHIFT 1 R0-R1 -->Q,T
 2806 00000328 4224                   C           ROTCL   R2                      ;T bit -->
 2807 0000032A 3144                   C           DIV1    R4,R1                   ;SHIFT 1 R0-R1 -->Q,T
 2808 0000032C 4224                   C           ROTCL   R2                      ;T bit -->
 2809 0000032E 3144                   C           DIV1    R4,R1                   ;SHIFT 1 R0-R1 -->Q,T
 2810 00000330 4224                   C           ROTCL   R2                      ;T bit -->
 2811 00000332 3144                   C           DIV1    R4,R1                   ;SHIFT 1 R0-R1 -->Q,T
 2812 00000334 4224                   C           ROTCL   R2                      ;T bit -->
 2813 00000336 3144                   C           DIV1    R4,R1                   ;SHIFT 1 R0-R1 -->Q,T
 2814 00000338 4224                   C           ROTCL   R2                      ;T bit -->
 2815 0000033A 3144                   C           DIV1    R4,R1                   ;SHIFT 1 R0-R1 -->Q,T
 2816 0000033C 4224                   C           ROTCL   R2                      ;T bit -->
 2817 0000033E 3144                   C           DIV1    R4,R1                   ;SHIFT 1 R0-R1 -->Q,T
 2818 00000340 4224                   C           ROTCL   R2                      ;T bit -->
 2819 00000342 3144                   C           DIV1    R4,R1                   ;SHIFT 1 R0-R1 -->Q,T
 2820 00000344 4224                   C           ROTCL   R2                      ;T bit -->
 2821 00000346 3144                   C           DIV1    R4,R1                   ;SHIFT 1 R0-R1 -->Q,T
 2822 00000348 4224                   C           ROTCL   R2                      ;T bit -->
 2823 0000034A 3144                   C           DIV1    R4,R1                   ;SHIFT 1 R0-R1 -->Q,T
 2824 0000034C 4224                   C           ROTCL   R2                      ;T bit -->
 2825 0000034E 3144                   C           DIV1    R4,R1                   ;SHIFT 1 R0-R1 -->Q,T
 2826 00000350 4224                   C           ROTCL   R2                      ;T bit -->
 2827 00000352 3144                   C           DIV1    R4,R1                   ;SHIFT 1 R0-R1 -->Q,T
 2828 00000354 4224                   C           ROTCL   R2                      ;T bit -->
 2829 00000356 3144                   C           DIV1    R4,R1                   ;SHIFT 1 R0-R1 -->Q,T
 2830 00000358 4224                   C           ROTCL   R2                      ;T bit -->
 2831 0000035A 3144                   C           DIV1    R4,R1                   ;SHIFT 1 R0-R1 -->Q,T
 2832 0000035C 4224                   C           ROTCL   R2                      ;T bit -->
 2833 0000035E 3144                   C           DIV1    R4,R1                   ;SHIFT 1 R0-R1 -->Q,T
 2834 00000360 4224                   C           ROTCL   R2                      ;T bit -->
 2835 00000362 3144                   C           DIV1    R4,R1                   ;SHIFT 1 R0-R1 -->Q,T
 2836 00000364 4224                   C           ROTCL   R2                      ;T bit -->
 2837 00000366 3144                   C           DIV1    R4,R1                   ;SHIFT 1 R0-R1 -->Q,T
 2838 00000368 4224                   C           ROTCL   R2                      ;T bit -->
 2839 0000036A 3144                   C           DIV1    R4,R1                   ;SHIFT 1 R0-R1 -->Q,T
 2840 0000036C 4224                   C           ROTCL   R2                      ;T bit -->
 2841 0000036E 3144                   C           DIV1    R4,R1                   ;SHIFT 1 R0-R1 -->Q,T
 2842                             314     
 2843 00000370 4224               315             ROTCL   R2                      ;T<--R1<--T
 2844                             316             M_BRA   DIVU4_EXT               ;
 2845 00000372 A002                   M           BRA     DIVU4_EXT
 2846 00000374 0009                   M           NOP
*** SuperH RISC engine ASSEMBLER V.7.01.02.000 ***    11/14/21 17:24:25                                                  PAGE    12
PROGRAM NAME =

 2847                             317     
 2848                             318     ;       ============================================
 2849 00000376                    319     DIVU4_ZERO_DIV:
 2850 00000376 222A               320             XOR     R2,R2                   ;
 2851 00000378 72FF               321             ADD     #H'FF,R2                ;H'FFFFFFFF,R2          ;MAX SET
 2852 0000037A                    322     DIVU4_EXT:                              ;
 2853                             323             SUB_END
 2854                                 M   ;;;;;;; ADD     #4,R15                  ;[不要?]
 2855 0000037A 4F26                   M           LDS.L   @R15+,PR                ;[必要]
 2856                             324             M_RTS
 2857 0000037C 000B                   M           RTS                             ;RTSの後ろの
 2858 0000037E 0009                   M           NOP                             ;@R15+,PRはﾀﾞﾒ
 2859                             325     
 2860                             326     ;       *******************************************
 2861                             327     ;       ***                                     ***
 2862                             328     ;       ***     R1*R3 * R2/R4                   ***
 2863                             329     ;       ***     R1(8192)*R3(65535)< 4byte       ***
 2864                             330     ;       ***                                     ***
 2865                             331     ;       *******************************************
 2866 00000380                    332     _MULDIV_R2_MUL_R1_R3_DIV_R4:
 2867                             333             SUB_START
 2868 00000380 4F22                   M           STS.L   PR,@-R15                ;[必要]
 2869                                 M   ;;;;;;; ADD     #-4,R15                 ;[不要?]
 2870 00000382 331D               334             DMULS.L R1,R3                           ;
 2871 00000384 011A               335             STS     MACL,R1                         ;
 2872                             336             FAR_JSR #_X_R2_MUL_R1_DIV_R4,R0         ;R2*R1/R4= R1,R2/R4 2006-07-31
 2873 00000386 D003                   M           MOV.L   #_X_R2_MUL_R1_DIV_R4,R0         ;ﾃｰﾌﾞﾙｱﾄﾞﾚｽの内容をREGへ
 2874 00000388 400B                   M           JSR     @R0                     ;
 2875 0000038A 0009                   M           NOP                                     ;
 2876                             337             SUB_END
 2877                                 M   ;;;;;;; ADD     #4,R15                  ;[不要?]
 2878 0000038C 4F26                   M           LDS.L   @R15+,PR                ;[必要]
 2879                             338             M_RTS
 2880 0000038E 000B                   M           RTS                             ;RTSの後ろの
 2881 00000390 0009                   M           NOP                             ;@R15+,PRはﾀﾞﾒ
 2882                             339     
 2883                             340     
 2884                             341     ;       ***************************************************************************
 2885                             342     ;       ***                                                                     ***
 2886                             343     ;       ***     演算    符号付き 32bit(R2)*32bit(R1)/16bit(R4)->16bit(R2)       ***
 2887                             344     ;       ***             0割り算ﾁｪｯｸ付き                                         ***
 2888                             345     ;       ***                                                                     ***
 2889                             346     ;       ***************************************************************************
 2890                             347     ;       used R1,r2,r4
 2891                                     ***** BEGIN-POOL *****
 2892 00000392 0000                       ALIGNMENT CODE
 2893 00000394 00000000                   DATA FOR SOURCE-LINE 336
 2894                                     ***** END-POOL *****
 2895 00000398                    348     _HIGH_S32R2_MUL_S32R1_DIV_S32R4_S32R2:
 2896                             349             SUB_START
 2897 00000398 4F22                   M           STS.L   PR,@-R15                ;[必要]
 2898                                 M   ;;;;;;; ADD     #-4,R15                 ;[不要?]
 2899                             350             NEAR_BSR _FPU_R2_MUL_R1_DIV_R4
 2900 0000039A B003                   M           BSR     _FPU_R2_MUL_R1_DIV_R4                           ;
 2901 0000039C 0009                   M           NOP
 2902                             351             SUB_END
 2903                                 M   ;;;;;;; ADD     #4,R15                  ;[不要?]
*** SuperH RISC engine ASSEMBLER V.7.01.02.000 ***    11/14/21 17:24:25                                                  PAGE    13
PROGRAM NAME =

 2904 0000039E 4F26                   M           LDS.L   @R15+,PR                ;[必要]
 2905                             352             M_RTS
 2906 000003A0 000B                   M           RTS                             ;RTSの後ろの
 2907 000003A2 0009                   M           NOP                             ;@R15+,PRはﾀﾞﾒ
 2908                             353     
 2909                             354     
 2910                             355     
 2911                             356     
 2912                             357     ;       *******************************************************************
 2913                             358     ;       ***                                                             ***
 2914                             359     ;       ***     演算    符号付き 32bit(R2)/32bit(R4)->32bit(R2)         ***
 2915                             360     ;       ***             0割り算ﾁｪｯｸ付き                                 ***
 2916                             361     ;       ***             FPU演算                                         ***
 2917                             362     ;       *******************************************************************
 2918                             363     ;       WKREGは保持
 2919                             364     ;       R2:結果それ以外は保持
 2920                             365     ;       FPU,FR4,FR2 USED
 2921                             366     ;       ***************************************************
 2922                             367     ;       ***                                             ***
 2923                             368     ;       ***     R2(S32)*R1(S32)/R4(S32)-->R2            ***
 2924                             369     ;       ***             余り処理なし                    ***
 2925                             370     ;       ***             R2とFPU破壊                     ***
 2926                             371     ;       ***************************************************
 2927                             372     ;       R2*R1/R4-->R2
 2928 000003A4                    373     _FPU_R2_MUL_R1_DIV_R4:
 2929                             374             SUB_START
 2930 000003A4 4F22                   M           STS.L   PR,@-R15                ;[必要]
 2931                                 M   ;;;;;;; ADD     #-4,R15                 ;[不要?]
 2932                             375     
 2933                             376             .AIF    3 EQ 3
 2934                             377 C   
 2935                             378 C   ;       =========７７２７用演算===========
 2936 000003A6 2448               379 C           TST     R4,R4
 2937                             380 C           TST_BIT_OF FPU_R2_MUL_R1DIVR4_EXT
 2938 000003A8 8904                   M           BT      FPU_R2_MUL_R1DIVR4_EXT
 2939                             381 C           PUSH_REG1 R0                            ;
 2940 000003AA 2F06                   M           MOV.L   R0,@-R15                ;PUSH=SP-4
 2941                                 M                                           ;REG=>[SP]
 2942                                 M                                           ;"-4" FF,FF,FF,FC
 2943                             382 C           FAR_JSR #_X_R2_MUL_R1_DIV_R4,R0         ;R2*R1/R4= R1,R2/R4 2006-07-31
 2944 000003AC D003                   M           MOV.L   #_X_R2_MUL_R1_DIV_R4,R0         ;ﾃｰﾌﾞﾙｱﾄﾞﾚｽの内容をREGへ
 2945 000003AE 400B                   M           JSR     @R0                     ;
 2946 000003B0 0009                   M           NOP                                     ;
 2947                             383 C           POP_REG1 R0                             ;
 2948                                 M                                   ; RE"+4" 00,00,00,04
 2949 000003B2 60F6                   M           MOV.L   @R15+,R0        ;
 2950 000003B4                    384 C   FPU_R2_MUL_R1DIVR4_EXT:
 2951                             385 C   
 2952                             386             .AELSE
 2953                             387     
 2954                             388             TST     R4,R4
 2955                             389             TST_BIT_OF FPU_R2_MUL_R1DIVR4_EXT
 2956                             390     
 2957                             391             .AIF    1 EQ    0
 2958                             392             .AIF    1       EQ      1
 2959                             393             PUSH_REG1 R2
 2960                             394             PUSH_REG1 R4
*** SuperH RISC engine ASSEMBLER V.7.01.02.000 ***    11/14/21 17:24:25                                                  PAGE    14
PROGRAM NAME =

 2961                             395             STS     FPSCR,R2        ;
 2962                             396             MOV.L   #H'00040001,R4  ;
 2963                             397             AND     R4,R2           ;
 2964                             398             LDS     R2,FPSCR        ;
 2965                             399             POP_REG1 R4
 2966                             400             POP_REG1 R2
 2967                             401             .AENDI
 2968                             402             .AENDI
 2969                             403     
 2970                             404             LDS     R2,FPUL                                 ;
 2971                             405             FLOAT   FPUL,FR2                                ;
 2972                             406             LDS     R1,FPUL                                 ;
 2973                             407             FLOAT   FPUL,FR1                                ;
 2974                             408             LDS     R4,FPUL                                 ;
 2975                             409             FLOAT   FPUL,FR4                                ;
 2976                             410             FMUL    FR1,FR2                                 ;
 2977                             411             FDIV    FR4,FR2                                 ;
 2978                             412             FTRC    FR2,FPUL                                ;
 2979                             413             STS     FPUL,R2                                 ;
 2980                             414     FPU_R2_MUL_R1DIVR4_EXT:
 2981                             415     
 2982                             416             .AENDI
 2983                             417     
 2984                             418             SUB_END
 2985                                 M   ;;;;;;; ADD     #4,R15                  ;[不要?]
 2986 000003B4 4F26                   M           LDS.L   @R15+,PR                ;[必要]
 2987                             419             M_RTS
 2988 000003B6 000B                   M           RTS                             ;RTSの後ろの
 2989 000003B8 0009                   M           NOP                             ;@R15+,PRはﾀﾞﾒ
 2990                             420     
 2991                             421     ;       ***********************************************************
 2992                             422     ;       ***                                                     ***
 2993                             423     ;       ***     R2(S32)*R1(S32)*R3(S32)/R4(S32)-->R2(S32)       ***
 2994                             424     ;       ***             余り処理なし                            ***
 2995                             425     ;       ***             R2とFPU破壊                             ***
 2996                             426     ;       ***********************************************************
 2997                             427     ;       R2*R1*R3/R4-->R2
 2998                                     ***** BEGIN-POOL *****
 2999 000003BA 0000                       ALIGNMENT CODE
 3000 000003BC 00000000                   DATA FOR SOURCE-LINE 382
 3001                                     ***** END-POOL *****
 3002 000003C0                    428     _FPU_R2_MUL_R1_R3_DIV_R4:
 3003                             429             SUB_START
 3004 000003C0 4F22                   M           STS.L   PR,@-R15                ;[必要]
 3005                                 M   ;;;;;;; ADD     #-4,R15                 ;[不要?]
 3006                             430     
 3007                             431             .AIF    3 EQ 3
 3008                             432 C   
 3009                             433 C   ;       ７７２７用演算はここ
 3010                             434 C           PUSH_REG1 R0                                    ;
 3011 000003C2 2F06                   M           MOV.L   R0,@-R15                ;PUSH=SP-4
 3012                                 M                                           ;REG=>[SP]
 3013                                 M                                           ;"-4" FF,FF,FF,FC
 3014                             435 C           FAR_JSR #_MULDIV_R2_MUL_R1_R3_DIV_R4,R0         ;
 3015 000003C4 D003                   M           MOV.L   #_MULDIV_R2_MUL_R1_R3_DIV_R4,R0         ;ﾃｰﾌﾞﾙｱﾄﾞﾚｽの内容をREGへ
 3016 000003C6 400B                   M           JSR     @R0                     ;
 3017 000003C8 0009                   M           NOP                                     ;
*** SuperH RISC engine ASSEMBLER V.7.01.02.000 ***    11/14/21 17:24:25                                                  PAGE    15
PROGRAM NAME =

 3018                             436 C           POP_REG1 R0                                     ;
 3019                                 M                                   ; RE"+4" 00,00,00,04
 3020 000003CA 60F6                   M           MOV.L   @R15+,R0        ;
 3021                             437 C   
 3022                             438             .AELSE
 3023                             439     
 3024                             440             TST     R4,R4
 3025                             441             TST_BIT_OF FPU_R2_MUL_R1_R3DIVR4_EXT
 3026                             442             .AIF    1 EQ    0
 3027                             443             .AIF    1       EQ      1
 3028                             444             PUSH_REG1 R2
 3029                             445             PUSH_REG1 R4
 3030                             446             STS     FPSCR,R2        ;
 3031                             447             MOV.L   #H'00040001,R4  ;
 3032                             448             AND     R4,R2           ;
 3033                             449             LDS     R2,FPSCR        ;
 3034                             450             POP_REG1 R4
 3035                             451             POP_REG1 R2
 3036                             452             .AENDI
 3037                             453             .AENDI
 3038                             454     
 3039                             455             LDS     R2,FPUL                                 ;
 3040                             456             FLOAT   FPUL,FR2                                ;
 3041                             457     
 3042                             458             LDS     R1,FPUL                                 ;
 3043                             459             FLOAT   FPUL,FR1                                ;
 3044                             460     
 3045                             461             LDS     R4,FPUL                                 ;
 3046                             462             FLOAT   FPUL,FR4                                ;
 3047                             463     
 3048                             464             FMUL    FR1,FR2                                 ;FR2
 3049                             465     
 3050                             466             LDS     R3,FPUL                                 ;
 3051                             467             FLOAT   FPUL,FR1                                ;
 3052                             468     
 3053                             469             FMUL    FR1,FR2                                 ;FR2
 3054                             470     
 3055                             471             FDIV    FR4,FR2                                 ;
 3056                             472             FTRC    FR2,FPUL                                ;
 3057                             473             STS     FPUL,R2                                 ;
 3058                             474     FPU_R2_MUL_R1_R3DIVR4_EXT:
 3059                             475     
 3060                             476             .AENDI
 3061                             477     
 3062                             478             SUB_END
 3063                                 M   ;;;;;;; ADD     #4,R15                  ;[不要?]
 3064 000003CC 4F26                   M           LDS.L   @R15+,PR                ;[必要]
 3065                             479             M_RTS
 3066 000003CE 000B                   M           RTS                             ;RTSの後ろの
 3067 000003D0 0009                   M           NOP                             ;@R15+,PRはﾀﾞﾒ
 3068                             480     
 3069                             481     ;       ***************************************************
 3070                             482     ;       ***                                             ***
 3071                             483     ;       ***             R2(S32)/R4(S32)-->R2            ***
 3072                             484     ;       ***             余り処理なし                    ***
 3073                             485     ;       ***             R2とFPU破壊                     ***
 3074                             486     ;       ***************************************************
*** SuperH RISC engine ASSEMBLER V.7.01.02.000 ***    11/14/21 17:24:25                                                  PAGE    16
PROGRAM NAME =

 3075                             487     ;       R2/R4-->R2
 3076                                     ***** BEGIN-POOL *****
 3077 000003D2 0000                       ALIGNMENT CODE
 3078 000003D4 00000000                   DATA FOR SOURCE-LINE 435
 3079                                     ***** END-POOL *****
 3080 000003D8                    488     _FPU_DIVS_32REG2_32REG1_R4_32REG2_R2:
 3081                             489             SUB_START
 3082 000003D8 4F22                   M           STS.L   PR,@-R15                ;[必要]
 3083                                 M   ;;;;;;; ADD     #-4,R15                 ;[不要?]
 3084                             490     
 3085                             491             .AIF    3 EQ 3
 3086                             492 C   
 3087                             493 C   ;       ７７２７用演算はここ
 3088                             494 C           PUSH_REG1 R0
 3089 000003DA 2F06                   M           MOV.L   R0,@-R15                ;PUSH=SP-4
 3090                                 M                                           ;REG=>[SP]
 3091                                 M                                           ;"-4" FF,FF,FF,FC
 3092                             495 C           FAR_JSR #_DIVS_32REG2_32REG1_R4_32REG2_R2,R0
 3093 000003DC D003                   M           MOV.L   #_DIVS_32REG2_32REG1_R4_32REG2_R2,R0            ;ﾃｰﾌﾞﾙｱﾄﾞﾚｽの内容をREGへ
 3094 000003DE 400B                   M           JSR     @R0                     ;
 3095 000003E0 0009                   M           NOP                                     ;
 3096                             496 C           POP_REG1 R0
 3097                                 M                                   ; RE"+4" 00,00,00,04
 3098 000003E2 60F6                   M           MOV.L   @R15+,R0        ;
 3099                             497             .AELSE
 3100                             498     
 3101                             499             TST     R4,R4                                   ;0Div
 3102                             500             TST_BIT_OF FPU_DIVS_32R2_32R1_R4_32R2_R2_EXIT   ;
 3103                             501             .AIF    1 EQ    0
 3104                             502             .AIF    1       EQ      1
 3105                             503             PUSH_REG1 R2
 3106                             504             PUSH_REG1 R4
 3107                             505             STS     FPSCR,R2        ;
 3108                             506             MOV.L   #H'00040001,R4  ;
 3109                             507             AND     R4,R2           ;
 3110                             508             LDS     R2,FPSCR        ;
 3111                             509             POP_REG1 R4
 3112                             510             POP_REG1 R2
 3113                             511             .AENDI
 3114                             512             .AENDI
 3115                             513     
 3116                             514             LDS     R2,FPUL                                 ;
 3117                             515             FLOAT   FPUL,FR2                                ;
 3118                             516             LDS     R4,FPUL                                 ;
 3119                             517             FLOAT   FPUL,FR4                                ;
 3120                             518             FDIV    FR4,FR2                                 ;FR2/FR4
 3121                             519             FTRC    FR2,FPUL                                ;
 3122                             520             STS     FPUL,R2                                 ;
 3123                             521     FPU_DIVS_32R2_32R1_R4_32R2_R2_EXIT:                     ;
 3124                             522     
 3125                             523             .AENDI
 3126                             524     
 3127                             525             SUB_END
 3128                                 M   ;;;;;;; ADD     #4,R15                  ;[不要?]
 3129 000003E4 4F26                   M           LDS.L   @R15+,PR                ;[必要]
 3130                             526             M_RTS
 3131 000003E6 000B                   M           RTS                             ;RTSの後ろの
*** SuperH RISC engine ASSEMBLER V.7.01.02.000 ***    11/14/21 17:24:25                                                  PAGE    17
PROGRAM NAME =

 3132 000003E8 0009                   M           NOP                             ;@R15+,PRはﾀﾞﾒ
 3133                             527     
 3134                             528     ;       ***************************************************
 3135                             529     ;       ***                                             ***
 3136                             530     ;       ***     R2(S32)/R4(S32)-->R2...R1               ***
 3137                             531     ;       ***             余り処理有り                    ***
 3138                             532     ;       ***             R1,R2,R4,MACH,MACLとFPU破壊     ***
 3139                             533     ;       ***************************************************
 3140                                     ***** BEGIN-POOL *****
 3141 000003EA 0000                       ALIGNMENT CODE
 3142 000003EC 00000000                   DATA FOR SOURCE-LINE 495
 3143                                     ***** END-POOL *****
 3144 000003F0                    534     _FPU_DIVS_32REG2_DIV_32REG4_R2_MOD_R1:
 3145                             535             SUB_START
 3146 000003F0 4F22                   M           STS.L   PR,@-R15                ;[必要]
 3147                                 M   ;;;;;;; ADD     #-4,R15                 ;[不要?]
 3148                             536     
 3149                             537             .AIF    3 EQ 3
 3150                             538 C   
 3151                             539 C   ;       ７７２７用演算はここ
 3152                             540 C           PUSH_REG1 R0                                            ;
 3153 000003F2 2F06                   M           MOV.L   R0,@-R15                ;PUSH=SP-4
 3154                                 M                                           ;REG=>[SP]
 3155                                 M                                           ;"-4" FF,FF,FF,FC
 3156                             541 C           FAR_JSR #_DIVS_32REG2_32REG1_R4_32REG2_R2_MOD_R1,R0     ;
 3157 000003F4 D003                   M           MOV.L   #_DIVS_32REG2_32REG1_R4_32REG2_R2_MOD_R1,R0             ;ﾃｰﾌﾞﾙｱﾄﾞﾚｽの内容
                                          をREGへ
 3158 000003F6 400B                   M           JSR     @R0                     ;
 3159 000003F8 0009                   M           NOP                                     ;
 3160                             542 C           POP_REG1 R0                                             ;
 3161                                 M                                   ; RE"+4" 00,00,00,04
 3162 000003FA 60F6                   M           MOV.L   @R15+,R0        ;
 3163                             543             .AELSE
 3164                             544     
 3165                             545             TST     R4,R4                                           ;0Div
 3166                             546             TST_BIT_OF FPU_DIVS_32R2_DIV32_R4_R2_MOD_R1_EXIT        ;
 3167                             547             .AIF    1 EQ    0
 3168                             548             .AIF    1       EQ      1
 3169                             549             PUSH_REG1 R2
 3170                             550             PUSH_REG1 R4
 3171                             551             STS     FPSCR,R2        ;
 3172                             552             MOV.L   #H'00040001,R4  ;
 3173                             553             AND     R4,R2           ;
 3174                             554             LDS     R2,FPSCR        ;
 3175                             555             POP_REG1 R4
 3176                             556             POP_REG1 R2
 3177                             557             .AENDI
 3178                             558             .AENDI
 3179                             559     
 3180                             560             MOV     R2,R1                                           ;
 3181                             561             LDS     R2,FPUL                                         ;
 3182                             562             FLOAT   FPUL,FR2                                        ;
 3183                             563             LDS     R4,FPUL                                         ;
 3184                             564             FLOAT   FPUL,FR4                                        ;
 3185                             565             FDIV    FR4,FR2                                         ;FR2/FR4
 3186                             566             FTRC    FR2,FPUL                                        ;
 3187                             567             STS     FPUL,R2                                         ;
*** SuperH RISC engine ASSEMBLER V.7.01.02.000 ***    11/14/21 17:24:25                                                  PAGE    18
PROGRAM NAME =

 3188                             568             DMULS.L R2,R4                                           ;
 3189                             569             STS     MACL,R4                                         ;
 3190                             570             SUB     R4,R1                                           ;
 3191                             571     FPU_DIVS_32R2_DIV32_R4_R2_MOD_R1_EXIT:                          ;
 3192                             572     
 3193                             573             .AENDI
 3194                             574     
 3195                             575             SUB_END
 3196                                 M   ;;;;;;; ADD     #4,R15                  ;[不要?]
 3197 000003FC 4F26                   M           LDS.L   @R15+,PR                ;[必要]
 3198                             576             M_RTS
 3199 000003FE 000B                   M           RTS                             ;RTSの後ろの
 3200 00000400 0009                   M           NOP                             ;@R15+,PRはﾀﾞﾒ
 3201                             577     
 3202                             578     
 3203                             579     
 3204                             580     
 3205                             581     
 3206                             582     
 3207                             583     
 3208                             584     
 3209                             585     
 3210                             586     
 3211                             587     
 3212                             588     
 3213                             589     
 3214                             590     
 3215                             591     
 3216                             592     
 3217                             593     
 3218                             594     
 3219                             595     ;       ***************************************************
 3220                             596     ;       ***                                             ***
 3221                             597     ;       ***     R2(S32)*R1(S32)/R4(S32)=R1,R2(S64)      ***
 3222                             598     ;       ***                                             ***
 3223                             599     ;       ***************************************************
 3224                             600     ;       Used Reg R1,R2,R3,R4
 3225                                     ***** BEGIN-POOL *****
 3226 00000402 0000                       ALIGNMENT CODE
 3227 00000404 00000000                   DATA FOR SOURCE-LINE 541
 3228                                     ***** END-POOL *****
 3229 00000408                    601     _MULDIV_R2S32mR1S32dR4S32aR1R2S64:
 3230                             602             SUB_START
 3231 00000408 4F22                   M           STS.L   PR,@-R15                ;[必要]
 3232                                 M   ;;;;;;; ADD     #-4,R15                 ;[不要?]
 3233 0000040A 321D               603             DMULS.L R1,R2                           ;
 3234 0000040C 021A               604             STS     MACL,R2                         ;
 3235 0000040E 010A               605             STS     MACH,R1                         ;
 3236                             606             FAR_JSR #_DIVS_64R1R2_32R4_64R1R2,R3    ;
 3237 00000410 D302                   M           MOV.L   #_DIVS_64R1R2_32R4_64R1R2,R3            ;ﾃｰﾌﾞﾙｱﾄﾞﾚｽの内容をREGへ
 3238 00000412 430B                   M           JSR     @R3                     ;
 3239 00000414 0009                   M           NOP                                     ;
 3240                             607             SUB_END
 3241                                 M   ;;;;;;; ADD     #4,R15                  ;[不要?]
 3242 00000416 4F26                   M           LDS.L   @R15+,PR                ;[必要]
 3243                             608             M_RTS
 3244 00000418 000B                   M           RTS                             ;RTSの後ろの
*** SuperH RISC engine ASSEMBLER V.7.01.02.000 ***    11/14/21 17:24:25                                                  PAGE    19
PROGRAM NAME =

 3245 0000041A 0009                   M           NOP                             ;@R15+,PRはﾀﾞﾒ
 3246                             609     
 3247                             610     ;       ***********************************************************
 3248                             611     ;       ***                                                     ***
 3249                             612     ;       ***     R1,R2(S64)*R3(S32)/R4(S32)=R1,R2(S64)...R3(S32) ***
 3250                             613     ;       ***                                                     ***
 3251                             614     ;       ***********************************************************
 3252                             615     ;       Used Reg R1,R2,R3,R4
 3253                             616     ;                R0,R5
 3254                             617     ;                (R1,R2*R3)/R4
 3255                             618     ;       実は余りがR3に入る
 3256                             619     ;
 3257                                     ***** BEGIN-POOL *****
 3258 0000041C 00000000                   DATA FOR SOURCE-LINE 606
 3259                                     ***** END-POOL *****
 3260 00000420                    620     _MULDIV_R1R2S64mR3S32dR4S32aR1R2S64:
 3261                             621             SUB_START
 3262 00000420 4F22                   M           STS.L   PR,@-R15                ;[必要]
 3263                                 M   ;;;;;;; ADD     #-4,R15                 ;[不要?]
 3264 00000422 6013               622             MOV     R1,R0
 3265 00000424 203A               623             XOR     R3,R0
 3266 00000426 204A               624             XOR     R4,R0           ;演算結果の符合BIT31 SAVE
 3267                             625             PUSH_REG1 R0            ;符号SAVE
 3268 00000428 2F06                   M           MOV.L   R0,@-R15                ;PUSH=SP-4
 3269                                 M                                           ;REG=>[SP]
 3270                                 M                                           ;"-4" FF,FF,FF,FC
 3271                             626     
 3272 0000042A 4111               627             CMP/PZ  R1
 3273 0000042C 8905               628             BT      MULDIV41_050                    ;
 3274                             629             NEG1_64 H_REG=R1,L_REG=R2,WKREG=R0      ;
 3275 0000042E 6227                   M           NOT     R2,R2                           ;
 3276 00000430 6117                   M           NOT     R1,R1                           ;
 3277 00000432 200A                   M           XOR     R0,R0                           ;
 3278 00000434 0018                   M           SETT
 3279 00000436 320E                   M           ADDC    R0,R2                           ;0+1+R2
 3280 00000438 310E                   M           ADDC    R0,R1                           ;
 3281 0000043A                    630     MULDIV41_050:                                   ;
 3282                             631     
 3283 0000043A 4311               632             CMP/PZ  R3
 3284 0000043C 8900               633             BT      MULDIV41_100                    ;
 3285 0000043E 633B               634             NEG     R3,R3                           ;
 3286 00000440                    635     MULDIV41_100:                                   ;
 3287                             636     
 3288 00000440 4411               637             CMP/PZ  R4
 3289 00000442 8900               638             BT      MULDIV41_150                    ;
 3290 00000444 644B               639             NEG     R4,R4                           ;
 3291 00000446                    640     MULDIV41_150:                                   ;
 3292                             641     
 3293 00000446 3235               642             DMULU.L R3,R2                           ;R1,R2*R3
 3294 00000448 021A               643             STS     MACL,R2                         ;
 3295 0000044A 050A               644             STS     MACH,R5                         ;
 3296 0000044C 3135               645             DMULU.L R3,R1                           ;
 3297 0000044E 011A               646             STS     MACL,R1                         ;
 3298 00000450 000A               647             STS     MACH,R0                         ;
 3299                             648     ;       === H(R0),M(R1)       ===
 3300                             649     ;       ===       M(R5),L(R2) ===
 3301 00000452 233A               650             XOR     R3,R3
*** SuperH RISC engine ASSEMBLER V.7.01.02.000 ***    11/14/21 17:24:25                                                  PAGE    20
PROGRAM NAME =

 3302 00000454 0008               651             CLRT
 3303 00000456 315E               652             ADDC    R5,R1                           ;
 3304 00000458 303E               653             ADDC    R3,R0                           ;R0,R1,R2
 3305 0000045A 2008               654             TST     R0,R0                           ;
 3306                             655             TST_BIT_OF MULDIV41_200                 ;
 3307 0000045C 8901                   M           BT      MULDIV41_200
 3308 0000045E E1FF               656             MOV     #-1,R1                          ;
 3309 00000460 E2FF               657             MOV     #-1,R2                          ;FFFF,FFFF,FFFF,FFFF
 3310 00000462                    658     MULDIV41_200:                                   ;
 3311                             659     
 3312                             660     ;       -- R1,R2/R4 --
 3313                             661             PUSH_REG1       R1                      ;
 3314 00000462 2F16                   M           MOV.L   R1,@-R15                ;PUSH=SP-4
 3315                                 M                                           ;REG=>[SP]
 3316                                 M                                           ;"-4" FF,FF,FF,FC
 3317                             662             PUSH_REG1       R2                      ;
 3318 00000464 2F26                   M           MOV.L   R2,@-R15                ;PUSH=SP-4
 3319                                 M                                           ;REG=>[SP]
 3320                                 M                                           ;"-4" FF,FF,FF,FC
 3321                             663             PUSH_REG1       R4                      ;
 3322 00000466 2F46                   M           MOV.L   R4,@-R15                ;PUSH=SP-4
 3323                                 M                                           ;REG=>[SP]
 3324                                 M                                           ;"-4" FF,FF,FF,FC
 3325                             664             FAR_JSR #_DIVU_64R1R2_32R4_64R1R2,R0    ;(R1,R2)
 3326 00000468 D00D                   M           MOV.L   #_DIVU_64R1R2_32R4_64R1R2,R0            ;ﾃｰﾌﾞﾙｱﾄﾞﾚｽの内容をREGへ
 3327 0000046A 400B                   M           JSR     @R0                     ;
 3328 0000046C 0009                   M           NOP                                     ;
 3329                             665             POP_REG1        R4                      ;
 3330                                 M                                   ; RE"+4" 00,00,00,04
 3331 0000046E 64F6                   M           MOV.L   @R15+,R4        ;
 3332                             666     
 3333 00000470 3245               667             DMULU.L R4,R2                           ;R1,R2*R4
 3334 00000472 061A               668             STS     MACL,R6                         ;
 3335 00000474 050A               669             STS     MACH,R5                         ;
 3336 00000476 3145               670             DMULU.L R4,R1                           ;
 3337 00000478 041A               671             STS     MACL,R4                         ;MACHは存在しない
 3338                             672     
 3339 0000047A 354C               673             ADD     R4,R5                           ;R5,R6
 3340                             674     
 3341                             675             POP_REG1        R3                      ;
 3342                                 M                                   ; RE"+4" 00,00,00,04
 3343 0000047C 63F6                   M           MOV.L   @R15+,R3        ;
 3344                             676             POP_REG1        R0                      ;Input(R1,R2)-(R1*R2)*R4=MOD R3
 3345                                 M                                   ; RE"+4" 00,00,00,04
 3346 0000047E 60F6                   M           MOV.L   @R15+,R0        ;
 3347                             677                                                     ;=R0,R3-R5,R6
 3348 00000480 0008               678             CLRT
 3349 00000482 336A               679             SUBC    R6,R3                           ;
 3350 00000484 305A               680             SUBC    R5,R0                           ;R0,R3(R0=0はないはず)
 3351                             681     
 3352                             682             POP_REG1        R0                              ;
 3353                                 M                                   ; RE"+4" 00,00,00,04
 3354 00000486 60F6                   M           MOV.L   @R15+,R0        ;
 3355 00000488 4011               683             CMP/PZ  R0                              ;
 3356 0000048A 8906               684             BT      MULDIV41_300                    ;
 3357                             685             NEG1_64 H_REG=R1,L_REG=R2,WKREG=R0      ;
 3358 0000048C 6227                   M           NOT     R2,R2                           ;
*** SuperH RISC engine ASSEMBLER V.7.01.02.000 ***    11/14/21 17:24:25                                                  PAGE    21
PROGRAM NAME =

 3359 0000048E 6117                   M           NOT     R1,R1                           ;
 3360 00000490 200A                   M           XOR     R0,R0                           ;
 3361 00000492 0018                   M           SETT
 3362 00000494 320E                   M           ADDC    R0,R2                           ;0+1+R2
 3363 00000496 310E                   M           ADDC    R0,R1                           ;
 3364 00000498 633B               686             NEG     R3,R3                           ;
 3365 0000049A                    687     MULDIV41_300:                                   ;
 3366                             688     
 3367                             689             SUB_END
 3368                                 M   ;;;;;;; ADD     #4,R15                  ;[不要?]
 3369 0000049A 4F26                   M           LDS.L   @R15+,PR                ;[必要]
 3370                             690             M_RTS
 3371 0000049C 000B                   M           RTS                             ;RTSの後ろの
 3372 0000049E 0009                   M           NOP                             ;@R15+,PRはﾀﾞﾒ
 3373                             691     
 3374                             692     
 3375                             693     ;       ***********************************************************
 3376                             694     ;       ***                                                     ***
 3377                             695     ;       ***     R1,R2(S64)*R3(S32)=R1,R2(S64)                   ***
 3378                             696     ;       ***                                                     ***
 3379                             697     ;       ***********************************************************
 3380                             698     ;       Used Reg R1,R2,R3
 3381                             699     ;                R0,R5
 3382                             700     ;                R1,R2*R3
 3383                             701     ;
 3384                                     ***** BEGIN-POOL *****
 3385 000004A0 00000000                   DATA FOR SOURCE-LINE 664
 3386                                     ***** END-POOL *****
 3387 000004A4                    702     _MUL_R1R2S64mR3S32aR1R2S64:
 3388                             703             SUB_START
 3389 000004A4 4F22                   M           STS.L   PR,@-R15                ;[必要]
 3390                                 M   ;;;;;;; ADD     #-4,R15                 ;[不要?]
 3391 000004A6 6013               704             MOV     R1,R0
 3392 000004A8 203A               705             XOR     R3,R0
 3393                             706             PUSH_REG1 R0            ;符号SAVE
 3394 000004AA 2F06                   M           MOV.L   R0,@-R15                ;PUSH=SP-4
 3395                                 M                                           ;REG=>[SP]
 3396                                 M                                           ;"-4" FF,FF,FF,FC
 3397                             707     
 3398 000004AC 4111               708             CMP/PZ  R1
 3399 000004AE 8905               709             BT      MUL41_050                       ;
 3400                             710             NEG1_64 H_REG=R1,L_REG=R2,WKREG=R0      ;
 3401 000004B0 6227                   M           NOT     R2,R2                           ;
 3402 000004B2 6117                   M           NOT     R1,R1                           ;
 3403 000004B4 200A                   M           XOR     R0,R0                           ;
 3404 000004B6 0018                   M           SETT
 3405 000004B8 320E                   M           ADDC    R0,R2                           ;0+1+R2
 3406 000004BA 310E                   M           ADDC    R0,R1                           ;
 3407 000004BC                    711     MUL41_050:                                      ;
 3408                             712     
 3409 000004BC 4311               713             CMP/PZ  R3
 3410 000004BE 8900               714             BT      MUL41_100                       ;
 3411 000004C0 633B               715             NEG     R3,R3                           ;
 3412 000004C2                    716     MUL41_100:                                      ;
 3413                             717     
 3414 000004C2 3235               718             DMULU.L R3,R2                           ;R1,R2*R3
 3415 000004C4 021A               719             STS     MACL,R2                         ;
*** SuperH RISC engine ASSEMBLER V.7.01.02.000 ***    11/14/21 17:24:25                                                  PAGE    22
PROGRAM NAME =

 3416 000004C6 050A               720             STS     MACH,R5                         ;
 3417 000004C8 3135               721             DMULU.L R3,R1                           ;
 3418 000004CA 011A               722             STS     MACL,R1                         ;
 3419 000004CC 000A               723             STS     MACH,R0                         ;
 3420                             724     ;       === H(R0),M(R1)       ===
 3421                             725     ;       ===       M(R5),L(R2) ===
 3422 000004CE 233A               726             XOR     R3,R3
 3423 000004D0 0008               727             CLRT
 3424 000004D2 315E               728             ADDC    R5,R1                           ;
 3425 000004D4 303E               729             ADDC    R3,R0                           ;R0,R1,R2
 3426 000004D6 2008               730             TST     R0,R0                           ;
 3427                             731             TST_BIT_OF MUL41_200                    ;
 3428 000004D8 8901                   M           BT      MUL41_200
 3429 000004DA E1FF               732             MOV     #-1,R1                          ;
 3430 000004DC E2FF               733             MOV     #-1,R2                          ;FFFF,FFFF,FFFF,FFFF
 3431 000004DE                    734     MUL41_200:                                      ;
 3432                             735     
 3433                             736             POP_REG1        R0                      ;
 3434                                 M                                   ; RE"+4" 00,00,00,04
 3435 000004DE 60F6                   M           MOV.L   @R15+,R0        ;
 3436 000004E0 4011               737             CMP/PZ  R0                              ;
 3437 000004E2 8906               738             BT      MUL41_300                       ;
 3438                             739             NEG1_64 H_REG=R1,L_REG=R2,WKREG=R0      ;
 3439 000004E4 6227                   M           NOT     R2,R2                           ;
 3440 000004E6 6117                   M           NOT     R1,R1                           ;
 3441 000004E8 200A                   M           XOR     R0,R0                           ;
 3442 000004EA 0018                   M           SETT
 3443 000004EC 320E                   M           ADDC    R0,R2                           ;0+1+R2
 3444 000004EE 310E                   M           ADDC    R0,R1                           ;
 3445 000004F0 633B               740             NEG     R3,R3                           ;
 3446 000004F2                    741     MUL41_300:                                      ;
 3447                             742     
 3448                             743             SUB_END
 3449                                 M   ;;;;;;; ADD     #4,R15                  ;[不要?]
 3450 000004F2 4F26                   M           LDS.L   @R15+,PR                ;[必要]
 3451                             744             M_RTS
 3452 000004F4 000B                   M           RTS                             ;RTSの後ろの
 3453 000004F6 0009                   M           NOP                             ;@R15+,PRはﾀﾞﾒ
 3454                             745     
 3455                             746     
 3456                             747     ;       *******************************************************************
 3457                             748     ;       ***                                                             ***
 3458                             749     ;       ***     演算    符号付き 64bit(R1,R2)/32bit(R4)->64bit(R1,R2)   ***
 3459                             750     ;       ***             0割り算ﾁｪｯｸ付き                                 ***
 3460                             751     ;       ***                                                             ***
 3461                             752     ;       *******************************************************************
 3462                             753     ;       ***************************************************
 3463                             754     ;       ***     SHIN R1,R2[64]/R4[32]-->R1,R2[64]       ***
 3464                             755     ;       ***************************************************
 3465                             756     ;       R1~R4 破壊
 3466 000004F8                    757             .ALIGN  4                               ;
 3467 000004F8                    758     _DIVS_64R1R2_32R4_64R1R2:                       ;
 3468                             759             SUB_START
 3469 000004F8 4F22                   M           STS.L   PR,@-R15                ;[必要]
 3470                                 M   ;;;;;;; ADD     #-4,R15                 ;[不要?]
 3471                             760             PUSH_REG1               R4              ;
 3472 000004FA 2F46                   M           MOV.L   R4,@-R15                ;PUSH=SP-4
*** SuperH RISC engine ASSEMBLER V.7.01.02.000 ***    11/14/21 17:24:25                                                  PAGE    23
PROGRAM NAME =

 3473                                 M                                           ;REG=>[SP]
 3474                                 M                                           ;"-4" FF,FF,FF,FC
 3475                             761             PUSH_REG1               R1              ;
 3476 000004FC 2F16                   M           MOV.L   R1,@-R15                ;PUSH=SP-4
 3477                                 M                                           ;REG=>[SP]
 3478                                 M                                           ;"-4" FF,FF,FF,FC
 3479 000004FE 4411               762             CMP/PZ  R4                              ;
 3480 00000500 8900               763             BT      DIVS16_020                      ;
 3481 00000502 644B               764             NEG     R4,R4                           ;
 3482 00000504                    765     DIVS16_020:
 3483 00000504 4111               766             CMP/PZ  R1                              ;
 3484 00000506 8905               767             BT      DIVS16_040                      ;
 3485                             768     
 3486                             769             NEG1_64 H_REG=R1,L_REG=R2,WKREG=R3
 3487 00000508 6227                   M           NOT     R2,R2                           ;
 3488 0000050A 6117                   M           NOT     R1,R1                           ;
 3489 0000050C 233A                   M           XOR     R3,R3                           ;
 3490 0000050E 0018                   M           SETT
 3491 00000510 323E                   M           ADDC    R3,R2                           ;0+1+R2
 3492 00000512 313E                   M           ADDC    R3,R1                           ;
 3493                             770     
 3494 00000514                    771     DIVS16_040:
 3495                             772             FAR_JSR #_DIVU_64R1R2_32R4_64R1R2,R3    ;
 3496 00000514 D30A                   M           MOV.L   #_DIVU_64R1R2_32R4_64R1R2,R3            ;ﾃｰﾌﾞﾙｱﾄﾞﾚｽの内容をREGへ
 3497 00000516 430B                   M           JSR     @R3                     ;
 3498 00000518 0009                   M           NOP                                     ;
 3499                             773     
 3500 0000051A D40A               774             MOV.L   #H'7FFFFFFF,R4                  ;
 3501 0000051C 3412               775             CMP/HS  R1,R4                           ;7FFFFFFF >= data
 3502 0000051E 8901               776             BT      DIVS16_060                      ;
 3503 00000520 6143               777             MOV     R4,R1                           ;7FFFFFFF >= data
 3504 00000522 E2FF               778             MOV     #H'FFFFFFFF,R2                  ;7FFF,FFFF,FFFF,FFFF max
 3505 00000524                    779     DIVS16_060:                                     ;
 3506                             780     
 3507                             781             POP_REG1        R3                      ;R3=R1:符号
 3508                                 M                                   ; RE"+4" 00,00,00,04
 3509 00000524 63F6                   M           MOV.L   @R15+,R3        ;
 3510                             782             POP_REG1        R4                      ;
 3511                                 M                                   ; RE"+4" 00,00,00,04
 3512 00000526 64F6                   M           MOV.L   @R15+,R4        ;
 3513 00000528 234A               783             XOR     R4,R3                           ;"BIT63=0" THEN +
 3514 0000052A 4311               784             CMP/PZ  R3                              ;
 3515 0000052C 8905               785             BT      DIVS16_100                      ;"+"
 3516                             786             NEG1_64 H_REG=R1,L_REG=R2,WKREG=R3      ;
 3517 0000052E 6227                   M           NOT     R2,R2                           ;
 3518 00000530 6117                   M           NOT     R1,R1                           ;
 3519 00000532 233A                   M           XOR     R3,R3                           ;
 3520 00000534 0018                   M           SETT
 3521 00000536 323E                   M           ADDC    R3,R2                           ;0+1+R2
 3522 00000538 313E                   M           ADDC    R3,R1                           ;
 3523 0000053A                    787     DIVS16_100:                                     ;
 3524                             788             SUB_END
 3525                                 M   ;;;;;;; ADD     #4,R15                  ;[不要?]
 3526 0000053A 4F26                   M           LDS.L   @R15+,PR                ;[必要]
 3527                             789             M_RTS
 3528 0000053C 000B                   M           RTS                             ;RTSの後ろの
 3529 0000053E 0009                   M           NOP                             ;@R15+,PRはﾀﾞﾒ
*** SuperH RISC engine ASSEMBLER V.7.01.02.000 ***    11/14/21 17:24:25                                                  PAGE    24
PROGRAM NAME =

 3530                             790     
 3531                             791     
 3532                             792     ;       *******************************************************************
 3533                             793     ;       ***                                                             ***
 3534                             794     ;       ***     演算    符号なし 64bit(R1,R2)/32bit(R4)->32bit(R1,R2)   ***
 3535                             795     ;       ***             0割り算ﾁｪｯｸ付き                                 ***
 3536                             796     ;       ***                                                             ***
 3537                             797     ;       *******************************************************************
 3538                             798     ;       ***********************************************************
 3539                             799     ;       ***     UNSHIN  R1,R2[64]/R4[32]-->R1,R2[64]            ***
 3540                             800     ;       ***********************************************************
 3541                             801     ;       USED REG
 3542                             802     ;       余りなし演算
 3543                             803     ;       R1~R4破壊
 3544                                     ***** BEGIN-POOL *****
 3545 00000540 00000000                   DATA FOR SOURCE-LINE 772
 3546 00000544 7FFFFFFF                   DATA FOR SOURCE-LINE 774
 3547                                     ***** END-POOL *****
 3548 00000548                    804             .ALIGN  4                               ;
 3549 00000548                    805     _DIVU_64R1R2_32R4_64R1R2:                       ;
 3550                             806             SUB_START
 3551 00000548 4F22                   M           STS.L   PR,@-R15                ;[必要]
 3552                                 M   ;;;;;;; ADD     #-4,R15                 ;[不要?]
 3553                             807     
 3554 0000054A 2448               808             TST     R4,R4                                   ;
 3555                             809             TST_BIT_ON DIVU14_050           ;
 3556 0000054C 8B01                   M           BF      DIVU14_050
 3557                             810             M_BRA   DIVU14_ZERO_DIV         ;ZERO DIV        ANS.MAX
 3558 0000054E A08F                   M           BRA     DIVU14_ZERO_DIV
 3559 00000550 0009                   M           NOP
 3560                             811     
 3561 00000552                    812     DIVU14_050:
 3562                             813     
 3563 00000552 6313               814             MOV     R1,R3           ;PUSH_R1
 3564                             815     ;       ====R1,R2=============
 3565 00000554 200A               816             XOR     R0,R0           ;R0,R1
 3566                             817     
 3567 00000556 0019               818             DIV0U                           ;FLAG M=Q=T=0
 3568                             819             .arepeat        32              ;繰返展開
 3569                             820             ROTCL   R1                      ;T bit -->
 3570                             821             DIV1    R4,R0                   ;SHIFT 1 R0-R1 -->Q,T
 3571                             822             .aendr                          ;
 3572 00000558 4124                   C           ROTCL   R1                      ;T bit -->
 3573 0000055A 3044                   C           DIV1    R4,R0                   ;SHIFT 1 R0-R1 -->Q,T
 3574 0000055C 4124                   C           ROTCL   R1                      ;T bit -->
 3575 0000055E 3044                   C           DIV1    R4,R0                   ;SHIFT 1 R0-R1 -->Q,T
 3576 00000560 4124                   C           ROTCL   R1                      ;T bit -->
 3577 00000562 3044                   C           DIV1    R4,R0                   ;SHIFT 1 R0-R1 -->Q,T
 3578 00000564 4124                   C           ROTCL   R1                      ;T bit -->
 3579 00000566 3044                   C           DIV1    R4,R0                   ;SHIFT 1 R0-R1 -->Q,T
 3580 00000568 4124                   C           ROTCL   R1                      ;T bit -->
 3581 0000056A 3044                   C           DIV1    R4,R0                   ;SHIFT 1 R0-R1 -->Q,T
 3582 0000056C 4124                   C           ROTCL   R1                      ;T bit -->
 3583 0000056E 3044                   C           DIV1    R4,R0                   ;SHIFT 1 R0-R1 -->Q,T
 3584 00000570 4124                   C           ROTCL   R1                      ;T bit -->
 3585 00000572 3044                   C           DIV1    R4,R0                   ;SHIFT 1 R0-R1 -->Q,T
 3586 00000574 4124                   C           ROTCL   R1                      ;T bit -->
*** SuperH RISC engine ASSEMBLER V.7.01.02.000 ***    11/14/21 17:24:25                                                  PAGE    25
PROGRAM NAME =

 3587 00000576 3044                   C           DIV1    R4,R0                   ;SHIFT 1 R0-R1 -->Q,T
 3588 00000578 4124                   C           ROTCL   R1                      ;T bit -->
 3589 0000057A 3044                   C           DIV1    R4,R0                   ;SHIFT 1 R0-R1 -->Q,T
 3590 0000057C 4124                   C           ROTCL   R1                      ;T bit -->
 3591 0000057E 3044                   C           DIV1    R4,R0                   ;SHIFT 1 R0-R1 -->Q,T
 3592 00000580 4124                   C           ROTCL   R1                      ;T bit -->
 3593 00000582 3044                   C           DIV1    R4,R0                   ;SHIFT 1 R0-R1 -->Q,T
 3594 00000584 4124                   C           ROTCL   R1                      ;T bit -->
 3595 00000586 3044                   C           DIV1    R4,R0                   ;SHIFT 1 R0-R1 -->Q,T
 3596 00000588 4124                   C           ROTCL   R1                      ;T bit -->
 3597 0000058A 3044                   C           DIV1    R4,R0                   ;SHIFT 1 R0-R1 -->Q,T
 3598 0000058C 4124                   C           ROTCL   R1                      ;T bit -->
 3599 0000058E 3044                   C           DIV1    R4,R0                   ;SHIFT 1 R0-R1 -->Q,T
 3600 00000590 4124                   C           ROTCL   R1                      ;T bit -->
 3601 00000592 3044                   C           DIV1    R4,R0                   ;SHIFT 1 R0-R1 -->Q,T
 3602 00000594 4124                   C           ROTCL   R1                      ;T bit -->
 3603 00000596 3044                   C           DIV1    R4,R0                   ;SHIFT 1 R0-R1 -->Q,T
 3604 00000598 4124                   C           ROTCL   R1                      ;T bit -->
 3605 0000059A 3044                   C           DIV1    R4,R0                   ;SHIFT 1 R0-R1 -->Q,T
 3606 0000059C 4124                   C           ROTCL   R1                      ;T bit -->
 3607 0000059E 3044                   C           DIV1    R4,R0                   ;SHIFT 1 R0-R1 -->Q,T
 3608 000005A0 4124                   C           ROTCL   R1                      ;T bit -->
 3609 000005A2 3044                   C           DIV1    R4,R0                   ;SHIFT 1 R0-R1 -->Q,T
 3610 000005A4 4124                   C           ROTCL   R1                      ;T bit -->
 3611 000005A6 3044                   C           DIV1    R4,R0                   ;SHIFT 1 R0-R1 -->Q,T
 3612 000005A8 4124                   C           ROTCL   R1                      ;T bit -->
 3613 000005AA 3044                   C           DIV1    R4,R0                   ;SHIFT 1 R0-R1 -->Q,T
 3614 000005AC 4124                   C           ROTCL   R1                      ;T bit -->
 3615 000005AE 3044                   C           DIV1    R4,R0                   ;SHIFT 1 R0-R1 -->Q,T
 3616 000005B0 4124                   C           ROTCL   R1                      ;T bit -->
 3617 000005B2 3044                   C           DIV1    R4,R0                   ;SHIFT 1 R0-R1 -->Q,T
 3618 000005B4 4124                   C           ROTCL   R1                      ;T bit -->
 3619 000005B6 3044                   C           DIV1    R4,R0                   ;SHIFT 1 R0-R1 -->Q,T
 3620 000005B8 4124                   C           ROTCL   R1                      ;T bit -->
 3621 000005BA 3044                   C           DIV1    R4,R0                   ;SHIFT 1 R0-R1 -->Q,T
 3622 000005BC 4124                   C           ROTCL   R1                      ;T bit -->
 3623 000005BE 3044                   C           DIV1    R4,R0                   ;SHIFT 1 R0-R1 -->Q,T
 3624 000005C0 4124                   C           ROTCL   R1                      ;T bit -->
 3625 000005C2 3044                   C           DIV1    R4,R0                   ;SHIFT 1 R0-R1 -->Q,T
 3626 000005C4 4124                   C           ROTCL   R1                      ;T bit -->
 3627 000005C6 3044                   C           DIV1    R4,R0                   ;SHIFT 1 R0-R1 -->Q,T
 3628 000005C8 4124                   C           ROTCL   R1                      ;T bit -->
 3629 000005CA 3044                   C           DIV1    R4,R0                   ;SHIFT 1 R0-R1 -->Q,T
 3630 000005CC 4124                   C           ROTCL   R1                      ;T bit -->
 3631 000005CE 3044                   C           DIV1    R4,R0                   ;SHIFT 1 R0-R1 -->Q,T
 3632 000005D0 4124                   C           ROTCL   R1                      ;T bit -->
 3633 000005D2 3044                   C           DIV1    R4,R0                   ;SHIFT 1 R0-R1 -->Q,T
 3634 000005D4 4124                   C           ROTCL   R1                      ;T bit -->
 3635 000005D6 3044                   C           DIV1    R4,R0                   ;SHIFT 1 R0-R1 -->Q,T
 3636 000005D8 4124               823             ROTCL   R1                      ;T<--R1<--T
 3637                             824                                             ;(R0,R1)/R4-->R1
 3638 000005DA 341D               825             DMULS.L R1,R4                   ;(R1)
 3639 000005DC 061A               826             STS     MACL,R6                 ;
 3640 000005DE 050A               827             STS     MACH,R5                 ;(0),R1/R4-->R1 R1*R4=R5,R6
 3641 000005E0 200A               828             XOR     R0,R0                   ;
 3642 000005E2 0008               829             CLRT
 3643 000005E4 336A               830             SUBC    R6,R3                   ;
*** SuperH RISC engine ASSEMBLER V.7.01.02.000 ***    11/14/21 17:24:25                                                  PAGE    26
PROGRAM NAME =

 3644 000005E6 305A               831             SUBC    R5,R0                   ;
 3645                             832     
 3646                             833                                             ;R3,R2/R4
 3647 000005E8 0019               834             DIV0U                           ;FLAG M=Q=T=0
 3648                             835             .arepeat        32              ;繰返展開
 3649                             836             ROTCL   R2                      ;T bit -->
 3650                             837             DIV1    R4,R3                   ;SHIFT 1 R0-R1 -->Q,T
 3651                             838             .aendr                          ;
 3652 000005EA 4224                   C           ROTCL   R2                      ;T bit -->
 3653 000005EC 3344                   C           DIV1    R4,R3                   ;SHIFT 1 R0-R1 -->Q,T
 3654 000005EE 4224                   C           ROTCL   R2                      ;T bit -->
 3655 000005F0 3344                   C           DIV1    R4,R3                   ;SHIFT 1 R0-R1 -->Q,T
 3656 000005F2 4224                   C           ROTCL   R2                      ;T bit -->
 3657 000005F4 3344                   C           DIV1    R4,R3                   ;SHIFT 1 R0-R1 -->Q,T
 3658 000005F6 4224                   C           ROTCL   R2                      ;T bit -->
 3659 000005F8 3344                   C           DIV1    R4,R3                   ;SHIFT 1 R0-R1 -->Q,T
 3660 000005FA 4224                   C           ROTCL   R2                      ;T bit -->
 3661 000005FC 3344                   C           DIV1    R4,R3                   ;SHIFT 1 R0-R1 -->Q,T
 3662 000005FE 4224                   C           ROTCL   R2                      ;T bit -->
 3663 00000600 3344                   C           DIV1    R4,R3                   ;SHIFT 1 R0-R1 -->Q,T
 3664 00000602 4224                   C           ROTCL   R2                      ;T bit -->
 3665 00000604 3344                   C           DIV1    R4,R3                   ;SHIFT 1 R0-R1 -->Q,T
 3666 00000606 4224                   C           ROTCL   R2                      ;T bit -->
 3667 00000608 3344                   C           DIV1    R4,R3                   ;SHIFT 1 R0-R1 -->Q,T
 3668 0000060A 4224                   C           ROTCL   R2                      ;T bit -->
 3669 0000060C 3344                   C           DIV1    R4,R3                   ;SHIFT 1 R0-R1 -->Q,T
 3670 0000060E 4224                   C           ROTCL   R2                      ;T bit -->
 3671 00000610 3344                   C           DIV1    R4,R3                   ;SHIFT 1 R0-R1 -->Q,T
 3672 00000612 4224                   C           ROTCL   R2                      ;T bit -->
 3673 00000614 3344                   C           DIV1    R4,R3                   ;SHIFT 1 R0-R1 -->Q,T
 3674 00000616 4224                   C           ROTCL   R2                      ;T bit -->
 3675 00000618 3344                   C           DIV1    R4,R3                   ;SHIFT 1 R0-R1 -->Q,T
 3676 0000061A 4224                   C           ROTCL   R2                      ;T bit -->
 3677 0000061C 3344                   C           DIV1    R4,R3                   ;SHIFT 1 R0-R1 -->Q,T
 3678 0000061E 4224                   C           ROTCL   R2                      ;T bit -->
 3679 00000620 3344                   C           DIV1    R4,R3                   ;SHIFT 1 R0-R1 -->Q,T
 3680 00000622 4224                   C           ROTCL   R2                      ;T bit -->
 3681 00000624 3344                   C           DIV1    R4,R3                   ;SHIFT 1 R0-R1 -->Q,T
 3682 00000626 4224                   C           ROTCL   R2                      ;T bit -->
 3683 00000628 3344                   C           DIV1    R4,R3                   ;SHIFT 1 R0-R1 -->Q,T
 3684 0000062A 4224                   C           ROTCL   R2                      ;T bit -->
 3685 0000062C 3344                   C           DIV1    R4,R3                   ;SHIFT 1 R0-R1 -->Q,T
 3686 0000062E 4224                   C           ROTCL   R2                      ;T bit -->
 3687 00000630 3344                   C           DIV1    R4,R3                   ;SHIFT 1 R0-R1 -->Q,T
 3688 00000632 4224                   C           ROTCL   R2                      ;T bit -->
 3689 00000634 3344                   C           DIV1    R4,R3                   ;SHIFT 1 R0-R1 -->Q,T
 3690 00000636 4224                   C           ROTCL   R2                      ;T bit -->
 3691 00000638 3344                   C           DIV1    R4,R3                   ;SHIFT 1 R0-R1 -->Q,T
 3692 0000063A 4224                   C           ROTCL   R2                      ;T bit -->
 3693 0000063C 3344                   C           DIV1    R4,R3                   ;SHIFT 1 R0-R1 -->Q,T
 3694 0000063E 4224                   C           ROTCL   R2                      ;T bit -->
 3695 00000640 3344                   C           DIV1    R4,R3                   ;SHIFT 1 R0-R1 -->Q,T
 3696 00000642 4224                   C           ROTCL   R2                      ;T bit -->
 3697 00000644 3344                   C           DIV1    R4,R3                   ;SHIFT 1 R0-R1 -->Q,T
 3698 00000646 4224                   C           ROTCL   R2                      ;T bit -->
 3699 00000648 3344                   C           DIV1    R4,R3                   ;SHIFT 1 R0-R1 -->Q,T
 3700 0000064A 4224                   C           ROTCL   R2                      ;T bit -->
*** SuperH RISC engine ASSEMBLER V.7.01.02.000 ***    11/14/21 17:24:25                                                  PAGE    27
PROGRAM NAME =

 3701 0000064C 3344                   C           DIV1    R4,R3                   ;SHIFT 1 R0-R1 -->Q,T
 3702 0000064E 4224                   C           ROTCL   R2                      ;T bit -->
 3703 00000650 3344                   C           DIV1    R4,R3                   ;SHIFT 1 R0-R1 -->Q,T
 3704 00000652 4224                   C           ROTCL   R2                      ;T bit -->
 3705 00000654 3344                   C           DIV1    R4,R3                   ;SHIFT 1 R0-R1 -->Q,T
 3706 00000656 4224                   C           ROTCL   R2                      ;T bit -->
 3707 00000658 3344                   C           DIV1    R4,R3                   ;SHIFT 1 R0-R1 -->Q,T
 3708 0000065A 4224                   C           ROTCL   R2                      ;T bit -->
 3709 0000065C 3344                   C           DIV1    R4,R3                   ;SHIFT 1 R0-R1 -->Q,T
 3710 0000065E 4224                   C           ROTCL   R2                      ;T bit -->
 3711 00000660 3344                   C           DIV1    R4,R3                   ;SHIFT 1 R0-R1 -->Q,T
 3712 00000662 4224                   C           ROTCL   R2                      ;T bit -->
 3713 00000664 3344                   C           DIV1    R4,R3                   ;SHIFT 1 R0-R1 -->Q,T
 3714 00000666 4224                   C           ROTCL   R2                      ;T bit -->
 3715 00000668 3344                   C           DIV1    R4,R3                   ;SHIFT 1 R0-R1 -->Q,T
 3716 0000066A 4224               839             ROTCL   R2                      ;T<--R1<--T
 3717                             840                                             ;R1,R2
 3718                             841             M_BRA   DIVU14_EXT              ;
 3719 0000066C A003                   M           BRA     DIVU14_EXT
 3720 0000066E 0009                   M           NOP
 3721                             842     
 3722                             843     ;       ============================================
 3723 00000670                    844     DIVU14_ZERO_DIV:
 3724 00000670 222A               845             XOR     R2,R2                           ;
 3725 00000672 72FF               846             ADD     #H'FF,R2                        ;H'FFFFFFFF,R2          ;MAX SET
 3726 00000674 6123               847             MOV     R2,R1                           ;R1,R2=
 3727 00000676                    848     DIVU14_EXT:                                     ;
 3728                             849             SUB_END
 3729                                 M   ;;;;;;; ADD     #4,R15                  ;[不要?]
 3730 00000676 4F26                   M           LDS.L   @R15+,PR                ;[必要]
 3731                             850             M_RTS
 3732 00000678 000B                   M           RTS                             ;RTSの後ろの
 3733 0000067A 0009                   M           NOP                             ;@R15+,PRはﾀﾞﾒ
 3734                             851     
 3735                             852     
 3736                             853     
 3737                             854     
 3738                             855     ;       ***********************************
 3739                             856     ;       ***                             ***
 3740                             857     ;       ***     角度演算                ***
 3741                             858     ;       ***                             ***
 3742                             859     ;       ***     0.1度/1度単位           ***
 3743                             860     ;       ***                             ***
 3744                             861     ;       ***********************************
 3745                             862     ;       Input   R2(PV)
 3746                             863     ;               R1(SV1)START
 3747                             864     ;               R3(SV2)END
 3748                             865     ;       ANS R0=1 範囲内
 3749                             866     ;               R0=0
 3750                             867     
 3751                             868     ;       === R1 =< R2 =< R3 THEN R0=1 ELSE R0=0
 3752                             869             .EXPORT _DIG_AREA_CHK0
 3753 0000067C                    870     _DIG_AREA_CHK0:
 3754                             871             SUB_START
 3755 0000067C 4F22                   M           STS.L   PR,@-R15                ;[必要]
 3756                                 M   ;;;;;;; ADD     #-4,R15                 ;[不要?]
 3757 0000067E 3313               872             CMP/GE  R1,R3                   ;
*** SuperH RISC engine ASSEMBLER V.7.01.02.000 ***    11/14/21 17:24:25                                                  PAGE    28
PROGRAM NAME =

 3758 00000680 8B07               873             BF      DIG_AREA_CK0_100        ;0度をはさむ
 3759                             874     ;       === 0度をはさなまい===
 3760 00000682 200A               875             XOR     R0,R0
 3761 00000684 3213               876             CMP/GE  R1,R2                   ;
 3762 00000686 8B0A               877             BF      DIG_AREA_CK0_200        ; PV<SV1
 3763 00000688 3323               878             CMP/GE  R2,R3                   ;
 3764 0000068A 8B08               879             BF      DIG_AREA_CK0_200        ; SV2<PV2 (-1)
 3765 0000068C E001               880             MOV     #1,R0                   ;
 3766                             881             M_BRA   DIG_AREA_CK0_200        ;
 3767 0000068E A006                   M           BRA     DIG_AREA_CK0_200
 3768 00000690 0009                   M           NOP
 3769                             882     
 3770                             883     ;       ==== ０度をはさむ====
 3771 00000692                    884     DIG_AREA_CK0_100:
 3772 00000692 E001               885             MOV     #1,R0
 3773 00000694 3213               886             CMP/GE  R1,R2
 3774 00000696 8902               887             BT      DIG_AREA_CK0_200        ;SV1=<PV=<360
 3775 00000698 3323               888             CMP/GE  R2,R3                   ;
 3776 0000069A 8900               889             BT      DIG_AREA_CK0_200        ;
 3777 0000069C 200A               890             XOR     R0,R0
 3778 0000069E                    891     DIG_AREA_CK0_200:
 3779                             892             SUB_END
 3780                                 M   ;;;;;;; ADD     #4,R15                  ;[不要?]
 3781 0000069E 4F26                   M           LDS.L   @R15+,PR                ;[必要]
 3782                             893             M_RTS
 3783 000006A0 000B                   M           RTS                             ;RTSの後ろの
 3784 000006A2 0009                   M           NOP                             ;@R15+,PRはﾀﾞﾒ
 3785                             894     
 3786                             895     ;
 3787                             896     ;       ***********************************
 3788                             897     ;       ***                             ***
 3789                             898     ;       ***     角度演算                ***
 3790                             899     ;       ***                             ***
 3791                             900     ;       ***     0.1度/1度単位           ***
 3792                             901     ;       ***                             ***
 3793                             902     ;       ***********************************
 3794                             903     ;       Input   R2(PV)
 3795                             904     ;               R1(SV1)HOLD
 3796                             905     ;               R3(SV2)OBJ
 3797                             906     ;       SV1=<~~<SV2     R5=1
 3798                             907     ;       SV2==PV2        R5=0
 3799                             908     ;       SV2<~~=<SV1     R5=-1
 3800                             909     ;       ANS R5
 3801                             910     ;
 3802                             911             .EXPORT _DIG_AREA_CHK1
 3803 000006A4                    912     _DIG_AREA_CHK1:
 3804                             913             SUB_START
 3805 000006A4 4F22                   M           STS.L   PR,@-R15                ;[必要]
 3806                                 M   ;;;;;;; ADD     #-4,R15                 ;[不要?]
 3807 000006A6 255A               914             XOR     R5,R5
 3808 000006A8 3320               915             CMP/EQ  R2,R3                   ;
 3809 000006AA 890F               916             BT      DIG_AREA_CK1_200        ;
 3810 000006AC 3313               917             CMP/GE  R1,R3                   ;
 3811 000006AE 8B07               918             BF      DIG_AREA_CK1_100        ;0度をはさむ
 3812                             919     ;       === 0度をはさなまい===
 3813 000006B0 E5FF               920             MOV     #-1,R5                  ;
 3814 000006B2 3213               921             CMP/GE  R1,R2                   ;
*** SuperH RISC engine ASSEMBLER V.7.01.02.000 ***    11/14/21 17:24:25                                                  PAGE    29
PROGRAM NAME =

 3815 000006B4 8B0A               922             BF      DIG_AREA_CK1_200        ; PV<SV1 (-1)
 3816 000006B6 3323               923             CMP/GE  R2,R3                   ;
 3817 000006B8 8B08               924             BF      DIG_AREA_CK1_200        ; SV2<PV2 (-1)
 3818 000006BA E501               925             MOV     #1,R5
 3819                             926             M_BRA   DIG_AREA_CK1_200        ;
 3820 000006BC A006                   M           BRA     DIG_AREA_CK1_200
 3821 000006BE 0009                   M           NOP
 3822                             927     
 3823                             928     ;       ==== ０度をはさむ====
 3824 000006C0                    929     DIG_AREA_CK1_100:
 3825 000006C0 E501               930             MOV     #1,R5
 3826 000006C2 3213               931             CMP/GE  R1,R2
 3827 000006C4 8902               932             BT      DIG_AREA_CK1_200        ;SV1=<PV=<360
 3828 000006C6 3323               933             CMP/GE  R2,R3                   ;
 3829 000006C8 8900               934             BT      DIG_AREA_CK1_200        ;
 3830 000006CA E5FF               935             MOV     #-1,R5                  ;
 3831 000006CC                    936     DIG_AREA_CK1_200:
 3832                             937             SUB_END
 3833                                 M   ;;;;;;; ADD     #4,R15                  ;[不要?]
 3834 000006CC 4F26                   M           LDS.L   @R15+,PR                ;[必要]
 3835                             938             M_RTS
 3836 000006CE 000B                   M           RTS                             ;RTSの後ろの
 3837 000006D0 0009                   M           NOP                             ;@R15+,PRはﾀﾞﾒ
 3838                             939     
 3839                             940     
 3840                             941     
 3841                             942     
 3842                             943     ;       *******************************************
 3843                             944     ;       ***                                     ***
 3844                             945     ;       ***                                     ***
 3845                             946     ;       ***             補間１                  ***
 3846                             947     ;       ***                                     ***
 3847                             948     ;       ***                                     ***
 3848                             949     ;       *******************************************
 3849                             950     ;       増加時用  Sn > Sn_1条件(減少方向で使用する場合は入れ替えて使用可能:R6に注意)
 3850                             951     ;       Input
 3851                             952     ;       R3:Yn_1         R5:Xn_1
 3852                             953     ;       R2:Yn           R4:Xn
 3853                             954     ;       ANS:R2=y        R1:x
 3854                             955     ;       limit R6(Yn)
 3855                             956     ;
 3856                             957     ;
 3857                             958     ;
 3858                             959             .EXPORT _FPU_POS_HOKAN1
 3859                             960             .EXPORT _FPU_TIM_HOKAN1
 3860                             961     
 3861 000006D2                    962     _FPU_POS_HOKAN1:
 3862                             963             SUB_START
 3863 000006D2 4F22                   M           STS.L   PR,@-R15                ;[必要]
 3864                                 M   ;;;;;;; ADD     #-4,R15                 ;[不要?]
 3865 000006D4 3458               964             SUB     R5,R4                   ;Sn-Sn_1
 3866 000006D6 3158               965             SUB     R5,R1                   ;Sx-Sn_1
 3867                             966             M_BRA   FPU_COM_HOKAN1          ;
 3868 000006D8 A001                   M           BRA     FPU_COM_HOKAN1
 3869 000006DA 0009                   M           NOP
 3870                             967     
 3871                             968     ;       *******************************************
*** SuperH RISC engine ASSEMBLER V.7.01.02.000 ***    11/14/21 17:24:25                                                  PAGE    30
PROGRAM NAME =

 3872                             969     ;       ***             TIM補間                 ***
 3873                             970     ;       *******************************************
 3874                             971     ;       R3:Yn_1
 3875                             972     ;       R2:Yn           R4:Xn - Xn_1
 3876                             973     ;       ANS:R2=y        R1:x  - Xn_1
 3877                             974     ;       limit R6(Yn)
 3878                             975     ;
 3879 000006DC                    976     _FPU_TIM_HOKAN1:
 3880                             977             SUB_START
 3881 000006DC 4F22                   M           STS.L   PR,@-R15                ;[必要]
 3882                                 M   ;;;;;;; ADD     #-4,R15                 ;[不要?]
 3883 000006DE                    978     FPU_COM_HOKAN1:
 3884 000006DE 2448               979             TST     R4,R4                           ;
 3885                             980             TST_BIT_OF COM_HOK_DT_ER_LMT            ;R4=0 ERR
 3886 000006E0 890E                   M           BT      COM_HOK_DT_ER_LMT
 3887                             981     
 3888 000006E2 4415               982             CMP/PL  R4                              ;R4
 3889 000006E4 8B0F               983             BF      COM_HOK_DT_DN_LMT               ;Sn < Sn_1 data err
 3890                             984     
 3891 000006E6 4111               985             CMP/PZ  R1                              ;R1<0 err
 3892 000006E8 8B0D               986             BF      COM_HOK_DT_DN_LMT               ;Yn_1 SET
 3893                             987     
 3894 000006EA 3413               988             CMP/GE  R1,R4                           ;R1 =< R4 NOMAL
 3895 000006EC 8B0C               989             BF      COM_HOK_END                     ;R4<R1 THEN ｽｹｰﾙｵｰﾊﾞ Yn(R2)
 3896                             990     
 3897 000006EE 3238               991             SUB     R3,R2                           ;Yn-Yn_1
 3898                             992     
 3899                             993     ;       ----------- R2*R1/R4 ==> R2 -------
 3900                             994     ;;;     FAR_JSR #_FPU_R2_MUL_R1_DIV_R4,R0       ;
 3901                             995             FAR_JSR #_X_R2_MUL_R1_DIV_R4,R0
 3902 000006F0 D002                   M           MOV.L   #_X_R2_MUL_R1_DIV_R4,R0         ;ﾃｰﾌﾞﾙｱﾄﾞﾚｽの内容をREGへ
 3903 000006F2 400B                   M           JSR     @R0                     ;
 3904 000006F4 0009                   M           NOP                                     ;
 3905                             996     
 3906 000006F6 323C               997             ADD     R3,R2                           ;
 3907                             998             M_BRA   COM_HOK_END
 3908 000006F8 A006                   M           BRA     COM_HOK_END
 3909 000006FA 0009                   M           NOP
 3910                                     ***** BEGIN-POOL *****
 3911 000006FC 00000000                   DATA FOR SOURCE-LINE 995
 3912                                     ***** END-POOL *****
 3913 00000700                    999     COM_HOK_DT_ER_LMT:                              ;Sn=Sn_1
 3914 00000700 6263              1000             MOV     R6,R2                           ;
 3915                            1001             M_BRA   COM_HOK_END                     ;
 3916 00000702 A001                   M           BRA     COM_HOK_END
 3917 00000704 0009                   M           NOP
 3918                            1002     
 3919 00000706                   1003     COM_HOK_DT_DN_LMT:                              ;Sx<Sn_1
 3920 00000706 6233              1004             MOV     R3,R2                           ;
 3921 00000708                   1005     COM_HOK_END:
 3922                            1006             SUB_END
 3923                                 M   ;;;;;;; ADD     #4,R15                  ;[不要?]
 3924 00000708 4F26                   M           LDS.L   @R15+,PR                ;[必要]
 3925                            1007             M_RTS
 3926 0000070A 000B                   M           RTS                             ;RTSの後ろの
 3927 0000070C 0009                   M           NOP                             ;@R15+,PRはﾀﾞﾒ
 3928                            1008     
*** SuperH RISC engine ASSEMBLER V.7.01.02.000 ***    11/14/21 17:24:25                                                  PAGE    31
PROGRAM NAME =

 3929 0000070E                   1009     _X_R2_MUL_R1_DIV_R4:    ;
 3930                            1010             SUB_START
 3931 0000070E 4F22                   M           STS.L   PR,@-R15                ;[必要]
 3932                                 M   ;;;;;;; ADD     #-4,R15                 ;[不要?]
 3933                            1011             PUSH_REG1       R1
 3934 00000710 2F16                   M           MOV.L   R1,@-R15                ;PUSH=SP-4
 3935                                 M                                           ;REG=>[SP]
 3936                                 M                                           ;"-4" FF,FF,FF,FC
 3937                            1012             PUSH_REG1       R3
 3938 00000712 2F36                   M           MOV.L   R3,@-R15                ;PUSH=SP-4
 3939                                 M                                           ;REG=>[SP]
 3940                                 M                                           ;"-4" FF,FF,FF,FC
 3941                            1013             PUSH_REG1       R4
 3942 00000714 2F46                   M           MOV.L   R4,@-R15                ;PUSH=SP-4
 3943                                 M                                           ;REG=>[SP]
 3944                                 M                                           ;"-4" FF,FF,FF,FC
 3945                            1014             PUSH_REG1       R5
 3946 00000716 2F56                   M           MOV.L   R5,@-R15                ;PUSH=SP-4
 3947                                 M                                           ;REG=>[SP]
 3948                                 M                                           ;"-4" FF,FF,FF,FC
 3949                            1015             PUSH_REG1       R6
 3950 00000718 2F66                   M           MOV.L   R6,@-R15                ;PUSH=SP-4
 3951                                 M                                           ;REG=>[SP]
 3952                                 M                                           ;"-4" FF,FF,FF,FC
 3953                            1016             FAR_JSR #_MULDIV_R2S32mR1S32dR4S32aR1R2S64,R0   ;
 3954 0000071A D005                   M           MOV.L   #_MULDIV_R2S32mR1S32dR4S32aR1R2S64,R0           ;ﾃｰﾌﾞﾙｱﾄﾞﾚｽの内容をREGへ
 3955 0000071C 400B                   M           JSR     @R0                     ;
 3956 0000071E 0009                   M           NOP                                     ;
 3957                            1017             POP_REG1        R6
 3958                                 M                                   ; RE"+4" 00,00,00,04
 3959 00000720 66F6                   M           MOV.L   @R15+,R6        ;
 3960                            1018             POP_REG1        R5
 3961                                 M                                   ; RE"+4" 00,00,00,04
 3962 00000722 65F6                   M           MOV.L   @R15+,R5        ;
 3963                            1019             POP_REG1        R4
 3964                                 M                                   ; RE"+4" 00,00,00,04
 3965 00000724 64F6                   M           MOV.L   @R15+,R4        ;
 3966                            1020             POP_REG1        R3
 3967                                 M                                   ; RE"+4" 00,00,00,04
 3968 00000726 63F6                   M           MOV.L   @R15+,R3        ;
 3969                            1021             POP_REG1        R1
 3970                                 M                                   ; RE"+4" 00,00,00,04
 3971 00000728 61F6                   M           MOV.L   @R15+,R1        ;
 3972                            1022             SUB_END
 3973                                 M   ;;;;;;; ADD     #4,R15                  ;[不要?]
 3974 0000072A 4F26                   M           LDS.L   @R15+,PR                ;[必要]
 3975                            1023             M_RTS
 3976 0000072C 000B                   M           RTS                             ;RTSの後ろの
 3977 0000072E 0009                   M           NOP                             ;@R15+,PRはﾀﾞﾒ
 3978                            1024     
 3979                            1025     
 3980                            1026     
 3981                            1027     ;       ***************************************************
 3982                            1028     ;       ***                                             ***
 3983                            1029     ;       ***             2010-08-23                      ***
 3984                            1030     ;       ***                                             ***
 3985                            1031     ;       ***************************************************
*** SuperH RISC engine ASSEMBLER V.7.01.02.000 ***    11/14/21 17:24:25                                                  PAGE    32
PROGRAM NAME =

 3986                            1032             .EXPORT _IDO_BUF_SRC2B_TOTAL_4B_CAL
 3987                            1033     
 3988                            1034     
 3989                            1035     ;       ***************************************************
 3990                            1036     ;       ***                                             ***
 3991                            1037     ;       ***     移動平均のﾊﾞｯﾌｧに溜め込むところ         ***
 3992                            1038     ;       ***                                             ***
 3993                            1039     ;       ***************************************************
 3994                            1040     ;       Input R2: NEW DATA
 3995                            1041     ;       Input R5:TOTAL .ADR
 3996                            1042     ;       Input R0:IDO BAF
 3997                            1043     ;       Input R8:OFFSET POINTER*4
 3998                            1044     ;       DESTORY ;R0,R1,R2,R3,R4,R5
 3999                            1045     ;       ANS r1,r2(total)
 4000                                     ***** BEGIN-POOL *****
 4001 00000730 00000000                   DATA FOR SOURCE-LINE 1016
 4002                                     ***** END-POOL *****
 4003 00000734                   1046     _IDO_BUF_SRC4B_TOTAL_8B
 4004                            1047             SUB_START
 4005 00000734 4F22                   M           STS.L   PR,@-R15                ;[必要]
 4006                                 M   ;;;;;;; ADD     #-4,R15                 ;[不要?]
 4007 00000736 308C              1048             add     r8,r0                                                   ;
 4008 00000738 6302              1049             mov.l   @r0,r3                                                  ;old load
 4009 0000073A 2022              1050             mov.l   r2,@r0                                                  ;
 4010 0000073C 3238              1051             sub     r3,r2                                                   ;
 4011                            1052     
 4012 0000073E 6352              1053             mov.l   @r5,r3                                                  ;total_h LONG
 4013 00000740 5451              1054             mov.l   @(4,r5),r4                                              ;total_l LONG
 4014 00000742 211A              1055             xor     r1,r1                                                   ;
 4015 00000744 4211              1056             cmp/pz  r2                                                      ;
 4016 00000746 8900              1057             bt      IDO_BUF_SRC4B_T8B_100                                   ;
 4017 00000748 6117              1058             not     r1,r1                                                   ;ffff,ffff,bit15,,
 4018 0000074A                   1059     IDO_BUF_SRC4B_T8B_100:                                                          ;
 4019                            1060             ADD8B DT_REGH=r3,DT_REGL=r4,DT_ANS_REGH=r1,DT_ANS_REGL=r2       ;r3,r4(total)+r1,r
                                          2(new-old)  =r1,r2
 4020 0000074A 0008                   M           CLRT
 4021 0000074C 324E                   M           ADDC    r4,r2
 4022 0000074E 313E                   M           ADDC    r3,r1
 4023 00000750 2512              1061             mov.l   r1,@r5                                                  ;total_h LONG
 4024 00000752 1521              1062             mov.l   r2,@(4,r5)                                              ;total_l LONG
 4025                            1063             SUB_END
 4026                                 M   ;;;;;;; ADD     #4,R15                  ;[不要?]
 4027 00000754 4F26                   M           LDS.L   @R15+,PR                ;[必要]
 4028                            1064             M_RTS
 4029 00000756 000B                   M           RTS                             ;RTSの後ろの
 4030 00000758 0009                   M           NOP                             ;@R15+,PRはﾀﾞﾒ
 4031                            1065     
 4032                            1066     
 4033 0000075A                   1067     _IDO_BUF_SRC4B_TOTAL_4B
 4034                            1068             SUB_START
 4035 0000075A 4F22                   M           STS.L   PR,@-R15                ;[必要]
 4036                                 M   ;;;;;;; ADD     #-4,R15                 ;[不要?]
 4037 0000075C 308C              1069             add     r8,r0                                                   ;
 4038 0000075E 6302              1070             mov.l   @r0,r3                                                  ;old load
 4039 00000760 2022              1071             mov.l   r2,@r0                                                  ;
 4040 00000762 3238              1072             sub     r3,r2                                                   ;
 4041                            1073     
*** SuperH RISC engine ASSEMBLER V.7.01.02.000 ***    11/14/21 17:24:25                                                  PAGE    33
PROGRAM NAME =

 4042 00000764 6352              1074             mov.l   @r5,r3                                                  ;total_h LONG
 4043 00000766 323C              1075             add     r3,r2                                                   ;
 4044 00000768 2522              1076             mov.l   r2,@r5                                                  ;total_h LONG
 4045                            1077             SUB_END
 4046                                 M   ;;;;;;; ADD     #4,R15                  ;[不要?]
 4047 0000076A 4F26                   M           LDS.L   @R15+,PR                ;[必要]
 4048                            1078             M_RTS
 4049 0000076C 000B                   M           RTS                             ;RTSの後ろの
 4050 0000076E 0009                   M           NOP                             ;@R15+,PRはﾀﾞﾒ
 4051                            1079     
 4052                            1080     
 4053                            1081     ;       ***************************************************
 4054                            1082     ;       ***                                             ***
 4055                            1083     ;       ***     移動平均の演算まで含めたところ          ***
 4056                            1084     ;       ***                                             ***
 4057                            1085     ;       ***************************************************
 4058                            1086     ;       Input R2: NEW DATA
 4059                            1087     ;       Input R5:TOTAL.ADR
 4060                            1088     ;       Input R0:IDO BAF ADR
 4061                            1089     ;             R3:POINTER ADR
 4062                            1090     ;             R4:BUF CNT MAX
 4063                            1091     ;       DESTORY ;R0,R1,R2,R3,R4,R5
 4064                            1092     ;
 4065                            1093     ;       OUT R8:OFFSET POINTER*2
 4066                            1094     ;       ANS r2(total)/BUF-CNT-MAX(R4)
 4067 00000770                   1095     _IDO_BUF_SRC2B_TOTAL_4B_CAL:
 4068                            1096             SUB_START
 4069 00000770 4F22                   M           STS.L   PR,@-R15                ;[必要]
 4070                                 M   ;;;;;;; ADD     #-4,R15                 ;[不要?]
 4071                            1097     
 4072 00000772 6131              1098             MOV.W   @R3,R1                          ;
 4073 00000774 6813              1099             MOV     R1,R8                           ;
 4074 00000776 7101              1100             ADD     #1,R1                           ;
 4075 00000778 3416              1101             CMP/HI  R1,R4                           ;R1<R4
 4076 0000077A 8900              1102             BT      IDO_BUF_SRC2BT4B_CL_100         ;
 4077 0000077C 211A              1103             XOR     R1,R1                           ;
 4078 0000077E                   1104     IDO_BUF_SRC2BT4B_CL_100:                        ;
 4079 0000077E 2311              1105             MOV.W   R1,@R3                          ;POINTER+1 IF LIMIT THEN 0
 4080                            1106     
 4081 00000780 388C              1107             ADD     R8,R8                                   ;POINTER*2 2byteﾃﾞｰﾀのﾊﾞﾌｧ
 4082                            1108             FAR_JSR #_IDO_BUF_SRC2B_TOTAL_4B,R1             ;
 4083 00000782 D104                   M           MOV.L   #_IDO_BUF_SRC2B_TOTAL_4B,R1             ;ﾃｰﾌﾞﾙｱﾄﾞﾚｽの内容をREGへ
 4084 00000784 410B                   M           JSR     @R1                     ;
 4085 00000786 0009                   M           NOP                                     ;
 4086                            1109     
 4087                            1110             FAR_JSR #_HIGH_DIVS_32REG2_16REG1_R4_16REG2_R2,R1       ;
 4088 00000788 D103                   M           MOV.L   #_HIGH_DIVS_32REG2_16REG1_R4_16REG2_R2,R1               ;ﾃｰﾌﾞﾙｱﾄﾞﾚｽの内容
                                          をREGへ
 4089 0000078A 410B                   M           JSR     @R1                     ;
 4090 0000078C 0009                   M           NOP                                     ;
 4091                            1111     
 4092                            1112     
 4093                            1113     
 4094                            1114             SUB_END
 4095                                 M   ;;;;;;; ADD     #4,R15                  ;[不要?]
 4096 0000078E 4F26                   M           LDS.L   @R15+,PR                ;[必要]
 4097                            1115             M_RTS
*** SuperH RISC engine ASSEMBLER V.7.01.02.000 ***    11/14/21 17:24:25                                                  PAGE    34
PROGRAM NAME =

 4098 00000790 000B                   M           RTS                             ;RTSの後ろの
 4099 00000792 0009                   M           NOP                             ;@R15+,PRはﾀﾞﾒ
 4100                            1116     
 4101                            1117     
 4102                            1118     ;       ***************************************************
 4103                            1119     ;       ***                                             ***
 4104                            1120     ;       ***     移動平均のﾊﾞｯﾌｧに溜め込むところ         ***
 4105                            1121     ;       ***                                             ***
 4106                            1122     ;       ***************************************************
 4107                            1123     ;       Input R2: NEW DATA
 4108                            1124     ;       Input R5:TOTAL.ADR
 4109                            1125     ;       Input R0:IDO BAF
 4110                            1126     ;       Input R8:OFFSET POINTER*2
 4111                            1127     ;
 4112                            1128     ;       ANS r2(total)
 4113                                     ***** BEGIN-POOL *****
 4114 00000794 00000000                   DATA FOR SOURCE-LINE 1108
 4115 00000798 00000000                   DATA FOR SOURCE-LINE 1110
 4116                                     ***** END-POOL *****
 4117 0000079C                   1129     _IDO_BUF_SRC2B_TOTAL_4B
 4118                            1130             SUB_START
 4119 0000079C 4F22                   M           STS.L   PR,@-R15                ;[必要]
 4120                                 M   ;;;;;;; ADD     #-4,R15                 ;[不要?]
 4121 0000079E 308C              1131             add     r8,r0                                                   ;baf + pointer
 4122 000007A0 6301              1132             mov.w   @r0,r3                                                  ;old load
 4123 000007A2 2021              1133             mov.w   r2,@r0                                                  ;new save
 4124 000007A4 3238              1134             sub     r3,r2                                                   ;
 4125                            1135     
 4126 000007A6 6352              1136             mov.l   @r5,r3                                                  ;total LONG
 4127 000007A8 323C              1137             add     r3,r2                                                   ;total + (new-old)
 4128 000007AA 2522              1138             mov.l   r2,@r5                                                  ;total_l LONG
 4129                            1139             SUB_END
 4130                                 M   ;;;;;;; ADD     #4,R15                  ;[不要?]
 4131 000007AC 4F26                   M           LDS.L   @R15+,PR                ;[必要]
 4132                            1140             M_RTS
 4133 000007AE 000B                   M           RTS                             ;RTSの後ろの
 4134 000007B0 0009                   M           NOP                             ;@R15+,PRはﾀﾞﾒ
 4135                            1141     
 4136                            1142     
 4137                            1143     
 4138                            1144     
 4139                            1145     
 4140                            1146     ;       ***************************************************
 4141                            1147     ;       ***             2011-03-23                      ***
 4142                            1148     ;       ***                                             ***
 4143                            1149     ;       ***             三角関数                        ***
 4144                            1150     ;       ***                                             ***
 4145                            1151     ;       ***             COS                             ***
 4146                            1152     ;       ***             input 0.001度~360.000度         ***
 4147                            1153     ;       ***             output 0.0000~1.0000            ***
 4148                            1154     ;       ***                                             ***
 4149                            1155     ;       ***************************************************
 4150                            1156     ;       H'24000(147456)=360 360/200000=0.0018度
 4151                            1157     ;                                      0.001度
 4152                            1158     ;       input 0.001度 0~359.999
 4153          00057E40          1159     __COS_DIG_MAX   .EQU    360000          ;360000はﾃﾞｰﾀ
 4154          00015F90          1160     __COS_DIG_ARA1  .EQU    90000           ;第一象限
*** SuperH RISC engine ASSEMBLER V.7.01.02.000 ***    11/14/21 17:24:25                                                  PAGE    35
PROGRAM NAME =

 4155          0002BF20          1161     __COS_DIG_ARA2  .EQU    180000          ;
 4156          00041EB0          1162     __COS_DIG_ARA3  .EQU    270000          ;
 4157                            1163     
 4158                            1164     ;0~90        COS(deg)
 4159                            1165     ;90~180   -1*COS(180-deg)
 4160                            1166     ;180~270  -1*COS(deg-180)
 4161                            1167     ;270~360     COS(360-deg)
 4162                            1168     ;
 4163                            1169     ;       input  R2(0~359.999)
 4164                            1170     ;       output R2(+/- 1.000000)
 4165 000007B4                   1171             .ALIGN  4
 4166                            1172             .EXPORT _COS_IN_DEG             ;
 4167                            1173             .EXPORT _COS_DIG1_UNIT_COEF     ;1.000000=1000000
 4168                            1174     
 4169 000007B4                   1175     _COS_IN_DEG
 4170                            1176             SUB_START
 4171 000007B4 4F22                   M           STS.L   PR,@-R15                ;[必要]
 4172                                 M   ;;;;;;; ADD     #-4,R15                 ;[不要?]
 4173                            1177     
 4174                            1178     
 4175 000007B6 D103              1179             MOV.L   #__COS_DIG_MAX,R1               ;
 4176 000007B8 3212              1180             CMP/HS  R1,R2                           ;
 4177 000007BA 8B05              1181             BF      COS_INDG_CAL100                 ;
 4178 000007BC 233A              1182             XOR     R3,R3                           ;SHIN="+"
 4179 000007BE 222A              1183             XOR     R2,R2                           ;36000以上
 4180                            1184             M_BRA   COS_INDG_CAL500                 ;
 4181 000007C0 A024                   M           BRA     COS_INDG_CAL500
 4182 000007C2 0009                   M           NOP
 4183                                     ***** BEGIN-POOL *****
 4184 000007C4 00057E40                   DATA FOR SOURCE-LINE 1179
 4185                                     ***** END-POOL *****
 4186 000007C8                   1185     COS_INDG_CAL100:
 4187                            1186     
 4188 000007C8 D102              1187             MOV.L   #__COS_DIG_ARA1,R1              ;第1象限90
 4189 000007CA 3122              1188             CMP/HS  R2,R1                           ;
 4190 000007CC 8B04              1189             BF      COS_INDG_CAL200                 ;
 4191                            1190                                                     ;R2 =< R1
 4192 000007CE 233A              1191             XOR     R3,R3                           ;SHIN="+"
 4193                            1192             M_BRA   COS_INDG_CAL500                 ;
 4194 000007D0 A01C                   M           BRA     COS_INDG_CAL500
 4195 000007D2 0009                   M           NOP
 4196                                     ***** BEGIN-POOL *****
 4197 000007D4 00015F90                   DATA FOR SOURCE-LINE 1187
 4198                                     ***** END-POOL *****
 4199 000007D8                   1193     COS_INDG_CAL200:
 4200                            1194     
 4201 000007D8 D103              1195             MOV.L   #__COS_DIG_ARA2,R1              ;第2象限180
 4202 000007DA 3122              1196             CMP/HS  R2,R1                           ;R1 =< R2
 4203 000007DC 8B06              1197             BF      COS_INDG_CAL300                 ;
 4204 000007DE E3FF              1198             MOV     #-1,R3                          ;-1
 4205 000007E0 3128              1199             SUB     R2,R1                           ;180-deg
 4206 000007E2 6213              1200             MOV     R1,R2                           ;
 4207                            1201             M_BRA   COS_INDG_CAL500                 ;
 4208 000007E4 A012                   M           BRA     COS_INDG_CAL500
 4209 000007E6 0009                   M           NOP
 4210                            1202     
 4211                                     ***** BEGIN-POOL *****
*** SuperH RISC engine ASSEMBLER V.7.01.02.000 ***    11/14/21 17:24:25                                                  PAGE    36
PROGRAM NAME =

 4212 000007E8 0002BF20                   DATA FOR SOURCE-LINE 1195
 4213                                     ***** END-POOL *****
 4214 000007EC                   1203     COS_INDG_CAL300:
 4215 000007EC D103              1204             MOV.L   #__COS_DIG_ARA3,R1              ;第3象限270
 4216 000007EE 3122              1205             CMP/HS  R2,R1                           ;R1 =< R2
 4217 000007F0 8B08              1206             BF      COS_INDG_CAL400                 ;
 4218 000007F2 E3FF              1207             MOV     #-1,R3                          ;-1
 4219 000007F4 D102              1208             MOV.L   #__COS_DIG_ARA2,R1              ;第2象限180
 4220 000007F6 3218              1209             SUB     R1,R2                           ;deg-180
 4221                            1210             M_BRA   COS_INDG_CAL500                 ;
 4222 000007F8 A008                   M           BRA     COS_INDG_CAL500
 4223 000007FA 0009                   M           NOP
 4224                            1211     
 4225                            1212     ;       ---------第4象限--
 4226                                     ***** BEGIN-POOL *****
 4227 000007FC 00041EB0                   DATA FOR SOURCE-LINE 1204
 4228 00000800 0002BF20                   DATA FOR SOURCE-LINE 1208
 4229                                     ***** END-POOL *****
 4230 00000804                   1213     COS_INDG_CAL400:
 4231 00000804 233A              1214             XOR     R3,R3                           ;
 4232 00000806 D10B              1215             MOV.L   #__COS_DIG_MAX,R1               ;
 4233 00000808 3128              1216             SUB     R2,R1                           ;
 4234 0000080A 6213              1217             MOV     R1,R2                           ;
 4235                            1218     
 4236 0000080C                   1219     COS_INDG_CAL500
 4237                            1220             PUSH_REG1 R3
 4238 0000080C 2F36                   M           MOV.L   R3,@-R15                ;PUSH=SP-4
 4239                                 M                                           ;REG=>[SP]
 4240                                 M                                           ;"-4" FF,FF,FF,FC
 4241                            1221     ;       ---------(0~90度)-------------------
 4242 0000080E DA0A              1222             MOV.L   #_COS_DIG1_TOP,R10                              ;
 4243 00000810 D90A              1223             MOV.L   #_COS_DIG1_INFO_CNT,R9                          ;
 4244 00000812 DC0B              1224             MOV.L   #_COS_DIG1_INFO_UNIT,R12                        ;
 4245                            1225     
 4246 00000814 64C2              1226             MOV.L   @R12,R4                                         ;R2(32)/R4(16) R2...R1
 4247                            1227             PUSH_REG1 R4                                            ;
 4248 00000816 2F46                   M           MOV.L   R4,@-R15                ;PUSH=SP-4
 4249                                 M                                           ;REG=>[SP]
 4250                                 M                                           ;"-4" FF,FF,FF,FC
 4251                            1228             FAR_JSR #_DIVS_32REG2_32REG1_R4_32REG2_R2_MOD_R1,R0     ;
 4252 00000818 D00A                   M           MOV.L   #_DIVS_32REG2_32REG1_R4_32REG2_R2_MOD_R1,R0             ;ﾃｰﾌﾞﾙｱﾄﾞﾚｽの内容
                                          をREGへ
 4253 0000081A 400B                   M           JSR     @R0                     ;
 4254 0000081C 0009                   M           NOP                                     ;
 4255                            1229             POP_REG1 R4                                             ;R2...R1 div data=R4
 4256                                 M                                   ; RE"+4" 00,00,00,04
 4257 0000081E 64F6                   M           MOV.L   @R15+,R4        ;
 4258                            1230             FAR_JSR #_TBL_HOKAN_TYPE1,R0                            ;
 4259 00000820 D009                   M           MOV.L   #_TBL_HOKAN_TYPE1,R0            ;ﾃｰﾌﾞﾙｱﾄﾞﾚｽの内容をREGへ
 4260 00000822 400B                   M           JSR     @R0                     ;
 4261 00000824 0009                   M           NOP                                     ;
 4262                            1231     ;       -------------------------------------
 4263                            1232             POP_REG1 R3
 4264                                 M                                   ; RE"+4" 00,00,00,04
 4265 00000826 63F6                   M           MOV.L   @R15+,R3        ;
 4266 00000828 2338              1233             TST     R3,R3                                           ;
 4267                            1234             TST_BIT_OF COS_INDG_CAL900                              ;
*** SuperH RISC engine ASSEMBLER V.7.01.02.000 ***    11/14/21 17:24:25                                                  PAGE    37
PROGRAM NAME =

 4268 0000082A 8900                   M           BT      COS_INDG_CAL900
 4269 0000082C 622B              1235             NEG     R2,R2                                           ;
 4270 0000082E                   1236     COS_INDG_CAL900:                                                ;
 4271                            1237     
 4272                            1238     
 4273                            1239             SUB_END
 4274                                 M   ;;;;;;; ADD     #4,R15                  ;[不要?]
 4275 0000082E 4F26                   M           LDS.L   @R15+,PR                ;[必要]
 4276                            1240             M_RTS
 4277 00000830 000B                   M           RTS                             ;RTSの後ろの
 4278 00000832 0009                   M           NOP                             ;@R15+,PRはﾀﾞﾒ
 4279                            1241     
 4280                            1242     ;
 4281                            1243     ;
 4282                            1244     ;
 4283                            1245     ;
 4284                            1246     ;
 4285                            1247     ;       input data R2...R1 DIV=R4
 4286                            1248     ;       input R9
 4287                            1249     ;       input R10
 4288                            1250     ;       input R12
 4289                            1251     
 4290                            1252     
 4291                                     ***** BEGIN-POOL *****
 4292 00000834 00057E40                   DATA FOR SOURCE-LINE 1215
 4293 00000838 00000000                   DATA FOR SOURCE-LINE 1222
 4294 0000083C 00000000                   DATA FOR SOURCE-LINE 1223
 4295 00000840 00000000                   DATA FOR SOURCE-LINE 1224
 4296 00000844 00000000                   DATA FOR SOURCE-LINE 1228
 4297 00000848 00000000                   DATA FOR SOURCE-LINE 1230
 4298                                     ***** END-POOL *****
 4299 0000084C                   1253     _TBL_HOKAN_TYPE1
 4300                            1254             SUB_START
 4301 0000084C 4F22                   M           STS.L   PR,@-R15                ;[必要]
 4302                                 M   ;;;;;;; ADD     #-4,R15                 ;[不要?]
 4303 0000084E 6392              1255             MOV.L   @R9,R3                                          ;商のMAX R3=90
 4304 00000850 3232              1256             CMP/HS  R3,R2                                           ;
 4305 00000852 8B04              1257             BF      TBL_HOKAN_TYP1_100                              ;
 4306                            1258     ;       -----最大------------
 4307 00000854 4308              1259             SHLL2   R3                                              ;*4byte
 4308 00000856 3A3C              1260             ADD     R3,R10                                          ;
 4309 00000858 62A2              1261             MOV.L   @R10,R2                                         ;ANS R2
 4310                            1262             M_BRA   TBL_HOKAN_TYP1_900                              ;
 4311 0000085A A008                   M           BRA     TBL_HOKAN_TYP1_900
 4312 0000085C 0009                   M           NOP
 4313                            1263     
 4314 0000085E                   1264     TBL_HOKAN_TYP1_100
 4315 0000085E 4208              1265             SHLL2   R2                                              ;
 4316 00000860 3A2C              1266             ADD     R2,R10                                          ;
 4317                            1267     
 4318                            1268     ;       R3:Yn_1         R5:Xn_1
 4319                            1269     ;       R2:Yn           R4:Xn[入力時点でR4=10000　Xn]
 4320                            1270     ;       ANS:R2=y        R1:x[入力時点でR1はMOD=x]
 4321 00000862 63A6              1271             MOV.L   @R10+,R3                                        ;Yn_1
 4322 00000864 62A2              1272             MOV.L   @R10,R2                                         ;Yn
 4323 00000866 255A              1273             XOR     R5,R5                                           ;Xn_1=0
 4324                            1274                                                                     ;Xn=1000=R4
*** SuperH RISC engine ASSEMBLER V.7.01.02.000 ***    11/14/21 17:24:25                                                  PAGE    38
PROGRAM NAME =

 4325                            1275             FAR_JSR #_FPU_POS_HOKAN1,R0                             ;
 4326 00000868 D002                   M           MOV.L   #_FPU_POS_HOKAN1,R0             ;ﾃｰﾌﾞﾙｱﾄﾞﾚｽの内容をREGへ
 4327 0000086A 400B                   M           JSR     @R0                     ;
 4328 0000086C 0009                   M           NOP                                     ;
 4329 0000086E                   1276     TBL_HOKAN_TYP1_900
 4330                            1277     
 4331                            1278             SUB_END
 4332                                 M   ;;;;;;; ADD     #4,R15                  ;[不要?]
 4333 0000086E 4F26                   M           LDS.L   @R15+,PR                ;[必要]
 4334                            1279             M_RTS
 4335 00000870 000B                   M           RTS                             ;RTSの後ろの
 4336 00000872 0009                   M           NOP                             ;@R15+,PRはﾀﾞﾒ
 4337                            1280     
 4338                            1281     
 4339                            1282     ;       *******************************************
 4340                            1283     ;       ***                                     ***
 4341                            1284     ;       ***             ルート32                ***
 4342                            1285     ;       ***             √R1(32)->ANS　R3       ***
 4343                            1286     ;       ***                                     ***
 4344                            1287     ;       *******************************************
 4345                                     ***** BEGIN-POOL *****
 4346 00000874 00000000                   DATA FOR SOURCE-LINE 1275
 4347                                     ***** END-POOL *****
 4348 00000878                   1288             .ALIGN  4
 4349                            1289     ;;_ROOT1_32R1:
 4350                            1290     ;;      SUB_START
 4351                            1291     ;;      XOR     R3,R3                           ;ANS.
 4352                            1292     ;;      XOR     R5,R5                           ;途中引算ﾃﾞｰﾀ WORK
 4353                            1293     ;;      XOR     R6,R6                           ;R1-->上位2ﾋﾞｯﾄ取出-->R6下位2ﾋﾞｯﾄ WORK
 4354                            1294     ;;      MOV.L   #1,R10                          ;ｲﾝｸﾘﾒﾝﾄ及びﾋﾞｯﾄ0ｾｯﾄ時に使用
 4355                            1295     ;;      MOV.L   #D'16,R11                       ;ｶｳﾝﾀ
 4356                            1296     ;;
 4357                            1297     ;       --------------------------------
 4358                            1298     ;;ROOT1_020:
 4359                            1299     ;;
 4360                            1300     ;;      SHLL    R1                              ;
 4361                            1301     ;;      ROTCL   R6                              ;
 4362                            1302     ;;      SHLL    R1                              ;
 4363                            1303     ;;      ROTCL   R6                              ;2ﾋﾞｯﾄ取出
 4364                            1304     ;;
 4365                            1305     ;;      SHLL    R5                              ;途中ﾃﾞｰﾀ左1ｼﾌﾄ
 4366                            1306     ;;      MOV     R5,R4                           ;
 4367                            1307     ;;      OR      R10,R4                          ;BIT0 SET 引けるかﾃﾞｰﾀ
 4368                            1308     ;;
 4369                            1309     ;;      CMP/HS  R4,R6                           ;R6 >= R4 THEN R4を引ける
 4370                            1310     ;;      BT      ROOT1_050                       ;YES JUMP
 4371                            1311     ;       ----- 引けない時 ------
 4372                            1312     ;       R5:そのまま + 0
 4373                            1313     ;;
 4374                            1314     ;;      SHLL    R3                              ;平方根結果=0
 4375                            1315     ;;      M_BRA   ROOT1_100                       ;
 4376                            1316     ;;
 4377                            1317     ;;
 4378                            1318     ;;ROOT1_050:
 4379                            1319     ;       ----- 引ける時 ------
 4380                            1320     ;;      SUB     R4,R6                           ;R6-R4=R6
 4381                            1321     ;;      MOV     R4,R5                           ;途中演算ﾃﾞｰﾀ
*** SuperH RISC engine ASSEMBLER V.7.01.02.000 ***    11/14/21 17:24:25                                                  PAGE    39
PROGRAM NAME =

 4382                            1322     ;;      ADD     R10,R5                          ;+1
 4383                            1323     ;;
 4384                            1324     ;;      SHLL    R3                              ;
 4385                            1325     ;;      OR      R10,R3                          ;平方根結果=1ｾｯﾄ
 4386                            1326     ;;ROOT1_100:
 4387                            1327     ;;
 4388                            1328     ;;      DT      R11
 4389                            1329     ;;      BT      ROOT1_EXIT                      ;ｶｳﾝﾀ-1=0 END
 4390                            1330     ;;      M_BRA   ROOT1_020                       ;
 4391                            1331     ;;
 4392                            1332     ;;ROOT1_EXIT:
 4393                            1333     ;;      SUB_END
 4394                            1334     ;;      M_RTS                                   ;
 4395                            1335     
 4396                            1336     
 4397                            1337     ;       *******************************************
 4398                            1338     ;       ***                                     ***
 4399                            1339     ;       ***             ルート64                ***
 4400                            1340     ;       ***             √R1R2(64)->ANS　R2(32) ***
 4401                            1341     ;       ***     2011-03-23                      ***
 4402                            1342     ;       *******************************************
 4403 00000878                   1343             .ALIGN  4
 4404                            1344             .EXPORT _ROOT2_64R1R2_ANS_R2
 4405 00000878                   1345     _ROOT2_64R1R2_ANS_R2:
 4406                            1346             SUB_START
 4407 00000878 4F22                   M           STS.L   PR,@-R15                ;[必要]
 4408                                 M   ;;;;;;; ADD     #-4,R15                 ;[不要?]
 4409 0000087A 233A              1347             XOR     R3,R3                           ;ANS.
 4410                            1348     
 4411 0000087C 288A              1349             XOR     R8,R8                           ;途中引算ﾃﾞｰﾀ WORK
 4412 0000087E 299A              1350             XOR     R9,R9                           ;途中引算ﾃﾞｰﾀ WORK
 4413                            1351     
 4414 00000880 266A              1352             XOR     R6,R6                           ;R1-->上位2ﾋﾞｯﾄ取出-->R6下位2ﾋﾞｯﾄ WORK
 4415 00000882 277A              1353             XOR     R7,R7                           ;R1-->上位2ﾋﾞｯﾄ取出-->R6下位2ﾋﾞｯﾄ WORK
 4416                            1354     
 4417 00000884 DA0D              1355             MOV.L   #1,R10                          ;ｲﾝｸﾘﾒﾝﾄ及びﾋﾞｯﾄ0ｾｯﾄ時に使用
 4418 00000886 DB0E              1356             MOV.L   #D'32,R11                       ;ｶｳﾝﾀ
 4419                            1357     
 4420                            1358     ;       --------------------------------
 4421 00000888                   1359     ROOT2_020:
 4422                            1360     
 4423 00000888 4200              1361             SHLL    R2                              ;下位
 4424 0000088A 4124              1362             ROTCL   R1                              ;上位
 4425 0000088C 4724              1363             ROTCL   R7                              ;
 4426 0000088E 4624              1364             ROTCL   R6                              ;
 4427                            1365     
 4428 00000890 4200              1366             SHLL    R2                              ;下位
 4429 00000892 4124              1367             ROTCL   R1                              ;上位
 4430 00000894 4724              1368             ROTCL   R7                              ;
 4431 00000896 4624              1369             ROTCL   R6                              ;2ﾋﾞｯﾄ取出
 4432                            1370     
 4433                            1371     
 4434 00000898 4900              1372             SHLL    R9                              ;途中ﾃﾞｰﾀ左1ｼﾌﾄ
 4435 0000089A 4824              1373             ROTCL   R8                              ;R8,R9
 4436                            1374     
 4437 0000089C 6483              1375             MOV     R8,R4                           ;
 4438 0000089E 6593              1376             MOV     R9,R5                           ;
*** SuperH RISC engine ASSEMBLER V.7.01.02.000 ***    11/14/21 17:24:25                                                  PAGE    40
PROGRAM NAME =

 4439                            1377     
 4440 000008A0 25AB              1378             OR      R10,R5                          ;BIT0 SET 引けるかﾃﾞｰﾀ
 4441                            1379     
 4442                            1380             PUSH_REG1 R6
 4443 000008A2 2F66                   M           MOV.L   R6,@-R15                ;PUSH=SP-4
 4444                                 M                                           ;REG=>[SP]
 4445                                 M                                           ;"-4" FF,FF,FF,FC
 4446                            1381             PUSH_REG1 R7
 4447 000008A4 2F76                   M           MOV.L   R7,@-R15                ;PUSH=SP-4
 4448                                 M                                           ;REG=>[SP]
 4449                                 M                                           ;"-4" FF,FF,FF,FC
 4450                            1382             SUB8B DT_REGH=R4,DT_REGL=R5,DT_ANS_REGH=R6,DT_ANS_REGL=R7       ;
 4451 000008A6 0008                   M           CLRT
 4452 000008A8 375A                   M           SUBC    R5,R7
 4453 000008AA 364A                   M           SUBC    R4,R6
 4454                            1383     
 4455 000008AC 4611              1384             CMP/PZ  R6                                                      ;R6,R7 >= R4,R5 TH
                                          EN R4,R5を引ける
 4456 000008AE 8909              1385             BT      ROOT2_050                       ;YES JUMP
 4457                            1386     ;       ----- 引けない時 ------
 4458                            1387     ;       R8:そのまま + 0
 4459                            1388             POP_REG1 R7                             ;
 4460                                 M                                   ; RE"+4" 00,00,00,04
 4461 000008B0 67F6                   M           MOV.L   @R15+,R7        ;
 4462                            1389             POP_REG1 R6                             ;
 4463                                 M                                   ; RE"+4" 00,00,00,04
 4464 000008B2 66F6                   M           MOV.L   @R15+,R6        ;
 4465 000008B4 4300              1390             SHLL    R3                              ;平方根結果=0
 4466                            1391             M_BRA   ROOT2_100                       ;
 4467 000008B6 A00F                   M           BRA     ROOT2_100
 4468 000008B8 0009                   M           NOP
 4469                            1392     
 4470                            1393     
 4471                                     ***** BEGIN-POOL *****
 4472 000008BA 0000                       ALIGNMENT CODE
 4473 000008BC 00000001                   DATA FOR SOURCE-LINE 1355
 4474 000008C0 00000020                   DATA FOR SOURCE-LINE 1356
 4475                                     ***** END-POOL *****
 4476 000008C4                   1394     ROOT2_050:
 4477                            1395     ;       ----- 引ける時[R6,R7=R6,R7-R4,R5] ------
 4478                            1396             POP_REG1 R0                             ;
 4479                                 M                                   ; RE"+4" 00,00,00,04
 4480 000008C4 60F6                   M           MOV.L   @R15+,R0        ;
 4481                            1397             POP_REG1 R0                             ;ﾀﾞﾐｰでｽﾀｯｸを戻す
 4482                                 M                                   ; RE"+4" 00,00,00,04
 4483 000008C6 60F6                   M           MOV.L   @R15+,R0        ;
 4484                            1398     
 4485 000008C8 6843              1399             MOV     R4,R8                           ;途中演算ﾃﾞｰﾀ
 4486 000008CA 6953              1400             MOV     R5,R9                           ;
 4487                            1401     
 4488 000008CC 200A              1402             XOR     R0,R0                           ;
 4489 000008CE 0008              1403             CLRT                                    ;
 4490 000008D0 39AE              1404             ADDC    R10,R9                          ;
 4491 000008D2 380E              1405             ADDC    R0,R8                           ;+1
 4492                            1406     
 4493 000008D4 4300              1407             SHLL    R3                              ;
 4494 000008D6 23AB              1408             OR      R10,R3                          ;平方根結果=1ｾｯﾄ
*** SuperH RISC engine ASSEMBLER V.7.01.02.000 ***    11/14/21 17:24:25                                                  PAGE    41
PROGRAM NAME =

 4495 000008D8                   1409     ROOT2_100:
 4496                            1410     
 4497 000008D8 4B10              1411             DT      R11
 4498 000008DA 8901              1412             BT      ROOT2_EXIT                      ;ｶｳﾝﾀ-1=0 END
 4499                            1413             M_BRA   ROOT2_020                       ;
 4500 000008DC AFD4                   M           BRA     ROOT2_020
 4501 000008DE 0009                   M           NOP
 4502                            1414     
 4503 000008E0                   1415     ROOT2_EXIT:
 4504 000008E0 6233              1416             MOV     R3,R2                           ;
 4505                            1417             SUB_END
 4506                                 M   ;;;;;;; ADD     #4,R15                  ;[不要?]
 4507 000008E2 4F26                   M           LDS.L   @R15+,PR                ;[必要]
 4508                            1418             M_RTS                                   ;
 4509 000008E4 000B                   M           RTS                             ;RTSの後ろの
 4510 000008E6 0009                   M           NOP                             ;@R15+,PRはﾀﾞﾒ
 4511                            1419     
 4512                            1420     
 4513                            1421     ;       ----------確認プログラム------------
 4514                            1422     ;;      MOV.L   #_root_chk_work,R1              ;
 4515                            1423     ;;      MOV.L   @R1,R2                          ;
 4516                            1424     ;;      CMP/PZ  R2                              ;
 4517                            1425     ;;      BF      TST_SUB_START100                ;
 4518                            1426     ;;      SHLL    R2                              ;
 4519                            1427     ;;      ADD     #1,R2                           ;
 4520                            1428     ;;      MOV.L   R2,@R1                          ;
 4521                            1429     ;;
 4522                            1430     ;;      DMULU.L R2,R2                           ;
 4523                            1431     ;;      STS     MACH,R1                         ;
 4524                            1432     ;;      STS     MACL,R2                         ;
 4525                            1433     ;;
 4526                            1434     ;;      FAR_JSR #_ROOT2_64R1R2_ANS_R3,R0        ;
 4527                            1435     ;;      MOV     R3,R4                           ;ANS R3
 4528                            1436     ;;
 4529                            1437     ;;
 4530                            1438     ;;      MOV.L   #_root_chk_work,R1              ;
 4531                            1439     ;;      MOV.L   @R1,R2                          ;
 4532                            1440     ;;      CMP/EQ  R2,R3                           ;
 4533                            1441     ;;      BT      TST_SUB_START050                ;
 4534                            1442     ;;      NOP                                     ;ERR
 4535                            1443     ;;      M_BRA   TST_SUB_START100                ;
 4536                            1444     ;;TST_SUB_START050:
 4537                            1445     ;;      NOP
 4538                            1446     ;;TST_SUB_START100:
 4539                            1447     ;
 4540                            1448     
 4541                            1449     
 4542                            1450     ;       *******************************************
 4543                            1451     ;       ***                                     ***
 4544                            1452     ;       ***             以下は通常ｾｸｼｮﾝ         ***
 4545                            1453     ;       ***             2013-03-15              ***
 4546                            1454     ;       *******************************************
 4547 000008E8                   1455             .ALIGN  4
 4548                            1456             .AIF    3 EQ 3
 4549 00000000                   1457 C           .SECTION        P,CODE                          ;
 4550                            1458             .AENDI
 4551                            1459     
*** SuperH RISC engine ASSEMBLER V.7.01.02.000 ***    11/14/21 17:24:25                                                  PAGE    42
PROGRAM NAME =

 4552                            1460     ;       *******************************************
 4553                            1461     ;       ***                                     ***
 4554                            1462     ;       ***             三角関数テーブル        ***
 4555                            1463     ;       ***                                     ***
 4556                            1464     ;       *******************************************
 4557                            1465     ;       0~90度まで[]
 4558 00000000                   1466             .ALIGN  4
 4559 00000000 0000005A          1467     _COS_DIG1_INFO_CNT      .DATA.L         90              ;最大の商
 4560 00000004 000003E8          1468     _COS_DIG1_INFO_UNIT     .DATA.L         1000            ;1.000度単位[内部0.001度に対してﾃｰ
                                          ﾌﾞﾙ1度だから1000]
 4561 00000008 000F4240          1469     _COS_DIG1_UNIT_COEF     .DATA.L         1000000         ;1.000000=1000000
 4562                            1470     
 4563 0000000C                   1471             .ALIGN  4
 4564 0000000C                   1472     _COS_DIG1_TOP
 4565 0000000C 000F4240          1473                     .DATA.L         1000000         ;0~0.999 1.00000
 4566 00000010 000F41A8          1474                     .DATA.L         0999848         ;1~1.999
 4567 00000014 000F3FDF          1475                     .DATA.L         0999391         ;2
 4568 00000018 000F3CE6          1476                     .DATA.L         0998630         ;3
 4569 0000001C 000F38BC          1477                     .DATA.L         0997564         ;4
 4570 00000020 000F3363          1478                     .DATA.L         0996195         ;5
 4571 00000024 000F2CDA          1479                     .DATA.L         0994522         ;6
 4572 00000028 000F2522          1480                     .DATA.L         0992546         ;7
 4573 0000002C 000F1C3C          1481                     .DATA.L         0990268         ;8
 4574 00000030 000F1228          1482                     .DATA.L         0987688         ;9
 4575 00000034 000F06E8          1483                     .DATA.L         0984808         ;10
 4576 00000038 000EFA7B          1484                     .DATA.L         0981627         ;11
 4577 0000003C 000EECE4          1485                     .DATA.L         0978148         ;12
 4578 00000040 000EDE22          1486                     .DATA.L         0974370         ;13
 4579 00000044 000ECE38          1487                     .DATA.L         0970296         ;14
 4580 00000048 000EBD26          1488                     .DATA.L         0965926         ;15
 4581 0000004C 000EAAEE          1489                     .DATA.L         0961262         ;16
 4582 00000050 000E9791          1490                     .DATA.L         0956305         ;17
 4583 00000054 000E8311          1491                     .DATA.L         0951057         ;18
 4584 00000058 000E6D6F          1492                     .DATA.L         0945519         ;19
 4585 0000005C 000E56AD          1493                     .DATA.L         0939693         ;20
 4586 00000060 000E3ECC          1494                     .DATA.L         0933580         ;21
 4587 00000064 000E25D0          1495                     .DATA.L         0927184         ;22
 4588 00000068 000E0BB9          1496                     .DATA.L         0920505         ;23
 4589 0000006C 000DF089          1497                     .DATA.L         0913545         ;24
 4590 00000070 000DD444          1498                     .DATA.L         0906308         ;25
 4591 00000074 000DB6EA          1499                     .DATA.L         0898794         ;26
 4592 00000078 000D987F          1500                     .DATA.L         0891007         ;27
 4593 0000007C 000D7904          1501                     .DATA.L         0882948         ;28
 4594 00000080 000D587C          1502                     .DATA.L         0874620         ;29
 4595 00000084 000D36E9          1503                     .DATA.L         0866025         ;30
 4596 00000088 000D144F          1504                     .DATA.L         0857167         ;31
 4597 0000008C 000CF0B0          1505                     .DATA.L         0848048         ;32
 4598 00000090 000CCC0F          1506                     .DATA.L         0838671         ;33
 4599 00000094 000CA66E          1507                     .DATA.L         0829038         ;34
 4600 00000098 000C7FD0          1508                     .DATA.L         0819152         ;35
 4601 0000009C 000C5839          1509                     .DATA.L         0809017         ;36
 4602 000000A0 000C2FAC          1510                     .DATA.L         0798636         ;37
 4603 000000A4 000C062B          1511                     .DATA.L         0788011         ;38
 4604 000000A8 000BDBBA          1512                     .DATA.L         0777146         ;39
 4605 000000AC 000BB05C          1513                     .DATA.L         0766044         ;40
 4606 000000B0 000B8416          1514                     .DATA.L         0754710         ;41
 4607 000000B4 000B56E9          1515                     .DATA.L         0743145         ;42
*** SuperH RISC engine ASSEMBLER V.7.01.02.000 ***    11/14/21 17:24:25                                                  PAGE    43
PROGRAM NAME =

 4608 000000B8 000B28DA          1516                     .DATA.L         0731354         ;43
 4609 000000BC 000AF9EC          1517                     .DATA.L         0719340         ;44
 4610 000000C0 000ACA23          1518                     .DATA.L         0707107         ;45
 4611 000000C4 000A9982          1519                     .DATA.L         0694658         ;46
 4612 000000C8 000A680E          1520                     .DATA.L         0681998         ;47
 4613 000000CC 000A35CB          1521                     .DATA.L         0669131         ;48
 4614 000000D0 000A02BB          1522                     .DATA.L         0656059         ;49
 4615 000000D4 0009CEE4          1523                     .DATA.L         0642788         ;50
 4616 000000D8 00099A48          1524                     .DATA.L         0629320         ;51
 4617 000000DC 000964ED          1525                     .DATA.L         0615661         ;52
 4618 000000E0 00092ED7          1526                     .DATA.L         0601815         ;53
 4619 000000E4 0008F809          1527                     .DATA.L         0587785         ;54
 4620 000000E8 0008C088          1528                     .DATA.L         0573576         ;55
 4621 000000EC 00088859          1529                     .DATA.L         0559193         ;56
 4622 000000F0 00084F7F          1530                     .DATA.L         0544639         ;57
 4623 000000F4 000815FF          1531                     .DATA.L         0529919         ;58
 4624 000000F8 0007DBDE          1532                     .DATA.L         0515038         ;59
 4625 000000FC 0007A120          1533                     .DATA.L         0500000         ;60
 4626 00000100 000765CA          1534                     .DATA.L         0484810         ;61
 4627 00000104 000729E0          1535                     .DATA.L         0469472         ;62
 4628 00000108 0006ED66          1536                     .DATA.L         0453990         ;63
 4629 0000010C 0006B063          1537                     .DATA.L         0438371         ;64
 4630 00000110 000672DA          1538                     .DATA.L         0422618         ;65
 4631 00000114 000634D1          1539                     .DATA.L         0406737         ;66
 4632 00000118 0005F64B          1540                     .DATA.L         0390731         ;67
 4633 0000011C 0005B74F          1541                     .DATA.L         0374607         ;68
 4634 00000120 000577E0          1542                     .DATA.L         0358368         ;69
 4635 00000124 00053804          1543                     .DATA.L         0342020         ;70
 4636 00000128 0004F7C0          1544                     .DATA.L         0325568         ;71
 4637 0000012C 0004B719          1545                     .DATA.L         0309017         ;72
 4638 00000130 00047614          1546                     .DATA.L         0292372         ;73
 4639 00000134 000434B5          1547                     .DATA.L         0275637         ;74
 4640 00000138 0003F303          1548                     .DATA.L         0258819         ;75
 4641 0000013C 0003B102          1549                     .DATA.L         0241922         ;76
 4642 00000140 00036EB7          1550                     .DATA.L         0224951         ;77
 4643 00000144 00032C28          1551                     .DATA.L         0207912         ;78
 4644 00000148 0002E959          1552                     .DATA.L         0190809         ;79
 4645 0000014C 0002A650          1553                     .DATA.L         0173648         ;80
 4646 00000150 00026312          1554                     .DATA.L         0156434         ;81
 4647 00000154 00021FA5          1555                     .DATA.L         0139173         ;82
 4648 00000158 0001DC0D          1556                     .DATA.L         0121869         ;83
 4649 0000015C 00019850          1557                     .DATA.L         0104528         ;84
 4650 00000160 00015474          1558                     .DATA.L         0087156         ;85
 4651 00000164 0001107C          1559                     .DATA.L         0069756         ;86
 4652 00000168 0000CC70          1560                     .DATA.L         0052336         ;87
 4653 0000016C 00008853          1561                     .DATA.L         0034899         ;88
 4654 00000170 0000442C          1562                     .DATA.L         0017452         ;89~89.999
 4655 00000174 00000000          1563                     .DATA.L         0000000         ;90
 4656                            1564     
 4657                            1565     
 4658                            1566     
 4659                            1567     ;       ***********************************************************
 4660                            1568     ;       ***                                                     ***
 4661                            1569     ;       ***     [16byte]R5,R6,R1,R2/R3,R4[8byte]=R1,R2[8byte]   ***
 4662                            1570     ;       ***                                                     ***
 4663                            1571     ;       ***********************************************************
 4664                            1572     ;       input R5,R6,R1,R2/R3,R4
*** SuperH RISC engine ASSEMBLER V.7.01.02.000 ***    11/14/21 17:24:25                                                  PAGE    44
PROGRAM NAME =

 4665                            1573     
 4666                            1574             .MACRO  NEG128_R5R6R1R2_WKR8
 4667                            1575     
 4668                            1576             XOR     R8,R8   ;
 4669                            1577     
 4670                            1578             NOT     R5,R5
 4671                            1579             NOT     R6,R6
 4672                            1580             NOT     R1,R1
 4673                            1581             NOT     R2,R2
 4674                            1582     
 4675                            1583     
 4676                            1584             SETT
 4677                            1585             ADDC    R8,R2
 4678                            1586             ADDC    R8,R1
 4679                            1587             ADDC    R8,R6
 4680                            1588             ADDC    R8,R5
 4681                            1589     
 4682                            1590             .ENDM
 4683                            1591     
 4684                            1592     
 4685                            1593     
 4686                            1594     
 4687 00000178                   1595             .ALIGN  4
 4688                            1596             .EXPORT _DIVS1_16B_DIV_8B_ANS_8B                ;
 4689 00000178                   1597     _DIVS1_16B_DIV_8B_ANS_8B
 4690                            1598             SUB_START
 4691 00000178 4F22                   M           STS.L   PR,@-R15                ;[必要]
 4692                                 M   ;;;;;;; ADD     #-4,R15                 ;[不要?]
 4693                            1599             PUSH_REG1 R7            ;LOOP
 4694 0000017A 2F76                   M           MOV.L   R7,@-R15                ;PUSH=SP-4
 4695                                 M                                           ;REG=>[SP]
 4696                                 M                                           ;"-4" FF,FF,FF,FC
 4697                            1600             PUSH_REG1 R8            ;
 4698 0000017C 2F86                   M           MOV.L   R8,@-R15                ;PUSH=SP-4
 4699                                 M                                           ;REG=>[SP]
 4700                                 M                                           ;"-4" FF,FF,FF,FC
 4701                            1601             PUSH_REG1 R9            ;
 4702 0000017E 2F96                   M           MOV.L   R9,@-R15                ;PUSH=SP-4
 4703                                 M                                           ;REG=>[SP]
 4704                                 M                                           ;"-4" FF,FF,FF,FC
 4705                            1602             PUSH_REG1 R10           ;ANS
 4706 00000180 2FA6                   M           MOV.L   R10,@-R15               ;PUSH=SP-4
 4707                                 M                                           ;REG=>[SP]
 4708                                 M                                           ;"-4" FF,FF,FF,FC
 4709                            1603             PUSH_REG1 R11           ;ANS
 4710 00000182 2FB6                   M           MOV.L   R11,@-R15               ;PUSH=SP-4
 4711                                 M                                           ;REG=>[SP]
 4712                                 M                                           ;"-4" FF,FF,FF,FC
 4713                            1604             PUSH_REG1 R12           ;
 4714 00000184 2FC6                   M           MOV.L   R12,@-R15               ;PUSH=SP-4
 4715                                 M                                           ;REG=>[SP]
 4716                                 M                                           ;"-4" FF,FF,FF,FC
 4717                            1605             PUSH_REG1 R13           ;
 4718 00000186 2FD6                   M           MOV.L   R13,@-R15               ;PUSH=SP-4
 4719                                 M                                           ;REG=>[SP]
 4720                                 M                                           ;"-4" FF,FF,FF,FC
 4721                            1606             PUSH_REG1 R14           ;SHIN
*** SuperH RISC engine ASSEMBLER V.7.01.02.000 ***    11/14/21 17:24:25                                                  PAGE    45
PROGRAM NAME =

 4722 00000188 2FE6                   M           MOV.L   R14,@-R15               ;PUSH=SP-4
 4723                                 M                                           ;REG=>[SP]
 4724                                 M                                           ;"-4" FF,FF,FF,FC
 4725                            1607     
 4726 0000018A 9722              1608             MOV.W   #D'64,R7        ;
 4727                            1609     
 4728 0000018C 2EEA              1610             XOR     R14,R14         ;
 4729 0000018E 4511              1611             CMP/PZ  R5              ;
 4730 00000190 890A              1612             BT      DIVS1_16B_DIV_8BANS8B_100
 4731 00000192 6EE7              1613             NOT     R14,R14         ;符号　"-1"
 4732                            1614     
 4733                            1615             NEG128_R5R6R1R2_WKR8    ;R5R6R1R2=>R5R6R1R2
 4734                                 M   
 4735 00000194 288A                   M           XOR     R8,R8   ;
 4736                                 M   
 4737 00000196 6557                   M           NOT     R5,R5
 4738 00000198 6667                   M           NOT     R6,R6
 4739 0000019A 6117                   M           NOT     R1,R1
 4740 0000019C 6227                   M           NOT     R2,R2
 4741                                 M   
 4742                                 M   
 4743 0000019E 0018                   M           SETT
 4744 000001A0 328E                   M           ADDC    R8,R2
 4745 000001A2 318E                   M           ADDC    R8,R1
 4746 000001A4 368E                   M           ADDC    R8,R6
 4747 000001A6 358E                   M           ADDC    R8,R5
 4748                                 M   
 4749                            1616     
 4750 000001A8                   1617     DIVS1_16B_DIV_8BANS8B_100
 4751                            1618     
 4752 000001A8 4311              1619             CMP/PZ  R3
 4753 000001AA 8906              1620             BT      DIVS1_16B_DIV_8BANS8B_200
 4754 000001AC 6EE7              1621             NOT     R14,R14         ;符号　"-1"
 4755                            1622     
 4756                            1623             NEG1_64 H_REG=R1,L_REG=R2,WKREG=R8
 4757 000001AE 6227                   M           NOT     R2,R2                           ;
 4758 000001B0 6117                   M           NOT     R1,R1                           ;
 4759 000001B2 288A                   M           XOR     R8,R8                           ;
 4760 000001B4 0018                   M           SETT
 4761 000001B6 328E                   M           ADDC    R8,R2                           ;0+1+R2
 4762 000001B8 318E                   M           ADDC    R8,R1                           ;
 4763                            1624     
 4764                            1625     
 4765                            1626     
 4766 000001BA                   1627     DIVS1_16B_DIV_8BANS8B_200
 4767 000001BA 0009              1628             NOP
 4768                            1629     
 4769 000001BC 2AAA              1630             XOR     R10,R10         ;"H"
 4770 000001BE 200A              1631             XOR     R0,R0           ;"L"
 4771                            1632     
 4772                            1633     ;       ------------- ｵｰﾊﾞﾌﾛﾁｪｯｸ---------
 4773 000001C0 6C53              1634             MOV     R5,R12
 4774 000001C2 6D63              1635             MOV     R6,R13
 4775 000001C4 0008              1636             CLRT
 4776 000001C6 3D4A              1637             SUBC    R4,R13                          ;
 4777 000001C8 3C3A              1638             SUBC    R3,R12                          ;演算結果 "CY=0 引けた"
 4778 000001CA 8903              1639             BT      DIVS1_16B_DIV_8BANS8B_LOP       ;引けなったOK
*** SuperH RISC engine ASSEMBLER V.7.01.02.000 ***    11/14/21 17:24:25                                                  PAGE    46
PROGRAM NAME =

 4779 000001CC 0009              1640             NOP
 4780                            1641     
 4781                            1642             M_BRA   DIVS1_16B_DIV_8BANS8B_500       ;ｵｰﾊﾞﾌﾛ
 4782 000001CE A01F                   M           BRA     DIVS1_16B_DIV_8BANS8B_500
 4783 000001D0 0009                   M           NOP
 4784                            1643     
 4785                            1644     
 4786                                     ***** BEGIN-POOL *****
 4787 000001D2 0040                       DATA FOR SOURCE-LINE 1608
 4788                                     ***** END-POOL *****
 4789 000001D4                   1645     DIVS1_16B_DIV_8BANS8B_LOP
 4790 000001D4 4200              1646             SHLL    R2      ;
 4791 000001D6 4124              1647             ROTCL   R1      ;
 4792 000001D8 4624              1648             ROTCL   R6      ;
 4793 000001DA 4524              1649             ROTCL   R5      ;R5,R6,R1,R2
 4794                            1650     
 4795 000001DC 6C53              1651             MOV     R5,R12
 4796 000001DE 6D63              1652             MOV     R6,R13
 4797                            1653     
 4798 000001E0 0008              1654             CLRT
 4799 000001E2 3D4A              1655             SUBC    R4,R13                          ;
 4800 000001E4 3C3A              1656             SUBC    R3,R12                          ;演算結果 "CY=0 引けた"
 4801                            1657                                                     ;CY=0:引けた　結果を一旦そのまま入れる
 4802 000001E6 4024              1658             ROTCL   R0                              ;
 4803 000001E8 4A24              1659             ROTCL   R10                             ;[R10,R0]
 4804 000001EA C801              1660             TST     #BIT0,R0                        ;
 4805                            1661             TST_BIT_ON DIVS1_16B_DIV_8BANS8B_300    ;CY=1:引けなかった
 4806 000001EC 8B01                   M           BF      DIVS1_16B_DIV_8BANS8B_300
 4807                            1662     
 4808 000001EE 65C3              1663             MOV     R12,R5                          ;CY=0:引けた
 4809 000001F0 66D3              1664             MOV     R13,R6                          ;引いた結果を反映
 4810                            1665     
 4811 000001F2                   1666     DIVS1_16B_DIV_8BANS8B_300
 4812                            1667     
 4813 000001F2 77FF              1668             ADD     #-1,R7                          ;
 4814 000001F4 2778              1669             TST     R7,R7                           ;
 4815                            1670             TST_BIT_ON DIVS1_16B_DIV_8BANS8B_LOP    ;
 4816 000001F6 8BED                   M           BF      DIVS1_16B_DIV_8BANS8B_LOP
 4817                            1671     
 4818                            1672     
 4819 000001F8 6AA7              1673             NOT     R10,R10                         ;CYの反転
 4820 000001FA 6007              1674             NOT     R0,R0                           ;
 4821                            1675     
 4822                            1676     
 4823 000001FC 61A3              1677             MOV     R10,R1                          ;下位8BYTE SAVE
 4824 000001FE 6203              1678             MOV     R0,R2                           ;
 4825                            1679     
 4826                            1680     
 4827 00000200 2EE8              1681             TST     R14,R14                         ;
 4828                            1682             TST_BIT_OF DIVS1_16B_DIV_8BANS8B_500
 4829 00000202 8905                   M           BT      DIVS1_16B_DIV_8BANS8B_500
 4830                            1683     
 4831                            1684             NEG1_64 H_REG=R1,L_REG=R2,WKREG=R8
 4832 00000204 6227                   M           NOT     R2,R2                           ;
 4833 00000206 6117                   M           NOT     R1,R1                           ;
 4834 00000208 288A                   M           XOR     R8,R8                           ;
 4835 0000020A 0018                   M           SETT
*** SuperH RISC engine ASSEMBLER V.7.01.02.000 ***    11/14/21 17:24:25                                                  PAGE    47
PROGRAM NAME =

 4836 0000020C 328E                   M           ADDC    R8,R2                           ;0+1+R2
 4837 0000020E 318E                   M           ADDC    R8,R1                           ;
 4838                            1685     
 4839                            1686     
 4840 00000210                   1687     DIVS1_16B_DIV_8BANS8B_500
 4841                            1688     
 4842                            1689     
 4843                            1690             POP_REG1 R14
 4844                                 M                                   ; RE"+4" 00,00,00,04
 4845 00000210 6EF6                   M           MOV.L   @R15+,R14        ;
 4846                            1691             POP_REG1 R13
 4847                                 M                                   ; RE"+4" 00,00,00,04
 4848 00000212 6DF6                   M           MOV.L   @R15+,R13        ;
 4849                            1692             POP_REG1 R12
 4850                                 M                                   ; RE"+4" 00,00,00,04
 4851 00000214 6CF6                   M           MOV.L   @R15+,R12        ;
 4852                            1693             POP_REG1 R11
 4853                                 M                                   ; RE"+4" 00,00,00,04
 4854 00000216 6BF6                   M           MOV.L   @R15+,R11        ;
 4855                            1694             POP_REG1 R10
 4856                                 M                                   ; RE"+4" 00,00,00,04
 4857 00000218 6AF6                   M           MOV.L   @R15+,R10        ;
 4858                            1695             POP_REG1 R9
 4859                                 M                                   ; RE"+4" 00,00,00,04
 4860 0000021A 69F6                   M           MOV.L   @R15+,R9        ;
 4861                            1696             POP_REG1 R8
 4862                                 M                                   ; RE"+4" 00,00,00,04
 4863 0000021C 68F6                   M           MOV.L   @R15+,R8        ;
 4864                            1697             POP_REG1 R7
 4865                                 M                                   ; RE"+4" 00,00,00,04
 4866 0000021E 67F6                   M           MOV.L   @R15+,R7        ;
 4867                            1698     
 4868                            1699             SUB_END
 4869                                 M   ;;;;;;; ADD     #4,R15                  ;[不要?]
 4870 00000220 4F26                   M           LDS.L   @R15+,PR                ;[必要]
 4871                            1700             M_RTS
 4872 00000222 000B                   M           RTS                             ;RTSの後ろの
 4873 00000224 0009                   M           NOP                             ;@R15+,PRはﾀﾞﾒ
 4874                            1701     
 4875                            1702     
 4876                            1703     
 4877                            1704     ;       *******************************************************************
 4878                            1705     ;       ***                                                             ***
 4879                            1706     ;       ***     [8byteR1,R2]*[8byte R5,R6]=[16byte R5,R6,R1,R2]         ***
 4880                            1707     ;       ***                                                             ***
 4881                            1708     ;       *******************************************************************
 4882                            1709     ;       R0,R1,R2,R3,R4,R5,R6 DESTORY
 4883                            1710             .EXPORT _SMUL1_R1R2_MUL_R5R6_ANS
 4884 00000226                   1711     _SMUL1_R1R2_MUL_R5R6_ANS
 4885                            1712             SUB_START
 4886 00000226 4F22                   M           STS.L   PR,@-R15                ;[必要]
 4887                                 M   ;;;;;;; ADD     #-4,R15                 ;[不要?]
 4888                            1713     
 4889                            1714             PUSH_REG1 R8            ;
 4890 00000228 2F86                   M           MOV.L   R8,@-R15                ;PUSH=SP-4
 4891                                 M                                           ;REG=>[SP]
 4892                                 M                                           ;"-4" FF,FF,FF,FC
*** SuperH RISC engine ASSEMBLER V.7.01.02.000 ***    11/14/21 17:24:25                                                  PAGE    48
PROGRAM NAME =

 4893                            1715             PUSH_REG1 R9            ;
 4894 0000022A 2F96                   M           MOV.L   R9,@-R15                ;PUSH=SP-4
 4895                                 M                                           ;REG=>[SP]
 4896                                 M                                           ;"-4" FF,FF,FF,FC
 4897                            1716             PUSH_REG1 R10           ;
 4898 0000022C 2FA6                   M           MOV.L   R10,@-R15               ;PUSH=SP-4
 4899                                 M                                           ;REG=>[SP]
 4900                                 M                                           ;"-4" FF,FF,FF,FC
 4901                            1717             PUSH_REG1 R11           ;
 4902 0000022E 2FB6                   M           MOV.L   R11,@-R15               ;PUSH=SP-4
 4903                                 M                                           ;REG=>[SP]
 4904                                 M                                           ;"-4" FF,FF,FF,FC
 4905                            1718             PUSH_REG1 R12           ;
 4906 00000230 2FC6                   M           MOV.L   R12,@-R15               ;PUSH=SP-4
 4907                                 M                                           ;REG=>[SP]
 4908                                 M                                           ;"-4" FF,FF,FF,FC
 4909                            1719             PUSH_REG1 R13           ;
 4910 00000232 2FD6                   M           MOV.L   R13,@-R15               ;PUSH=SP-4
 4911                                 M                                           ;REG=>[SP]
 4912                                 M                                           ;"-4" FF,FF,FF,FC
 4913                            1720             PUSH_REG1 R14           ;SHIN
 4914 00000234 2FE6                   M           MOV.L   R14,@-R15               ;PUSH=SP-4
 4915                                 M                                           ;REG=>[SP]
 4916                                 M                                           ;"-4" FF,FF,FF,FC
 4917                            1721     
 4918 00000236 2EEA              1722             XOR     R14,R14                 ;
 4919 00000238 4111              1723             CMP/PZ  R1                      ;
 4920 0000023A 8906              1724             BT      SMUL1_8B_M_8B100
 4921 0000023C 6EE7              1725             NOT     R14,R14                 ;符号　"-1"
 4922                            1726     
 4923                            1727             NEG1_64 H_REG=R1,L_REG=R2,WKREG=R0
 4924 0000023E 6227                   M           NOT     R2,R2                           ;
 4925 00000240 6117                   M           NOT     R1,R1                           ;
 4926 00000242 200A                   M           XOR     R0,R0                           ;
 4927 00000244 0018                   M           SETT
 4928 00000246 320E                   M           ADDC    R0,R2                           ;0+1+R2
 4929 00000248 310E                   M           ADDC    R0,R1                           ;
 4930                            1728     
 4931 0000024A                   1729     SMUL1_8B_M_8B100
 4932                            1730     
 4933 0000024A 4511              1731             CMP/PZ  R5                      ;
 4934 0000024C 8906              1732             BT      SMUL1_8B_M_8B200        ;
 4935 0000024E 6EE7              1733             NOT     R14,R14                 ;符号　"-1"
 4936                            1734     
 4937                            1735             NEG1_64 H_REG=R5,L_REG=R6,WKREG=R0
 4938 00000250 6667                   M           NOT     R6,R6                           ;
 4939 00000252 6557                   M           NOT     R5,R5                           ;
 4940 00000254 200A                   M           XOR     R0,R0                           ;
 4941 00000256 0018                   M           SETT
 4942 00000258 360E                   M           ADDC    R0,R6                           ;0+1+R2
 4943 0000025A 350E                   M           ADDC    R0,R5                           ;
 4944                            1736     
 4945                            1737     
 4946 0000025C                   1738     SMUL1_8B_M_8B200
 4947                            1739     
 4948 0000025C 3625              1740             DMULU.L R2,R6                   ;
 4949 0000025E 0A0A              1741             STS     MACH,R10                ;
*** SuperH RISC engine ASSEMBLER V.7.01.02.000 ***    11/14/21 17:24:25                                                  PAGE    49
PROGRAM NAME =

 4950 00000260 0B1A              1742             STS     MACL,R11                ;
 4951                            1743     
 4952 00000262 3525              1744             DMULU.L R2,R5                   ;
 4953 00000264 0C0A              1745             STS     MACH,R12                ;
 4954 00000266 0D1A              1746             STS     MACL,R13                ;
 4955                            1747     
 4956 00000268 3615              1748             DMULU.L R1,R6                   ;
 4957 0000026A 030A              1749             STS     MACH,R3                 ;
 4958 0000026C 001A              1750             STS     MACL,R0                 ;
 4959                            1751     
 4960 0000026E 3515              1752             DMULU.L R1,R5                   ;
 4961 00000270 050A              1753             STS     MACH,R5                 ;
 4962 00000272 061A              1754             STS     MACL,R6                 ;
 4963                            1755     
 4964 00000274 6103              1756             MOV     R0,R1                   ;
 4965                            1757     
 4966                            1758     ;       [R5 ,R6 ]
 4967                            1759     ;           [R3 ,R1]
 4968                            1760     ;           [R12,R13]
 4969                            1761     ;               [R10,R11]
 4970                            1762     ;----------------------------
 4971                            1763     ;       [R5 ,R6 ,R1 ,R2 ]
 4972 00000276 62B3              1764             MOV     R11,R2                  ;
 4973 00000278 200A              1765             XOR     R0,R0                   ;CY
 4974 0000027A 244A              1766             XOR     R4,R4                   ;CY
 4975 0000027C 0008              1767             CLRT
 4976 0000027E 3DAE              1768             ADDC    R10,R13                 ;
 4977 00000280 300E              1769             ADDC    R0,R0                   ;
 4978 00000282 31DE              1770             ADDC    R13,R1                  ;[R1,R2]
 4979 00000284 344E              1771             ADDC    R4,R4                   ;
 4980 00000286 304C              1772             ADD     R4,R0                   ;R0=CY+CY
 4981                            1773     
 4982 00000288 2AAA              1774             XOR     R10,R10                 ;CY
 4983 0000028A 2BBA              1775             XOR     R11,R11                 ;CY
 4984 0000028C 2DDA              1776             XOR     R13,R13                 ;CY
 4985 0000028E 0008              1777             CLRT
 4986 00000290 363E              1778             ADDC    R3,R6                   ;
 4987 00000292 3AAE              1779             ADDC    R10,R10                 ;
 4988 00000294 36CE              1780             ADDC    R12,R6                  ;
 4989 00000296 3BBE              1781             ADDC    R11,R11                 ;
 4990 00000298 360E              1782             ADDC    R0,R6                   ;
 4991 0000029A 3DDE              1783             ADDC    R13,R13                 ;
 4992                            1784     
 4993 0000029C 35AC              1785             ADD     R10,R5
 4994 0000029E 35BC              1786             ADD     R11,R5
 4995 000002A0 35DC              1787             ADD     R13,R5
 4996                            1788     
 4997                            1789     
 4998 000002A2 2EE8              1790             TST     R14,R14                 ;符号　"-1"
 4999                            1791             TST_BIT_OF SMUL1_8B_M_8B300     ;
 5000 000002A4 8909                   M           BT      SMUL1_8B_M_8B300
 5001                            1792     
 5002                            1793             NEG128_R5R6R1R2_WKR8    ;R5R6R1R2=>R5R6R1R2
 5003                                 M   
 5004 000002A6 288A                   M           XOR     R8,R8   ;
 5005                                 M   
 5006 000002A8 6557                   M           NOT     R5,R5
*** SuperH RISC engine ASSEMBLER V.7.01.02.000 ***    11/14/21 17:24:25                                                  PAGE    50
PROGRAM NAME =

 5007 000002AA 6667                   M           NOT     R6,R6
 5008 000002AC 6117                   M           NOT     R1,R1
 5009 000002AE 6227                   M           NOT     R2,R2
 5010                                 M   
 5011                                 M   
 5012 000002B0 0018                   M           SETT
 5013 000002B2 328E                   M           ADDC    R8,R2
 5014 000002B4 318E                   M           ADDC    R8,R1
 5015 000002B6 368E                   M           ADDC    R8,R6
 5016 000002B8 358E                   M           ADDC    R8,R5
 5017                                 M   
 5018                            1794     
 5019                            1795     
 5020 000002BA                   1796     SMUL1_8B_M_8B300
 5021                            1797     
 5022                            1798             POP_REG1 R14            ;SHIN
 5023                                 M                                   ; RE"+4" 00,00,00,04
 5024 000002BA 6EF6                   M           MOV.L   @R15+,R14        ;
 5025                            1799             POP_REG1 R13
 5026                                 M                                   ; RE"+4" 00,00,00,04
 5027 000002BC 6DF6                   M           MOV.L   @R15+,R13        ;
 5028                            1800             POP_REG1 R12
 5029                                 M                                   ; RE"+4" 00,00,00,04
 5030 000002BE 6CF6                   M           MOV.L   @R15+,R12        ;
 5031                            1801             POP_REG1 R11
 5032                                 M                                   ; RE"+4" 00,00,00,04
 5033 000002C0 6BF6                   M           MOV.L   @R15+,R11        ;
 5034                            1802             POP_REG1 R10
 5035                                 M                                   ; RE"+4" 00,00,00,04
 5036 000002C2 6AF6                   M           MOV.L   @R15+,R10        ;
 5037                            1803             POP_REG1 R9
 5038                                 M                                   ; RE"+4" 00,00,00,04
 5039 000002C4 69F6                   M           MOV.L   @R15+,R9        ;
 5040                            1804             POP_REG1 R8
 5041                                 M                                   ; RE"+4" 00,00,00,04
 5042 000002C6 68F6                   M           MOV.L   @R15+,R8        ;
 5043                            1805     
 5044                            1806             SUB_END
 5045                                 M   ;;;;;;; ADD     #4,R15                  ;[不要?]
 5046 000002C8 4F26                   M           LDS.L   @R15+,PR                ;[必要]
 5047                            1807             M_RTS
 5048 000002CA 000B                   M           RTS                             ;RTSの後ろの
 5049 000002CC 0009                   M           NOP                             ;@R15+,PRはﾀﾞﾒ
 5050                            1808     
 5051                            1809     
 5052                            1810     
 5053                            1811             .END
  *****TOTAL ERRORS       0
  *****TOTAL WARNINGS     0
*** SuperH RISC engine ASSEMBLER V.7.01.02.000 ***    11/14/21 17:24:25                                                  PAGE    51

*** CROSS REFERENCE LIST

NAME                             SECTION  ATTR VALUE             SEQUENCE

BIT0                                      EQU  00000001     13* 1703  1718  2266  2339  4804 
BIT1                                      EQU  00000002     14* 1704  1719  2267  2340 
BIT10                                     EQU  00000400     23* 1729  2276  2349 
BIT11                                     EQU  00000800     24* 1730  2277  2350 
BIT12                                     EQU  00001000     25* 1735  2278  2351 
BIT13                                     EQU  00002000     26* 1736  2279  2352 
BIT14                                     EQU  00004000     27* 1737  2280  2353 
BIT15                                     EQU  00008000     28* 1738  2281  2354 
BIT16                                     EQU  00010000     29* 2282 
BIT17                                     EQU  00020000     30* 2283 
BIT18                                     EQU  00040000     31* 2284 
BIT19                                     EQU  00080000     32* 2285 
BIT2                                      EQU  00000004     15* 1705  1720  1740  2268  2341 
BIT20                                     EQU  00100000     33* 2286 
BIT21                                     EQU  00200000     34* 2287 
BIT22                                     EQU  00400000     35* 2288 
BIT23                                     EQU  00800000     36* 2289 
BIT24                                     EQU  01000000     37* 2290 
BIT25                                     EQU  02000000     38* 2291 
BIT26                                     EQU  04000000     39* 2292 
BIT27                                     EQU  08000000     40* 2293 
BIT28                                     EQU  10000000     41* 2294 
BIT29                                     EQU  20000000     42* 2295 
BIT3                                      EQU  00000008     16* 1706  1721  1741  2269  2342 
BIT30                                     EQU  40000000     43* 2296 
BIT31                                     EQU  80000000     44* 2297 
BIT4                                      EQU  00000010     17* 1707  1722  1742  2270  2343 
BIT5                                      EQU  00000020     18* 1708  1723  1743  2271  2344 
BIT6                                      EQU  00000040     19* 1709  1724  1744  2272  2345 
BIT7                                      EQU  00000080     20* 1710  1725  1745  2273  2346 
BIT8                                      EQU  00000100     21* 1711  1726  2274  2347 
BIT9                                      EQU  00000200     22* 1712  1727  2275  2348 
COM_HOK_DT_DN_LMT                PHiROM        00000706   3889  3892  3919*
COM_HOK_DT_ER_LMT                PHiROM        00000700   3886  3913*
COM_HOK_END                      PHiROM        00000708   3895  3908  3916  3921*
COS_INDG_CAL100                  PHiROM        000007C8   4177  4186*
COS_INDG_CAL200                  PHiROM        000007D8   4190  4199*
COS_INDG_CAL300                  PHiROM        000007EC   4203  4214*
COS_INDG_CAL400                  PHiROM        00000804   4217  4230*
COS_INDG_CAL500                  PHiROM        0000080C   4181  4194  4208  4222  4236*
COS_INDG_CAL900                  PHiROM        0000082E   4268  4270*
DIG_AREA_CK0_100                 PHiROM        00000692   3758  3771*
DIG_AREA_CK0_200                 PHiROM        0000069E   3762  3764  3767  3774  3776  3778*
DIG_AREA_CK1_100                 PHiROM        000006C0   3811  3824*
DIG_AREA_CK1_200                 PHiROM        000006CC   3809  3815  3817  3820  3827  3829  3831*
DIVS16_020                       PHiROM        00000504   3480  3482*
DIVS16_040                       PHiROM        00000514   3484  3494*
DIVS16_060                       PHiROM        00000524   3502  3505*
DIVS16_100                       PHiROM        0000053A   3515  3523*
DIVS1_16B_DIV_8BANS8B_100        P             000001A8   4730  4750*
DIVS1_16B_DIV_8BANS8B_200        P             000001BA   4753  4766*
DIVS1_16B_DIV_8BANS8B_300        P             000001F2   4806  4811*
DIVS1_16B_DIV_8BANS8B_500        P             00000210   4782  4829  4840*
DIVS1_16B_DIV_8BANS8B_LOP        P             000001D4   4778  4789* 4816 
*** SuperH RISC engine ASSEMBLER V.7.01.02.000 ***    11/14/21 17:24:25                                                  PAGE    52

*** CROSS REFERENCE LIST

NAME                             SECTION  ATTR VALUE             SEQUENCE

DIVS21_EXT00000                  PHiROM        000001D0   2503  2508*
DIVS21_EXT00001                  PHiROM        0000027A   2624  2629*
DIVS21_ZERO00000                 PHiROM        000001CE   2424  2506*
DIVS21_ZERO00001                 PHiROM        00000278   2545  2627*
DIVS6_020                        PHiROM        000002A8   2696  2698*
DIVS6_040                        PHiROM        000002B8   2700  2710*
DIVS6_060                        PHiROM        000002C4   2717  2719*
DIVS6_100                        PHiROM        000002DA   2729  2737*
DIVU14_050                       PHiROM        00000552   3556  3561*
DIVU14_EXT                       PHiROM        00000676   3719  3727*
DIVU14_ZERO_DIV                  PHiROM        00000670   3558  3723*
DIVU4_EXT                        PHiROM        0000037A   2845  2852*
DIVU4_ZERO_DIV                   PHiROM        00000376   2768  2770  2849*
FPU_COM_HOKAN1                   PHiROM        000006DE   3868  3883*
FPU_R2_MUL_R1DIVR4_EXT           PHiROM        000003B4   2938  2950*
H_BYTE                                    EQU  00000000     80*
IDO_BUF_SRC2BT4B_CL_100          PHiROM        0000077E   4076  4078*
IDO_BUF_SRC4B_T8B_100            PHiROM        0000074A   4016  4018*
L_BYTE                                    EQU  00000001     79*
MUL41_050                        PHiROM        000004BC   3399  3407*
MUL41_100                        PHiROM        000004C2   3410  3412*
MUL41_200                        PHiROM        000004DE   3428  3431*
MUL41_300                        PHiROM        000004F2   3437  3446*
MULDIV41_050                     PHiROM        0000043A   3273  3281*
MULDIV41_100                     PHiROM        00000440   3284  3286*
MULDIV41_150                     PHiROM        00000446   3289  3291*
MULDIV41_200                     PHiROM        00000462   3307  3310*
MULDIV41_300                     PHiROM        0000049A   3356  3365*
NBIT0                                     EQU  000000FE     47*
NBIT1                                     EQU  000000FD     48*
NBIT10                                    EQU  0000FBFF     58*
NBIT11                                    EQU  0000F7FF     59*
NBIT12                                    EQU  0000EFFF     60*
NBIT13                                    EQU  0000DFFF     61*
NBIT14                                    EQU  0000BFFF     62*
NBIT15                                    EQU  00007FFF     63*
NBIT2                                     EQU  000000FB     49*
NBIT3                                     EQU  000000F7     50*
NBIT4                                     EQU  000000EF     51*
NBIT5                                     EQU  000000DF     52*
NBIT6                                     EQU  000000BF     53*
NBIT7                                     EQU  0000007F     54*
NBIT8                                     EQU  0000FEFF     56*
NBIT9                                     EQU  0000FDFF     57*
P                                P        SCT  00000000   4549*
PHiROM                           PHiROM   SCT  00000000   2231*
ROOT2_020                        PHiROM        00000888   4421* 4500 
ROOT2_050                        PHiROM        000008C4   4456  4476*
ROOT2_100                        PHiROM        000008D8   4467  4495*
ROOT2_EXIT                       PHiROM        000008E0   4498  4503*
SMUL1_8B_M_8B100                 P             0000024A   4920  4931*
SMUL1_8B_M_8B200                 P             0000025C   4934  4946*
SMUL1_8B_M_8B300                 P             000002BA   5000  5020*
TBL_HOKAN_TYP1_100               PHiROM        0000085E   4305  4314*
*** SuperH RISC engine ASSEMBLER V.7.01.02.000 ***    11/14/21 17:24:25                                                  PAGE    53

*** CROSS REFERENCE LIST

NAME                             SECTION  ATTR VALUE             SEQUENCE

TBL_HOKAN_TYP1_900               PHiROM        0000086E   4311  4329*
XBIT0                                     EQU  00000000     66*
XBIT1                                     EQU  00000001     67*
XBIT2                                     EQU  00000002     68*
XBIT3                                     EQU  00000003     69*
XBIT4                                     EQU  00000004     70*
XBIT5                                     EQU  00000005     71*
XBIT6                                     EQU  00000006     72*
XBIT7                                     EQU  00000007     73*
_CB_BAKUP_CMD1                            EQU  00005678    112*
_CB_BAKUP_CMD2                            EQU  00001234    113*
_CB_BAK_SUM_COD1                          EQU  5AA51234    110*
_CB_BAK_SUM_COD2                          EQU  A55A4321    111*
_CB_ERR_INFO_MEM                          EQU  00000080    136*
_CB_ERR_INFO_PSIZE                        EQU  00000008    137*
_CB_STS_BUF_1BLK                          EQU  00000040    115*  117 
_CB_STS_BUF_BLKMAX                        EQU  00000008    116*  117 
_CB_STS_BUF_MAX                           EQU  00000200    117*
_CB_TRD_BEFORE                            EQU  00000060    125*
_CB_TRD_BUF_DP_MAX                        EQU  00000080    129*
_CB_TRD_BUF_MAX                           EQU  00000800    126*
_CB_TRD_DP_1CNT                           EQU  00000008    128*
_CB_TRD_DP_CH                             EQU  00000004    121*
_CB_TRD_SMP_CNT                           EQU  00000080    124*
_COS_DIG1_INFO_CNT               P             00000000   4243  4559*
_COS_DIG1_INFO_UNIT              P             00000004   4244  4560*
_COS_DIG1_TOP                    P             0000000C   4242  4564*
_COS_DIG1_UNIT_COEF              P        EXPT 00000008   4167  4561*
_COS_IN_DEG                      PHiROM   EXPT 000007B4   4166  4169*
_DIG_AREA_CHK0                   PHiROM   EXPT 0000067C   3752  3753*
_DIG_AREA_CHK1                   PHiROM   EXPT 000006A4   3802  3803*
_DIVS1_16B_DIV_8B_ANS_8B         P        EXPT 00000178   4688  4689*
_DIVS_32REG2_32REG1_R4_32REG2_R2 PHiROM   EXPT 00000130   2379  2409* 3093 
_DIVS_32REG2_32REG1_R4_32REG2_R2*PHiROM        000001DA   2530* 3157  4252 
_DIVS_64R1R2_32R4_32R2           PHiROM   EXPT 0000029C   2380  2683*
_DIVS_64R1R2_32R4_64R1R2         PHiROM   EXPT 000004F8   2396  3237  3467*
_DIVU_64R1R2_32R4_32R2           PHiROM   EXPT 000002E4   2381  2712  2762*
_DIVU_64R1R2_32R4_64R1R2         PHiROM   EXPT 00000548   2397  3326  3496  3549*
_DUMMY_SUM_CODE                           EQU  5AA53CC3    103*
_DWORD_BIT0_TBL1                 PHiROM   EXPT 00000084   2299  2302*
_DWORD_BIT1_TBL1                 PHiROM   EXPT 00000088   2300  2303*
_FPU_DIVS_32REG2_32REG1_R4_32REG*PHiROM   EXPT 000003D8   2389  2663  3080*
_FPU_DIVS_32REG2_DIV_32REG4_R2_M*PHiROM   EXPT 000003F0   2390  3144*
_FPU_POS_HOKAN1                  PHiROM   EXPT 000006D2   3858  3861* 4326 
_FPU_R2_MUL_R1_DIV_R4            PHiROM   EXPT 000003A4   2385  2900  2928*
_FPU_R2_MUL_R1_R3_DIV_R4         PHiROM   EXPT 000003C0   2388  3002*
_FPU_TIM_HOKAN1                  PHiROM   EXPT 000006DC   3859  3879*
_HIGH_DIVS_32REG2_16REG1_R4_16RE*PHiROM   EXPT 0000028E   2382  2658* 4088 
_HIGH_S32R2_MUL_S32R1_DIV_S32R4_*PHiROM   EXPT 00000398   2383  2895*
_IDO_BUF_SRC2B_TOTAL_4B          PHiROM        0000079C   4083  4117*
_IDO_BUF_SRC2B_TOTAL_4B_CAL      PHiROM   EXPT 00000770   3986  4067*
_IDO_BUF_SRC4B_TOTAL_4B          PHiROM        0000075A   4033*
_IDO_BUF_SRC4B_TOTAL_8B          PHiROM        00000734   4003*
_LONG_BIT_TBL0                   PHiROM   EXPT 00000000   2249  2265*
*** SuperH RISC engine ASSEMBLER V.7.01.02.000 ***    11/14/21 17:24:25                                                  PAGE    54

*** CROSS REFERENCE LIST

NAME                             SECTION  ATTR VALUE             SEQUENCE

_LONG_BIT_TBL1                   PHiROM   EXPT 00000004   2250  2266*
_LONG_BIT_TBL2                   PHiROM   EXPT 00000008   2251  2267*
_MULDIV_R1R2S64mR3S32dR4S32aR1R2*PHiROM   EXPT 00000420   2393  3260*
_MULDIV_R2S32mR1S32dR4S32aR1R2S6*PHiROM   EXPT 00000408   2392  3229* 3954 
_MULDIV_R2_MUL_R1_R3_DIV_R4      PHiROM        00000380   2866* 3015 
_MUL_R1R2S64mR3S32aR1R2S64       PHiROM   EXPT 000004A4   2394  3387*
_ROOT2_64R1R2_ANS_R2             PHiROM   EXPT 00000878   4404  4405*
_SMUL1_R1R2_MUL_R5R6_ANS         P        EXPT 00000226   4883  4884*
_START_ACK_COD                            EQU  00004321    211*
_START_REQ_COD                            EQU  00009876    210*
_TBL_HOKAN_TYPE1                 PHiROM        0000084C   4259  4299*
_TIM_CNT010MS_DT                          EQU  0000000A   1696*
_TIM_CNT100MS_DT                          EQU  00000064   1697*
_VUPCHECK_EQU                             EQU  11AB3739     96*
_W1CNT                                    EQU  00000008   1721*
_W1DIC                                    EQU  00000020   1723*
_W1DUP                                    EQU  00000040   1724*
_W1END                                    EQU  00000080   1725*
_W1INC                                    EQU  00000002   1719*
_W1LNC                                    EQU  00000400   1729*
_W1LNO                                    EQU  00000800   1730*
_W1OFF                                    EQU  00000001   1718*
_W1OPT                                    EQU  00000010   1722*
_W1REV                                    EQU  00004000   1737*
_W1RNC                                    EQU  00000100   1726*
_W1RNO                                    EQU  00000200   1727*
_W1RST                                    EQU  00008000   1738*
_W1SGL                                    EQU  00000004   1720*
_W1SNC                                    EQU  00001000   1735*
_W1SNO                                    EQU  00002000   1736*
_W2LS1                                    EQU  00000004   1740*
_W2LS2                                    EQU  00000008   1741*
_W2SUP                                    EQU  00000080   1745*
_W2WT1                                    EQU  00000010   1742*
_W2WT2                                    EQU  00000020   1743*
_W2WT3                                    EQU  00000040   1744*
_WOANT                                    EQU  00000010   1707*
_WOATO                                    EQU  00000040   1709*
_WOFCY                                    EQU  00000080   1710*
_WOQST                                    EQU  00000001   1703*
_WORCY                                    EQU  00000100   1711*
_WORDY                                    EQU  00000020   1708*
_WORD_BIT_TBL0                   PHiROM   EXPT 0000010C   2253  2338*
_WORD_BIT_TBL1                   PHiROM   EXPT 0000010E   2254  2339*
_WORD_BIT_TBL10                  PHiROM   EXPT 00000120   2263  2348*
_WORD_BIT_TBL2                   PHiROM   EXPT 00000110   2255  2340*
_WORD_BIT_TBL3                   PHiROM   EXPT 00000112   2256  2341*
_WORD_BIT_TBL4                   PHiROM   EXPT 00000114   2257  2342*
_WORD_BIT_TBL5                   PHiROM   EXPT 00000116   2258  2343*
_WORD_BIT_TBL6                   PHiROM   EXPT 00000118   2259  2344*
_WORD_BIT_TBL7                   PHiROM   EXPT 0000011A   2260  2345*
_WORD_BIT_TBL8                   PHiROM   EXPT 0000011C   2261  2346*
_WORD_BIT_TBL9                   PHiROM   EXPT 0000011E   2262  2347*
_WORST                                    EQU  00000200   1712*
*** SuperH RISC engine ASSEMBLER V.7.01.02.000 ***    11/14/21 17:24:25                                                  PAGE    55

*** CROSS REFERENCE LIST

NAME                             SECTION  ATTR VALUE             SEQUENCE

_WOVN1                                    EQU  00000002   1704*
_WOVN2                                    EQU  00000004   1705*
_WOVN3                                    EQU  00000008   1706*
_X_R2_MUL_R1_DIV_R4              PHiROM   EXPT 0000070E   2398  2873  2944  3902  3929*
__COS_DIG_ARA1                            EQU  00015F90   4154* 4188 
__COS_DIG_ARA2                            EQU  0002BF20   4155* 4201  4219 
__COS_DIG_ARA3                            EQU  00041EB0   4156* 4215 
__COS_DIG_MAX                             EQU  00057E40   4153* 4175  4232 
*** SuperH RISC engine ASSEMBLER V.7.01.02.000 ***    11/14/21 17:24:25                                                  PAGE    56

*** SECTION DATA LIST

SECTION                          ATTRIBUTE    SIZE             START

PHiROM                           REL-CODE    0000008E8        
P                                REL-CODE    0000002CE        
