*** SuperH RISC engine ASSEMBLER V.7.01.02.000 ***    11/14/21 17:24:34                                                  PAGE     1
PROGRAM NAME =

    1                               1     ;       ***************************************************
    2                               2     ;       ***                                             ***
    3                               3     ;       ***                                             ***
    4                               4     ;       ***     カム                                    ***
    5                               5     ;       ***                                             ***
    6                               6     ;       ***                                             ***
    7                               7     ;       ***************************************************
 7438                              21     
 7439 00000000                     22             .SECTION        P,CODE                  ;
 7440                              23     
 7441                              24     ;       //      ***********************************
 7442                              25     ;       //      ***     EXTERN 宣言 PROGRAM     ***
 7443                              26     ;       //      ***********************************
 7444                              27             .IMPORT         _SV_CLNK_DG_CHG_LINK_DG1
 7445                              28     
 7446                              29             .IMPORT         _PAR_WTSEL_USE
 7447                              30     
 7448                              31     
 7449                              32     ;       //      ***********************************
 7450                              33     ;       //      ***     EXTERN 宣言 MEMORY,HARD ***
 7451                              34     ;       //      ***********************************
 7452                              35     
 7453                              36     
 7454                              37     ;       //      ***********************************
 7455                              38     ;       //      ***     PUBLIC 宣言 PROGRAM     ***
 7456                              39     ;       //      ***********************************
 7457                              40     ;       "開始工程番号=終了工程番号=0なら位置ｶﾑ"
 7458                              41     ;       "設定で工程番号=-1なら最終工程"
 7459                              42     ;       *往復運転の場合はミラー型の実測を作るしかないでしょう：実際には使えないだろう
 7460                              43     ;       工程か純然たる位置カム程度しか使えないでしょう！
 7461                              44     ;       モータ軸の位置カムから
 7462                              45     
 7463          FFFFFFFF            46     _GMN_LAST_STEP  .EQU    -1
 7464                              47     
 7465                              48     
 7466                              49     
 7467          00000010            50     _ROTCAM_SIN_CNT .EQU    16      ;
 7468                              51     
 7469                              52     
 7470                              53     
 7471                              54     ;_SVP_ROTCAM_ONR                .SRES   2       ;ﾛｰﾀﾘｶﾑ ON行程 ﾘﾋﾟｰﾄ戻り
 7472                              55     ;_SVP_ROTCAM_OFR                .SRES   2       ;ﾛｰﾀﾘｶﾑ OFF行程 ﾘﾋﾟｰﾄ戻り
 7473                              56     ;_SVP_EJECAM_ONR                .SRES   2       ;ｴｼﾞｪｸﾀ ON行程 ﾘﾋﾟｰﾄ戻り
 7474                              57     ;_SVP_EJECAM_OFR                .SRES   2       ;ｴｼﾞｪｸﾀ OFF行程 ﾘﾋﾟｰﾄ戻り
 7475                              58     ;_SVP_MISCAM_ONR                .SRES   2       ;ﾐｽﾌｨｰﾄﾞ  ON行程 ﾘﾋﾟｰﾄ戻り
 7476                              59     ;_SVP_MISCAM_OFR                .SRES   2       ;ﾐｽﾌｨｰﾄﾞ  OFF行程 ﾘﾋﾟｰﾄ戻り
 7477                              60     
 7478                              61     
 7479                              62             .EXPORT _CAM_DATA_MOV
 7480                              63             .AIF    1 EQ    0
 7481                              64     
 7482                              65     
 7483                              66     ;                                                 工程位置ｶﾑ　位置カム 工程ﾀｲﾏｶﾑ　タイマカ
                                          ム
 7484                              67     ;_CAM_ON_STP            .EQU    0*2;                   ○       "0"     ○        "0"
 7485                              68     ;_CAM_ON_DIG            .EQU    1*2;                   ○       ○      ○        ○
 7486                              69     ;_CAM_ON_DIR            .EQU    2*2;未使用             ×       ×      ×        ×
*** SuperH RISC engine ASSEMBLER V.7.01.02.000 ***    11/14/21 17:24:34                                                  PAGE     2
PROGRAM NAME =

 7487                              70     ;_CAM_OF_STP            .EQU    3*2;                   ○       ×      ○        ×
 7488                              71     ;_CAM_OF_DIG(SV_TIM)    .EQU    4*2;DIG/TIM10msec      ○       "0"     ○        ○
 7489                              72     ;_CAM_OF_DIR            .EQU    5*2;未使用             ×       ×      ×        ×
 7490                              73     ;_CAM_OF_DGT(PV_TIM)    .EQU    6*2;内部ﾀｲﾏ時          ×       ×      ○        ○
 7491                              74     ;_CAM_DT_FLG            .EQU    7*2;(BIT0:ON END BIT1) ×       ×      ○        ○
 7492                              75     ;_CAM_INF_D1            .EQU    8*2;(BIT0:ON繰返戻行程 ◎       ×      ◎        ×
 7493                              76     ;_CAM_INF_D2            .EQU    9*2;予備               ×       ×      ×        ×
 7494                              77     
 7495                              78     ;       ***************************************************
 7496                              79     ;       ***             カムデータMOVE                  ***
 7497                              80     ;       ***************************************************
 7498                              81     ;       U2b     SET1_RCAMON_POS_TOP[10*48]      ;//後から考える
 7499                              82     ;       U2b     SET1_RCAMON_TIM_TOP[10*48]      ;//1つの構造はON工程/ON角度/ON方向/OF工程/
                                          OF角度/OF方向
 7500                              83     ;       *******************************************
 7501                              84     ;       ***     カム演算は3.3msec<ｼｰｹﾝｽ演算周期>        ***
 7502                              85     ;       *******************************************
 7503                              86     ;       R13(1:位置ｶﾑ 0:工程ｶﾑ),R14(ｼｰｹﾝｽENBﾋﾞｯﾄ) USED
 7504                              87     ;       R12(BIT)
 7505                              88     ;       R10(ON-REPEAT行程指定)
 7506                              89     ;       R11(OF-REPEAT行程指定)
 7507                              90     ;       R0,R1
 7508                              91     ;       R2,R4
 7509                              92     ;       *******************************************************************
 7510                              93     ;       ***                                                             ***
 7511                              94     ;       ***     ON側　行程+位置カム                                     ***
 7512                              95     ;       ***     OFF側 行程+位置カム(CAM_SEL=0)、タイマカム(CAM_SEL=1)   ***
 7513                              96     ;       ***     進角無し                                                ***
 7514                              97     ;       ***                                                             ***
 7515                              98     ;       ***     ﾘﾋﾟｰﾄ戻り行程対応 2014-09-22                            ***
 7516                              99     ;       *******************************************************************
 7517                             100     
 7518                             101             .MACRO  POS_CAM_MOV1 RON_STEP,RON_DT,ROF_STEP,ROF_DT,BASE_REG,FLG_BIT,CAM_SEL
 7519                             102             LDC     \BASE_REG,GBR                           ;
 7520                             103             MOV.W   #\FLG_BIT,R12                           ;
 7521                             104     
 7522                             105             MOV.L   #\RON_DT,R1                             ;
 7523                             106             MOV.W   @R1,R2                                  ;
 7524                             107             FAR_JSR #_SV_CLNK_DG_CHG_LINK_DG1,R0            ;R0,R1,R2使用
 7525                             108             MOV     R2,R0                                   ;
 7526                             109             MOV.W   R0,@(_CAM_ON_DIG,GBR)                   ;
 7527                             110     
 7528                             111     ;       --------- 2014-09-22--------------
 7529                             112             TST     R12,R10                                 ;2014-09-22 "R10=ON"
 7530                             113             TST_BIT_OF JMPON_REP01\@                                ;ﾘﾋﾟｰﾄON行程ではない
 7531                             114     
 7532                             115             MOV.W   @(_CAM_INF_D1,GBR),R0                   ;
 7533                             116             OR      #BIT0,R0                                ;
 7534                             117             MOV.W   R0,@(_CAM_INF_D1,GBR)                   ;
 7535                             118     
 7536                             119             MOV.L   #_SET1_MOTREP_STGE,R1                   ;//繰り返し開始行程 0,1~11,"*"
 7537                             120             MOV.W   @R1,R0                                  ;
 7538                             121             M_BRA   JMPON_REP02\@                           ;
 7539                             122     ;       ---------------------------------
 7540                             123     JMPON_REP01\@:                                          ;
 7541                             124     ;       --------- 2014-09-22--------------
 7542                             125             MOV.W   @(_CAM_INF_D1,GBR),R0                   ;
*** SuperH RISC engine ASSEMBLER V.7.01.02.000 ***    11/14/21 17:24:34                                                  PAGE     3
PROGRAM NAME =

 7543                             126             AND     #LOW ~BIT0,R0                           ;
 7544                             127             MOV.W   R0,@(_CAM_INF_D1,GBR)                   ;
 7545                             128     ;       ---------------------------------
 7546                             129             MOV.L   #\RON_STEP,R1                           ;
 7547                             130             MOV.W   @R1,R0                                  ;
 7548                             131     JMPON_REP02\@:                                          ;
 7549                             132             FAR_JSR #_POS_CAM_STEP_DATA_CHK,R1              ;1~5,E,0ﾁｪｯｸ Input R0,R13, OUT R14
                                          ,R0
 7550                             133                                                             ;R0,R1,R2,R4,R12,R13使用
 7551                             134             MOV.W   R0,@(_CAM_ON_STP,GBR)                   ;ON行程
 7552                             135     
 7553                             136     
 7554                             137     
 7555                             138             MOV.L   #\ROF_DT,R1                             ;
 7556                             139             MOV.W   @R1,R2                                  ;
 7557                             140             .AIF    \CAM_SEL EQ  0                          ;位置ｶﾑ
 7558                             141                     FAR_JSR #_SV_CLNK_DG_CHG_LINK_DG1,R0    ;
 7559                             142             .AELSE
 7560                             143                                                             ;ﾀｲﾏｶﾑ
 7561                             144                     MOV     R2,R0                           ;
 7562                             145                     ADD     R2,R2                           ;*2
 7563                             146     ;;;;[2015-03-18 3.3->5]         ADD     R0,R2                           ;*3 3.333msec*3=10
                                          .0msec
 7564                             147             .AENDI
 7565                             148     
 7566                             149             MOV     R2,R0                           ;
 7567                             150             MOV.W   R0,@(_CAM_OF_DIG,GBR)           ;
 7568                             151     
 7569                             152     
 7570                             153             .AIF    \CAM_SEL EQ  0
 7571                             154     ;位置ｶﾑのみ行程有効
 7572                             155     ;       --------- 2014-09-22--------------
 7573                             156             TST     R12,R11                                 ;2014-09-22 "R10=ON"
 7574                             157             TST_BIT_OF JMPOF_REP01\@                        ;ﾘﾋﾟｰﾄON行程ではない
 7575                             158     
 7576                             159             MOV.W   @(_CAM_INF_D1,GBR),R0                   ;
 7577                             160             OR      #BIT1,R0                                ;
 7578                             161             MOV.W   R0,@(_CAM_INF_D1,GBR)                   ;
 7579                             162     
 7580                             163             MOV.L   #_SET1_MOTREP_STGE,R1                   ;//繰り返し開始行程 0,1~11,"*"
 7581                             164             MOV.W   @R1,R0                                  ;
 7582                             165             M_BRA   JMPOF_REP02\@                           ;
 7583                             166     ;       ---------------------------------
 7584                             167     JMPOF_REP01\@:                                          ;
 7585                             168     ;       --------- 2014-09-22--------------
 7586                             169             MOV.W   @(_CAM_INF_D1,GBR),R0                   ;
 7587                             170             AND     #LOW ~BIT1,R0                           ;
 7588                             171             MOV.W   R0,@(_CAM_INF_D1,GBR)                   ;
 7589                             172     ;       ---------------------------------
 7590                             173             MOV.L   #\ROF_STEP,R1                           ;
 7591                             174             MOV.W   @R1,R0                                  ;
 7592                             175     JMPOF_REP02\@:                                          ;
 7593                             176             FAR_JSR #_POS_CAM_STEP_DATA_CHK,R1              ;1~5,E,0ﾁｪｯｸ Input R0,R12,R14, OUT
                                           R13,R14,R0
 7594                             177     
 7595                             178             .AELSE                                          ;
 7596                             179     
*** SuperH RISC engine ASSEMBLER V.7.01.02.000 ***    11/14/21 17:24:34                                                  PAGE     4
PROGRAM NAME =

 7597                             180             MOV.L   #\ROF_STEP,R1                           ;ﾀｲﾏｶﾑでは使用しないが一応入れてお
                                          く
 7598                             181             MOV.W   @R1,R0                                  ;
 7599                             182     
 7600                             183             .AENDI                                  ;
 7601                             184     
 7602                             185             MOV.W   R0,@(_CAM_OF_STP,GBR)                   ;//ﾀｲﾏｶﾑでは行程は使用しない
 7603                             186             ADD     #_CAM_STRCUT,\BASE_REG                  ;
 7604                             187             .ENDM
 7605                             188     
 7606                             189     
 7607                             190     
 7608                             191     ;       *******************************************************************
 7609                             192     ;       ***                                                             ***
 7610                             193     ;       ***     ON側　行程+位置カム                                     ***
 7611                             194     ;       ***     OFF側 行程+位置カム                                     ***
 7612                             195     ;       ***     進角有り                                                ***
 7613                             196     ;       ***                                                             ***
 7614                             197     ;       ***     ﾘﾋﾟｰﾄ戻り行程対応 2014-09-22                            ***
 7615                             198     ;       ***     ﾘﾝｸ/ｸﾗﾝｸ混在しているので手直ししたい(暫定部分)          ***
 7616                             199     ;       ***     進角が位置指定だとｸﾗﾝｸで引き算,ﾀｲﾏ指定だとﾘﾝｸで引き算   ***
 7617                             200     ;       *******************************************************************
 7618                             201     ;       --------- 暫定--------
 7619                             202             .MACRO  POS_CAM_MOV2 RON_STEP,RON_DT,ROF_STEP,ROF_DT,BASE_REG,FLG_BIT,ON_SIN,OF_SI
                                          N,SQONSEL,SQOFSEL
 7620                             203             LDC     \BASE_REG,GBR                           ;
 7621                             204             MOV.W   #\FLG_BIT,R12                           ;
 7622                             205     
 7623                             206             TST             R12,R14                                                 ;2020-05-0
                                          7 2019-03-20
 7624                             207             TST_BIT_ON JMP1_000\@                                   ;2020-05-07 2019-03-20
 7625                             208             M_BRA   JMP2_EXT\@                                              ;2020-05-07 2019-0
                                          3-20
 7626                             209     JMP1_000\@:                                                                     ;2020-05-0
                                          7 2019-03-20
 7627                             210     
 7628                             211             MOV.L   #\RON_DT,R1                             ;
 7629                             212             MOV.W   @R1,R2                                  ;
 7630                             213     
 7631                             214             MOV.L   #\SQONSEL,R1                            ;暫定部分
 7632                             215             MOV.W   @R1,R0                                  ;暫定部分
 7633                             216             TST     R12,R0                                  ;暫定部分 進角=ﾀｲﾏ指定?
 7634                             217             TST_BIT_ON JMP1_TIMON\@                         ;暫定部分
 7635                             218     
 7636                             219     ;       ----------------------input r2------------------
 7637                             220             MOV.L   #\ON_SIN,R1                             ;暫定部分
 7638                             221             MOV.W   @R1,R0                                  ;暫定部分
 7639                             222             SUB     R0,R2                                   ;暫定部分
 7640                             223             CMP/PZ  R2                                      ;暫定部分
 7641                             224             BT      JMP1_POSON\@                            ;暫定部分
 7642                             225             FAR_JSR #_SIN_RCAMON_ERR_SIGSET,R0              ;暫定部分
 7643                             226             MOV.W   #D'3600,R0                              ;暫定部分
 7644                             227             ADD     R0,R2                                   ;暫定部分
 7645                             228     JMP1_POSON\@:                                           ;暫定部分
 7646                             229     ;       ----------------------output r2--------------------
 7647                             230             FAR_JSR #_SV_CLNK_DG_CHG_LINK_DG1,R0            ;ANS:R2
 7648                             231             M_BRA   JMP_ONEND\@                             ;
*** SuperH RISC engine ASSEMBLER V.7.01.02.000 ***    11/14/21 17:24:34                                                  PAGE     5
PROGRAM NAME =

 7649                             232     
 7650                             233     
 7651                             234     ;       ===================================================
 7652                             235     JMP1_TIMON\@:                                                   ;
 7653                             236     
 7654                             237             FAR_JSR #_SV_CLNK_DG_CHG_LINK_DG1,R0            ;ANS:R2
 7655                             238     
 7656                             239     ;       ----------------------input r2------------------
 7657                             240             MOV.L   #\ON_SIN,R1                             ;
 7658                             241             MOV.W   @R1,R0                                  ;
 7659                             242             SUB     R0,R2                                   ;
 7660                             243             CMP/PZ  R2                                      ;
 7661                             244             BT      JMP2_TIMON\@                            ;
 7662                             245             FAR_JSR #_SIN_RCAMON_ERR_SIGSET,R0              ;暫定部分
 7663                             246             MOV.W   #D'3600,R0                              ;
 7664                             247             ADD     R0,R2                                   ;
 7665                             248     JMP2_TIMON\@:                                                   ;
 7666                             249     ;       ----------------------output r2--------------------
 7667                             250             M_BRA   JMP_ONEND\@                             ;
 7668                             251     
 7669                             252     
 7670                             253     JMP_ONEND\@:                                            ;
 7671                             254             MOV     R2,R0                                   ;
 7672                             255             MOV.W   R0,@(_CAM_ON_DIG,GBR)                   ;
 7673                             256     
 7674                             257     ;       --------------- ON行程入力-----------
 7675                             258     ;       --------- 2014-09-22--------------
 7676                             259             TST     R12,R10                                 ;2014-09-22 "R10=ON"
 7677                             260             TST_BIT_OF JMPON_REP01\@                                ;ﾘﾋﾟｰﾄON行程ではない
 7678                             261     
 7679                             262             MOV.W   @(_CAM_INF_D1,GBR),R0                   ;
 7680                             263             OR      #BIT0,R0                                ;
 7681                             264             MOV.W   R0,@(_CAM_INF_D1,GBR)                   ;
 7682                             265     
 7683                             266             MOV.L   #_SET1_MOTREP_STGE,R1                   ;//繰り返し開始行程 0,1~11,"*"
 7684                             267             MOV.W   @R1,R0                                  ;
 7685                             268             M_BRA   JMPON_REP02\@                           ;
 7686                             269     ;       ---------------------------------
 7687                             270     JMPON_REP01\@:                                          ;
 7688                             271     ;       --------- 2014-09-22--------------
 7689                             272             MOV.W   @(_CAM_INF_D1,GBR),R0                   ;
 7690                             273             AND     #LOW ~BIT0,R0                           ;
 7691                             274             MOV.W   R0,@(_CAM_INF_D1,GBR)                   ;
 7692                             275     ;       ---------------------------------
 7693                             276             MOV.L   #\RON_STEP,R1                           ;
 7694                             277             MOV.W   @R1,R0                                  ;
 7695                             278     JMPON_REP02\@:                                          ;
 7696                             279             FAR_JSR #_POS_CAM_STEP_DATA_CHK,R1              ;1~5,E,0ﾁｪｯｸ Input R0,R13, OUT R14
                                          ,R0
 7697                             280             MOV.W   R0,@(_CAM_ON_STP,GBR)                   ;
 7698                             281     
 7699                             282     
 7700                             283     
 7701                             284     ;       ========== OFF行程============
 7702                             285             MOV.L   #\ROF_DT,R1                     ;
 7703                             286             MOV.W   @R1,R2                          ;
 7704                             287     
*** SuperH RISC engine ASSEMBLER V.7.01.02.000 ***    11/14/21 17:24:34                                                  PAGE     6
PROGRAM NAME =

 7705                             288             MOV.L   #\SQOFSEL,R1                            ;
 7706                             289             MOV.W   @R1,R0                                  ;
 7707                             290             TST     R12,R0                                  ;進角=ﾀｲﾏ指定?
 7708                             291             TST_BIT_ON JMP1_TIMOF\@                         ;
 7709                             292     
 7710                             293     ;       ----------------------input r2------------------
 7711                             294             MOV.L   #\OF_SIN,R1                             ;
 7712                             295             MOV.W   @R1,R0                                  ;
 7713                             296             SUB     R0,R2                                   ;
 7714                             297             CMP/PZ  R2                                      ;
 7715                             298             BT      JMP1_POSOF\@                            ;
 7716                             299             FAR_JSR #_SIN_RCAMOF_ERR_SIGSET,R0              ;暫定部分
 7717                             300             MOV.W   #D'3600,R0                              ;
 7718                             301             ADD     R0,R2                                   ;
 7719                             302     JMP1_POSOF\@:                                           ;
 7720                             303     ;       ----------------------output r2--------------------
 7721                             304             FAR_JSR #_SV_CLNK_DG_CHG_LINK_DG1,R0    ;(位置ｶﾑ)
 7722                             305             M_BRA   JMP_OFEND\@                             ;
 7723                             306     
 7724                             307     
 7725                             308     JMP1_TIMOF\@:
 7726                             309             FAR_JSR #_SV_CLNK_DG_CHG_LINK_DG1,R0    ;(位置ｶﾑ)
 7727                             310     ;       ----------------------input r2------------------
 7728                             311             MOV.L   #\OF_SIN,R1                             ;
 7729                             312             MOV.W   @R1,R0                                  ;
 7730                             313             SUB     R0,R2                                   ;
 7731                             314             CMP/PZ  R2                                      ;
 7732                             315             BT      JMP2_TIMOF\@                            ;
 7733                             316             FAR_JSR #_SIN_RCAMOF_ERR_SIGSET,R0              ;暫定部分
 7734                             317             MOV.W   #D'3600,R0                              ;
 7735                             318             ADD     R0,R2                                   ;
 7736                             319     JMP2_TIMOF\@:                                           ;
 7737                             320     ;       ----------------------output r2--------------------
 7738                             321             M_BRA   JMP_OFEND\@                             ;
 7739                             322     
 7740                             323     
 7741                             324     JMP_OFEND\@:                                            ;
 7742                             325             MOV     R2,R0                           ;
 7743                             326             MOV.W   R0,@(_CAM_OF_DIG,GBR)           ;
 7744                             327     
 7745                             328     
 7746                             329     
 7747                             330     ;       --------- 2014-09-22--------------
 7748                             331             TST     R12,R11                                 ;2014-09-22 "R10=ON"
 7749                             332             TST_BIT_OF JMPOF_REP01\@                        ;ﾘﾋﾟｰﾄON行程ではない
 7750                             333     
 7751                             334             MOV.W   @(_CAM_INF_D1,GBR),R0                   ;
 7752                             335             OR      #BIT1,R0                                ;
 7753                             336             MOV.W   R0,@(_CAM_INF_D1,GBR)                   ;
 7754                             337     
 7755                             338             MOV.L   #_SET1_MOTREP_STGE,R1                   ;//繰り返し開始行程 0,1~11,"*"
 7756                             339             MOV.W   @R1,R0                                  ;
 7757                             340             M_BRA   JMPOF_REP02\@                           ;
 7758                             341     ;       ---------------------------------
 7759                             342     JMPOF_REP01\@:                                          ;
 7760                             343     ;       --------- 2014-09-22--------------
 7761                             344             MOV.W   @(_CAM_INF_D1,GBR),R0                   ;
*** SuperH RISC engine ASSEMBLER V.7.01.02.000 ***    11/14/21 17:24:34                                                  PAGE     7
PROGRAM NAME =

 7762                             345             AND     #LOW ~BIT1,R0                           ;
 7763                             346             MOV.W   R0,@(_CAM_INF_D1,GBR)                   ;
 7764                             347     ;       ---------------------------------
 7765                             348             MOV.L   #\ROF_STEP,R1                           ;
 7766                             349             MOV.W   @R1,R0                                  ;
 7767                             350     JMPOF_REP02\@:                                          ;
 7768                             351             FAR_JSR #_POS_CAM_STEP_DATA_CHK,R1              ;1~5,E,0ﾁｪｯｸ Input R0,R12,R14, OUT
                                           R13,R14,R0
 7769                             352             MOV.W   R0,@(_CAM_OF_STP,GBR)                   ;
 7770                             353     
 7771                             354     
 7772                             355     JMP2_EXT\@:                                                             ;2020-05-07 2019-0
                                          3-20
 7773                             356     
 7774                             357             ADD     #_CAM_STRCUT,\BASE_REG          ;
 7775                             358             M_BRA   JMP3\@                          ;ﾗﾍﾞﾙ
 7776                             359     
 7777                             360     JMP3\@:                                                 ;
 7778                             361     
 7779                             362             .ENDM
 7780                             363     
 7781                             364     ;       *******************************************************************
 7782                             365     ;       ***                                                             ***
 7783                             366     ;       ***     ON側　行程+位置カム                                     ***
 7784                             367     ;       ***     OFF側 行程+位置カム(CAM_SEL=0)、タイマカム(CAM_SEL=1)   ***
 7785                             368     ;       ***     進角無し                                                ***
 7786                             369     ;       ***                                                             ***
 7787                             370     ;       ***     ﾘﾋﾟｰﾄ戻り行程未対応                                     ***
 7788                             371     ;       *******************************************************************
 7789                             372     ;;;     -------------------- 2014-09-22 --------------
 7790                             373     ;;;     .MACRO  POS_CAM_MOV1 RON_STEP,RON_DT,ROF_STEP,ROF_DT,BASE_REG,FLG_BIT,CAM_SEL
 7791                             374     ;;;     LDC     \BASE_REG,GBR                           ;
 7792                             375     ;;;     MOV.W   #\FLG_BIT,R12                           ;
 7793                             376     ;;;
 7794                             377     ;;;     MOV.L   #\RON_DT,R1                             ;
 7795                             378     ;;;     MOV.W   @R1,R2                                  ;
 7796                             379     ;;;     FAR_JSR #_SV_CLNK_DG_CHG_LINK_DG1,R0            ;R0,R1,R2使用
 7797                             380     ;;;     MOV     R2,R0                                   ;
 7798                             381     ;;;     MOV.W   R0,@(_CAM_ON_DIG,GBR)                   ;
 7799                             382     ;;;
 7800                             383     ;;;     MOV.L   #\RON_STEP,R1                           ;
 7801                             384     ;;;     MOV.W   @R1,R0                                  ;
 7802                             385     ;;;     FAR_JSR #_POS_CAM_STEP_DATA_CHK,R1              ;1~5,E,0ﾁｪｯｸ Input R0,R13, OUT R14
                                          ,R0
 7803                             386     ;;;                                                     ;R0,R1,R2,R4,R12,R13使用
 7804                             387     ;;;     MOV.W   R0,@(_CAM_ON_STP,GBR)                   ;ON行程
 7805                             388     ;;;
 7806                             389     ;;;     MOV.L   #\ROF_DT,R1                             ;
 7807                             390     ;;;     MOV.W   @R1,R2                                  ;
 7808                             391     ;;;     .AIF    \CAM_SEL EQ  0                          ;位置ｶﾑ
 7809                             392     ;;;             FAR_JSR #_SV_CLNK_DG_CHG_LINK_DG1,R0    ;
 7810                             393     ;;;     .AELSE
 7811                             394     ;;;                                                     ;ﾀｲﾏｶﾑ
 7812                             395     ;;;             MOV     R2,R0                           ;
 7813                             396     ;;;             ADD     R2,R2                           ;*2
 7814                             397     ;;;             ADD     R0,R2                           ;*3 3.333msec*3=10.0msec
 7815                             398     ;;;     .AENDI
*** SuperH RISC engine ASSEMBLER V.7.01.02.000 ***    11/14/21 17:24:34                                                  PAGE     8
PROGRAM NAME =

 7816                             399     ;;;
 7817                             400     ;;;     MOV     R2,R0                           ;
 7818                             401     ;;;     MOV.W   R0,@(_CAM_OF_DIG,GBR)           ;
 7819                             402     ;;;
 7820                             403     ;;;     MOV.L   #\ROF_STEP,R1                   ;
 7821                             404     ;;;     MOV.W   @R1,R0                          ;
 7822                             405     ;;;             .AIF    \CAM_SEL EQ  0
 7823                             406     ;;;             FAR_JSR #_POS_CAM_STEP_DATA_CHK,R1      ;1~5,E,0ﾁｪｯｸ Input R0,R12,R14, OUT
                                           R13,R14,R0
 7824                             407     ;;;                                                     ;R0,R1,R2,R4
 7825                             408     ;;;             .AELSE
 7826                             409     ;;;             .AENDI
 7827                             410     ;;;     MOV.W   R0,@(_CAM_OF_STP,GBR)           ;
 7828                             411     ;;;     ADD     #_CAM_STRCUT,\BASE_REG          ;
 7829                             412     ;;;     .ENDM
 7830                             413     
 7831                             414     
 7832                             415     ;       *******************************************************************
 7833                             416     ;       ***                                                             ***
 7834                             417     ;       ***     ON側　行程+位置カム                                     ***
 7835                             418     ;       ***     OFF側 行程+位置カム(CAM_SEL=0)                          ***
 7836                             419     ;       ***     進角有り                                                ***
 7837                             420     ;       ***                                                             ***
 7838                             421     ;       ***     ﾘﾋﾟｰﾄ戻り行程対応無し                                   ***
 7839                             422     ;       ***     ﾘﾝｸ/ｸﾗﾝｸ混在しているので手直ししたい                    ***
 7840                             423     ;       *******************************************************************
 7841                             424     ;;;     -------------------- 2014-09-22 --------------
 7842                             425     ;;;;    --------- 暫定 進角--------
 7843                             426     ;;;     .MACRO  POS_CAM_MOV2 RON_STEP,RON_DT,ROF_STEP,ROF_DT,BASE_REG,FLG_BIT,ON_SIN,OF_SI
                                          N,SQONSEL,SQOFSEL
 7844                             427     ;;;     LDC     \BASE_REG,GBR                           ;
 7845                             428     ;;;     MOV.W   #\FLG_BIT,R12                           ;
 7846                             429     ;;;
 7847                             430     ;;;     MOV.L   #\RON_DT,R1                             ;
 7848                             431     ;;;     MOV.W   @R1,R2                                  ;
 7849                             432     ;;;
 7850                             433     ;;;     MOV.L   #\SQONSEL,R1                            ;暫定部分
 7851                             434     ;;;     MOV.W   @R1,R0                                  ;暫定部分
 7852                             435     ;;;     TST     R12,R0                                  ;暫定部分 進角=ﾀｲﾏ指定?
 7853                             436     ;;;     TST_BIT_ON JMP1_TIMON\@                         ;暫定部分
 7854                             437     ;;;
 7855                             438     ;;;;    ----------------------input r2------------------
 7856                             439     ;;;     MOV.L   #\ON_SIN,R1                             ;暫定部分
 7857                             440     ;;;     MOV.W   @R1,R0                                  ;暫定部分
 7858                             441     ;;;     SUB     R0,R2                                   ;暫定部分
 7859                             442     ;;;     CMP/PZ  R2                                      ;暫定部分
 7860                             443     ;;;     BT      JMP1_POSON\@                            ;暫定部分
 7861                             444     ;;;     FAR_JSR #_SIN_RCAMON_ERR_SIGSET,R0              ;暫定部分
 7862                             445     ;;;     MOV.W   #D'3600,R0                              ;暫定部分
 7863                             446     ;;;     ADD     R0,R2                                   ;暫定部分
 7864                             447     ;;;JMP1_POSON\@:                                                ;暫定部分
 7865                             448     ;;;;    ----------------------output r2--------------------
 7866                             449     ;;;     FAR_JSR #_SV_CLNK_DG_CHG_LINK_DG1,R0            ;ANS:R2
 7867                             450     ;;;     M_BRA   JMP_ONEND\@                             ;
 7868                             451     ;;;
 7869                             452     ;;;
 7870                             453     ;;;;    ===================================================
*** SuperH RISC engine ASSEMBLER V.7.01.02.000 ***    11/14/21 17:24:34                                                  PAGE     9
PROGRAM NAME =

 7871                             454     ;;;JMP1_TIMON\@:                                                        ;
 7872                             455     ;;;
 7873                             456     ;;;     FAR_JSR #_SV_CLNK_DG_CHG_LINK_DG1,R0            ;ANS:R2
 7874                             457     ;;;
 7875                             458     ;;;;    ----------------------input r2------------------
 7876                             459     ;;;     MOV.L   #\ON_SIN,R1                             ;
 7877                             460     ;;;     MOV.W   @R1,R0                                  ;
 7878                             461     ;;;     SUB     R0,R2                                   ;
 7879                             462     ;;;     CMP/PZ  R2                                      ;
 7880                             463     ;;;     BT      JMP2_TIMON\@                            ;
 7881                             464     ;;;     FAR_JSR #_SIN_RCAMON_ERR_SIGSET,R0              ;暫定部分
 7882                             465     ;;;     MOV.W   #D'3600,R0                              ;
 7883                             466     ;;;     ADD     R0,R2                                   ;
 7884                             467     ;;;JMP2_TIMON\@:                                                        ;
 7885                             468     ;;;;    ----------------------output r2--------------------
 7886                             469     ;;;     M_BRA   JMP_ONEND\@                             ;
 7887                             470     ;;;
 7888                             471     ;;;
 7889                             472     ;;;JMP_ONEND\@:                                         ;
 7890                             473     ;;;     MOV     R2,R0                                   ;
 7891                             474     ;;;     MOV.W   R0,@(_CAM_ON_DIG,GBR)                   ;
 7892                             475     ;;;
 7893                             476     ;;;
 7894                             477     ;;;
 7895                             478     ;;;;    ========== OFF行程============
 7896                             479     ;;;     MOV.L   #\RON_STEP,R1                           ;
 7897                             480     ;;;     MOV.W   @R1,R0                                  ;
 7898                             481     ;;;     FAR_JSR #_POS_CAM_STEP_DATA_CHK,R1              ;1~5,E,0ﾁｪｯｸ Input R0,R13, OUT R14
                                          ,R0
 7899                             482     ;;;     MOV.W   R0,@(_CAM_ON_STP,GBR)                   ;
 7900                             483     ;;;
 7901                             484     ;;;     MOV.L   #\ROF_DT,R1                     ;
 7902                             485     ;;;     MOV.W   @R1,R2                          ;
 7903                             486     ;;;
 7904                             487     ;;;     MOV.L   #\SQOFSEL,R1                            ;
 7905                             488     ;;;     MOV.W   @R1,R0                                  ;
 7906                             489     ;;;     TST     R12,R0                                  ;進角=ﾀｲﾏ指定?
 7907                             490     ;;;     TST_BIT_ON JMP1_TIMOF\@                         ;
 7908                             491     ;;;
 7909                             492     ;;;;    ----------------------input r2------------------
 7910                             493     ;;;     MOV.L   #\OF_SIN,R1                             ;
 7911                             494     ;;;     MOV.W   @R1,R0                                  ;
 7912                             495     ;;;     SUB     R0,R2                                   ;
 7913                             496     ;;;     CMP/PZ  R2                                      ;
 7914                             497     ;;;     BT      JMP1_POSOF\@                            ;
 7915                             498     ;;;     FAR_JSR #_SIN_RCAMOF_ERR_SIGSET,R0              ;暫定部分
 7916                             499     ;;;     MOV.W   #D'3600,R0                              ;
 7917                             500     ;;;     ADD     R0,R2                                   ;
 7918                             501     ;;;JMP1_POSOF\@:                                                ;
 7919                             502     ;;;;    ----------------------output r2--------------------
 7920                             503     ;;;     FAR_JSR #_SV_CLNK_DG_CHG_LINK_DG1,R0    ;(位置ｶﾑ)
 7921                             504     ;;;     M_BRA   JMP_OFEND\@                             ;
 7922                             505     ;;;
 7923                             506     ;;;
 7924                             507     ;;;JMP1_TIMOF\@:
 7925                             508     ;;;     FAR_JSR #_SV_CLNK_DG_CHG_LINK_DG1,R0    ;(位置ｶﾑ)
 7926                             509     ;;;;    ----------------------input r2------------------
*** SuperH RISC engine ASSEMBLER V.7.01.02.000 ***    11/14/21 17:24:34                                                  PAGE    10
PROGRAM NAME =

 7927                             510     ;;;     MOV.L   #\OF_SIN,R1                             ;
 7928                             511     ;;;     MOV.W   @R1,R0                                  ;
 7929                             512     ;;;     SUB     R0,R2                                   ;
 7930                             513     ;;;     CMP/PZ  R2                                      ;
 7931                             514     ;;;     BT      JMP2_TIMOF\@                            ;
 7932                             515     ;;;     FAR_JSR #_SIN_RCAMOF_ERR_SIGSET,R0              ;暫定部分
 7933                             516     ;;;     MOV.W   #D'3600,R0                              ;
 7934                             517     ;;;     ADD     R0,R2                                   ;
 7935                             518     ;;;JMP2_TIMOF\@:                                                ;
 7936                             519     ;;;;    ----------------------output r2--------------------
 7937                             520     ;;;     M_BRA   JMP_OFEND\@                             ;
 7938                             521     ;;;
 7939                             522     ;;;
 7940                             523     ;;;JMP_OFEND\@:                                         ;
 7941                             524     ;;;     MOV     R2,R0                           ;
 7942                             525     ;;;     MOV.W   R0,@(_CAM_OF_DIG,GBR)           ;
 7943                             526     ;;;
 7944                             527     ;;;     MOV.L   #\ROF_STEP,R1                   ;
 7945                             528     ;;;     MOV.W   @R1,R0                          ;
 7946                             529     ;;;     FAR_JSR #_POS_CAM_STEP_DATA_CHK,R1      ;1~5,E,0ﾁｪｯｸ Input R0,R12,R14, OUT R13,R14
                                          ,R0
 7947                             530     ;;;     MOV.W   R0,@(_CAM_OF_STP,GBR)           ;
 7948                             531     ;;;     ADD     #_CAM_STRCUT,\BASE_REG          ;
 7949                             532     ;;;     M_BRA   JMP3\@                          ;ﾗﾍﾞﾙ
 7950                             533     ;;;
 7951                             534     ;;;JMP3\@:                                                      ;
 7952                             535     ;;;
 7953                             536     ;;;     .ENDM
 7954                             537     
 7955                             538     
 7956                             539     
 7957                             540     
 7958                             541     ;;;     .MACRO  POS_CAM_MOV2 RON_STEP,RON_DT,ROF_STEP,ROF_DT,BASE_REG,FLG_BIT,ON_SIN,OF_SI
                                          N
 7959                             542     ;;;     LDC     \BASE_REG,GBR                           ;
 7960                             543     ;;;     MOV.W   #\FLG_BIT,R12                           ;
 7961                             544     ;;;
 7962                             545     ;;;     MOV.L   #\RON_DT,R1                             ;
 7963                             546     ;;;     MOV.W   @R1,R2                                  ;
 7964                             547     ;;;
 7965                             548     ;;;     FAR_JSR #_SV_CLNK_DG_CHG_LINK_DG1,R0            ;ANS:R2
 7966                             549     ;;;
 7967                             550     ;;;;    ----------------------input r2------------------
 7968                             551     ;;;     MOV.L   #\ON_SIN,R1                             ;
 7969                             552     ;;;     MOV.W   @R1,R0                                  ;
 7970                             553     ;;;     SUB     R0,R2                                   ;
 7971                             554     ;;;     CMP/PZ  R2                                      ;
 7972                             555     ;;;     BT      JMP1\@                                  ;
 7973                             556     ;;;     MOV.W   #D'3600,R0                              ;
 7974                             557     ;;;     ADD     R0,R2                                   ;
 7975                             558     ;;;JMP1\@:                                                      ;
 7976                             559     ;;;;    ----------------------output r2--------------------
 7977                             560     ;;;     MOV     R2,R0                                   ;
 7978                             561     ;;;     MOV.W   R0,@(_CAM_ON_DIG,GBR)                   ;
 7979                             562     ;;;
 7980                             563     ;;;     MOV.L   #\RON_STEP,R1                   ;
 7981                             564     ;;;     MOV.W   @R1,R0                          ;
*** SuperH RISC engine ASSEMBLER V.7.01.02.000 ***    11/14/21 17:24:34                                                  PAGE    11
PROGRAM NAME =

 7982                             565     ;;;     FAR_JSR #_POS_CAM_STEP_DATA_CHK,R1      ;1~5,E,0ﾁｪｯｸ Input R0,R13, OUT R14,R0
 7983                             566     ;;;     MOV.W   R0,@(_CAM_ON_STP,GBR)           ;
 7984                             567     ;;;
 7985                             568     ;;;
 7986                             569     ;;;
 7987                             570     ;;;     MOV.L   #\ROF_DT,R1                     ;
 7988                             571     ;;;     MOV.W   @R1,R2                          ;
 7989                             572     ;;;     FAR_JSR #_SV_CLNK_DG_CHG_LINK_DG1,R0    ;(位置ｶﾑ)
 7990                             573     ;;;;    ----------------------input r2------------------
 7991                             574     ;;;     MOV.L   #\OF_SIN,R1                             ;
 7992                             575     ;;;     MOV.W   @R1,R0                                  ;
 7993                             576     ;;;     SUB     R0,R2                                   ;
 7994                             577     ;;;     CMP/PZ  R2                                      ;
 7995                             578     ;;;     BT      JMP2\@                                  ;
 7996                             579     ;;;     MOV.W   #D'3600,R0                              ;
 7997                             580     ;;;     ADD     R0,R2                                   ;
 7998                             581     ;;;JMP2\@:                                                      ;
 7999                             582     ;;;;    ----------------------output r2--------------------
 8000                             583     ;;;
 8001                             584     ;;;     MOV     R2,R0                           ;
 8002                             585     ;;;     MOV.W   R0,@(_CAM_OF_DIG,GBR)           ;
 8003                             586     ;;;
 8004                             587     ;;;     MOV.L   #\ROF_STEP,R1                   ;
 8005                             588     ;;;     MOV.W   @R1,R0                          ;
 8006                             589     ;;;     FAR_JSR #_POS_CAM_STEP_DATA_CHK,R1      ;1~5,E,0ﾁｪｯｸ Input R0,R12,R14, OUT R13,R14
                                          ,R0
 8007                             590     ;;;     MOV.W   R0,@(_CAM_OF_STP,GBR)           ;
 8008                             591     ;;;     ADD     #_CAM_STRCUT,\BASE_REG          ;
 8009                             592     ;;;     M_BRA   JMP3\@                          ;ﾗﾍﾞﾙ
 8010                             593     ;;;
 8011                             594     ;;;JMP3\@:                                                      ;
 8012                             595     ;;;
 8013                             596     ;;;     .ENDM
 8014                             597     
 8015                             598     
 8016                             599     
 8017                             600     _CAM_DATA_MOV:
 8018                             601             SUB_START
 8019                             602     
 8020                             603             XOR     R0,R0                           ;仮
 8021                             604             MOV.L   #_SIN_RCAM_ON_ERR1,R1           ;
 8022                             605             MOV.W   R0,@R1                          ;
 8023                             606             MOV.L   #_SIN_RCAM_OF_ERR1,R1           ;
 8024                             607             MOV.W   R0,@R1                          ;
 8025                             608     
 8026                             609     
 8027                             610             MOV.L   #_SETX_POS_STEP_MAX,R1                          ;//設定=1~10(2~11)
 8028                             611             MOV.W   @R1,R0                  ;
 8029                             612             MOV.L   #_CAM_STEP_MAX,R1       ;
 8030                             613             MOV.W   R0,@R1                  ;
 8031                             614     
 8032                             615             MOV.L   #_SET1_RCAMON_POS_TOP,R9        ;//後から考える
 8033                             616             XOR     R13,R13                         ;位置ｶﾑ=1,工程=0
 8034                             617             MOV.L   #_SEQAB_DP_TOP+38*2,R1          ;
 8035                             618             MOV.W   @R1,R14                         ;位置カム:ロータリカム
 8036                             619     
 8037                             620     
*** SuperH RISC engine ASSEMBLER V.7.01.02.000 ***    11/14/21 17:24:34                                                  PAGE    12
PROGRAM NAME =

 8038                             621     
 8039                             622             MOV.L   #_SVP_ROTCAM_ONR,R1     ;ﾛｰﾀﾘｶﾑ ON行程 ﾘﾋﾟｰﾄ戻り
 8040                             623             MOV.W   @R1,R10                 ;
 8041                             624             MOV.L   #_SVP_ROTCAM_OFR,R1     ;ﾛｰﾀﾘｶﾑ OFF行程 ﾘﾋﾟｰﾄ戻り
 8042                             625             MOV.W   @R1,R11                 ;
 8043                             626     
 8044                             627     
 8045                             628     ;;;;    POS_CAM_MOV1 _SVP_RCAMON_P000,_SVP_RCAMON_D000,_SVP_RCAMOF_P000,_SVP_RCAMOF_D000,R
                                          9,BIT0,0
 8046                             629     ;;;;    POS_CAM_MOV1 _SVP_RCAMON_P001,_SVP_RCAMON_D001,_SVP_RCAMOF_P001,_SVP_RCAMOF_D001,R
                                          9,BIT1,0
 8047                             630     ;;;;    POS_CAM_MOV1 _SVP_RCAMON_P002,_SVP_RCAMON_D002,_SVP_RCAMOF_P002,_SVP_RCAMOF_D002,R
                                          9,BIT2,0
 8048                             631     ;;;;    POS_CAM_MOV1 _SVP_RCAMON_P003,_SVP_RCAMON_D003,_SVP_RCAMOF_P003,_SVP_RCAMOF_D003,R
                                          9,BIT3,0
 8049                             632     ;;;;    POS_CAM_MOV1 _SVP_RCAMON_P004,_SVP_RCAMON_D004,_SVP_RCAMOF_P004,_SVP_RCAMOF_D004,R
                                          9,BIT4,0
 8050                             633     ;;;;    POS_CAM_MOV1 _SVP_RCAMON_P005,_SVP_RCAMON_D005,_SVP_RCAMOF_P005,_SVP_RCAMOF_D005,R
                                          9,BIT5,0
 8051                             634     ;;;;    POS_CAM_MOV1 _SVP_RCAMON_P006,_SVP_RCAMON_D006,_SVP_RCAMOF_P006,_SVP_RCAMOF_D006,R
                                          9,BIT6,0
 8052                             635     ;;;;    POS_CAM_MOV1 _SVP_RCAMON_P007,_SVP_RCAMON_D007,_SVP_RCAMOF_P007,_SVP_RCAMOF_D007,R
                                          9,BIT7,0
 8053                             636     
 8054                             637     
 8055                             638             POS_CAM_MOV2 _SVP_RCAMON_P000,_SVP_RCAMON_D000,_SVP_RCAMOF_P000,_SVP_RCAMOF_D000,R
                                          9,BIT0,
 8056                             639     +               _SIN_RCAM_ON_DIG+0*2,_SIN_RCAM_OF_DIG+0*2,_SIN_RCAMON_SW1,_SIN_RCAMOF_SW1
 8057                             640     
 8058                             641             POS_CAM_MOV2 _SVP_RCAMON_P001,_SVP_RCAMON_D001,_SVP_RCAMOF_P001,_SVP_RCAMOF_D001,R
                                          9,BIT1,
 8059                             642     +               _SIN_RCAM_ON_DIG+1*2,_SIN_RCAM_OF_DIG+1*2,_SIN_RCAMON_SW1,_SIN_RCAMOF_SW1
 8060                             643     
 8061                             644             POS_CAM_MOV2 _SVP_RCAMON_P002,_SVP_RCAMON_D002,_SVP_RCAMOF_P002,_SVP_RCAMOF_D002,R
                                          9,BIT2,
 8062                             645     +               _SIN_RCAM_ON_DIG+2*2,_SIN_RCAM_OF_DIG+2*2,_SIN_RCAMON_SW1,_SIN_RCAMOF_SW1
 8063                             646     
 8064                             647             POS_CAM_MOV2 _SVP_RCAMON_P003,_SVP_RCAMON_D003,_SVP_RCAMOF_P003,_SVP_RCAMOF_D003,R
                                          9,BIT3,
 8065                             648     +               _SIN_RCAM_ON_DIG+3*2,_SIN_RCAM_OF_DIG+3*2,_SIN_RCAMON_SW1,_SIN_RCAMOF_SW1
 8066                             649     
 8067                             650             POS_CAM_MOV2 _SVP_RCAMON_P004,_SVP_RCAMON_D004,_SVP_RCAMOF_P004,_SVP_RCAMOF_D004,R
                                          9,BIT4,
 8068                             651     +               _SIN_RCAM_ON_DIG+4*2,_SIN_RCAM_OF_DIG+4*2,_SIN_RCAMON_SW1,_SIN_RCAMOF_SW1
 8069                             652     
 8070                             653             POS_CAM_MOV2 _SVP_RCAMON_P005,_SVP_RCAMON_D005,_SVP_RCAMOF_P005,_SVP_RCAMOF_D005,R
                                          9,BIT5,
 8071                             654     +               _SIN_RCAM_ON_DIG+5*2,_SIN_RCAM_OF_DIG+5*2,_SIN_RCAMON_SW1,_SIN_RCAMOF_SW1
 8072                             655     
 8073                             656             POS_CAM_MOV2 _SVP_RCAMON_P006,_SVP_RCAMON_D006,_SVP_RCAMOF_P006,_SVP_RCAMOF_D006,R
                                          9,BIT6,
 8074                             657     +               _SIN_RCAM_ON_DIG+6*2,_SIN_RCAM_OF_DIG+6*2,_SIN_RCAMON_SW1,_SIN_RCAMOF_SW1
 8075                             658     
 8076                             659             POS_CAM_MOV2 _SVP_RCAMON_P007,_SVP_RCAMON_D007,_SVP_RCAMOF_P007,_SVP_RCAMOF_D007,R
                                          9,BIT7,
 8077                             660     +               _SIN_RCAM_ON_DIG+7*2,_SIN_RCAM_OF_DIG+7*2,_SIN_RCAMON_SW1,_SIN_RCAMOF_SW1
 8078                             661     
*** SuperH RISC engine ASSEMBLER V.7.01.02.000 ***    11/14/21 17:24:34                                                  PAGE    13
PROGRAM NAME =

 8079                             662             M_BRA   CAM_DATA_MV100
 8080                             663     
 8081                             664     CAM_DATA_MV100:
 8082                             665     ;;      POS_CAM_MOV1 _SVP_RCAMON_P008,_SVP_RCAMON_D008,_SVP_RCAMOF_P008,_SVP_RCAMOF_D008,R
                                          9,BIT8,0
 8083                             666     ;;      POS_CAM_MOV1 _SVP_RCAMON_P009,_SVP_RCAMON_D009,_SVP_RCAMOF_P009,_SVP_RCAMOF_D009,R
                                          9,BIT9,0
 8084                             667     ;;      POS_CAM_MOV1 _SVP_RCAMON_P00A,_SVP_RCAMON_D00A,_SVP_RCAMOF_P00A,_SVP_RCAMOF_D00A,R
                                          9,BIT10,0
 8085                             668     ;;      POS_CAM_MOV1 _SVP_RCAMON_P00B,_SVP_RCAMON_D00B,_SVP_RCAMOF_P00B,_SVP_RCAMOF_D00B,R
                                          9,BIT11,0
 8086                             669     ;;      POS_CAM_MOV1 _SVP_RCAMON_P00C,_SVP_RCAMON_D00C,_SVP_RCAMOF_P00C,_SVP_RCAMOF_D00C,R
                                          9,BIT12,0
 8087                             670     ;;      POS_CAM_MOV1 _SVP_RCAMON_P00D,_SVP_RCAMON_D00D,_SVP_RCAMOF_P00D,_SVP_RCAMOF_D00D,R
                                          9,BIT13,0
 8088                             671     ;;      POS_CAM_MOV1 _SVP_RCAMON_P00E,_SVP_RCAMON_D00E,_SVP_RCAMOF_P00E,_SVP_RCAMOF_D00E,R
                                          9,BIT14,0
 8089                             672     ;;      POS_CAM_MOV1 _SVP_RCAMON_P00F,_SVP_RCAMON_D00F,_SVP_RCAMOF_P00F,_SVP_RCAMOF_D00F,R
                                          9,BIT15,0
 8090                             673     
 8091                             674             POS_CAM_MOV2 _SVP_RCAMON_P008,_SVP_RCAMON_D008,_SVP_RCAMOF_P008,_SVP_RCAMOF_D008,R
                                          9,BIT8,
 8092                             675     +               _SIN_RCAM_ON_DIG+8*2,_SIN_RCAM_OF_DIG+8*2,_SIN_RCAMON_SW1,_SIN_RCAMOF_SW1
 8093                             676     
 8094                             677             POS_CAM_MOV2 _SVP_RCAMON_P009,_SVP_RCAMON_D009,_SVP_RCAMOF_P009,_SVP_RCAMOF_D009,R
                                          9,BIT9,
 8095                             678     +               _SIN_RCAM_ON_DIG+9*2,_SIN_RCAM_OF_DIG+9*2,_SIN_RCAMON_SW1,_SIN_RCAMOF_SW1
 8096                             679     
 8097                             680             POS_CAM_MOV2 _SVP_RCAMON_P00A,_SVP_RCAMON_D00A,_SVP_RCAMOF_P00A,_SVP_RCAMOF_D00A,R
                                          9,BIT10,
 8098                             681     +               _SIN_RCAM_ON_DIG+10*2,_SIN_RCAM_OF_DIG+10*2,_SIN_RCAMON_SW1,_SIN_RCAMOF_SW
                                          1
 8099                             682     
 8100                             683             POS_CAM_MOV2 _SVP_RCAMON_P00B,_SVP_RCAMON_D00B,_SVP_RCAMOF_P00B,_SVP_RCAMOF_D00B,R
                                          9,BIT11,
 8101                             684     +               _SIN_RCAM_ON_DIG+11*2,_SIN_RCAM_OF_DIG+11*2,_SIN_RCAMON_SW1,_SIN_RCAMOF_SW
                                          1
 8102                             685     
 8103                             686             POS_CAM_MOV2 _SVP_RCAMON_P00C,_SVP_RCAMON_D00C,_SVP_RCAMOF_P00C,_SVP_RCAMOF_D00C,R
                                          9,BIT12,
 8104                             687     +               _SIN_RCAM_ON_DIG+12*2,_SIN_RCAM_OF_DIG+12*2,_SIN_RCAMON_SW1,_SIN_RCAMOF_SW
                                          1
 8105                             688     
 8106                             689             POS_CAM_MOV2 _SVP_RCAMON_P00D,_SVP_RCAMON_D00D,_SVP_RCAMOF_P00D,_SVP_RCAMOF_D00D,R
                                          9,BIT13,
 8107                             690     +               _SIN_RCAM_ON_DIG+13*2,_SIN_RCAM_OF_DIG+13*2,_SIN_RCAMON_SW1,_SIN_RCAMOF_SW
                                          1
 8108                             691     
 8109                             692             POS_CAM_MOV2 _SVP_RCAMON_P00E,_SVP_RCAMON_D00E,_SVP_RCAMOF_P00E,_SVP_RCAMOF_D00E,R
                                          9,BIT14,
 8110                             693     +               _SIN_RCAM_ON_DIG+14*2,_SIN_RCAM_OF_DIG+14*2,_SIN_RCAMON_SW1,_SIN_RCAMOF_SW
                                          1
 8111                             694     
 8112                             695             POS_CAM_MOV2 _SVP_RCAMON_P00F,_SVP_RCAMON_D00F,_SVP_RCAMOF_P00F,_SVP_RCAMOF_D00F,R
                                          9,BIT15,
 8113                             696     +               _SIN_RCAM_ON_DIG+15*2,_SIN_RCAM_OF_DIG+15*2,_SIN_RCAMON_SW1,_SIN_RCAMOF_SW
                                          1
*** SuperH RISC engine ASSEMBLER V.7.01.02.000 ***    11/14/21 17:24:34                                                  PAGE    14
PROGRAM NAME =

 8114                             697     
 8115                             698             FAR_JSR #_INPMODE_CAMOUT_CHK,R0
 8116                             699             MOV.L   #_CAM_OUTPUT_SW+0*2,R1  ;//0,1,2(POS),3(TIM)
 8117                             700             MOV.W   R14,@R1                 ;
 8118                             701             M_BRA   CAM_DATA_MV200
 8119                             702     
 8120                             703     CAM_DATA_MV200:
 8121                             704             XOR     R13,R13                 ;位置ｶﾑ=1,工程=0
 8122                             705             MOV.L   #_SEQAB_DP_TOP+36*2,R1  ;
 8123                             706             MOV.W   @R1,R14                 ;
 8124                             707             MOV.W   #H'FF00,R3              ;ミスフィード
 8125                             708             OR      R3,R14                  ;内部カム
 8126                             709     
 8127                             710             MOV.L   #_SVP_MISCAM_ONR,R1     ;ﾐｽﾌｨｰﾄﾞ  ON行程 ﾘﾋﾟｰﾄ戻り
 8128                             711             MOV.W   @R1,R10                 ;
 8129                             712             EXTU.B  R10,R10                 ;BIT8~BIT15内部位置固定のｶﾑ
 8130                             713             MOV.L   #_SVP_MISCAM_OFR,R1     ;ﾐｽﾌｨｰﾄﾞ  OFF行程 ﾘﾋﾟｰﾄ戻り
 8131                             714             MOV.W   @R1,R11                 ;
 8132                             715             EXTU.B  R11,R11                 ;
 8133                             716     
 8134                             717     
 8135                             718             POS_CAM_MOV1 _SVP_RCAMON_P010,_SVP_RCAMON_D010,_SVP_RCAMOF_P010,_SVP_RCAMOF_D010,R
                                          9,BIT0,0
 8136                             719             POS_CAM_MOV1 _SVP_RCAMON_P011,_SVP_RCAMON_D011,_SVP_RCAMOF_P011,_SVP_RCAMOF_D011,R
                                          9,BIT1,0
 8137                             720             POS_CAM_MOV1 _SVP_RCAMON_P012,_SVP_RCAMON_D012,_SVP_RCAMOF_P012,_SVP_RCAMOF_D012,R
                                          9,BIT2,0
 8138                             721             POS_CAM_MOV1 _SVP_RCAMON_P013,_SVP_RCAMON_D013,_SVP_RCAMOF_P013,_SVP_RCAMOF_D013,R
                                          9,BIT3,0
 8139                             722             POS_CAM_MOV1 _SVP_RCAMON_P014,_SVP_RCAMON_D014,_SVP_RCAMOF_P014,_SVP_RCAMOF_D014,R
                                          9,BIT4,0
 8140                             723             POS_CAM_MOV1 _SVP_RCAMON_P015,_SVP_RCAMON_D015,_SVP_RCAMOF_P015,_SVP_RCAMOF_D015,R
                                          9,BIT5,0
 8141                             724             POS_CAM_MOV1 _SVP_RCAMON_P016,_SVP_RCAMON_D016,_SVP_RCAMOF_P016,_SVP_RCAMOF_D016,R
                                          9,BIT6,0
 8142                             725             POS_CAM_MOV1 _SVP_RCAMON_P017,_SVP_RCAMON_D017,_SVP_RCAMOF_P017,_SVP_RCAMOF_D017,R
                                          9,BIT7,0
 8143                             726             M_BRA   CAM_DATA_MV300
 8144                             727     
 8145                             728     CAM_DATA_MV300:
 8146                             729             POS_CAM_MOV1 _SVP_RCAMON_P018,_SVP_RCAMON_D018,_SVP_RCAMOF_P018,_SVP_RCAMOF_D018,R
                                          9,BIT8,0
 8147                             730             POS_CAM_MOV1 _SVP_RCAMON_P019,_SVP_RCAMON_D019,_SVP_RCAMOF_P019,_SVP_RCAMOF_D019,R
                                          9,BIT9,0
 8148                             731             POS_CAM_MOV1 _SVP_RCAMON_P01A,_SVP_RCAMON_D01A,_SVP_RCAMOF_P01A,_SVP_RCAMOF_D01A,R
                                          9,BIT10,0
 8149                             732             POS_CAM_MOV1 _SVP_RCAMON_P01B,_SVP_RCAMON_D01B,_SVP_RCAMOF_P01B,_SVP_RCAMOF_D01B,R
                                          9,BIT11,0
 8150                             733             POS_CAM_MOV1 _SVP_RCAMON_P01C,_SVP_RCAMON_D01C,_SVP_RCAMOF_P01C,_SVP_RCAMOF_D01C,R
                                          9,BIT12,0
 8151                             734             POS_CAM_MOV1 _SVP_RCAMON_P01D,_SVP_RCAMON_D01D,_SVP_RCAMOF_P01D,_SVP_RCAMOF_D01D,R
                                          9,BIT13,0
 8152                             735             POS_CAM_MOV1 _SVP_RCAMON_P01E,_SVP_RCAMON_D01E,_SVP_RCAMOF_P01E,_SVP_RCAMOF_D01E,R
                                          9,BIT14,0
 8153                             736             POS_CAM_MOV1 _SVP_RCAMON_P01F,_SVP_RCAMON_D01F,_SVP_RCAMOF_P01F,_SVP_RCAMOF_D01F,R
                                          9,BIT15,0
 8154                             737             FAR_JSR #_INPMODE_CAMOUT_CHK,R0
*** SuperH RISC engine ASSEMBLER V.7.01.02.000 ***    11/14/21 17:24:34                                                  PAGE    15
PROGRAM NAME =

 8155                             738             MOV.L   #_CAM_OUTPUT_SW+1*2,R1  ;//0,1,2(POS),3(TIM)
 8156                             739             MOV.W   R14,@R1                 ;
 8157                             740             M_BRA   CAM_DATA_MV400
 8158                             741     
 8159                             742     CAM_DATA_MV400:
 8160                             743             XOR     R13,R13                         ;位置ｶﾑ=1,工程=0        ;
 8161                             744             MOV.L   #_SEQAB_DP_TOP+34*2,R1          ;
 8162                             745             MOV.W   @R1,R14                         ;エジェクタ
 8163                             746             MOV     R14,R2                          ;
 8164                             747             SHLR8   R2                              ;BIT8~BIT15 選択
 8165                             748             NOT     R2,R2                           ;0:位置ｶﾑ 1:ﾀｲﾏｶﾑ 0のみ出力有効
 8166                             749             AND     R2,R14                          ;
 8167                             750             MOV.W   #H'00FF,R3                      ;
 8168                             751             AND     R3,R14                          ;
 8169                             752     
 8170                             753             MOV.L   #_SVP_EJECAM_ONR,R1             ;ｴｼﾞｪｸﾀ ON行程 ﾘﾋﾟｰﾄ戻り
 8171                             754             MOV.W   @R1,R10                         ;
 8172                             755             EXTU.B  R10,R10                         ;
 8173                             756             MOV.L   #_SVP_EJECAM_OFR,R1             ;ｴｼﾞｪｸﾀ OFF行程 ﾘﾋﾟｰﾄ戻り
 8174                             757             MOV.W   @R1,R11                         ;
 8175                             758             EXTU.B  R11,R11                         ;
 8176                             759     
 8177                             760             POS_CAM_MOV1 _SVP_RCAMON_P020,_SVP_RCAMON_D020,_SVP_RCAMOF_P020,_SVP_RCAMOF_D020,R
                                          9,BIT0,0
 8178                             761             POS_CAM_MOV1 _SVP_RCAMON_P021,_SVP_RCAMON_D021,_SVP_RCAMOF_P021,_SVP_RCAMOF_D021,R
                                          9,BIT1,0
 8179                             762             POS_CAM_MOV1 _SVP_RCAMON_P022,_SVP_RCAMON_D022,_SVP_RCAMOF_P022,_SVP_RCAMOF_D022,R
                                          9,BIT2,0
 8180                             763             POS_CAM_MOV1 _SVP_RCAMON_P023,_SVP_RCAMON_D023,_SVP_RCAMOF_P023,_SVP_RCAMOF_D023,R
                                          9,BIT3,0
 8181                             764             POS_CAM_MOV1 _SVP_RCAMON_P024,_SVP_RCAMON_D024,_SVP_RCAMOF_P024,_SVP_RCAMOF_D024,R
                                          9,BIT4,0
 8182                             765             POS_CAM_MOV1 _SVP_RCAMON_P025,_SVP_RCAMON_D025,_SVP_RCAMOF_P025,_SVP_RCAMOF_D025,R
                                          9,BIT5,0
 8183                             766             POS_CAM_MOV1 _SVP_RCAMON_P026,_SVP_RCAMON_D026,_SVP_RCAMOF_P026,_SVP_RCAMOF_D026,R
                                          9,BIT6,0
 8184                             767             POS_CAM_MOV1 _SVP_RCAMON_P027,_SVP_RCAMON_D027,_SVP_RCAMOF_P027,_SVP_RCAMOF_D027,R
                                          9,BIT7,0
 8185                             768             M_BRA   CAM_DATA_MV500
 8186                             769     
 8187                             770     CAM_DATA_MV500:
 8188                             771             XOR     R10,R10 ;未使用状態：予備
 8189                             772             XOR     R11,R11 ;
 8190                             773             POS_CAM_MOV1 _SVP_RCAMON_P028,_SVP_RCAMON_D028,_SVP_RCAMOF_P028,_SVP_RCAMOF_D028,R
                                          9,BIT8,0
 8191                             774             POS_CAM_MOV1 _SVP_RCAMON_P029,_SVP_RCAMON_D029,_SVP_RCAMOF_P029,_SVP_RCAMOF_D029,R
                                          9,BIT9,0
 8192                             775             POS_CAM_MOV1 _SVP_RCAMON_P02A,_SVP_RCAMON_D02A,_SVP_RCAMOF_P02A,_SVP_RCAMOF_D02A,R
                                          9,BIT10,0
 8193                             776             POS_CAM_MOV1 _SVP_RCAMON_P02B,_SVP_RCAMON_D02B,_SVP_RCAMOF_P02B,_SVP_RCAMOF_D02B,R
                                          9,BIT11,0
 8194                             777             POS_CAM_MOV1 _SVP_RCAMON_P02C,_SVP_RCAMON_D02C,_SVP_RCAMOF_P02C,_SVP_RCAMOF_D02C,R
                                          9,BIT12,0
 8195                             778             POS_CAM_MOV1 _SVP_RCAMON_P02D,_SVP_RCAMON_D02D,_SVP_RCAMOF_P02D,_SVP_RCAMOF_D02D,R
                                          9,BIT13,0
 8196                             779             POS_CAM_MOV1 _SVP_RCAMON_P02E,_SVP_RCAMON_D02E,_SVP_RCAMOF_P02E,_SVP_RCAMOF_D02E,R
                                          9,BIT14,0
*** SuperH RISC engine ASSEMBLER V.7.01.02.000 ***    11/14/21 17:24:34                                                  PAGE    16
PROGRAM NAME =

 8197                             780             POS_CAM_MOV1 _SVP_RCAMON_P02F,_SVP_RCAMON_D02F,_SVP_RCAMOF_P02F,_SVP_RCAMOF_D02F,R
                                          9,BIT15,0
 8198                             781             FAR_JSR #_INPMODE_CAMOUT_CHK,R0
 8199                             782             MOV.L   #_CAM_OUTPUT_SW+2*2,R1  ;//0,1,2(POS),3(TIM)
 8200                             783             MOV.W   R14,@R1                 ;
 8201                             784             M_BRA   CAM_DATA_MV600
 8202                             785     
 8203                             786     ;       ===== ﾀｲﾏｶﾑ=======
 8204                             787     CAM_DATA_MV600:
 8205                             788             MOV.L   #_SET1_RCAMON_TIM_TOP,R9        ;//後から考える
 8206                             789             XOR     R13,R13                         ;位置ｶﾑ=1,工程=0        ;
 8207                             790             MOV.L   #_SEQAB_DP_TOP+34*2,R1          ;
 8208                             791             MOV.W   @R1,R14                         ;エジェクタ
 8209                             792             MOV     R14,R2                          ;
 8210                             793             SHLR8   R2                              ;BIT8~BIT15 選択
 8211                             794             AND     R2,R14                          ;ﾀｲﾏのみ有効
 8212                             795             MOV.W   #H'00FF,R3                      ;
 8213                             796             AND     R3,R14                          ;
 8214                             797     
 8215                             798             MOV.L   #_SVP_EJECAM_ONR,R1             ;ｴｼﾞｪｸﾀ ON行程 ﾘﾋﾟｰﾄ戻り
 8216                             799             MOV.W   @R1,R10                         ;
 8217                             800             EXTU.B  R10,R10                         ;
 8218                             801             MOV.L   #_SVP_EJECAM_OFR,R1             ;ｴｼﾞｪｸﾀ OFF行程 ﾘﾋﾟｰﾄ戻り
 8219                             802             MOV.W   @R1,R11                         ;
 8220                             803             XOR     R11,R11                         ;OFF側の行程は存在しない
 8221                             804     
 8222                             805             POS_CAM_MOV1 _SVP_RCAMON_P100,_SVP_RCAMON_D100,_SVP_RCAMOF_P100,_SVP_RCAMOF_D100,R
                                          9,BIT0,1
 8223                             806             POS_CAM_MOV1 _SVP_RCAMON_P101,_SVP_RCAMON_D101,_SVP_RCAMOF_P101,_SVP_RCAMOF_D101,R
                                          9,BIT1,1
 8224                             807             POS_CAM_MOV1 _SVP_RCAMON_P102,_SVP_RCAMON_D102,_SVP_RCAMOF_P102,_SVP_RCAMOF_D102,R
                                          9,BIT2,1
 8225                             808             POS_CAM_MOV1 _SVP_RCAMON_P103,_SVP_RCAMON_D103,_SVP_RCAMOF_P103,_SVP_RCAMOF_D103,R
                                          9,BIT3,1
 8226                             809             POS_CAM_MOV1 _SVP_RCAMON_P104,_SVP_RCAMON_D104,_SVP_RCAMOF_P104,_SVP_RCAMOF_D104,R
                                          9,BIT4,1
 8227                             810             POS_CAM_MOV1 _SVP_RCAMON_P105,_SVP_RCAMON_D105,_SVP_RCAMOF_P105,_SVP_RCAMOF_D105,R
                                          9,BIT5,1
 8228                             811             POS_CAM_MOV1 _SVP_RCAMON_P106,_SVP_RCAMON_D106,_SVP_RCAMOF_P106,_SVP_RCAMOF_D106,R
                                          9,BIT6,1
 8229                             812             POS_CAM_MOV1 _SVP_RCAMON_P107,_SVP_RCAMON_D107,_SVP_RCAMOF_P107,_SVP_RCAMOF_D107,R
                                          9,BIT7,1
 8230                             813             M_BRA   CAM_DATA_MV700
 8231                             814     
 8232                             815     CAM_DATA_MV700:
 8233                             816             XOR     R10,R10 ;未使用状態：予備
 8234                             817             XOR     R11,R11 ;
 8235                             818             POS_CAM_MOV1 _SVP_RCAMON_P108,_SVP_RCAMON_D108,_SVP_RCAMOF_P108,_SVP_RCAMOF_D108,R
                                          9,BIT8,1
 8236                             819             POS_CAM_MOV1 _SVP_RCAMON_P109,_SVP_RCAMON_D109,_SVP_RCAMOF_P109,_SVP_RCAMOF_D109,R
                                          9,BIT9,1
 8237                             820             POS_CAM_MOV1 _SVP_RCAMON_P10A,_SVP_RCAMON_D10A,_SVP_RCAMOF_P10A,_SVP_RCAMOF_D10A,R
                                          9,BIT10,1
 8238                             821             POS_CAM_MOV1 _SVP_RCAMON_P10B,_SVP_RCAMON_D10B,_SVP_RCAMOF_P10B,_SVP_RCAMOF_D10B,R
                                          9,BIT11,1
 8239                             822             POS_CAM_MOV1 _SVP_RCAMON_P10C,_SVP_RCAMON_D10C,_SVP_RCAMOF_P10C,_SVP_RCAMOF_D10C,R
                                          9,BIT12,1
*** SuperH RISC engine ASSEMBLER V.7.01.02.000 ***    11/14/21 17:24:34                                                  PAGE    17
PROGRAM NAME =

 8240                             823             POS_CAM_MOV1 _SVP_RCAMON_P10D,_SVP_RCAMON_D10D,_SVP_RCAMOF_P10D,_SVP_RCAMOF_D10D,R
                                          9,BIT13,1
 8241                             824             POS_CAM_MOV1 _SVP_RCAMON_P10E,_SVP_RCAMON_D10E,_SVP_RCAMOF_P10E,_SVP_RCAMOF_D10E,R
                                          9,BIT14,1
 8242                             825             POS_CAM_MOV1 _SVP_RCAMON_P10F,_SVP_RCAMON_D10F,_SVP_RCAMOF_P10F,_SVP_RCAMOF_D10F,R
                                          9,BIT15,1
 8243                             826             FAR_JSR #_INPMODE_CAMOUT_CHK,R0
 8244                             827             MOV.L   #_CAM_OUTPUT_SW+3*2,R1  ;//0,1,2(POS),3(TIM)
 8245                             828             MOV.W   R14,@R1                 ;
 8246                             829     
 8247                             830             FAR_JSR #_MAIN_CAM_DATA_SORT,R0         ;
 8248                             831             SUB_END
 8249                             832             M_RTS
 8250                             833     
 8251                             834     
 8252                             835     
 8253                             836     ;       ***************************************************
 8254                             837     ;       ***             Input R0 / Output R0            ***
 8255                             838     ;       ***************************************************
 8256                             839     ;       指定された工程の前と後から判断
 8257                             840     ;       指定された工程が１なら、次の工程から求める
 8258                             841     ;       指定された工程が最後なら、その１つ前から
 8259                             842     ;       回転の場合
 8260                             843     ;       反転の場合
 8261                             844     ;       往復は考えない
 8262                             845     ;       Input R0:工程 /Output R0:方向 0:増加 1:減少
 8263                             846     _CAM_STEP_DIR_CALC:
 8264                             847             SUB_START
 8265                             848             XOR     R0,R0           ;
 8266                             849             SUB_END
 8267                             850             M_RTS
 8268                             851     
 8269                             852     ;       ***********************************************************
 8270                             853     ;       ***                                                     ***
 8271                             854     ;       ***     Input  R0:工程                                  ***
 8272                             855     ;       ***     Input  R12:BITn                                 ***
 8273                             856     ;       ***     Input  R14:入/切SW                              ***
 8274                             857     ;       ***                                                     ***
 8275                             858     ;       ***     Output R13:位置ｶﾑか工程ｶﾑか                     ***
 8276                             859     ;       ***     Output R14:ﾃﾞｰﾀ異常による出力ENB                ***
 8277                             860     ;       ***                                                     ***
 8278                             861     ;       ***********************************************************
 8279                             862     ;       "0"なら位置として扱う(R13のBITn=1(位置カム)　BITnはR12)
 8280                             863     ;       "-1"なら最終工程にする
 8281                             864     ;       "1~最終工程以外かﾁｪｯｸし、最終工程以外なら最終工程にする":出力はDISENABLE
 8282                             865     ;       工程ﾃﾞｰﾀ範囲ﾁｪｯｸ 1~6,"-1"以外ならMAXとする
 8283                             866     ;       "
 8284                             867     ;       _SETXはﾁｪｯｸされたﾃﾞｰﾀ
 8285                             868     ;       Input R0
 8286                             869     
 8287                             870     _POS_CAM_STEP_DATA_CHK:
 8288                             871             SUB_START
 8289                             872     
 8290                             873             PUSH_REG1 R12                                   ;2014-09-22
 8291                             874     
 8292                             875             CMP/EQ  #0,R0                                   ;
 8293                             876             BF      POS_CAM_SPDAT_CHK050                    ;
*** SuperH RISC engine ASSEMBLER V.7.01.02.000 ***    11/14/21 17:24:34                                                  PAGE    18
PROGRAM NAME =

 8294                             877             OR      R12,R13                                 ;BIT=1:単純位置カム
 8295                             878             M_BRA   POS_CAM_SPDAT_CHK200                    ;
 8296                             879     
 8297                             880     POS_CAM_SPDAT_CHK050:
 8298                             881             MOV.L   #_CAM_STEP_MAX,R1                       ;//設定=1~10(2~11)
 8299                             882             MOV.W   @R1,R2                                  ;
 8300                             883             ADD     #1,R2                                   ;
 8301                             884             MOV.W   #_GMN_LAST_STEP,R4                      ;
 8302                             885             CMP/EQ  R4,R0                                   ;LAST-STEP
 8303                             886             BF      POS_CAM_SPDAT_CHK100                    ;
 8304                             887             MOV     R2,R0                                   ;
 8305                             888             M_BRA   POS_CAM_SPDAT_CHK200                    ;
 8306                             889     
 8307                             890     POS_CAM_SPDAT_CHK100:                                   ;
 8308                             891     
 8309                             892             CMP/HS  R0,R2                                   ;
 8310                             893             BT      POS_CAM_SPDAT_CHK200                    ;R2(MAX) >= R0 ?
 8311                             894             NOT     R12,R1                                  ;
 8312                             895             AND     R1,R14                                  ;ﾃﾞｰﾀ異常出力禁止
 8313                             896     POS_CAM_SPDAT_CHK200:                                   ;
 8314                             897     
 8315                             898     
 8316                             899             POP_REG1 R12                                    ;2014-09-22
 8317                             900     
 8318                             901             SUB_END
 8319                             902             M_RTS
 8320                             903     
 8321                             904     ;       *******************************************
 8322                             905     ;       ***             なにもなくても          ***
 8323                             906     ;       *******************************************
 8324                             907     _TIM_CAM_STEP_DATA_CHK:
 8325                             908             SUB_START
 8326                             909             SUB_END
 8327                             910             M_RTS
 8328                             911     
 8329                             912     ;       *******************************************
 8330                             913     ;       ***     運転ﾓｰﾄﾞによる出力OFF作成       ***
 8331                             914     ;       *******************************************
 8332                             915     ;       Input  R13 位置=1/工程=0
 8333                             916     ;       Input  R14 出力ENB
 8334                             917     ;       Output R14
 8335                             918     ;
 8336                             919     ;       運転ﾓｰﾄﾞは確定したﾃﾞｰﾀを使用する。
 8337                             920     ;       非常停止状態時では工程ｶﾑは出力しない
 8338                             921     ;       運転ﾓｰﾄﾞが段取系なら工程CAMは出力しない
 8339                             922     ;       位置ｶﾑはいつでも出力する
 8340                             923     ;
 8341                             924     ;       単純位置カムでなければ、非常停止時、段取では出力OFFする。
 8342                             925     _INPMODE_CAMOUT_CHK:
 8343                             926             SUB_START
 8344                             927     ;;;     MOV.L   #_INP_MODE,R1                           ;
 8345                             928     
 8346                             929             XOR     R5,R5                                   ;(工程ｶﾑ出力OFF)
 8347                             930             MOV.L   #_emg_err_flg,R1                        ;
 8348                             931             MOV.W   @R1,R2                                  ;
 8349                             932             TST     R2,R2                                   ;
 8350                             933             TST_BIT_ON INPMODE_CAMOUT_CK_100                ;工程ｶﾑ出力しない<R5=0>
*** SuperH RISC engine ASSEMBLER V.7.01.02.000 ***    11/14/21 17:24:34                                                  PAGE    19
PROGRAM NAME =

 8351                             934     
 8352                             935             MOV.L   #_MODE_SEL,R1                           ;
 8353                             936             MOV.W   @R1,R0                                  ;
 8354                             937             MOV.W   #_W1INC+_W1SGL+_W1CNT+_W1OPT,R4         ;
 8355                             938             TST     R4,R0                                   ;
 8356                             939             TST_BIT_OF INPMODE_CAMOUT_CK_100                ;R5=0のまま(工程ｶﾑ出力OFF)
 8357                             940             MOV     #-1,R5                                  ;"FFFF"SET
 8358                             941     INPMODE_CAMOUT_CK_100:
 8359                             942             TST     R5,R5                                   ;
 8360                             943             TST_BIT_ON INPMODE_CAMOUT_CK_200                ;
 8361                             944     ;       ==== 工程ｶﾑ出力禁止 =====
 8362                             945     
 8363                             946             AND     R13,R14                                 ;R13のBITn=0は工程なので反転はいら
                                          ない
 8364                             947     INPMODE_CAMOUT_CK_200:
 8365                             948             SUB_END
 8366                             949             M_RTS
 8367                             950     
 8368                             951     ;       ***********************************************************
 8369                             952     ;       ***                                                     ***
 8370                             953     ;       ***     1.CAMの出力ｲﾈｰﾌﾞﾙをﾜｰｸにする                    ***
 8371                             954     ;       ***     2.内部ｶﾑを見かけ上・・・・                      ***
 8372                             955     ;       ***                                                     ***
 8373                             956     ;       ***     設定ﾃﾞｰﾀを運転と比較できる用にする,方向         ***
 8374                             957     ;       ***                                                     ***
 8375                             958     ;       ***********************************************************
 8376                             959     ;       ===     CPUA    ===
 8377                             960     ;       U2b     SET1_OBJ_CAM_DIG_TOP[40*2]      ;//+0*2:待機点 +1*2方向 +2*2　目標位置,,+
                                          最後 待機点
 8378                             961     ;                               工程指定時
 8379                             962     ;       +0*2 :方向(0=>1)        (1)正転から開始する
 8380                             963     ;       +1*2 :目標位置１        (1)
 8381                             964     ;       +2*2 :１->2方向         (2)
 8382                             965     ;       +3*2 :目標位置２        (2)
 8383                             966     ;       +4*2 :2->3              (3)
 8384                             967     ;       +5*2 :目標位置３        (3)待機点より小さければ、＋３６０したデータで比較する
 8385                             968     ;       +4*2 :3->4              (4)
 8386                             969     ;       +5*2 :目標位置４        (4)
 8387                             970     ;       +4*2 :4->5              (5)
 8388                             971     ;       +5*2 :目標位置５        (5)
 8389                             972     ;       +4*2 :5->6              (6)(反転時は逆転で戻る,正転時は正転で進む)
 8390                             973     ;       +5*2 :待機点            (6)
 8391                             974     ;
 8392                             975     ;       ＣＡＭデータ側に方向をいれておく
 8393                             976     ;
 8394                             977     ;
 8395                             978     ;
 8396                             979     _MAIN_CAM_DATA_SORT:
 8397                             980             SUB_START
 8398                             981     
 8399                             982             MOV.L   #_CAM_STEP_MAX,R1                       ;//設定=1~10(2~11)
 8400                             983             MOV.W   @R1,R7                                  ;LOOP
 8401                             984             ADD     #1,R7                                   ;
 8402                             985             MOV.L   #_SETX_UPAREA_DIG,R1                    ;2;回転時待機点(上死点)
 8403                             986             MOV.W   @R1,R8                                  ;上死点
 8404                             987             MOV.W   #1,R13                                  ;
 8405                             988             MOV.L   #_SET1_OBJECT_DIG_TOP,R5                ;
*** SuperH RISC engine ASSEMBLER V.7.01.02.000 ***    11/14/21 17:24:34                                                  PAGE    20
PROGRAM NAME =

 8406                             989             MOV.L   #_SETX_POS_SDAT1_INF1,R14               ;BIT1=0正転 4byte
 8407                             990             MOV.L   #_SET1_OBJ_CAM_DIG_TOP,R6               ;
 8408                             991     
 8409                             992     MAIN_CAM_DATSRT1_LOP1:
 8410                             993             TST     R7,R7                                   ;
 8411                             994             TST_BIT_OF MAIN_CAM_DATSRT1_EXT                 ;
 8412                             995             MOV.L   @R14+,R0                                ;方向
 8413                             996             AND     #BIT1,R0                                ;
 8414                             997             MOV.W   R0,@R6                                  ;DIRCT +0
 8415                             998             ADD     #2,R6                                   ;
 8416                             999             MOV.W   @R5+,R3                                 ;
 8417                            1000             CMP/EQ  R13,R7                                  ;LAST
 8418                            1001             BF      MAIN_CAM_DATSRT1_L100                   ;
 8419                            1002             MOV     R8,R3                                   ;待機点save
 8420                            1003     MAIN_CAM_DATSRT1_L100:                                  ;
 8421                            1004             MOV.W   R3,@R6                                  ;OBJ
 8422                            1005             ADD     #2,R6                                   ;
 8423                            1006             ADD     #-1,R7                                  ;
 8424                            1007             M_BRA   MAIN_CAM_DATSRT1_LOP1                   ;
 8425                            1008     MAIN_CAM_DATSRT1_EXT:
 8426                            1009             SUB_END
 8427                            1010             M_RTS
 8428                            1011     
 8429                            1012     
 8430                            1013             .AELSE
 8431                            1014 C   ;       ===     CPUB    ===
 8432 00000000                   1015 C   _CAM_DATA_MOV:
 8433                            1016 C           SUB_START
 8434 00000000 4F22                   M           STS.L   PR,@-R15                ;[必要]
 8435                                 M   ;;;;;;; ADD     #-4,R15                 ;[不要?]
 8436                            1017 C           SUB_END
 8437                                 M   ;;;;;;; ADD     #4,R15                  ;[不要?]
 8438 00000002 4F26                   M           LDS.L   @R15+,PR                ;[必要]
 8439                            1018 C           M_RTS
 8440 00000004 000B                   M           RTS                             ;RTSの後ろの
 8441 00000006 0009                   M           NOP                             ;@R15+,PRはﾀﾞﾒ
 8442 00000008                   1019 C   _MAIN_CAM_DATA_SORT:
 8443                            1020 C           SUB_START
 8444 00000008 4F22                   M           STS.L   PR,@-R15                ;[必要]
 8445                                 M   ;;;;;;; ADD     #-4,R15                 ;[不要?]
 8446                            1021 C           SUB_END
 8447                                 M   ;;;;;;; ADD     #4,R15                  ;[不要?]
 8448 0000000A 4F26                   M           LDS.L   @R15+,PR                ;[必要]
 8449                            1022 C           M_RTS
 8450 0000000C 000B                   M           RTS                             ;RTSの後ろの
 8451 0000000E 0009                   M           NOP                             ;@R15+,PRはﾀﾞﾒ
 8452                            1023             .AENDI
 8453                            1024     
 8454                            1025     
 8455                            1026             .EXPORT _CAM_CTRL
 8456                            1027             .AIF    1 EQ    0
 8457                            1028     ;       ===     CPUA    ===
 8458                            1029     ;       <2.5msec>
 8459                            1030     _CAM_CTRL:
 8460                            1031             SUB_START
 8461                            1032     ;       ===============================
 8462                            1033     ;       ==<反転と回転でみるカムを変える?>
*** SuperH RISC engine ASSEMBLER V.7.01.02.000 ***    11/14/21 17:24:34                                                  PAGE    21
PROGRAM NAME =

 8463                            1034             MOV.L   #_SETX_POS_CTL_MATH,R1          ;
 8464                            1035             MOV.W   @R1,R0                          ;
 8465                            1036             MOV.L   #_DNM_CTL_INC3600,R1            ;//CAM、ﾛｯﾄｶｳﾝﾀ、荷重用
 8466                            1037             MOV.W   @R1,R2                          ;
 8467                            1038             MOV.L   #_CAM_NOW_DIG,R1                ;
 8468                            1039             MOV.W   R2,@R1                          ;
 8469                            1040             MOV     R2,R6                           ;R6:現在角度として使用
 8470                            1041     
 8471                            1042     ;;;;;;-----------1度単位で扱う==>0.1度単位に変更2014-09-09 + ﾘﾆｱ位置でｶﾑは行わない========
                                          =======
 8472                            1043     ;;;;;(1度単位に変換:ﾊﾞｯｸﾗｯｼ対策とする)
 8473                            1044     ;;;;;   ------ 2014-09-09 CAMの性質を考えればリニアで制御するのは変
 8474                            1045     ;;;;;   TST     #_DMATH_CNTROT+_DMATH_DNDRIV,R0 ;
 8475                            1046     ;;;;;   TST_BIT_ON CAM_CTL_ENC050       ;
 8476                            1047     ;;;;;   MOV.L   #_RNA_ENC360,R1         ;//ﾘﾆｱｽｹ-ﾙ
 8477                            1048     ;;;;;CAM_CTL_ENC050:                            ;
 8478                            1049     ;;;;;;  MOV.W   @R1,R2                  ;(1度単位に変換:ﾊﾞｯｸﾗｯｼ対策とする)
 8479                            1050     ;;;;;;  ==== 4舎５入 ===
 8480                            1051     ;;;;;   ADD     #5,R2                                           ;
 8481                            1052     ;;;;;   MOV.W   #D'10,R4                                        ;
 8482                            1053     ;;;;;   FAR_JSR #_FPU_DIVS_32REG2_32REG1_R4_32REG2_R2,R0        ;
 8483                            1054     ;;;;;   DMULS.L R4,R2                   ;
 8484                            1055     ;;;;;   STS     MACL,R6                 ;
 8485                            1056     ;;;;;   MOV.W   #D'3600,R4              ;
 8486                            1057     ;;;;;   CMP/HI  R6,R4                   ;
 8487                            1058     ;;;;;   BT      CAM_CTL_ENC080          ;
 8488                            1059     ;;;;;   SUB     R4,R6                   ;
 8489                            1060     ;;;;;CAM_CTL_ENC080:                            ;
 8490                            1061     ;;;;;   MOV.L   #_CAM_NOW_DIG,R1        ;
 8491                            1062     ;;;;;   MOV.W   R6,@R1                  ;
 8492                            1063     
 8493                            1064     
 8494                            1065             MOV.L   #_INT_POS_CTL_STEP,R1           ;//内部制御工程1~11
 8495                            1066             MOV.W   @R1,R14                         ;
 8496                            1067             MOV.W   #1,R2                           ;
 8497                            1068             CMP/EQ  R2,R14                          ;
 8498                            1069             BT      CAM_CTL_STPCHK050               ;
 8499                            1070             XOR     R0,R0                           ;内部上行程２〜行程６ならフラグは０
 8500                            1071             MOV.L   #_CAM_CNT_CHG_FLG,R1            ;
 8501                            1072             MOV.W   R0,@R1                          ;
 8502                            1073             M_BRA   CAM_CTL_STPCHK200               ;
 8503                            1074     
 8504                            1075     CAM_CTL_STPCHK050:                              ;
 8505                            1076             MOV.L   #_CAM_CNT_CHG_FLG,R1            ;
 8506                            1077             MOV.W   @R1,R0                          ;=1:内部上は行程１
 8507                            1078             TST     R0,R0                           ;
 8508                            1079             TST_BIT_OF CAM_CTL_STPCHK200            ;
 8509                            1080     ;       ============>>>FLG=1(回転の連続の最後近辺の行程) <<<=======
 8510                            1081             FAR_JSR #_CAM_STEP_PROC_CHANGE,R0       ;//回転・連続の時
 8511                            1082             MOV.L   #_CAM_POS_CTL_STEP,R1           ;//内部制御工程1~11
 8512                            1083             MOV.W   @R1,R14                         ;1行程の時だけ今の位置からカム用の行程を作
                                          る
 8513                            1084     
 8514                            1085     CAM_CTL_STPCHK200:                              ;
 8515                            1086             MOV.L   #_CAM_POS_CTL_STEP,R1           ;//内部制御工程1~11
 8516                            1087             MOV.W   R14,@R1                         ;
 8517                            1088     
*** SuperH RISC engine ASSEMBLER V.7.01.02.000 ***    11/14/21 17:24:34                                                  PAGE    22
PROGRAM NAME =

 8518                            1089     
 8519                            1090     
 8520                            1091             TST     R14,R14                 ;
 8521                            1092             TST_BIT_OF CAM_CTL_CHK020       ;
 8522                            1093             MOV.L   #_CAM_STEP_NO,R1        ;
 8523                            1094             MOV.W   R14,@R1                 ;
 8524                            1095     CAM_CTL_CHK020:                         ;
 8525                            1096     
 8526                            1097             MOV.L   #_CAM_STEP_NO,R1        ;
 8527                            1098             MOV.W   @R1,R14                 ;
 8528                            1099     
 8529                            1100             MOV.L   #_emg_err_flg,R1        ;
 8530                            1101             MOV.W   @R1,R0                  ;
 8531                            1102             TST     R0,R0                   ;
 8532                            1103             TST_BIT_OF CAM_CTL_CHK040       ;
 8533                            1104             XOR     R14,R14                 ;
 8534                            1105     CAM_CTL_CHK040:                         ;
 8535                            1106     
 8536                            1107             MOV.L   #_CAM_STEP_NO_OLD,R1    ;
 8537                            1108             MOV.W   @R1,R13                 ;
 8538                            1109             MOV.W   R14,@R1                 ;
 8539                            1110             TST     R13,R13                 ;OLD=0?
 8540                            1111             TST_BIT_ON CAM_CTL_CHK050       ;
 8541                            1112             MOV     R14,R13                 ;
 8542                            1113     CAM_CTL_CHK050:                                 ;
 8543                            1114             TST     R14,R14                         ;
 8544                            1115             TST_BIT_OF CAM_CTL_CHK100               ;
 8545                            1116             MOV     R14,R1                          ;
 8546                            1117             ADD     #-1,R1                          ;
 8547                            1118             SHLL2   R1                              ;
 8548                            1119             MOV.L   #_SET1_OBJ_CAM_DIG_TOP,R0       ;
 8549                            1120             ADD     R0,R1                           ;
 8550                            1121             MOV.W   @R1+,R9                         ;(この行程の進行方向)
 8551                            1122             MOV.W   @R1,R10                         ;(この行程の目標角度)
 8552                            1123     
 8553                            1124     ;       === R9 :現在の工程の目標位置の方向
 8554                            1125     ;       === R10:現在の工程の目標位置
 8555                            1126     ;       -----------------------------
 8556                            1127     ;       -----   繰返戻行程      -----
 8557                            1128     ;       -----------------------------
 8558                            1129             MOV.L   #_MOT_REP_F,R1          ;//BIT0(ﾘﾋﾟｰﾄ動作
 8559                            1130             MOV.W   @R1,R0                  ;
 8560                            1131             TST     #BIT0,R0                ;
 8561                            1132             TST_BIT_OF CAM_CTL_CHK100       ;
 8562                            1133             MOV.L   #_SETX_MOTREP_DIR,R1    ;//設定上どっちの方向　  1:-1
 8563                            1134             MOV.W   @R1,R9                  ;方向
 8564                            1135             MOV.L   #_REP_CAMOBJ_DIG,R1     ;//ｶﾑ用の戻り目標角度
 8565                            1136             MOV.W   @R1,R10                 ;
 8566                            1137     
 8567                            1138     
 8568                            1139     
 8569                            1140     
 8570                            1141     CAM_CTL_CHK100:                         ;R6,R9,R10,R13,R14
 8571                            1142     
 8572                            1143     ;       === R6 :現在角度
 8573                            1144     ;       (=== R7 :BIT)
 8574                            1145     ;       (=== R8 :ON/OFF)
*** SuperH RISC engine ASSEMBLER V.7.01.02.000 ***    11/14/21 17:24:34                                                  PAGE    23
PROGRAM NAME =

 8575                            1146     ;       === R9 :現在の工程の目標位置の方向
 8576                            1147     ;       === R10:現在の工程の目標位置
 8577                            1148     ;       === R13:前回工程PV
 8578                            1149     ;       === R14:現在工程PV
 8579                            1150     
 8580                            1151     ;       ===========================================
 8581                            1152     ;       ===             ロータリカム            ===
 8582                            1153     ;       ===========================================
 8583                            1154             MOV.L   #_SET1_RCAMON_POS_TOP,R0                ;//後から考える
 8584                            1155             LDC     R0,GBR                                  ;
 8585                            1156             MOV.L   #_CAM_OUTPUT_SW+0*2,R1                  ;//0,1,2(POS),3(TIM) 出力OFF/ON
 8586                            1157             MOV.W   @R1,R5                                  ;
 8587                            1158             MOV.L   #_CAM_SELECT_SW+0*2,R1                  ;1:ﾀｲﾏｶﾑ/0:位置ｶﾑ
 8588                            1159             MOV.W   @R1,R3                                  ;
 8589                            1160             MOV.L   #_CAM_OUTPUT_DT+0*2,R1                  ;
 8590                            1161             MOV.W   @R1,R8                                  ;
 8591                            1162             FAR_JSR #_POS_CAM16CH_CALC1,R0                  ;
 8592                            1163             MOV.L   #_CAM_OUTPUT_DT+0*2,R1                  ;
 8593                            1164             MOV.W   R8,@R1                                  ;
 8594                            1165     
 8595                            1166     ;       ======= フィーダ、内部カム =======
 8596                            1167             MOV.L   #_SET1_RCAMON_POS_TOP+16*1*_CAM_STRCUT,R0       ;//後から考える
 8597                            1168             LDC     R0,GBR                                  ;
 8598                            1169             MOV.L   #_CAM_OUTPUT_SW+1*2,R1                  ;//0,1,2(POS),3(TIM) 出力OFF/ON
 8599                            1170             MOV.W   @R1,R5                                  ;
 8600                            1171             MOV.L   #_CAM_SELECT_SW+1*2,R1                  ;1:ﾀｲﾏｶﾑ/0:位置ｶﾑ
 8601                            1172             MOV.W   @R1,R3                                  ;
 8602                            1173             MOV.L   #_CAM_OUTPUT_DT+1*2,R1                  ;
 8603                            1174             MOV.W   @R1,R8                                  ;
 8604                            1175             FAR_JSR #_POS_CAM16CH_CALC1,R0                  ;
 8605                            1176             MOV.L   #_CAM_OUTPUT_DT+1*2,R1                  ;
 8606                            1177             MOV.W   R8,@R1                                  ;
 8607                            1178     
 8608                            1179     ;       === エジェクタ・位置 ===
 8609                            1180             MOV.L   #_SET1_RCAMON_POS_TOP+16*2*_CAM_STRCUT,R0       ;//後から考える
 8610                            1181             LDC     R0,GBR                                          ;
 8611                            1182             MOV.L   #_CAM_OUTPUT_SW+2*2,R1                  ;//0,1,2(POS),3(TIM) 出力OFF/ON
 8612                            1183             MOV.W   @R1,R5                                  ;
 8613                            1184             MOV.L   #_CAM_SELECT_SW+2*2,R1                  ;1:ﾀｲﾏｶﾑ/0:位置ｶﾑ
 8614                            1185             MOV.W   @R1,R3                                  ;
 8615                            1186             MOV.L   #_CAM_OUTPUT_DT+2*2,R1                  ;
 8616                            1187             MOV.W   @R1,R8                                  ;
 8617                            1188             FAR_JSR #_POS_CAM16CH_CALC1,R0                  ;
 8618                            1189             MOV.L   #_CAM_OUTPUT_DT+2*2,R1                  ;
 8619                            1190             MOV.W   R8,@R1                                  ;
 8620                            1191     
 8621                            1192     ;       === エジェクタ・タイマ ===
 8622                            1193             MOV.L   #_SET1_RCAMON_TIM_TOP,R0        ;//後から考える
 8623                            1194             LDC     R0,GBR                                          ;
 8624                            1195             MOV.L   #_CAM_OUTPUT_SW+3*2,R1                  ;//0,1,2(POS),3(TIM) 出力OFF/ON
 8625                            1196             MOV.W   @R1,R5                                  ;
 8626                            1197             MOV.L   #_CAM_SELECT_SW+3*2,R1                  ;1:ﾀｲﾏｶﾑ/0:位置ｶﾑ
 8627                            1198             MOV.W   @R1,R3                                  ;
 8628                            1199             MOV.L   #_CAM_OUTPUT_DT+3*2,R1                  ;
 8629                            1200             MOV.W   @R1,R8                                  ;
 8630                            1201             FAR_JSR #_TIM_CAM16CH_CALC1,R0                  ;
 8631                            1202             MOV.L   #_CAM_OUTPUT_DT+3*2,R1                  ;
*** SuperH RISC engine ASSEMBLER V.7.01.02.000 ***    11/14/21 17:24:34                                                  PAGE    24
PROGRAM NAME =

 8632                            1203             MOV.W   R8,@R1                                  ;
 8633                            1204     
 8634                            1205     
 8635                            1206     CAM_CTRL_0900:
 8636                            1207             MOV.L   #_CAM_OUTPUT_DT,R5      ;
 8637                            1208             MOV.L   #_SEQAB_DP_TOP+360*2,R6 ;
 8638                            1209             MOV.W   @R5+,R1                 ;
 8639                            1210             MOV.W   R1,@R6                  ;360(POS)
 8640                            1211             ADD     #2,R6                   ;
 8641                            1212             MOV.W   @R5+,R1                 ;
 8642                            1213             MOV.W   R1,@R6                  ;361(POS)
 8643                            1214             ADD     #2,R6                   ;
 8644                            1215             MOV.W   @R5+,R1                 ;
 8645                            1216             MOV.W   R1,@R6                  ;362(POS)
 8646                            1217             ADD     #2,R6                   ;
 8647                            1218             MOV.W   @R5+,R1                 ;
 8648                            1219             MOV.W   R1,@R6                  ;363(POS)
 8649                            1220             ADD     #2,R6                   ;
 8650                            1221             MOV.W   @R5+,R1                 ;
 8651                            1222             MOV.W   R1,@R6                  ;364(TIM)
 8652                            1223     
 8653                            1224     ;       ===========================
 8654                            1225     ;       ===     ﾘﾌﾚｯｼｭ          ===
 8655                            1226     ;       ===========================
 8656                            1227             MOV.L   #_CAM_NOW_DIG,R1        ;
 8657                            1228             MOV.W   @R1,R6                  ;
 8658                            1229     
 8659                            1230             MOV.L   #_CAM_OLD_DIG,R1        ;
 8660                            1231             MOV.W   R6,@R1                  ;
 8661                            1232     
 8662                            1233             XOR     R0,R0
 8663                            1234             MOV.L   #_CAM_POS_STEP_END_FLG1,R1      ;//各工程の
 8664                            1235             MOV.W   R0,@R1                          ;
 8665                            1236             MOV.L   #_CAM_POS_STEP_END_FLG2,R1      ;//各工程の
 8666                            1237             MOV.W   R0,@R1                          ;
 8667                            1238     
 8668                            1239     ;       -------- 2021-06-29 ADD 汎用出力+ミス検---------------
 8669                            1240             FAR_JSR #_GAMEN_SEL_HANYOU_CALC,R0              ;
 8670                            1241             FAR_JSR #_MISS_KEN_FEEDER_CALC,R0               ;
 8671                            1242     
 8672                            1243             SUB_END
 8673                            1244             M_RTS
 8674                            1245     
 8675                            1246     
 8676                            1247     
 8677                            1248     
 8678                            1249     ;       ***********************************
 8679                            1250     ;       ***                             ***
 8680                            1251     ;       ***     工程付  位置カム        ***
 8681                            1252     ;       ***             位置カム        ***
 8682                            1253     ;       ***                             ***
 8683                            1254     ;       ***********************************
 8684                            1255     ;       16ﾁｬﾝﾈﾙ分
 8685                            1256     ;       === R6 :現在角度
 8686                            1257     ;       (=== R7 :BIT)
 8687                            1258     ;       === R8 :ON/OFF
 8688                            1259     ;       === R9 :現在の工程の目標位置の方向
*** SuperH RISC engine ASSEMBLER V.7.01.02.000 ***    11/14/21 17:24:34                                                  PAGE    25
PROGRAM NAME =

 8689                            1260     ;       === R10:現在の工程の目標位置
 8690                            1261     ;       === R13:前回工程PV
 8691                            1262     ;       === R14:現在工程PV
 8692                            1263     ;       MOV.L   #_CAM_OUTPUT_SW+0*2,R1                  ;//0,1,2(POS),3(TIM) 出力OFF/ON
 8693                            1264     ;       MOV.W   @R1,R5                                  ;
 8694                            1265     ;       MOV.L   #_CAM_SELECT_SW+0*2,R1                  ;1:ﾀｲﾏｶﾑ/0:位置ｶﾑ
 8695                            1266     ;       MOV.W   @R1,R3                                  ;
 8696                            1267             .MACRO  CAM_ON1
 8697                            1268             OR      R7,R8           ;ON
 8698                            1269             .ENDM
 8699                            1270     
 8700                            1271             .MACRO  CAM_OF1
 8701                            1272             NOT     R7,R4           ;
 8702                            1273             AND     R4,R8           ;OFF
 8703                            1274             .ENDM
 8704                            1275     
 8705                            1276     _POS_CAM16CH_CALC1:
 8706                            1277             SUB_START
 8707                            1278             MOV.W   #BIT0,R7                                ;
 8708                            1279             MOV.W   #16,R2                                  ;
 8709                            1280     
 8710                            1281     POS_CAM16CH_CALOP00:                                    ;
 8711                            1282             TST     R7,R5                                   ;ENABLE?
 8712                            1283             TST_BIT_ON POS_CAM16CH_CAL100                   ;
 8713                            1284             CAM_OF1                                         ;
 8714                            1285             M_BRA   POS_CAM16CH_CAL400                      ;
 8715                            1286     
 8716                            1287     POS_CAM16CH_CAL100:
 8717                            1288             PUSH_REG1 R2                                    ;
 8718                            1289             PUSH_REG1 R5                                    ;
 8719                            1290             MOV.L   #_CAM_POS_STEP_END_FLG1,R1      ;//各工程の位置決め完了
 8720                            1291             MOV.W   @R1,R5                          ;
 8721                            1292             TST     R5,R5                           ;
 8722                            1293             TST_BIT_OF POS_CAM16CH_CAL120           ;
 8723                            1294             NOP
 8724                            1295     POS_CAM16CH_CAL120:
 8725                            1296             FAR_JSR #_CAM_PROC1_POS,R0                      ;
 8726                            1297             POP_REG1 R5
 8727                            1298             POP_REG1 R2                                     ;
 8728                            1299     POS_CAM16CH_CAL400:
 8729                            1300             SHLL    R7                                      ;BIT SHIFT
 8730                            1301             ADD     #-1,R2                                  ;
 8731                            1302             STC     GBR,R0                                  ;
 8732                            1303             ADD     #_CAM_STRCUT,R0
 8733                            1304             LDC     R0,GBR                                  ;
 8734                            1305     
 8735                            1306             TST     R2,R2                                   ;
 8736                            1307             TST_BIT_OF POS_CAM16CH_CAL500                   ;
 8737                            1308             M_BRA   POS_CAM16CH_CALOP00                     ;
 8738                            1309     POS_CAM16CH_CAL500:
 8739                            1310             SUB_END
 8740                            1311             M_RTS
 8741                            1312     
 8742                            1313     ;       ***********************************
 8743                            1314     ;       ***                             ***
 8744                            1315     ;       ***     工程付  タイマカム      ***
 8745                            1316     ;       ***     工程                    ***
*** SuperH RISC engine ASSEMBLER V.7.01.02.000 ***    11/14/21 17:24:34                                                  PAGE    26
PROGRAM NAME =

 8746                            1317     ;       ***     工程なし+TIM            ***
 8747                            1318     ;       ***********************************
 8748                            1319     _TIM_CAM16CH_CALC1:
 8749                            1320             SUB_START
 8750                            1321             MOV.W   #BIT0,R7                                ;
 8751                            1322             MOV.W   #16,R2                                  ;
 8752                            1323     
 8753                            1324     TIM_CAM16CH_CALOP00:                                    ;
 8754                            1325             TST     R7,R5                                   ;ENABLE?
 8755                            1326             TST_BIT_ON TIM_CAM16CH_CAL100                   ;
 8756                            1327             CAM_OF1                                         ;
 8757                            1328             M_BRA   TIM_CAM16CH_CAL400                      ;
 8758                            1329     
 8759                            1330     TIM_CAM16CH_CAL100:
 8760                            1331             PUSH_REG1 R2                                    ;
 8761                            1332             PUSH_REG1 R5                                    ;
 8762                            1333             FAR_JSR #_CAM_PROC1_TIM,R0                      ;
 8763                            1334             POP_REG1 R5
 8764                            1335             POP_REG1 R2                                     ;
 8765                            1336     TIM_CAM16CH_CAL400:
 8766                            1337             SHLL    R7                                      ;BIT SHIFT
 8767                            1338             ADD     #-1,R2                                  ;
 8768                            1339             STC     GBR,R0                                  ;
 8769                            1340             ADD     #_CAM_STRCUT,R0
 8770                            1341             LDC     R0,GBR                                  ;
 8771                            1342     
 8772                            1343             TST     R2,R2                                   ;
 8773                            1344             TST_BIT_OF TIM_CAM16CH_CAL500                   ;
 8774                            1345             M_BRA   TIM_CAM16CH_CALOP00                     ;
 8775                            1346     TIM_CAM16CH_CAL500:
 8776                            1347             SUB_END
 8777                            1348             M_RTS
 8778                            1349     
 8779                            1350     
 8780                            1351     
 8781                            1352     
 8782                            1353     
 8783                            1354     
 8784                            1355     ;       ***********************************
 8785                            1356     ;       ***                             ***
 8786                            1357     ;       ***     １個の工程カム演算      ***
 8787                            1358     ;       ***     (位置タイプ)            ***
 8788                            1359     ;       ***                             ***
 8789                            1360     ;       ***********************************
 8790                            1361     ;       CASE1:開始工程<終了工程
 8791                            1362     ;       CASE2:開始工程==終了工程
 8792                            1363     ;       CASE3:開始工程>終了工程
 8793                            1364     ;       "10msec"
 8794                            1365     ;
 8795                            1366     ;
 8796                            1367     ;       === R6 :現在角度
 8797                            1368     ;       === R7 :BIT
 8798                            1369     ;       === R8 :ON/OFF
 8799                            1370     ;       === R9 :現在の工程の目標位置の方向
 8800                            1371     ;       === R10:現在の工程の目標位置
 8801                            1372     ;       === R13:前回工程PV
 8802                            1373     ;       === R14:現在工程PV
*** SuperH RISC engine ASSEMBLER V.7.01.02.000 ***    11/14/21 17:24:34                                                  PAGE    27
PROGRAM NAME =

 8803                            1374     ;       Input   R7:BIT
 8804                            1375     ;       Input   R8:ON/OF SIGNAL
 8805                            1376     ;       Input   R13<前回工程>
 8806                            1377     ;       Input   R14<現在工程>
 8807                            1378     ;
 8808                            1379     ;       (OFF条件はここ以外で処理する)
 8809                            1380     ;       (現在工程=0ならEXIT)
 8810                            1381     
 8811                            1382     _CAM_PROC1_POS:
 8812                            1383             SUB_START
 8813                            1384             MOV.W   @(_CAM_ON_STP,GBR),R0   ;
 8814                            1385             MOV     R0,R11                  ;開始工程
 8815                            1386             TST     R11,R11                 ;
 8816                            1387             TST_BIT_OF CAM_PROC1_POS_0100   ;
 8817                            1388     
 8818                            1389             MOV.W   @(_CAM_OF_STP,GBR),R0   ;
 8819                            1390             MOV     R0,R12                  ;終了工程
 8820                            1391             TST     R12,R12                 ;
 8821                            1392             TST_BIT_ON CAM_PROC1_POS_0200   ;
 8822                            1393     CAM_PROC1_POS_0100:                     ;
 8823                            1394             FAR_JSR #_CAM_ONLY1_POS_CHK,R0  ;通常の位置ｶﾑ
 8824                            1395             M_BRA   CAM_PROC1_POS_5000      ;
 8825                            1396     
 8826                            1397     CAM_PROC1_POS_0200:                     ;
 8827                            1398             TST     R14,R14                 ;
 8828                            1399             TST_BIT_ON CAM_PROC1_POS_0300   ;
 8829                            1400             M_BRA   CAM_PROC1_POS_5000      ;(演算しない OFFではない)
 8830                            1401     
 8831                            1402     CAM_PROC1_POS_0300:                     ;
 8832                            1403             CMP/EQ  R11,R12                 ;開始ON=終了OFF
 8833                            1404             BF      CAM_PROC1_POS_0500      ;
 8834                            1405             M_BRA   CAM_PROC1_POS_3000      ;
 8835                            1406     CAM_PROC1_POS_0500:
 8836                            1407             CMP/GT  R11,R12                 ;開始ON<終了OFF
 8837                            1408             BT      CAM_PROC1_POS_1000      ;
 8838                            1409             M_BRA   CAM_PROC1_POS_2000      ;終了ON<開始OFF
 8839                            1410     
 8840                            1411     ;       === R5 :_CAM_POS_STEP_END_FLG1,R1       ;//各工程の位置決め完了
 8841                            1412     ;       === R6 :現在角度
 8842                            1413     ;       === R7 :BIT
 8843                            1414     ;       === R8 :ON/OFF
 8844                            1415     ;       === R9 :現在の工程の目標位置の方向
 8845                            1416     ;       === R10:現在の工程の目標位置
 8846                            1417     ;       === R11:START工程(ON)
 8847                            1418     ;       === R12:END工程(OFF)
 8848                            1419     ;       === R13:前回工程PV
 8849                            1420     ;       === R14:現在工程PV
 8850                            1421     ;
 8851                            1422     ;       ===========================
 8852                            1423     ;       ===     開始<終了       ===
 8853                            1424     ;       ===========================
 8854                            1425     CAM_PROC1_POS_1000:
 8855                            1426             MOV.W   @(_CAM_INF_D1,GBR),R0   ;
 8856                            1427             TST     #(BIT1+BIT0),R0         ;どちらかに戻り行程が存在するか
 8857                            1428             TST_BIT_OF CAM_PROC1_POS_1010   ;
 8858                            1429             FAR_JSR #_CAM_REP_STR1_PROC,R0  ;
 8859                            1430             M_BRA   CAM_PROC1_POS_5000      ;
*** SuperH RISC engine ASSEMBLER V.7.01.02.000 ***    11/14/21 17:24:34                                                  PAGE    28
PROGRAM NAME =

 8860                            1431     CAM_PROC1_POS_1010:
 8861                            1432             MOV.L   #_MOT_REP_F,R1                  ;
 8862                            1433             MOV.W   @R1,R0                          ;
 8863                            1434             TST     #BIT0,R0                        ;
 8864                            1435             TST_BIT_OF CAM_PROC1_POS_1020           ;
 8865                            1436             M_BRA   CAM_PROC1_POS_5000      ;
 8866                            1437     CAM_PROC1_POS_1020:
 8867                            1438     
 8868                            1439     ;       -------------- 繰り返し以外--------------
 8869                            1440     
 8870                            1441             CMP/GT  R12,R14                 ;OFF工程 < 現在工程
 8871                            1442             BT      CAM_PROC1_POS_1900      ;"OFF固定" 区間C
 8872                            1443     
 8873                            1444             CMP/GT  R14,R11                 ;
 8874                            1445             BT      CAM_PROC1_POS_1900      ;PV < "ON" OFF固定
 8875                            1446     
 8876                            1447             CMP/EQ  R11,R14                 ;ON工程?   区間ONx
 8877                            1448             BT      CAM_PROC1_POS_1050      ;
 8878                            1449     
 8879                            1450             CMP/EQ  R12,R14                 ;OFF工程?
 8880                            1451             BT      CAM_PROC1_POS_1100      ;YES
 8881                            1452             M_BRA   CAM_PROC1_POS_1950      ;ON固定
 8882                            1453     
 8883                            1454     CAM_PROC1_POS_1050:
 8884                            1455     ;       ====== ON位置と目標位置の間に方向を判定して入ればON ===
 8885                            1456             FAR_JSR #_CAM_POS_ON_PROC_CHK,R0        ;
 8886                            1457             M_BRA   CAM_PROC1_POS_5000      ;
 8887                            1458     
 8888                            1459     CAM_PROC1_POS_1100:
 8889                            1460             FAR_JSR #_CAM_POS_OF_PROC_CHK,R0        ;
 8890                            1461             M_BRA   CAM_PROC1_POS_5000      ;
 8891                            1462     
 8892                            1463     ;       ===     OFF  ===
 8893                            1464     CAM_PROC1_POS_1900:
 8894                            1465             CAM_OF1
 8895                            1466             M_BRA   CAM_PROC1_POS_5000      ;
 8896                            1467     ;       ===     ON  ===
 8897                            1468     CAM_PROC1_POS_1950:
 8898                            1469             CAM_ON1
 8899                            1470             M_BRA   CAM_PROC1_POS_5000      ;
 8900                            1471     
 8901                            1472     ;       === そのまま ===
 8902                            1473     CAM_PROC1_POS_1980:
 8903                            1474             M_BRA   CAM_PROC1_POS_5000      ;
 8904                            1475     
 8905                            1476     
 8906                            1477     ;       ===========================
 8907                            1478     ;       ===     開始>終了       ===
 8908                            1479     ;       ===========================
 8909                            1480     CAM_PROC1_POS_2000:
 8910                            1481             MOV.W   @(_CAM_INF_D1,GBR),R0   ;
 8911                            1482             TST     #(BIT1+BIT0),R0         ;どちらかに戻り行程が存在するか
 8912                            1483             TST_BIT_OF CAM_PROC1_POS_2010   ;
 8913                            1484             FAR_JSR #_CAM_REP_STR1_PROC,R0  ;
 8914                            1485             M_BRA   CAM_PROC1_POS_5000      ;
 8915                            1486     CAM_PROC1_POS_2010:
 8916                            1487             MOV.L   #_MOT_REP_F,R1          ;
*** SuperH RISC engine ASSEMBLER V.7.01.02.000 ***    11/14/21 17:24:34                                                  PAGE    29
PROGRAM NAME =

 8917                            1488             MOV.W   @R1,R0                  ;
 8918                            1489             TST     #BIT0,R0                ;
 8919                            1490             TST_BIT_OF CAM_PROC1_POS_2020   ;
 8920                            1491             M_BRA   CAM_PROC1_POS_5000      ;
 8921                            1492     CAM_PROC1_POS_2020:
 8922                            1493     
 8923                            1494     ;       -------------- 繰り返し以外--------------
 8924                            1495             CMP/GT  R11,R14                 ;ON工程 < 現在工程
 8925                            1496             BT      CAM_PROC1_POS_2950      ;"ON"
 8926                            1497     
 8927                            1498             CMP/GT  R14,R12                 ;OFF工程
 8928                            1499             BF      CAM_PROC1_POS_2100      ;OFFより小さい NO
 8929                            1500             M_BRA   CAM_PROC1_POS_2950      ;"ON"
 8930                            1501     
 8931                            1502     ;       ===OFF=< NOW =< ON ===
 8932                            1503     CAM_PROC1_POS_2100:
 8933                            1504             CMP/EQ  R12,R14                 ;OFF 開始工程
 8934                            1505             BT      CAM_PROC1_POS_2400      ;
 8935                            1506             CMP/EQ  R11,R14                 ;
 8936                            1507             BF      CAM_PROC1_POS_2900      ;OFF < NOW(OFF)<ON OFF固定
 8937                            1508     
 8938                            1509             FAR_JSR #_CAM_POS_ON_PROC_CHK,R0        ;
 8939                            1510             M_BRA   CAM_PROC1_POS_5000      ;
 8940                            1511     
 8941                            1512     ;       ======== OFF開始工程===
 8942                            1513     CAM_PROC1_POS_2400:
 8943                            1514             FAR_JSR #_CAM_POS_OF_PROC_CHK,R0        ;
 8944                            1515             M_BRA   CAM_PROC1_POS_5000      ;
 8945                            1516     
 8946                            1517     ;       ===     OFF  ===
 8947                            1518     CAM_PROC1_POS_2900:
 8948                            1519             CAM_OF1
 8949                            1520             M_BRA   CAM_PROC1_POS_5000      ;
 8950                            1521     ;       ===     ON  ===
 8951                            1522     CAM_PROC1_POS_2950:
 8952                            1523             CAM_ON1
 8953                            1524             M_BRA   CAM_PROC1_POS_5000      ;
 8954                            1525     
 8955                            1526     ;       === そのまま ===
 8956                            1527     CAM_PROC1_POS_2980:
 8957                            1528             M_BRA   CAM_PROC1_POS_5000      ;
 8958                            1529     
 8959                            1530     ;       ===========================
 8960                            1531     ;       ===     開始==終了      ===
 8961                            1532     ;       ===========================
 8962                            1533     ;       "位置ｶﾑ的な動作になる"
 8963                            1534     ;       ON-->OFF-->OBJ:以降OFF
 8964                            1535     ;       OFF-->ON-->OBJ:以降ON
 8965                            1536     CAM_PROC1_POS_3000:
 8966                            1537             MOV.W   @(_CAM_INF_D1,GBR),R0   ;
 8967                            1538             TST     #(BIT1+BIT0),R0         ;どちらかに戻り行程が存在するか
 8968                            1539             TST_BIT_OF CAM_PROC1_POS_3010   ;
 8969                            1540             FAR_JSR #_CAM_REP_STR2_PROC,R0  ;
 8970                            1541             M_BRA   CAM_PROC1_POS_5000      ;
 8971                            1542     CAM_PROC1_POS_3010:
 8972                            1543             MOV.L   #_MOT_REP_F,R1                  ;
 8973                            1544             MOV.W   @R1,R0                          ;
*** SuperH RISC engine ASSEMBLER V.7.01.02.000 ***    11/14/21 17:24:34                                                  PAGE    30
PROGRAM NAME =

 8974                            1545             TST     #BIT0,R0                        ;
 8975                            1546             TST_BIT_OF CAM_PROC1_POS_3020           ;
 8976                            1547             M_BRA   CAM_PROC1_POS_5000      ;
 8977                            1548     CAM_PROC1_POS_3020:
 8978                            1549     
 8979                            1550     ;       -------------- 繰り返し以外--------------
 8980                            1551             CMP/EQ  R11,R14                         ;開始工程=終了工程=NOW
 8981                            1552             BF      CAM_PROC1_POS_3300              ;
 8982                            1553             TST     R5,R5                           ;
 8983                            1554             TST_BIT_ON CAM_PROC1_POS_3300           ;工程終了ならON/OFF条件にゆだねる
 8984                            1555             M_BRA   CAM_PROC1_POS_3400              ;
 8985                            1556     
 8986                            1557     CAM_PROC1_POS_3300:
 8987                            1558     ;       ======= 開始=終了で　現在はその工程にない ===
 8988                            1559             MOV     R11,R1                          ;
 8989                            1560             ADD     #-1,R1                          ;
 8990                            1561             SHLL2   R1                              ;
 8991                            1562             MOV.L   #_SET1_OBJ_CAM_DIG_TOP,R0       ;
 8992                            1563             ADD     R0,R1                           ;
 8993                            1564             MOV.W   @R1+,R4                         ;方向
 8994                            1565             MOV.W   @R1,R3                          ;目標角度
 8995                            1566     
 8996                            1567             MOV.W   @(_CAM_ON_DIG,GBR),R0           ;[off-->on-->obJならon固定]
 8997                            1568             MOV     R0,R1                           ;
 8998                            1569             MOV     R4,R0
 8999                            1570             TST     #BIT1,R0                        ;
 9000                            1571             TST_BIT_OF CAM_PROC1_POS_3330           ;
 9001                            1572             MOV     R1,R0
 9002                            1573             MOV     R3,R1                           ;
 9003                            1574             MOV     R0,R3                           ;
 9004                            1575     
 9005                            1576     CAM_PROC1_POS_3330:
 9006                            1577             MOV.W   @(_CAM_OF_DIG,GBR),R0           ;R1
 9007                            1578             MOV     R0,R2                           ;ON(R1)  OBJ(R3)
 9008                            1579             FAR_JSR #_DIG_AREA_CHK0,R0              ;(ON範囲)
 9009                            1580             TST     R0,R0                           ;
 9010                            1581             TST_BIT_ON CAM_PROC1_POS_3900           ;ON-->OFF-->OBJ (OFFでかならず終わる)
 9011                            1582             M_BRA   CAM_PROC1_POS_3950              ;YES:ON
 9012                            1583     
 9013                            1584     
 9014                            1585     ;       ====== ON/OFFを判定する工程====
 9015                            1586     CAM_PROC1_POS_3400:
 9016                            1587             MOV.W   @(_CAM_ON_DIG,GBR),R0           ;
 9017                            1588             MOV     R0,R1                           ;
 9018                            1589             MOV.W   @(_CAM_OF_DIG,GBR),R0           ;
 9019                            1590             MOV     R0,R3                           ;
 9020                            1591             MOV     R9,R0                           ;
 9021                            1592             TST     #BIT1,R0                        ;
 9022                            1593             TST_BIT_OF CAM_PROC1_POS_3450           ;
 9023                            1594             MOV     R1,R0                           ;
 9024                            1595             MOV     R3,R1                           ;
 9025                            1596             MOV     R0,R3                           ;
 9026                            1597     CAM_PROC1_POS_3450:                             ;
 9027                            1598             MOV     R6,R2                           ;(ON)
 9028                            1599             FAR_JSR #_DIG_AREA_CHK0,R0              ;(ON範囲)
 9029                            1600             TST     R0,R0                           ;
 9030                            1601             TST_BIT_ON CAM_PROC1_POS_3950           ;
*** SuperH RISC engine ASSEMBLER V.7.01.02.000 ***    11/14/21 17:24:34                                                  PAGE    31
PROGRAM NAME =

 9031                            1602     ;       ===     OFF  ===
 9032                            1603     CAM_PROC1_POS_3900:
 9033                            1604             CAM_OF1
 9034                            1605             M_BRA   CAM_PROC1_POS_5000      ;
 9035                            1606     ;       ===     ON  ===
 9036                            1607     CAM_PROC1_POS_3950:
 9037                            1608             CAM_ON1
 9038                            1609             M_BRA   CAM_PROC1_POS_5000      ;
 9039                            1610     
 9040                            1611     ;       === そのまま ===
 9041                            1612     CAM_PROC1_POS_3980:
 9042                            1613     
 9043                            1614     CAM_PROC1_POS_5000:
 9044                            1615             SUB_END
 9045                            1616             M_RTS
 9046                            1617     
 9047                            1618     
 9048                            1619     
 9049                            1620     
 9050                            1621     ;       ***********************************
 9051                            1622     ;       ***                             ***
 9052                            1623     ;       ***     ON工程時のﾁｪｯｸ+CAM_ON   ***
 9053                            1624     ;       ***                             ***
 9054                            1625     ;       ***********************************
 9055                            1626     _CAM_POS_ON_PROC_CHK:
 9056                            1627             SUB_START
 9057                            1628             CMP/EQ  R13,R14                         ;
 9058                            1629             BT      CAM_POS_ON_CAM_50               ;
 9059                            1630     ;       ====== 今この工程に入った=====          ;
 9060                            1631             CAM_OF1                                 ;"OFF"していていたはず
 9061                            1632     CAM_POS_ON_CAM_50:                              ;
 9062                            1633     
 9063                            1634             TST     R7,R8                           ;
 9064                            1635             TST_BIT_ON CAM_POS_ON_CAM_EXT           ;(ﾋｽﾃﾘｼｽ対策)
 9065                            1636     
 9066                            1637             MOV.W   @(_CAM_ON_DIG,GBR),R0           ;
 9067                            1638             MOV     R0,R1                           ;
 9068                            1639             FAR_JSR #_CAM_POS_DIR_ON_OF_CHK,R0      ;ANS R0=1(AREA) R0=0 NOT AREA
 9069                            1640             TST     R0,R0                           ;
 9070                            1641             TST_BIT_ON CAM_POS_ON_CAM_ON            ;
 9071                            1642             TST     R5,R5                           ;
 9072                            1643             TST_BIT_ON CAM_POS_ON_CAM_ON            ;"ﾆｱｾﾞﾛはみるとしたらBUSYの次"
 9073                            1644             M_BRA   CAM_POS_ON_CAM_EXT              ;
 9074                            1645     
 9075                            1646     CAM_POS_ON_CAM_ON:
 9076                            1647             CAM_ON1
 9077                            1648     CAM_POS_ON_CAM_EXT:
 9078                            1649             SUB_END
 9079                            1650             M_RTS
 9080                            1651     
 9081                            1652     
 9082                            1653     _CAM_POS_OF_PROC_CHK:
 9083                            1654             SUB_START
 9084                            1655     ;       ====== OFF位置と目標位置の間に方向を判定して入ればOFF ===
 9085                            1656             CMP/EQ  R13,R14                         ;
 9086                            1657             BT      CAM_POS_OF_CAM_50               ;
 9087                            1658     ;       ====== 今この工程に入った=====          ;
*** SuperH RISC engine ASSEMBLER V.7.01.02.000 ***    11/14/21 17:24:34                                                  PAGE    32
PROGRAM NAME =

 9088                            1659             CAM_ON1                                 ;"ON"していたはず
 9089                            1660     CAM_POS_OF_CAM_50:                              ;
 9090                            1661             MOV.W   @(_CAM_OF_DIG,GBR),R0           ;
 9091                            1662             MOV     R0,R1                           ;
 9092                            1663             FAR_JSR #_CAM_POS_DIR_ON_OF_CHK,R0      ;ANS R0=1(AREA) R0=0 NOT AREA
 9093                            1664             TST     R0,R0                           ;
 9094                            1665             TST_BIT_ON CAM_POS_OF_CAM_OF            ;
 9095                            1666             TST     R5,R5                           ;
 9096                            1667             TST_BIT_ON CAM_POS_OF_CAM_OF            ;(この工程の位置決め完了)
 9097                            1668             M_BRA   CAM_POS_OF_CAM_EXT              ;
 9098                            1669     CAM_POS_OF_CAM_OF                               ;
 9099                            1670             CAM_OF1                                 ;
 9100                            1671     CAM_POS_OF_CAM_EXT
 9101                            1672             SUB_END
 9102                            1673             M_RTS
 9103                            1674     
 9104                            1675     
 9105                            1676     
 9106                            1677     
 9107                            1678     ;R1(ON),R10(OBJ),R6(現在角度),R9(BIT1=0正転)
 9108                            1679     ;ANS R0=FFFF(AREA) R0=0 NOT AREA
 9109                            1680     ;DESTROY R1,R3
 9110                            1681     
 9111                            1682     _CAM_POS_DIR_ON_OF_CHK: ;ANS R0=1(AREA) R0=0 NOT AREA
 9112                            1683             SUB_START
 9113                            1684             MOV     R10,R3                                          ;
 9114                            1685             MOV     R9,R0                                           ;
 9115                            1686             TST     #BIT1,R0                                        ;
 9116                            1687             TST_BIT_OF CAM_POS_DIR_ON_OFCHK_050                     ;
 9117                            1688             MOV     R1,R3                                           ;
 9118                            1689             MOV     R10,R1                                          ;
 9119                            1690     CAM_POS_DIR_ON_OFCHK_050:                                       ;
 9120                            1691             MOV     R6,R2                                           ;
 9121                            1692             DIG_AREA_CHK STREG=R1,EDREG=R3,PVREG=R2,ANSREG=R0       ;R0 !=0 範囲内
 9122                            1693             SUB_END                                                 ;R0=0範囲外
 9123                            1694             M_RTS
 9124                            1695     
 9125                            1696     
 9126                            1697     ;       ***************************************************
 9127                            1698     ;       ***                                             ***
 9128                            1699     ;       ***                                             ***
 9129                            1700     ;       ***                                             ***
 9130                            1701     ;       ***                                             ***
 9131                            1702     ;       ***     リピートを設定された行程を含む場合      ***
 9132                            1703     ;       ***                                             ***
 9133                            1704     ;       ***                                             ***
 9134                            1705     ;       ***                                             ***
 9135                            1706     ;       ***                                             ***
 9136                            1707     ;       ***************************************************
 9137                            1708     ;       開始行程＜終了行程
 9138                            1709     _CAM_REP_STR1_PROC
 9139                            1710             SUB_START
 9140                            1711     
 9141                            1712             CMP/EQ  R11,R14                 ;ON行程==現在行程
 9142                            1713             BF      CAM_REP_STR1PRC_100     ;
 9143                            1714     
 9144                            1715             FAR_JSR #_CAMREP_ON_PROC,R0     ;
*** SuperH RISC engine ASSEMBLER V.7.01.02.000 ***    11/14/21 17:24:34                                                  PAGE    33
PROGRAM NAME =

 9145                            1716     
 9146                            1717             M_BRA   CAM_REP_STR1PRC_500     ;
 9147                            1718     
 9148                            1719     CAM_REP_STR1PRC_100
 9149                            1720     
 9150                            1721             CMP/EQ  R12,R14                 ;OF行程==現在行程
 9151                            1722             BF      CAM_REP_STR1PRC_500     ;
 9152                            1723     
 9153                            1724             FAR_JSR #_CAMREP_OF_PROC,R0     ;
 9154                            1725     
 9155                            1726     CAM_REP_STR1PRC_500
 9156                            1727     
 9157                            1728             SUB_END
 9158                            1729             M_RTS
 9159                            1730     
 9160                            1731     
 9161                            1732     
 9162                            1733     ;       *******************************************
 9163                            1734     ;       ***                                     ***
 9164                            1735     ;       ***                                     ***
 9165                            1736     ;       ***                                     ***
 9166                            1737     ;       *******************************************
 9167                            1738     ;
 9168                            1739     ;
 9169                            1740     _CAM_REP_STR2_PROC
 9170                            1741             SUB_START
 9171                            1742     
 9172                            1743             CMP/EQ  R11,R14                 ;ON行程==OFF行程==現在行程
 9173                            1744             BT      CAM_REP_STR2PRC_050     ;YES
 9174                            1745             M_BRA   CAM_REP_STR2PRC_500     ;
 9175                            1746     
 9176                            1747     CAM_REP_STR2PRC_050     ;
 9177                            1748     ;       ----- 実際はもう少し分解が必要 -------
 9178                            1749             MOV.W   @(_CAM_INF_D1,GBR),R0           ;
 9179                            1750             AND     #(BIT1+BIT0),R0                 ;
 9180                            1751             CMP/EQ  #(BIT1+BIT0),R0                 ;
 9181                            1752             BF      CAM_REP_STR2PRC_100             ;
 9182                            1753     
 9183                            1754             MOV.L   #_MOT_REP_F,R1                  ;
 9184                            1755             MOV.W   @R1,R0                          ;
 9185                            1756             TST     #BIT0,R0                        ;
 9186                            1757             TST_BIT_OF CAM_REP_STR2PRC_500          ;
 9187                            1758     
 9188                            1759             FAR_JSR #_CAM_POS_REP_AREACMP,R0        ;ON/ONで且つ同一行程
 9189                            1760             M_BRA   CAM_REP_STR2PRC_500             ;
 9190                            1761     
 9191                            1762     
 9192                            1763     
 9193                            1764     CAM_REP_STR2PRC_100
 9194                            1765             MOV.W   @(_CAM_INF_D1,GBR),R0           ;
 9195                            1766             TST     #BIT1,R0                        ;
 9196                            1767             TST_BIT_ON CAM_REP_STR2PRC_300          ;
 9197                            1768     ;
 9198                            1769     ;       D.BIT0=1 n.5(ON条件行程)
 9199                            1770     ;       D.BIT1=0 n  (OFF条件行程)
 9200                            1771     ;
 9201                            1772     ;       ----- D1.BIT0=1 n.5行程--------
*** SuperH RISC engine ASSEMBLER V.7.01.02.000 ***    11/14/21 17:24:34                                                  PAGE    34
PROGRAM NAME =

 9202                            1773             MOV.L   #_MOT_REP_F,R1                  ;
 9203                            1774             MOV.W   @R1,R0                          ;
 9204                            1775             TST     #BIT0,R0                        ;
 9205                            1776             TST_BIT_ON CAM_REP_STR2PRC_150
 9206                            1777     
 9207                            1778     ;       ----行程=n OFF条件ﾁｪｯｸ[通常の行程]---
 9208                            1779             FAR_JSR #_CAM_POSEDG_OF_PROC_CHK,R0     ;2014-09-22
 9209                            1780             M_BRA   CAM_REP_STR2PRC_500
 9210                            1781     
 9211                            1782     CAM_REP_STR2PRC_150:
 9212                            1783     ;       ----行程=n.5 ON条件----------
 9213                            1784             FAR_JSR #_CAM_POS_REPDIG_CMP1,R0        ;
 9214                            1785             M_BRA   CAM_REP_STR2PRC_500
 9215                            1786     
 9216                            1787     
 9217                            1788     
 9218                            1789     CAM_REP_STR2PRC_300
 9219                            1790     ;       BIT1=1:------ OFF行程が後------------
 9220                            1791     ;       D.BIT1=1 n.5(OF条件行程)
 9221                            1792     ;       D.BIT0=0 n  (ON条件行程)
 9222                            1793     
 9223                            1794             MOV.L   #_MOT_REP_F,R1                  ;
 9224                            1795             MOV.W   @R1,R0                          ;
 9225                            1796             TST     #BIT0,R0                        ;
 9226                            1797             TST_BIT_ON CAM_REP_STR2PRC_350
 9227                            1798     
 9228                            1799     ;       ----- ON条件ﾁｪｯｸ[通常の行程]
 9229                            1800             FAR_JSR #_CAM_POSEDG_ON_PROC_CHK,R0     ;2014-09-22
 9230                            1801             M_BRA   CAM_REP_STR2PRC_500
 9231                            1802     
 9232                            1803     CAM_REP_STR2PRC_350:
 9233                            1804     ;       ------- OFF条件----------
 9234                            1805             FAR_JSR #_CAM_POS_REPDIG_CMP2,R0        ;
 9235                            1806     
 9236                            1807     CAM_REP_STR2PRC_500
 9237                            1808     
 9238                            1809             SUB_END
 9239                            1810             M_RTS
 9240                            1811     
 9241                            1812     
 9242                            1813     
 9243                            1814     
 9244                            1815     
 9245                            1816     
 9246                            1817     
 9247                            1818     
 9248                            1819     
 9249                            1820     
 9250                            1821     
 9251                            1822     
 9252                            1823     
 9253                            1824     
 9254                            1825     
 9255                            1826     
 9256                            1827     
 9257                            1828     
 9258                            1829     
*** SuperH RISC engine ASSEMBLER V.7.01.02.000 ***    11/14/21 17:24:34                                                  PAGE    35
PROGRAM NAME =

 9259                            1830     
 9260                            1831     
 9261                            1832     
 9262                            1833     
 9263                            1834     
 9264                            1835     
 9265                            1836     
 9266                            1837     
 9267                            1838     
 9268                            1839     
 9269                            1840     
 9270                            1841     
 9271                            1842     
 9272                            1843     
 9273                            1844     
 9274                            1845     
 9275                            1846     
 9276                            1847     
 9277                            1848     
 9278                            1849     ;       *******************************************
 9279                            1850     ;       ***                                     ***
 9280                            1851     ;       ***                                     ***
 9281                            1852     ;       ***                                     ***
 9282                            1853     ;       ***                                     ***
 9283                            1854     ;       *******************************************
 9284                            1855     _CAMREP_ON_PROC:
 9285                            1856             SUB_START
 9286                            1857     
 9287                            1858             MOV.L   #_MOT_REP_F,R1                  ;//BIT0(ﾘﾋﾟｰﾄ動作
 9288                            1859             MOV.W   @R1,R2                          ;
 9289                            1860     
 9290                            1861             MOV.W   @(_CAM_INF_D1,GBR),R0           ;
 9291                            1862             TST     #BIT0,R0                        ;ON
 9292                            1863             TST_BIT_ON CAMREP_ON_PC_100             ;
 9293                            1864     
 9294                            1865             MOV     R2,R0                           ;
 9295                            1866             TST     #BIT0,R0                        ;ﾘﾋﾟｰﾄではない
 9296                            1867             TST_BIT_OF CAMREP_ON_PC_200             ;同一行程
 9297                            1868             M_BRA   CAMREP_ON_PC_EXT
 9298                            1869     
 9299                            1870     
 9300                            1871     CAMREP_ON_PC_100:
 9301                            1872             MOV     R2,R0                           ;
 9302                            1873             TST     #BIT0,R0                        ;ﾘﾋﾟｰﾄ
 9303                            1874             TST_BIT_ON CAMREP_ON_PC_200             ;同一行程
 9304                            1875             M_BRA   CAMREP_ON_PC_EXT
 9305                            1876     
 9306                            1877     CAMREP_ON_PC_200:
 9307                            1878             TST     R5,R5                           ;
 9308                            1879             TST_BIT_ON CAMREP_ON_PC_CAMON           ;
 9309                            1880     
 9310                            1881     
 9311                            1882     
 9312                            1883             MOV.W   @(_CAM_ON_DIG,GBR),R0           ;[off-->on-->obJならon固定]
 9313                            1884             MOV     R0,R1
 9314                            1885             FAR_JSR #_CAM_POS_DIR_ON_OF_CHK,R0      ;ANS R0=1(AREA) R0=0 NOT AREA
 9315                            1886             TST     R0,R0                           ;
*** SuperH RISC engine ASSEMBLER V.7.01.02.000 ***    11/14/21 17:24:34                                                  PAGE    36
PROGRAM NAME =

 9316                            1887             TST_BIT_ON CAMREP_ON_PC_CAMON           ;
 9317                            1888             M_BRA   CAMREP_ON_PC_EXT                ;
 9318                            1889     
 9319                            1890     
 9320                            1891     CAMREP_ON_PC_CAMON:
 9321                            1892             CAM_ON1
 9322                            1893     CAMREP_ON_PC_EXT:
 9323                            1894             SUB_END
 9324                            1895             M_RTS
 9325                            1896     
 9326                            1897     
 9327                            1898     ;       *******************************************
 9328                            1899     ;       ***                                     ***
 9329                            1900     ;       ***                                     ***
 9330                            1901     ;       ***                                     ***
 9331                            1902     ;       ***                                     ***
 9332                            1903     ;       *******************************************
 9333                            1904     _CAMREP_OF_PROC:
 9334                            1905             SUB_START
 9335                            1906     
 9336                            1907             MOV.L   #_MOT_REP_F,R1                  ;//BIT0(ﾘﾋﾟｰﾄ動作
 9337                            1908             MOV.W   @R1,R2                          ;
 9338                            1909     
 9339                            1910             MOV.W   @(_CAM_INF_D1,GBR),R0           ;
 9340                            1911             TST     #BIT1,R0                        ;ON
 9341                            1912             TST_BIT_ON CAMREP_OF_PC_100             ;
 9342                            1913     
 9343                            1914             MOV     R2,R0                           ;
 9344                            1915             TST     #BIT0,R0                        ;ﾘﾋﾟｰﾄではない
 9345                            1916             TST_BIT_OF CAMREP_OF_PC_200             ;同一行程
 9346                            1917             M_BRA   CAMREP_OF_PC_EXT
 9347                            1918     
 9348                            1919     
 9349                            1920     CAMREP_OF_PC_100:
 9350                            1921             MOV     R2,R0                           ;
 9351                            1922             TST     #BIT0,R0                        ;ﾘﾋﾟｰﾄ
 9352                            1923             TST_BIT_ON CAMREP_OF_PC_200             ;同一行程
 9353                            1924             M_BRA   CAMREP_OF_PC_EXT
 9354                            1925     
 9355                            1926     CAMREP_OF_PC_200:
 9356                            1927             TST     R5,R5                           ;
 9357                            1928             TST_BIT_ON CAMREP_OF_PC_CAMON           ;
 9358                            1929     
 9359                            1930             MOV.W   @(_CAM_OF_DIG,GBR),R0           ;R1
 9360                            1931             MOV     R0,R1
 9361                            1932             FAR_JSR #_CAM_POS_DIR_ON_OF_CHK,R0      ;ANS R0=1(AREA) R0=0 NOT AREA
 9362                            1933             TST     R0,R0                           ;
 9363                            1934             TST_BIT_ON CAMREP_OF_PC_CAMON           ;
 9364                            1935             M_BRA   CAMREP_OF_PC_EXT                ;
 9365                            1936     
 9366                            1937     
 9367                            1938     CAMREP_OF_PC_CAMON:
 9368                            1939             CAM_OF1
 9369                            1940     CAMREP_OF_PC_EXT:
 9370                            1941             SUB_END
 9371                            1942             M_RTS
 9372                            1943     
*** SuperH RISC engine ASSEMBLER V.7.01.02.000 ***    11/14/21 17:24:34                                                  PAGE    37
PROGRAM NAME =

 9373                            1944     
 9374                            1945     
 9375                            1946     
 9376                            1947     
 9377                            1948     
 9378                            1949     
 9379                            1950     
 9380                            1951     
 9381                            1952     
 9382                            1953     
 9383                            1954     ;       ***********************************
 9384                            1955     ;       ***                             ***
 9385                            1956     ;       ***     まずはﾘﾋﾟｰﾄ用EDGﾀｲﾌﾟ    ***
 9386                            1957     ;       ***     ON工程時のﾁｪｯｸ+CAM_ON   ***
 9387                            1958     ;       ***                             ***
 9388                            1959     ;       ***********************************
 9389                            1960     _CAM_POSEDG_ON_PROC_CHK:
 9390                            1961             SUB_START
 9391                            1962             CMP/EQ  R13,R14                         ;
 9392                            1963             BT      CAM_POSEDG_ON_CAM_50            ;
 9393                            1964     ;       ====== 今この工程に入った=====          ;
 9394                            1965     ;;;;;;;;;;;;;;  CAM_OF1                                 ;"OFF"していていたはず
 9395                            1966     CAM_POSEDG_ON_CAM_50:                           ;
 9396                            1967     
 9397                            1968             TST     R7,R8                           ;
 9398                            1969             TST_BIT_ON CAM_POSEDG_ON_CAM_EXT                ;(ﾋｽﾃﾘｼｽ対策)
 9399                            1970     
 9400                            1971             MOV.W   @(_CAM_ON_DIG,GBR),R0           ;
 9401                            1972             MOV     R0,R1                           ;
 9402                            1973             FAR_JSR #_CAM_POS_DIR_ON_OF_CHK,R0      ;ANS R0=1(AREA) R0=0 NOT AREA
 9403                            1974             TST     R0,R0                           ;
 9404                            1975             TST_BIT_ON CAM_POSEDG_ON_CAM_ON         ;
 9405                            1976             TST     R5,R5                           ;
 9406                            1977             TST_BIT_ON CAM_POSEDG_ON_CAM_ON         ;"ﾆｱｾﾞﾛはみるとしたらBUSYの次"
 9407                            1978             M_BRA   CAM_POSEDG_ON_CAM_EXT           ;
 9408                            1979     
 9409                            1980     CAM_POSEDG_ON_CAM_ON:
 9410                            1981             CAM_ON1
 9411                            1982     CAM_POSEDG_ON_CAM_EXT:
 9412                            1983             SUB_END
 9413                            1984             M_RTS
 9414                            1985     
 9415                            1986     
 9416                            1987     ;       ***********************************
 9417                            1988     ;       ***                             ***
 9418                            1989     ;       ***     まずはﾘﾋﾟｰﾄ用EDGﾀｲﾌﾟ    ***
 9419                            1990     ;       ***     OFF工程時のﾁｪｯｸ+CAM_ON  ***
 9420                            1991     ;       ***                             ***
 9421                            1992     ;       ***********************************
 9422                            1993     _CAM_POSEDG_OF_PROC_CHK:
 9423                            1994             SUB_START
 9424                            1995     ;       ====== OFF位置と目標位置の間に方向を判定して入ればOFF ===
 9425                            1996             CMP/EQ  R13,R14                         ;
 9426                            1997             BT      CAM_POSEDG_OF_CAM_50            ;
 9427                            1998     ;       ====== 今この工程に入った=====          ;
 9428                            1999     ;;;;;;;;;;;     CAM_ON1                                 ;"ON"していたはず
 9429                            2000     CAM_POSEDG_OF_CAM_50:                           ;
*** SuperH RISC engine ASSEMBLER V.7.01.02.000 ***    11/14/21 17:24:34                                                  PAGE    38
PROGRAM NAME =

 9430                            2001             MOV.W   @(_CAM_OF_DIG,GBR),R0           ;
 9431                            2002             MOV     R0,R1                           ;
 9432                            2003             FAR_JSR #_CAM_POS_DIR_ON_OF_CHK,R0      ;ANS R0=1(AREA) R0=0 NOT AREA
 9433                            2004             TST     R0,R0                           ;
 9434                            2005             TST_BIT_ON CAM_POSEDG_OF_CAM_OF         ;
 9435                            2006             TST     R5,R5                           ;
 9436                            2007             TST_BIT_ON CAM_POSEDG_OF_CAM_OF         ;(この工程の位置決め完了)
 9437                            2008             M_BRA   CAM_POSEDG_OF_CAM_EXT           ;
 9438                            2009     CAM_POSEDG_OF_CAM_OF                            ;
 9439                            2010             CAM_OF1                                 ;
 9440                            2011     CAM_POSEDG_OF_CAM_EXT
 9441                            2012             SUB_END
 9442                            2013             M_RTS
 9443                            2014     
 9444                            2015     
 9445                            2016     
 9446                            2017     
 9447                            2018     
 9448                            2019     
 9449                            2020     
 9450                            2021     
 9451                            2022     
 9452                            2023     
 9453                            2024     
 9454                            2025     
 9455                            2026     
 9456                            2027     
 9457                            2028     ;       ***********************************
 9458                            2029     ;       ***                             ***
 9459                            2030     ;       ***     2014-09-23              ***
 9460                            2031     ;       ***     CAM 繰り返し            ***
 9461                            2032     ;       ***     ON行程ﾁｪｯｸ              ***
 9462                            2033     ;       ***********************************
 9463                            2034     _CAM_POS_ON_REPPROC_CHK:
 9464                            2035             SUB_START
 9465                            2036     
 9466                            2037             MOV.W   @(_CAM_INF_D1,GBR),R0           ;
 9467                            2038             TST     #(BIT1+BIT0),R0                 ;
 9468                            2039             TST_BIT_OF CAM_POS_ON_REPPRCCHK_500     ;REPEATと関係ない指定
 9469                            2040     
 9470                            2041     
 9471                            2042             MOV.L   #_MOT_REP_F,R1                  ;//BIT0(ﾘﾋﾟｰﾄ動作
 9472                            2043             MOV.W   @R1,R0                          ;
 9473                            2044             TST     #BIT0,R0                        ;
 9474                            2045             TST_BIT_ON CAM_POS_ON_REPPRCCHK_200     ;
 9475                            2046     
 9476                            2047             MOV.W   @(_CAM_INF_D1,GBR),R0           ;
 9477                            2048             TST     #BIT0,R0                        ;
 9478                            2049             TST_BIT_OF CAM_POS_ON_REPPRCCHK_500     ;同じ状態OFF-OFF(R指定無しも)
 9479                            2050             M_BRA   CAM_POS_ON_REPPRCCHK_400        ;指定はREP:ON　行程はREP行程に達していない
                                          =OFF
 9480                            2051     
 9481                            2052     
 9482                            2053     CAM_POS_ON_REPPRCCHK_200:
 9483                            2054             MOV.W   @(_CAM_INF_D1,GBR),R0           ;
 9484                            2055             TST     #BIT0,R0                        ;
 9485                            2056             TST_BIT_ON CAM_POS_ON_REPPRCCHK_500     ;同じ状態ON-ON
*** SuperH RISC engine ASSEMBLER V.7.01.02.000 ***    11/14/21 17:24:34                                                  PAGE    39
PROGRAM NAME =

 9486                            2057             M_BRA   CAM_POS_ON_REPPRCCHK_300        ;指定はREP:OF　行程はREP-ON：超えた
 9487                            2058     
 9488                            2059     
 9489                            2060     CAM_POS_ON_REPPRCCHK_300:
 9490                            2061             MOV.B   #BIT0,R0                        ;ON固定
 9491                            2062             M_BRA   CAM_POS_ON_REPPRCCHK_END
 9492                            2063     CAM_POS_ON_REPPRCCHK_400:
 9493                            2064             MOV.B   #-1,R0                          ;OFF固定
 9494                            2065             M_BRA   CAM_POS_ON_REPPRCCHK_END
 9495                            2066     CAM_POS_ON_REPPRCCHK_500:
 9496                            2067             XOR     R0,R0                           ;不明
 9497                            2068     CAM_POS_ON_REPPRCCHK_END:
 9498                            2069             SUB_END
 9499                            2070             M_RTS
 9500                            2071     
 9501                            2072     ;       ***********************************
 9502                            2073     ;       ***                             ***
 9503                            2074     ;       ***     2014-09-23              ***
 9504                            2075     ;       ***     CAM 繰り返し            ***
 9505                            2076     ;       ***     OFF行程ﾁｪｯｸ             ***
 9506                            2077     ;       ***********************************
 9507                            2078     _CAM_POS_OF_REPPROC_CHK:
 9508                            2079             SUB_START
 9509                            2080             MOV.L   #_MOT_REP_F,R1                  ;//BIT0(ﾘﾋﾟｰﾄ動作
 9510                            2081             MOV.W   @R1,R0                          ;
 9511                            2082             TST     #BIT0,R0                        ;
 9512                            2083             TST_BIT_ON CAM_POS_OF_REPPRCCHK_200     ;
 9513                            2084     
 9514                            2085             MOV.W   @(_CAM_INF_D1,GBR),R0           ;
 9515                            2086             TST     #BIT1,R0                        ;
 9516                            2087             TST_BIT_OF CAM_POS_OF_REPPRCCHK_500     ;同じ状態OFF-OFF(R指定無しも)
 9517                            2088             M_BRA   CAM_POS_OF_REPPRCCHK_400        ;指定はREP:ON　行程はREP行程に達していない
                                          =OFF
 9518                            2089     
 9519                            2090     
 9520                            2091     CAM_POS_OF_REPPRCCHK_200:
 9521                            2092             MOV.W   @(_CAM_INF_D1,GBR),R0           ;
 9522                            2093             TST     #BIT1,R0                        ;
 9523                            2094             TST_BIT_ON CAM_POS_OF_REPPRCCHK_500     ;同じ状態ON-ON
 9524                            2095             M_BRA   CAM_POS_OF_REPPRCCHK_300        ;指定はREP:OF　行程はREP-ON：超えた
 9525                            2096     
 9526                            2097     
 9527                            2098     CAM_POS_OF_REPPRCCHK_300:
 9528                            2099             MOV.B   #-1,R0                          ;OFF固定
 9529                            2100             M_BRA   CAM_POS_OF_REPPRCCHK_END
 9530                            2101     CAM_POS_OF_REPPRCCHK_400:
 9531                            2102             MOV.B   #BIT0,R0                        ;ON固定
 9532                            2103             M_BRA   CAM_POS_OF_REPPRCCHK_END
 9533                            2104     CAM_POS_OF_REPPRCCHK_500:
 9534                            2105             XOR     R0,R0                           ;不明
 9535                            2106     CAM_POS_OF_REPPRCCHK_END:
 9536                            2107             SUB_END
 9537                            2108             M_RTS
 9538                            2109     
 9539                            2110     
 9540                            2111     ;       ***********************************
 9541                            2112     ;       ***                             ***
*** SuperH RISC engine ASSEMBLER V.7.01.02.000 ***    11/14/21 17:24:34                                                  PAGE    40
PROGRAM NAME =

 9542                            2113     ;       ***     2014-09-23              ***
 9543                            2114     ;       ***     CAM 繰り返し            ***
 9544                            2115     ;       ***     角度ﾁｪｯｸ                ***
 9545                            2116     ;       ***********************************
 9546                            2117     ;       ON角度
 9547                            2118     ;       4:OF => 4.5 ON;
 9548                            2119     _CAM_POS_REPDIG_CMP1
 9549                            2120             SUB_START
 9550                            2121     
 9551                            2122     
 9552                            2123             TST     R5,R5                           ;
 9553                            2124             TST_BIT_ON CAM_POS_REPDIGCMP_ON         ;
 9554                            2125     
 9555                            2126             MOV.W   @(_CAM_ON_DIG,GBR),R0           ;
 9556                            2127             MOV     R0,R2                           ;
 9557                            2128             MOV.L   #_REP_CAMOBJ_DIG,R4             ;//ｶﾑ用の戻り目標角度
 9558                            2129             MOV.W   @R4,R3                          ;
 9559                            2130     
 9560                            2131     
 9561                            2132             MOV.L   #_SETX_MOTREP_DIR,R4            ;//設定上どっちの方向　  1:-1
 9562                            2133             MOV.W   @R4,R0                          ;
 9563                            2134             TST     #BIT1,R0                        ;
 9564                            2135             TST_BIT_ON CAM_POS_REPDIGCMP1_100
 9565                            2136             ;"正転"
 9566                            2137             MOV     R2,R1                           ;
 9567                            2138             MOV     R6,R2                           ;R1(on角度)=<R2=<R3(目標)
 9568                            2139             M_BRA   CAM_POS_REPDIGCMP1_200          ;
 9569                            2140     
 9570                            2141     CAM_POS_REPDIGCMP1_100
 9571                            2142             ;"逆転"
 9572                            2143             MOV     R3,R1                                           ;
 9573                            2144             MOV     R2,R3                                           ;
 9574                            2145             MOV     R6,R2                                           ;R1(目標)=<R2=<R3(on角度)
 9575                            2146     
 9576                            2147     
 9577                            2148     CAM_POS_REPDIGCMP1_200
 9578                            2149             DIG_AREA_CHK STREG=R1,EDREG=R3,PVREG=R2,ANSREG=R0       ;R0 !=0 範囲内
 9579                            2150             TST     R0,R0
 9580                            2151             TST_BIT_ON CAM_POS_REPDIGCMP_ON                         ;範囲内=on
 9581                            2152             M_BRA   CAM_POS_REPDIGCMP_KEP
 9582                            2153     
 9583                            2154     
 9584                            2155     ;       4:ON => 4.5 OFF
 9585                            2156     _CAM_POS_REPDIG_CMP2
 9586                            2157             SUB_START
 9587                            2158     
 9588                            2159     
 9589                            2160             TST     R5,R5                           ;
 9590                            2161             TST_BIT_ON CAM_POS_REPDIGCMP_OF         ;
 9591                            2162     
 9592                            2163             MOV.W   @(_CAM_OF_DIG,GBR),R0           ;
 9593                            2164             MOV     R0,R2                           ;
 9594                            2165             MOV.L   #_REP_CAMOBJ_DIG,R4             ;//ｶﾑ用の戻り目標角度
 9595                            2166             MOV.W   @R4,R3                          ;
 9596                            2167     
 9597                            2168     
 9598                            2169             MOV.L   #_SETX_MOTREP_DIR,R4            ;//設定上どっちの方向　  1:-1
*** SuperH RISC engine ASSEMBLER V.7.01.02.000 ***    11/14/21 17:24:34                                                  PAGE    41
PROGRAM NAME =

 9599                            2170             MOV.W   @R4,R0                          ;
 9600                            2171             TST     #BIT1,R0                        ;
 9601                            2172             TST_BIT_ON CAM_POS_REPDIGCMP2_100
 9602                            2173             ;"正転"
 9603                            2174             MOV     R2,R1                           ;
 9604                            2175             MOV     R6,R2                           ;;R1(off角度)=<R2=<R3(目標)
 9605                            2176             M_BRA   CAM_POS_REPDIGCMP2_200          ;
 9606                            2177     
 9607                            2178     CAM_POS_REPDIGCMP2_100
 9608                            2179             ;"逆転"
 9609                            2180             MOV     R3,R1                           ;
 9610                            2181             MOV     R2,R3                           ;
 9611                            2182             MOV     R6,R2                           ;;R1(目標)=<R2=<R3(on角度)
 9612                            2183     
 9613                            2184     
 9614                            2185     CAM_POS_REPDIGCMP2_200
 9615                            2186             DIG_AREA_CHK STREG=R1,EDREG=R3,PVREG=R2,ANSREG=R0       ;R0 !=0 範囲内
 9616                            2187             TST     R0,R0
 9617                            2188             TST_BIT_ON CAM_POS_REPDIGCMP_OF         ;範囲内=off
 9618                            2189             M_BRA   CAM_POS_REPDIGCMP_KEP           ;
 9619                            2190     ;;;;;;; M_BRA   CAM_POS_REPDIGCMP_ON            ;;KEEPでも構わないないが..
 9620                            2191     
 9621                            2192     CAM_POS_REPDIGCMP_OF
 9622                            2193             CAM_OF1
 9623                            2194             M_BRA   CAM_POS_REPDIGCMP_END
 9624                            2195     CAM_POS_REPDIGCMP_ON
 9625                            2196             CAM_ON1
 9626                            2197             M_BRA   CAM_POS_REPDIGCMP_END
 9627                            2198     CAM_POS_REPDIGCMP_KEP
 9628                            2199     CAM_POS_REPDIGCMP_END
 9629                            2200             SUB_END
 9630                            2201             M_RTS
 9631                            2202     
 9632                            2203     
 9633                            2204     
 9634                            2205     
 9635                            2206     ;       ***********************************
 9636                            2207     ;       ***                             ***
 9637                            2208     ;       ***     2014-09-23              ***
 9638                            2209     ;       ***     CAM 繰り返し            ***
 9639                            2210     ;       ***     角度ﾁｪｯｸ                ***
 9640                            2211     ;       ***********************************
 9641                            2212     ;       ON角度
 9642                            2213     ;       その行程でのみ判断
 9643                            2214     _CAM_POS_REP_AREACMP
 9644                            2215             SUB_START
 9645                            2216     
 9646                            2217     
 9647                            2218             MOV.W   @(_CAM_ON_DIG,GBR),R0           ;
 9648                            2219             MOV     R0,R1                           ;
 9649                            2220             MOV.W   @(_CAM_OF_DIG,GBR),R0           ;
 9650                            2221             MOV     R0,R2                           ;
 9651                            2222             MOV     R10,R3                          ;R10:_REP_CAMOBJ_DIG
 9652                            2223             MOV     R9,R0                           ;R9:SETX_MOTREP_DIR
 9653                            2224             TST     #BIT1,R0                        ;
 9654                            2225             TST_BIT_ON CAM_POS_REPAREACMP_300       ;逆転動作を行う
 9655                            2226     
*** SuperH RISC engine ASSEMBLER V.7.01.02.000 ***    11/14/21 17:24:34                                                  PAGE    42
PROGRAM NAME =

 9656                            2227     ;       ----------モータは正転動作---------------
 9657                            2228             DIG_AREA_CHK STREG=R1,EDREG=R3,PVREG=R2,ANSREG=R0       ;ON(R1)->OF(R2)->OBJ(R3)の
                                          並びか?
 9658                            2229             TST     R0,R0                                           ;
 9659                            2230             TST_BIT_OF CAM_POS_REPAREACMP_100                       ;
 9660                            2231     
 9661                            2232     ;       ON(100)->OFF(200) OFFで終わる
 9662                            2233     
 9663                            2234             TST     R5,R5
 9664                            2235             TST_BIT_ON CAM_POS_REPAREACMP_090_OF
 9665                            2236     
 9666                            2237             MOV     R2,R3
 9667                            2238             MOV     R6,R2
 9668                            2239             DIG_AREA_CHK STREG=R1,EDREG=R3,PVREG=R2,ANSREG=R0       ;R0 !=0 範囲内
 9669                            2240             TST     R0,R0                                           ;ON(R1)<= R2 <= OFF(R3)
 9670                            2241             TST_BIT_ON CAM_POS_REPAREACMP_090_ON                    ;
 9671                            2242     
 9672                            2243             MOV     R3,R1                                           ;
 9673                            2244             MOV     R10,R3                                          ;
 9674                            2245             DIG_AREA_CHK STREG=R1,EDREG=R3,PVREG=R2,ANSREG=R0       ;R0 !=0 範囲内
 9675                            2246             TST     R0,R0                                           ;OFF(R1)<= R2 <= OBJ(R3)
 9676                            2247             TST_BIT_ON CAM_POS_REPAREACMP_090_OF                    ;
 9677                            2248             M_BRA   CAM_POS_REPAREACMP_KEP                          ;
 9678                            2249     
 9679                            2250     CAM_POS_REPAREACMP_090_ON
 9680                            2251             M_BRA   CAM_POS_REPAREACMP_ON                           ;
 9681                            2252     
 9682                            2253     CAM_POS_REPAREACMP_090_OF
 9683                            2254             M_BRA   CAM_POS_REPAREACMP_OF                           ;
 9684                            2255     
 9685                            2256     
 9686                            2257     
 9687                            2258     CAM_POS_REPAREACMP_100
 9688                            2259     ;       OFF(100)->ON(200) ONで終わる
 9689                            2260             MOV     R2,R3
 9690                            2261             MOV     R6,R2
 9691                            2262             DIG_AREA_CHK STREG=R3,EDREG=R1,PVREG=R2,ANSREG=R0       ;R0 !=0 範囲内
 9692                            2263             TST     R0,R0                                           ;
 9693                            2264             TST_BIT_ON CAM_POS_REPAREACMP_150_OF                    ;必ず
 9694                            2265     
 9695                            2266             TST     R5,R5                                           ;
 9696                            2267             TST_BIT_ON CAM_POS_REPAREACMP_150_ON                    ;行程完了のとき
 9697                            2268     
 9698                            2269             MOV     R10,R3                                          ;
 9699                            2270             DIG_AREA_CHK STREG=R1,EDREG=R3,PVREG=R2,ANSREG=R0       ;R0 !=0 範囲内
 9700                            2271             TST     R0,R0                                           ;ON角度~R2~目標角度
 9701                            2272             TST_BIT_ON CAM_POS_REPAREACMP_ON                        ;必ずONする角度
 9702                            2273             M_BRA   CAM_POS_REPAREACMP_KEP                          ;
 9703                            2274     
 9704                            2275     CAM_POS_REPAREACMP_150_ON
 9705                            2276             M_BRA   CAM_POS_REPAREACMP_ON                           ;
 9706                            2277     
 9707                            2278     CAM_POS_REPAREACMP_150_OF
 9708                            2279             M_BRA   CAM_POS_REPAREACMP_OF                           ;
 9709                            2280     
 9710                            2281     
 9711                            2282     
*** SuperH RISC engine ASSEMBLER V.7.01.02.000 ***    11/14/21 17:24:34                                                  PAGE    43
PROGRAM NAME =

 9712                            2283     
 9713                            2284     
 9714                            2285     
 9715                            2286     CAM_POS_REPAREACMP_300
 9716                            2287     ;       ----------逆転動作(300->100)---------------
 9717                            2288             DIG_AREA_CHK STREG=R3,EDREG=R1,PVREG=R2,ANSREG=R0       ;ON(R1)->OF(R2)->OBJ(R3)の
                                          並びか?
 9718                            2289             TST     R0,R0
 9719                            2290             TST_BIT_OF CAM_POS_REPAREACMP_400               ;
 9720                            2291     
 9721                            2292     ;       ----------(300...->200...->100)---------------
 9722                            2293     ;       R3(100)<R1(200)ON角度 ONが先にくる:OFFで終わる
 9723                            2294             MOV     R2,R3
 9724                            2295             MOV     R6,R2
 9725                            2296             DIG_AREA_CHK STREG=R3,EDREG=R1,PVREG=R2,ANSREG=R0       ;R0 !=0 範囲内
 9726                            2297             TST     R0,R0                                           ;ON(R1)->PV(R2)->OF(R3)の
                                          並びか?
 9727                            2298             TST_BIT_ON CAM_POS_REPAREACMP_350_ON                    ;
 9728                            2299     
 9729                            2300             MOV     R3,R1                           ;
 9730                            2301             MOV     R10,R3                          ;R10:_REP_CAMOBJ_DIG
 9731                            2302             DIG_AREA_CHK STREG=R3,EDREG=R1,PVREG=R2,ANSREG=R0       ;R0 !=0 範囲内
 9732                            2303             TST     R0,R0                                           ;ON(R1)->PV(R2)->OF(R3)の
                                          並びか?
 9733                            2304             TST_BIT_ON CAM_POS_REPAREACMP_350_OF                    ;
 9734                            2305             M_BRA   CAM_POS_REPAREACMP_KEP                          ;
 9735                            2306     
 9736                            2307     
 9737                            2308     CAM_POS_REPAREACMP_350_ON
 9738                            2309             M_BRA   CAM_POS_REPAREACMP_ON                           ;
 9739                            2310     
 9740                            2311     CAM_POS_REPAREACMP_350_OF
 9741                            2312             M_BRA   CAM_POS_REPAREACMP_OF                           ;
 9742                            2313     
 9743                            2314     
 9744                            2315     
 9745                            2316     
 9746                            2317     
 9747                            2318     CAM_POS_REPAREACMP_400
 9748                            2319     ;       ----------(300...->200...->100)---------------
 9749                            2320     ;       R1(100)<R3(200) ONが後にくる:ONで終わる
 9750                            2321     
 9751                            2322             MOV     R2,R3
 9752                            2323             MOV     R6,R2
 9753                            2324             DIG_AREA_CHK STREG=R1,EDREG=R3,PVREG=R2,ANSREG=R0       ;R0 !=0 範囲内
 9754                            2325             TST     R0,R0                                           ;
 9755                            2326             TST_BIT_ON CAM_POS_REPAREACMP_OF                        ;必ずOFFすべき範囲
 9756                            2327     
 9757                            2328             TST     R5,R5                                           ;
 9758                            2329             TST_BIT_ON CAM_POS_REPAREACMP_ON                        ;行程完了のとき
 9759                            2330     
 9760                            2331             MOV     R10,R3                                          ;
 9761                            2332             DIG_AREA_CHK STREG=R3,EDREG=R1,PVREG=R2,ANSREG=R0       ;R0 !=0 範囲内
 9762                            2333             TST     R0,R0                                           ;ON角度~R2~目標角度
 9763                            2334             TST_BIT_ON CAM_POS_REPAREACMP_ON                        ;
 9764                            2335             M_BRA   CAM_POS_REPAREACMP_KEP
 9765                            2336     
*** SuperH RISC engine ASSEMBLER V.7.01.02.000 ***    11/14/21 17:24:34                                                  PAGE    44
PROGRAM NAME =

 9766                            2337     
 9767                            2338     
 9768                            2339     CAM_POS_REPAREACMP_ON
 9769                            2340             CAM_ON1
 9770                            2341             M_BRA   CAM_POS_REPAREACMP_END
 9771                            2342     
 9772                            2343     CAM_POS_REPAREACMP_OF
 9773                            2344             CAM_OF1
 9774                            2345             M_BRA   CAM_POS_REPAREACMP_END
 9775                            2346     
 9776                            2347     CAM_POS_REPAREACMP_KEP
 9777                            2348     
 9778                            2349     
 9779                            2350     CAM_POS_REPAREACMP_END
 9780                            2351             SUB_END
 9781                            2352             M_RTS
 9782                            2353     
 9783                            2354     
 9784                            2355     
 9785                            2356     
 9786                            2357     
 9787                            2358     ;       ***********************************
 9788                            2359     ;       ***                             ***
 9789                            2360     ;       ***     位置カム                ***
 9790                            2361     ;       ***                             ***
 9791                            2362     ;       ***********************************
 9792                            2363     _CAM_ONLY1_POS_CHK:
 9793                            2364             SUB_START
 9794                            2365             MOV.W   @(_CAM_ON_DIG,GBR),R0           ;
 9795                            2366             MOV     R0,R1                           ;On
 9796                            2367             MOV.W   @(_CAM_OF_DIG,GBR),R0           ;
 9797                            2368             MOV     R0,R3                           ;Of
 9798                            2369             DIG_AREA_CHK STREG=R1,EDREG=R3,PVREG=R6,ANSREG=R0       ;R0 !=0 範囲内
 9799                            2370             TST     R0,R0                                           ;R0=0範囲外
 9800                            2371             TST_BIT_OF CAM_ONLY1_POSCK_100
 9801                            2372             CAM_ON1
 9802                            2373             M_BRA   CAM_ONLY1_POSCK_200
 9803                            2374     CAM_ONLY1_POSCK_100:
 9804                            2375             CAM_OF1
 9805                            2376     CAM_ONLY1_POSCK_200:
 9806                            2377             SUB_END
 9807                            2378             M_RTS
 9808                            2379     
 9809                            2380     
 9810                            2381     
 9811                            2382     
 9812                            2383     
 9813                            2384     ;       ***********************************
 9814                            2385     ;       ***                             ***
 9815                            2386     ;       ***                             ***
 9816                            2387     ;       ***                             ***
 9817                            2388     ;       ***********************************
 9818                            2389     ;       Input R6:NOW_POS
 9819                            2390     ;       ==== この上位に工程条件が入る。または単独で呼ばれる ====
 9820                            2391     ;       Input R5(工程の場合はR9をMOV,単体の場合はR4=0)
 9821                            2392     ;
 9822                            2393     ;       <"ON角度+/-:3度"の範囲外になったら(ﾀｲﾏ中であろうと監視する)ONﾁｪｯｸ再度有効>
*** SuperH RISC engine ASSEMBLER V.7.01.02.000 ***    11/14/21 17:24:34                                                  PAGE    45
PROGRAM NAME =

 9823                            2394     ;
 9824                            2395     ;       OFF行程は使用していない
 9825                            2396     ;
 9826                            2397     ;
 9827                            2398     _CAM_DIG_UNIT   .EQU    3600    ;
 9828                            2399     _TIM_DIG_HIS    .EQU    30      ;3.0度
 9829                            2400     
 9830                            2401     _CAM_PROC1_TIM:
 9831                            2402             SUB_START
 9832                            2403             MOV.W   @(_CAM_ON_STP,GBR),R0   ;
 9833                            2404             MOV     R0,R11                  ;開始工程
 9834                            2405             TST     R11,R11                 ;
 9835                            2406             TST_BIT_ON CAM_PROC1_TIM_0200   ;
 9836                            2407             PUSH_REG1 R9
 9837                            2408             XOR     R9,R9                   ;
 9838                            2409             FAR_JSR #_CAM_ONLY2_TIM_CHK,R0  ;通常のﾀｲﾏｶﾑ
 9839                            2410             POP_REG1 R9
 9840                            2411             M_BRA   CAM_PROC1_TIM_5000      ;"ANS R8"
 9841                            2412     
 9842                            2413     ;       ===============================
 9843                            2414     CAM_PROC1_TIM_0200:                                             ;
 9844                            2415     
 9845                            2416             TST     R7,R8                                           ;
 9846                            2417             TST_BIT_ON CAM_PROC1_TIM_1000                           ;ON中は工程に関わらず呼ぶ
 9847                            2418     
 9848                            2419             MOV.W   @(_CAM_DT_FLG,GBR),R0                           ;
 9849                            2420             TST     #BIT0,R0                                        ;
 9850                            2421             TST_BIT_ON CAM_PROC1_TIM_1000                           ;(工程が変わったの条件でOF
                                          Fした方がいいか?)
 9851                            2422     
 9852                            2423             CMP/EQ  R11,R14                                         ;//R11<ON工程>=R14現在の工
                                          程
 9853                            2424             BF      CAM_PROC1_TIM_0250                              ;
 9854                            2425     
 9855                            2426     ;       一見行程は同じ REPは0.5行程の意味
 9856                            2427     ;       -------- REP ------------
 9857                            2428             MOV.W   @(_CAM_INF_D1,GBR),R0                           ;
 9858                            2429             TST     #BIT0,R0                                        ;
 9859                            2430             TST_BIT_OF CAM_PROC1_TIM_1000                           ;R指定無し
 9860                            2431     
 9861                            2432     ;       ------- ﾘﾋﾟｰﾄ指定有り-------
 9862                            2433             MOV.L   #_MOT_REP_F,R1                                  ;//BIT0(ﾘﾋﾟｰﾄ動作
 9863                            2434             MOV.W   @R1,R0                                          ;
 9864                            2435             TST     #BIT0,R0                                        ;
 9865                            2436             TST_BIT_ON CAM_PROC1_TIM_1000                           ;R指定有り
 9866                            2437     
 9867                            2438     CAM_PROC1_TIM_0250:                                             ;
 9868                            2439             M_BRA   CAM_PROC1_TIM_5000                              ;(演算しない OFFではない)
 9869                            2440     
 9870                            2441     ;;;;;;; CMP/EQ  R11,R14                                         ;//R11<ON工程>=R14現在の工
                                          程
 9871                            2442     ;;;;;;; BT      CAM_PROC1_TIM_1000                              ;
 9872                            2443     ;;;;;;; CMP/GT  R11,R14                                         ; ON工程を過ぎたR14
 9873                            2444     ;;;;;;; BF      CAM_PROC1_TIM_5000                              ;
 9874                            2445     ;;;;;;; CMP/GT  R13,R11                                         ;R13:前回の工程< ON工程
 9875                            2446     ;;;;;;; BF      CAM_PROC1_TIM_5000                              ;
 9876                            2447     ;;;;;;; ======= 工程をまたいだ(強制ON)===
*** SuperH RISC engine ASSEMBLER V.7.01.02.000 ***    11/14/21 17:24:34                                                  PAGE    46
PROGRAM NAME =

 9877                            2448     ;;;;;;; M_BRA   CAM_PROC1_TIM_5000                              ;(演算しない OFFではない)
 9878                            2449     
 9879                            2450     ;       ===========================================
 9880                            2451     ;       ===     ON条件工程中またはON中のOFF待ち ===
 9881                            2452     ;       ===========================================
 9882                            2453     CAM_PROC1_TIM_1000:
 9883                            2454             FAR_JSR #_CAM_ONLY2_TIM_CHK,R0  ;通常のﾀｲﾏｶﾑ
 9884                            2455     CAM_PROC1_TIM_5000:
 9885                            2456             SUB_END
 9886                            2457             M_RTS
 9887                            2458     
 9888                            2459     ;       ***********************************
 9889                            2460     ;       ***     通常のタイマカム        ***
 9890                            2461     ;       ***********************************
 9891                            2462     ;       現状の論理
 9892                            2463     ;
 9893                            2464     ;       ON角度 +/-3度
 9894                            2465     ;       ON-3度~=< DIG =< ~ON+3度
 9895                            2466     ;　　　=>方向の判別がない為、逆回転したらONしてしまう。
 9896                            2467     ;       _CAM_DT_FLG=0:ON有効
 9897                            2468     ;       _CAM_DT_FLG=1:ON不可
 9898                            2469     ;
 9899                            2470     
 9900                            2471     _CAM_ONLY2_TIM_CHK:
 9901                            2472             SUB_START
 9902                            2473             MOV.W   @(_CAM_DT_FLG,GBR),R0                           ;
 9903                            2474             TST     #BIT0,R0                                        ;
 9904                            2475             TST_BIT_OF CAM_ONLY2_TIMCK_100                          ;BIT0=0:ON条件ﾁｪｯｸ
 9905                            2476     
 9906                            2477             MOV.W   @(_CAM_ON_DIG,GBR),R0                           ;ON不可状態
 9907                            2478             MOV     R0,R1                                           ;
 9908                            2479             MOV.W   #_TIM_DIG_HIS,R3                                ;R2+R3==>R3
 9909                            2480             DIG_REGA_SUB_REGB_ANS_REGB REGA=R3,REGB=R1,WKREG=R4,LATE=_CAM_DIG_UNIT  ;R0=R1-his
                                          -->R1
 9910                            2481             DIG_REGA_ADD_REGB_ANS_REGB REGA=R0,REGB=R3,WKREG=R4,LATE=_CAM_DIG_UNIT  ;R0=R1+his
                                          -->R3
 9911                            2482             DIG_AREA_CHK STREG=R1,EDREG=R3,PVREG=R6,ANSREG=R0       ;R0 !=0 範囲内
 9912                            2483                                                                     ;R0=0範囲外
 9913                            2484             TST     R0,R0                                           ;
 9914                            2485             TST_BIT_ON CAM_ONLY2_TIMCK_100                          ;
 9915                            2486     ;       ==== 範囲外になった・ﾀｲﾏｶﾑﾁｪｯｸ有効 ====
 9916                            2487             XOR     R0,R0                                           ;
 9917                            2488             MOV.W   R0,@(_CAM_DT_FLG,GBR)                           ;
 9918                            2489             M_BRA   CAM_ONLY2_TIMCK_300                             ;W
 9919                            2490     
 9920                            2491     
 9921                            2492     
 9922                            2493     CAM_ONLY2_TIMCK_100:
 9923                            2494             TST     R7,R8                           ;出力ON?
 9924                            2495             TST_BIT_ON CAM_ONLY2_TIMCK_200          ;
 9925                            2496     
 9926                            2497     ;       ===== OFF(ON条件検索) ====
 9927                            2498             MOV.W   @(_CAM_DT_FLG,GBR),R0           ;
 9928                            2499             TST     #BIT0,R0                        ;
 9929                            2500             TST_BIT_ON CAM_ONLY2_TIMCK_300          ;
 9930                            2501     
 9931                            2502     
*** SuperH RISC engine ASSEMBLER V.7.01.02.000 ***    11/14/21 17:24:34                                                  PAGE    47
PROGRAM NAME =

 9932                            2503             FAR_JSR #_TIM_CAM_ON_CONF,R0            ;
 9933                            2504             TST     R0,R0                           ;
 9934                            2505             TST_BIT_OF CAM_ONLY2_TIMCK_300          ;
 9935                            2506     
 9936                            2507     ;       ===== 設定角度をまたいだ======
 9937                            2508             MOV     #BIT0,R0                        ;
 9938                            2509             MOV.W   R0,@(_CAM_DT_FLG,GBR)           ;
 9939                            2510             CAM_ON1                                 ;
 9940                            2511             MOV.W   @(_CAM_OF_TIM,GBR),R0           ;
 9941                            2512             MOV.W   R0,@(_CAM_OF_DGT,GBR)           ;
 9942                            2513             M_BRA   CAM_ONLY2_TIMCK_300             ;
 9943                            2514     
 9944                            2515     ;       ==========================
 9945                            2516     CAM_ONLY2_TIMCK_200:
 9946                            2517             MOV.W   @(_CAM_OF_DGT,GBR),R0           ;ﾀﾞｳﾝﾀｲﾏLOAD
 9947                            2518             TST     R0,R0                           ;
 9948                            2519             TST_BIT_OF CAM_ONLY2_TIMCK_250          ;
 9949                            2520             ADD     #-1,R0                          ;ｶｳﾝﾄﾀﾞｳﾝ
 9950                            2521             MOV.W   R0,@(_CAM_OF_DGT,GBR)           ;
 9951                            2522             TST     R0,R0
 9952                            2523             TST_BIT_ON CAM_ONLY2_TIMCK_300          ;
 9953                            2524     CAM_ONLY2_TIMCK_250:                            ;
 9954                            2525             CAM_OF1                                 ;ﾀｲﾑｱｯﾌﾟｶﾑOFF
 9955                            2526     CAM_ONLY2_TIMCK_300:
 9956                            2527             SUB_END
 9957                            2528             M_RTS
 9958                            2529     
 9959                            2530     
 9960                            2531     
 9961                            2532     
 9962                            2533     
 9963                            2534     ;       ***************************************************************************
 9964                            2535     ;       ***                                                                     ***
 9965                            2536     ;       ***     前回実測角度と今回実測角度が設定角度を動作方向を含みまたいだら  ***
 9966                            2537     ;       ***                                                                     ***
 9967                            2538     ;       ***************************************************************************
 9968                            2539     ;       R0= FF:ON   範囲内
 9969                            2540     ;       R0= 0 :OFF  範囲外
 9970                            2541     ;
 9971                            2542     ;;      .AIF    1 EQ 1 ;ﾌﾟﾛｸﾞﾗﾑ変更箇所(反転仕様以外の標準に入れる変更)
 9972                            2543     ;;_TIM_CAM_ON_CONF:
 9973                            2544     ;;      SUB_START
 9974                            2545     ;;
 9975                            2546     ;;      MOV.L   #_CAM_OLD_DIG,R1                                ;
 9976                            2547     ;;      MOV.W   @R1,R3                                          ;OLD_POS
 9977                            2548     ;;      MOV.W   @(_CAM_ON_DIG,GBR),R0                           ;
 9978                            2549     ;;      MOV     R0,R2                                           ; 現在位置OLD =< SV  =< 現
                                          在位置NEW CW方向
 9979                            2550     ;;
 9980                            2551     ;;      MOV     R9,R0                                           ;
 9981                            2552     ;;      TST     #BIT1,R0                                        ;
 9982                            2553     ;;      TST_BIT_ON TIM_CAM_ON_CF30                              ;
 9983                            2554     ;;      DIG_AREA_CHK STREG=R3,EDREG=R6,PVREG=R2,ANSREG=R0       ;CW(FWD)
 9984                            2555     ;;      M_BRA   TIM_CAM_ON_CF50                                 ;
 9985                            2556     ;;
 9986                            2557     ;;TIM_CAM_ON_CF30:
 9987                            2558     ;;      DIG_AREA_CHK STREG=R6,EDREG=R3,PVREG=R2,ANSREG=R0       ;CCW(REV)
*** SuperH RISC engine ASSEMBLER V.7.01.02.000 ***    11/14/21 17:24:34                                                  PAGE    48
PROGRAM NAME =

 9988                            2559     ;;TIM_CAM_ON_CF50:
 9989                            2560     ;;
 9990                            2561     ;;      SUB_END
 9991                            2562     ;;      M_RTS
 9992                            2563     
 9993                            2564     ;       ***************************************************************************
 9994                            2565     ;       ***                                                                     ***
 9995                            2566     ;       ***     前回実測角度と今回実測角度が設定角度を動作方向を含みまたいだら  ***
 9996                            2567     ;       ***     但し、動作方向は実角度から割り出す                              ***
 9997                            2568     ;       ***                                                                     ***
 9998                            2569     ;       ***************************************************************************
 9999                            2570     ;       .AIF    1 EQ 1 ;ﾌﾟﾛｸﾞﾗﾑ変更箇所(反転仕様以外の標準に入れる変更)
10000                            2571     ;       ANS "R0=0:OFF" "R0!=1 ON"
10001                            2572     ;       Input R6
10002                            2573     _TIM_CAM_ON_CONF:
10003                            2574             SUB_START
10004                            2575     
10005                            2576             MOV.L   #_CAM_OLD_DIG,R1                                ;
10006                            2577             MOV.W   @R1,R3                                          ;OLD_POS
10007                            2578             MOV.W   @(_CAM_ON_DIG,GBR),R0                           ;
10008                            2579             MOV     R0,R2                                           ; 現在位置OLD =< SV  =< 現
                                          在位置NEW CW方向
10009                            2580     
10010                            2581     ;;;;;;  MOV     R9,R0                                           ;
10011                            2582     ;;;;;;  TST     #BIT1,R0                                        ;
10012                            2583     ;;;;;;  TST_BIT_ON TIM_CAM_ON_CF30                              ;
10013                            2584     
10014                            2585             MOV     R6,R4
10015                            2586             DIG_REGA_SUB_REGB_ANS_REGB REGA=R3,REGB=R4,WKREG=R0,LATE=_CAM_DIG_UNIT  ;REGB=REGB
                                          -REGA
10016                            2587     ;       R4(今回)-R3(前回)=R4
10017                            2588             MOV.W   #_CAM_DIG_UNIT/2,R0                             ;
10018                            2589             CMP/GE  R4,R0                                           ;R4 =< 3600/2
10019                            2590             BF      TIM_CAM_ON_CF30                                 ;NO! 逆転
10020                            2591     
10021                            2592             DIG_AREA_CHK STREG=R3,EDREG=R6,PVREG=R2,ANSREG=R0       ;CW(FWD)
10022                            2593             M_BRA   TIM_CAM_ON_CF50                                 ;
10023                            2594     
10024                            2595     TIM_CAM_ON_CF30:
10025                            2596             DIG_AREA_CHK STREG=R6,EDREG=R3,PVREG=R2,ANSREG=R0       ;CCW(REV)
10026                            2597     TIM_CAM_ON_CF50:
10027                            2598     
10028                            2599             SUB_END
10029                            2600             M_RTS
10030                            2601     
10031                            2602     
10032                            2603     
10033                            2604     ;       ***************************
10034                            2605     ;       ***                     ***
10035                            2606     ;       ***     回転･連続       ***
10036                            2607     ;       ***                     ***
10037                            2608     ;       ***************************
10038                            2609     ;       >>CAM行程~最終工程<<
10039                            2610     ;       ans: _CAM_POS_CTL_STEP
10040                            2611     _CAM_STEP_PROC_CHANGE:
10041                            2612             SUB_START
10042                            2613     
*** SuperH RISC engine ASSEMBLER V.7.01.02.000 ***    11/14/21 17:24:34                                                  PAGE    49
PROGRAM NAME =

10043                            2614     ;;;     MOV.L   #_CAM_POS_CTL_STEP,R1           ;//内部制御工程1~11
10044                            2615     ;;;     MOV.W   @R1,R0                          ;現在の制御行程
10045                            2616     ;;;     ADD     #1,R5                           ;
10046                            2617     ;;;     CMP/EQ  R0,R5                           ;
10047                            2618     ;;;     BT      CAM_STEP_PROC_CGE_END           ;最終工程
10048                            2619     
10049                            2620             MOV.L   #_CPOS_STEP_MAX,R2              ;
10050                            2621             MOV.W   @R2,R5                          ;1:TOP
10051                            2622             ADD     #1,R5
10052                            2623             MOV.L   #_CAM_POS_CTL_STEP,R10          ;//内部制御工程1~11
10053                            2624             MOV.W   @R10,R11                        ;
10054                            2625     
10055                            2626     
10056                            2627     ;       ========工程１?====
10057                            2628     ;
10058                            2629             MOV.L   #_CAM_NOW_DIG,R1                                ;
10059                            2630             MOV.W   @R1,R2                                          ;
10060                            2631     
10061                            2632             MOV.L   #_SET1_UPAREA_DIG1,R4                           ;2;回転時待機点(上死点)
10062                            2633             MOV.W   @R4,R1                                          ;
10063                            2634     
10064                            2635     ;       ===(2004-05-24)==
10065                            2636             MOV.L   #_PAR_WTSEL_USE,R0
10066                            2637             MOV.W   @R0,R0                                          ;
10067                            2638             CMP/EQ  #1,R0                                           ;待機点選択使用時は上死点
                                          ではない
10068                            2639             BF      CAM_WTSEL_POS_CHG00                             ;通常使用
10069                            2640     
10070                            2641             MOV.L   #_SETX_UPAREA_DIG,R4                            ;2;両方の選択結果の待機点
10071                            2642             MOV.W   @R4,R1                                          ;
10072                            2643     
10073                            2644     CAM_WTSEL_POS_CHG00
10074                            2645     
10075                            2646             MOV.L   #_SET1_OBJ_CAM_DIG_TOP,R7                       ;1段
10076                            2647             MOV     R7,R4                                           ;
10077                            2648             MOV.W   @R4+,R0
10078                            2649             MOV.W   @R4+,R3                                         ;目標位置
10079                            2650             DIG_AREA_CHK STREG=R1,EDREG=R3,PVREG=R2,ANSREG=R0       ;
10080                            2651             TST     R0,R0                                           ;
10081                            2652             TST_BIT_OF CAM_STEP_PROC_CGE_100                        ;
10082                            2653     
10083                            2654             MOV.W   #1,R0                                           ;
10084                            2655             MOV.L   #_CAM_POS_CTL_STEP,R1                           ;//内部制御工程1~11
10085                            2656             MOV.W   R0,@R1                                          ;
10086                            2657     
10087                            2658     ;2012-03-19不具合対策：下記追加
10088                            2659             XOR     R0,R0                           ;
10089                            2660             MOV.L   #_CAM_CNT_CHG_FLG,R1            ;
10090                            2661             MOV.W   R0,@R1                          ;
10091                            2662             M_BRA   CAM_STEP_PROC_CGE_END           ;
10092                            2663     
10093                            2664     ;       ========工程１時[連続のVモーションの時　減速〜０度まで１行程になる。
10094                            2665     ;       ========       その部分を演算でカムの行程とする]=====
10095                            2666     
10096                            2667     CAM_STEP_PROC_CGE_100:
10097                            2668                                             ;R5=MAX+1
10098                            2669             MOV     R5,R0                   ;
*** SuperH RISC engine ASSEMBLER V.7.01.02.000 ***    11/14/21 17:24:34                                                  PAGE    50
PROGRAM NAME =

10099                            2670             ADD     #-1,R0                  ;
10100                            2671             SHLL2   R0                      ;
10101                            2672             ADD     R0,R7                   ;
10102                            2673             ADD     #2,R7                   ;
10103                            2674             MOV.W   @R7,R3                  ;(R3待機点)
10104                            2675     
10105                            2676     CAM_STEP_PROC_CGE_150:
10106                            2677             CMP/HS  R5,R11                                          ;
10107                            2678             BT      CAM_STEP_PROC_CGE_END                           ;
10108                            2679     
10109                            2680             ADD     #-4,R7                                          ;
10110                            2681             MOV.W   @R7,R1                                          ;(R1)
10111                            2682             DIG_AREA_CHK STREG=R1,EDREG=R3,PVREG=R2,ANSREG=R0       ;
10112                            2683             TST     R0,R0                                           ;R5:ｽﾃｯﾌﾟ
10113                            2684             TST_BIT_ON CAM_STEP_PROC_CGE_200                        ;
10114                            2685             ADD     #-1,R5                                          ;
10115                            2686             MOV     R1,R3                                           ;
10116                            2687             M_BRA   CAM_STEP_PROC_CGE_150
10117                            2688     
10118                            2689     CAM_STEP_PROC_CGE_200:
10119                            2690             CMP/HI  R0,R5                                           ;
10120                            2691             BF      CAM_STEP_PROC_CGE_END                           ;
10121                            2692             MOV.W   R5,@R10                                         ;工程ﾁｪﾝｼﾞ
10122                            2693     CAM_STEP_PROC_CGE_END:
10123                            2694             SUB_END
10124                            2695             M_RTS
10125                            2696     
10126                            2697     
10127                            2698     
10128                            2699             .AELSE
10129                            2700 C   ;       ===     CPUB    ===
10130 00000010                   2701 C   _CAM_CTRL
10131                            2702 C           SUB_START
10132 00000010 4F22                   M           STS.L   PR,@-R15                ;[必要]
10133                                 M   ;;;;;;; ADD     #-4,R15                 ;[不要?]
10134                            2703 C           SUB_END
10135                                 M   ;;;;;;; ADD     #4,R15                  ;[不要?]
10136 00000012 4F26                   M           LDS.L   @R15+,PR                ;[必要]
10137                            2704 C           M_RTS
10138 00000014 000B                   M           RTS                             ;RTSの後ろの
10139 00000016 0009                   M           NOP                             ;@R15+,PRはﾀﾞﾒ
10140                            2705             .AENDI
10141                            2706     
10142                            2707     
10143                            2708     
10144                            2709     
10145                            2710     
10146                            2711     
10147                            2712     ;;//    ***********************************************************
10148                            2713     ;;//    ***                                                     ***
10149                            2714     ;;//    ***                     進角演算可能／不可能            ***
10150                            2715     ;;//    ***     回転・ふりこで待機点以外で停止する(逆転含む)    ***
10151                            2716     ;;//    ***     反転で待機点以外、最死点以外で停止する(逆転含む)***
10152                            2717     ;;//    ***                                                     ***
10153                            2718     ;;//    ***********************************************************
10154                            2719     ;;
10155                            2720     ;;
*** SuperH RISC engine ASSEMBLER V.7.01.02.000 ***    11/14/21 17:24:34                                                  PAGE    51
PROGRAM NAME =

10156                            2721     ;;
10157                            2722     ;;
10158                            2723     ;;
10159                            2724     ;;
10160                            2725     ;;//    ***********************************
10161                            2726     ;;//    ***     進角演算                ***
10162                            2727     ;;//    ***********************************
10163                            2728     ;;      S2b     SINKAKU_INF;            //BIT0:1:ｼｰｹﾝｽ              BIT0=1
10164                            2729     ;;                                      //BIT1 1進角1~4
10165                            2730     ;;                                      //BIT2 1進角5~8
10166                            2731     ;;                                      //BIT3 1進角9~12
10167                            2732     ;;                                      //BIT4 1進角13~16
10168                            2733     ;;                                      //BIT5:1:停止行程が存在する
10169                            2734     
10170                            2735     
10171                            2736      .AIF   1 EQ    0
10172                            2737     
10173                            2738             .EXPORT         _CAM_SINKAKU_DAT_CHK1   ;ssa_
10174                            2739     
10175                            2740     
10176                            2741     _CAM_SINKAKU_DAT_CHK1:
10177                            2742             SUB_START
10178                            2743     
10179                            2744     
10180                            2745     ;       ---     進角演算する・しないの作成      ----
10181                            2746             FAR_JSR #_CAM_SINKAKU_ENB_CONF,R0               ;
10182                            2747     
10183                            2748     ;       ---     進角データ作成の行程・速度算出[ｽｷｬﾝ分割]        ----
10184                            2749             FAR_JSR #_SINKAKU_DATA_MAKE1,R0                 ;
10185                            2750     
10186                            2751     
10187                            2752     
10188                            2753             SUB_END
10189                            2754             M_RTS
10190                            2755     
10191                            2756     
10192                            2757     ;       *******************************************
10193                            2758     ;       ***                                     ***
10194                            2759     ;       ***                                     ***
10195                            2760     ;       ***                                     ***
10196                            2761     ;       *******************************************
10197                            2762     ;;      .IMPORT _PVP_SINKAKU_UPDN1                      ;//BITn：1=ﾛｰﾀﾘｶﾑnのON進角が加減速
                                          範囲にある。
10198                            2763     ;;      .IMPORT _PVP_SINKAKU_UPDN2                      ;//BITn：1=ﾛｰﾀﾘｶﾑnのON進角が加減速
                                          範囲にある。
10199                            2764     
10200                            2765             .IMPORT _SQ_CBWK_TOP
10201                            2766     
10202                            2767     _CAM_SINKAKU_ENB_CONF:
10203                            2768             SUB_START
10204                            2769     
10205                            2770             MOV.L   #_SEQAB_DP_TOP+151*2,R1                 ;151.10
10206                            2771             MOV.W   @R1,R0                                  ;
10207                            2772             MOV.W   #BIT10,R4                               ;
10208                            2773             TST     R4,R0                                   ;
10209                            2774             TST_BIT_ON CAM_SINKAKU_DATCK1_005               ;
10210                            2775             M_BRA   CAM_SINKAKU_DATCK1_500                  ;
*** SuperH RISC engine ASSEMBLER V.7.01.02.000 ***    11/14/21 17:24:34                                                  PAGE    52
PROGRAM NAME =

10211                            2776     
10212                            2777     
10213                            2778     CAM_SINKAKU_DATCK1_005:
10214                            2779     ;       ------------進角機能有効----------
10215                            2780     ;46 18.13  01~04
10216                            2781     ;48 18.15  05~08
10217                            2782     ;50 19.1   09~12
10218                            2783     ;52 19.3   13~16
10219                            2784             XOR     R5,R5
10220                            2785             MOV.L   #_SEQAB_DP_TOP+18*2,R1                  ;46
10221                            2786             MOV.W   @R1,R0                                  ;
10222                            2787             MOV.W   #BIT13,R4                               ;
10223                            2788             TST     R4,R0                                   ;
10224                            2789             TST_BIT_OF CAM_SINKAKU_DATCK1_050               ;
10225                            2790             MOV.W   #(BIT3+BIT2+BIT1+BIT0),R4               ;
10226                            2791             OR      R4,R5                                   ;
10227                            2792     CAM_SINKAKU_DATCK1_050:
10228                            2793     
10229                            2794             MOV.W   #BIT15,R4                               ;48
10230                            2795             TST     R4,R0                                   ;
10231                            2796             TST_BIT_OF CAM_SINKAKU_DATCK1_100               ;
10232                            2797             MOV.W   #(BIT7+BIT6+BIT5+BIT4),R4               ;
10233                            2798             OR      R4,R5                                   ;
10234                            2799     CAM_SINKAKU_DATCK1_100:
10235                            2800     
10236                            2801             MOV.L   #_SEQAB_DP_TOP+19*2,R1                  ;50
10237                            2802             MOV.W   @R1,R0                                  ;
10238                            2803             MOV.W   #BIT1,R4                                ;
10239                            2804             TST     R4,R0                                   ;
10240                            2805             TST_BIT_OF CAM_SINKAKU_DATCK1_150               ;
10241                            2806             MOV.W   #(BIT11+BIT10+BIT9+BIT8),R4             ;
10242                            2807             OR      R4,R5                                   ;
10243                            2808     CAM_SINKAKU_DATCK1_150:
10244                            2809     
10245                            2810             MOV.W   #BIT3,R4                                ;
10246                            2811             TST     R4,R0                                   ;
10247                            2812             TST_BIT_OF CAM_SINKAKU_DATCK1_200               ;52
10248                            2813             MOV.W   #(BIT15+BIT14+BIT13+BIT12),R4           ;
10249                            2814             OR      R4,R5                                   ;[]
10250                            2815     CAM_SINKAKU_DATCK1_200:
10251                            2816     
10252                            2817             PUSH_REG1 R5
10253                            2818             FAR_JSR #_CAM_SINKAKU_INFO_MAK1,R0              ;input R5:ENB設定情報
10254                            2819             POP_REG1 R5                                     ;
10255                            2820             TST     R0,R0                                   ;
10256                            2821             TST_BIT_ON CAM_SINKAKU_DATCK1_250               ;R0!=0 だめ
10257                            2822             DI_PUSH_SR_SH3  WK_REG1=R1,WK_REG2=R4   ;2020-05-07(2019-11-26)
10258                            2823             MEM1_BIT0_F_ADCLR MEM=_SQ_CBWK_TOP+_WKSQCB251,LG=W,BIT=(~BIT10),WKRG1=R1,WKRG2=R4
                                          ;設定上は行う
10259                            2824             EI_POP_SR_SH3                                                   ;2020-05-07(2019-1
                                          1-26)
10260                            2825             M_BRA   CAM_SINKAKU_DATCK1_300                  ;
10261                            2826     
10262                            2827     CAM_SINKAKU_DATCK1_250:
10263                            2828             DI_PUSH_SR_SH3  WK_REG1=R1,WK_REG2=R4   ;2020-05-07(2019-11-26)
10264                            2829             MEM1_BIT0_F_ORSET MEM=_SQ_CBWK_TOP+_WKSQCB251,LG=W,BIT=(BIT10),WKRG1=R1,WKRG2=R4
                                          ;やらない
*** SuperH RISC engine ASSEMBLER V.7.01.02.000 ***    11/14/21 17:24:34                                                  PAGE    53
PROGRAM NAME =

10265                            2830             EI_POP_SR_SH3                                                   ;2020-05-07(2019-1
                                          1-26)
10266                            2831             XOR     R5,R5
10267                            2832     CAM_SINKAKU_DATCK1_300:
10268                            2833             MOV.L   #_SINKAKU_ROTCAM_ENBSEL_WK,R1           ;//BIT0=1 CH1:ENB
10269                            2834             MOV.W   R5,@R1                                  ;
10270                            2835     
10271                            2836             TST     R5,R5                                   ;
10272                            2837             TST_BIT_OF CAM_SINKAKU_DATCK1_500               ;進角無効状態
10273                            2838     
10274                            2839     ;       -------------------------------------------
10275                            2840             MOV.L   #_MODE_SEL,R1                           ;
10276                            2841             MOV.W   @R1,R0                                  ;
10277                            2842             TST     #_W1CNT+_W1SGL+_W1INC+_W1OPT,R0         ;
10278                            2843             TST_BIT_ON CAM_SINKAKU_DATCK1_310               ;
10279                            2844             M_BRA   CAM_SINKAKU_DATCK1_500                  ;進角演算無効ﾓｰﾄﾞ
10280                            2845     
10281                            2846     CAM_SINKAKU_DATCK1_310:
10282                            2847     
10283                            2848             FAR_JSR #_CAM_SINKAKU_INFO_MAK2,R0              ;_SINKAKU_USESEL_ON_INF
10284                            2849                                                             ;_SINKAKU_USESEL_OF_INF
10285                            2850     
10286                            2851             MOV.L   #_SINKAKU_USESEL_ON_INF,R1              ;//ﾛｰﾀﾘｶﾑ1~16 ON行程  1:不可
10287                            2852             MOV.W   @R1,R4                                  ;
10288                            2853     ;;;;;   MOV.L   #_PVP_SINKAKU_UPDN1,R1                  ;//BITn：1=ﾛｰﾀﾘｶﾑnのON進角が加減速
                                          範囲にある。
10289                            2854     ;;;;;   MOV.W   R4,@R1                                  ;
10290                            2855     
10291                            2856             MOV.L   #_SINKAKU_USESEL_OF_INF,R1              ;//ﾛｰﾀﾘｶﾑ1~16 OFF行程
10292                            2857             MOV.W   @R1,R0                                  ;
10293                            2858     ;;;;;   MOV.L   #_PVP_SINKAKU_UPDN2,R1                  ;//BITn：1=ﾛｰﾀﾘｶﾑnのON進角が加減速
                                          範囲にある。
10294                            2859     ;;;;;   MOV.W   R0,@R1                                  ;
10295                            2860     
10296                            2861             MOV.L   #_SINKAKU_ROTCAM_ENBSEL_WK,R1           ;//BIT0=1 CH1:ENB
10297                            2862             MOV.W   @R1,R5                                  ;
10298                            2863             MOV     R0,R3                                   ;
10299                            2864             OR      R4,R3                                   ;1:使用しない
10300                            2865             NOT     R3,R3                                   ;
10301                            2866             AND     R3,R5                                   ;
10302                            2867             MOV.L   #_SINKAKU_ROTCAM_ENBSEL,R1              ;
10303                            2868             MOV.W   R5,@R1                                  ;ENB
10304                            2869             M_BRA   CAM_SINKAKU_DATCK1_600                  ;
10305                            2870     
10306                            2871     ;;;;;;  OR      R4,R0                                   ;
10307                            2872     ;;;;;;  TST     R0,R0                                   ;
10308                            2873     ;;;;;;  TST_BIT_ON CAM_SINKAKU_DATCK1_350               ;
10309                            2874     ;;;;;;  MEM1_BIT0_F_ADCLR MEM=_SQ_CBWK_TOP+_WKSQCB251,LG=W,BIT=(~BIT11),WKRG1=R1,WKRG2=R4
                                          ;
10310                            2875     ;;;;;;  M_BRA   CAM_SINKAKU_DATCK1_400                  ;
10311                            2876     ;;;;;;CAM_SINKAKU_DATCK1_350:
10312                            2877     ;;;;;;  MEM1_BIT0_F_ORSET MEM=_SQ_CBWK_TOP+_WKSQCB251,LG=W,BIT=(BIT11),WKRG1=R1,WKRG2=R4
                                          ;行わない進角カム有り
10313                            2878     ;;;;;;CAM_SINKAKU_DATCK1_400:
10314                            2879     ;;;;;;  M_BRA   CAM_SINKAKU_DATCK1_600                  ;
10315                            2880     
10316                            2881     CAM_SINKAKU_DATCK1_500:
*** SuperH RISC engine ASSEMBLER V.7.01.02.000 ***    11/14/21 17:24:34                                                  PAGE    54
PROGRAM NAME =

10317                            2882     ;       --------------進角全て無効状態-----------------
10318                            2883             XOR     R0,R0
10319                            2884             MOV.L   #_SINKAKU_ROTCAM_ENBSEL,R1              ;
10320                            2885             MOV.W   @R1,R2
10321                            2886             MOV.W   R0,@R1                                  ;
10322                            2887             TST     R2,R2                                   ;
10323                            2888             TST_BIT_OF CAM_SINKAKU_DATCK1_600               ;
10324                            2889     
10325                            2890             FAR_JSR #_SINKAKU_DATA_OFFCLR,R0                ;
10326                            2891     
10327                            2892     CAM_SINKAKU_DATCK1_600:
10328                            2893     
10329                            2894     
10330                            2895     
10331                            2896             MOV.L   #_SIN_RCAM_ON_ERR1,R1
10332                            2897             MOV.W   @R1,R0
10333                            2898             MOV.L   #_PVP_SINKAKU_UPDN1,R1
10334                            2899             MOV.W   R0,@R1
10335                            2900     
10336                            2901             MOV.L   #_SIN_RCAM_OF_ERR1,R1
10337                            2902             MOV.W   @R1,R2
10338                            2903             MOV.L   #_PVP_SINKAKU_UPDN2,R1
10339                            2904             MOV.W   R2,@R1
10340                            2905     
10341                            2906             OR      R2,R0
10342                            2907             TST     R0,R0
10343                            2908             TST_BIT_ON CAM_SINKAKU_DATCK1_650
10344                            2909             DI_PUSH_SR_SH3  WK_REG1=R1,WK_REG2=R4   ;2020-05-07(2019-11-26)
10345                            2910             MEM1_BIT0_F_ADCLR MEM=_SQ_CBWK_TOP+_WKSQCB251,LG=W,BIT=(~BIT11),WKRG1=R1,WKRG2=R4
                                          ;
10346                            2911             EI_POP_SR_SH3                                                   ;2020-05-07(2019-1
                                          1-26)
10347                            2912     
10348                            2913             M_BRA   CAM_SINKAKU_DATCK1_700
10349                            2914     
10350                            2915     CAM_SINKAKU_DATCK1_650:
10351                            2916             DI_PUSH_SR_SH3  WK_REG1=R1,WK_REG2=R4   ;2020-05-07(2019-11-26)
10352                            2917             MEM1_BIT0_F_ORSET MEM=_SQ_CBWK_TOP+_WKSQCB251,LG=W,BIT=(BIT11),WKRG1=R1,WKRG2=R4
                                          ;行わない進角カム有り
10353                            2918             EI_POP_SR_SH3                                                   ;2020-05-07(2019-1
                                          1-26)
10354                            2919     
10355                            2920     CAM_SINKAKU_DATCK1_700:
10356                            2921     
10357                            2922             SUB_END
10358                            2923             M_RTS
10359                            2924     
10360                            2925     ;       ***********************************************************
10361                            2926     ;       ***                                                     ***
10362                            2927     ;       ***     回転、ふりこでは停止が1回以上存在するか         ***
10363                            2928     ;       ***     反転では停止が2回以上存在するか                 ***
10364                            2929     ;       ***                                                     ***
10365                            2930     ;       ***********************************************************
10366                            2931     ;       R0=0
10367                            2932     ;       R0=1:停止有り
10368                            2933     _CAM_SINKAKU_INFO_MAK1
10369                            2934             SUB_START
*** SuperH RISC engine ASSEMBLER V.7.01.02.000 ***    11/14/21 17:24:34                                                  PAGE    55
PROGRAM NAME =

10370                            2935     
10371                            2936             MOV.B   #1,R8                           ;ERR SET
10372                            2937     
10373                            2938             MOV.L   #_SETX_POS_STEP_MAX,R1          ;//設定= 1~10
10374                            2939             MOV.W   @R1,R5                          ;ｽﾃｯﾌﾟ最大数 1~10
10375                            2940             CMP/PL  R5                              ;
10376                            2941             BF      CAM_SINKAKU_INF_MK1EXT          ;0以下でEXIT
10377                            2942     
10378                            2943             XOR     R7,R7                           ;
10379                            2944     
10380                            2945     CAM_SINKAKU_INF_MK1_050LOP
10381                            2946             MOV.L   #_SETX_POS_SDAT1_INF1,R10       ;
10382                            2947             MOV.L   @R10+,R0                        ;
10383                            2948             TST     #BIT0,R0                                ;
10384                            2949             TST_BIT_ON CAM_SINKAKU_INF_MK1_100      ;速度継続?
10385                            2950     
10386                            2951             ADD     #1,R7                           ;
10387                            2952     CAM_SINKAKU_INF_MK1_100
10388                            2953             ADD     #-1,R5                          ;
10389                            2954             TST     R5,R5                           ;
10390                            2955             TST_BIT_ON CAM_SINKAKU_INF_MK1_050LOP
10391                            2956     
10392                            2957     
10393                            2958             MOV.L   #_SETX_POS_CTL_MATH,R1                  ;
10394                            2959             MOV.W   @R1,R0                                  ;
10395                            2960             TST     #_DMATH_REVRSE,R0                       ;DRIVE MATH 反転
10396                            2961             TST_BIT_ON CAM_SINKAKU_INF_MK1_200              ;
10397                            2962     
10398                            2963     ;回転、ふりこ
10399                            2964             TST     R7,R7                                   ;
10400                            2965             TST_BIT_ON CAM_SINKAKU_INF_MK1EXT               ;0以外 停止有り
10401                            2966             XOR     R8,R8                                   ;停止無し
10402                            2967             M_BRA   CAM_SINKAKU_INF_MK1EXT                  ;
10403                            2968     
10404                            2969     CAM_SINKAKU_INF_MK1_200
10405                            2970             MOV.B   #1,R1                                   ;
10406                            2971             CMP/HI  R1,R7                                   ;2回以上?
10407                            2972             BT      CAM_SINKAKU_INF_MK1EXT                  ;YES 停止有り
10408                            2973     
10409                            2974             XOR     R8,R8                                   ;停止無し
10410                            2975     
10411                            2976     CAM_SINKAKU_INF_MK1EXT
10412                            2977             MOV     R8,R0                                   ;
10413                            2978             SUB_END
10414                            2979             M_RTS
10415                            2980     
10416                            2981     
10417                            2982     
10418                            2983     ;       ***********************************
10419                            2984     ;       ***                             ***
10420                            2985     ;       ***     進角の結果０度を跨ぐ    ***
10421                            2986     ;       ***     [加減速位置にある]      ***
10422                            2987     ;       ***                             ***
10423                            2988     ;       ***********************************
10424                            2989     ;
10425                            2990     ;       "0度を跨ぐ"設定をしている
10426                            2991     ;
*** SuperH RISC engine ASSEMBLER V.7.01.02.000 ***    11/14/21 17:24:34                                                  PAGE    56
PROGRAM NAME =

10427                            2992     _CAM_SINKAKU_INFO_MAK2
10428                            2993             SUB_START
10429                            2994     
10430                            2995             XOR     R0,R0
10431                            2996             MOV.L   #_SINKAKU_USESEL_ON_INF,R1              ;//ﾛｰﾀﾘｶﾑ1~16 ON行程  1:不可
10432                            2997             MOV.W   R0,@R1
10433                            2998             MOV.L   #_SINKAKU_USESEL_OF_INF,R1              ;//ﾛｰﾀﾘｶﾑ1~16 OFF行程
10434                            2999             MOV.W   R0,@R1
10435                            3000     
10436                            3001             SUB_END
10437                            3002             M_RTS
10438                            3003     
10439                            3004     
10440                            3005     
10441                            3006     
10442                            3007     
10443                            3008     ;       ***********************************
10444                            3009     ;       ***                             ***
10445                            3010     ;       ***                             ***
10446                            3011     ;       ***                             ***
10447                            3012     ;       ***                             ***
10448                            3013     ;       ***********************************
10449                            3014     _SINKAKU_DATA_OFFCLR:
10450                            3015             SUB_START
10451                            3016     
10452                            3017             MOV.W   #_ROTCAM_SIN_CNT,R3     ;
10453                            3018             XOR     R0,R0
10454                            3019             MOV.L   #_SIN_RCAM_ON_DIG,R5
10455                            3020             MOV.L   #_SIN_RCAM_OF_DIG,R6
10456                            3021     
10457                            3022     
10458                            3023     SINKAKU_DATOFFCLR_100LOP:
10459                            3024             MOV.W   R0,@R5
10460                            3025             MOV.W   R0,@R6
10461                            3026             ADD     #2,R5
10462                            3027             ADD     #2,R6
10463                            3028             ADD     #-1,R3
10464                            3029             TST     R3,R3
10465                            3030             TST_BIT_ON SINKAKU_DATOFFCLR_100LOP     ;
10466                            3031     
10467                            3032     
10468                            3033             SUB_END
10469                            3034             M_RTS
10470                            3035     
10471                            3036     ;       ***********************************
10472                            3037     ;       ***                             ***
10473                            3038     ;       ***                             ***
10474                            3039     ;       ***                             ***
10475                            3040     ;       ***                             ***
10476                            3041     ;       ***********************************
10477                            3042     _SINKAKU_DATA_COPY:
10478                            3043             SUB_START
10479                            3044     
10480                            3045     
10481                            3046             MOV.W   #_ROTCAM_SIN_CNT,R3     ;
10482                            3047             XOR     R0,R0
10483                            3048     
*** SuperH RISC engine ASSEMBLER V.7.01.02.000 ***    11/14/21 17:24:34                                                  PAGE    57
PROGRAM NAME =

10484                            3049             MOV.L   #_WK_SIN_RCAM_ON_DIG,R1;//設定レベル
10485                            3050             MOV.L   #_WK_SIN_RCAM_OF_DIG,R2;//設定レベル
10486                            3051             MOV.L   #_SIN_RCAM_ON_DIG,R5
10487                            3052             MOV.L   #_SIN_RCAM_OF_DIG,R6
10488                            3053     
10489                            3054     SINKAKU_DATCOPY_100LOP:
10490                            3055             MOV.W   @R1+,R0
10491                            3056             MOV.W   R0,@R5
10492                            3057             MOV.W   @R2+,R0
10493                            3058             MOV.W   R0,@R6
10494                            3059             ADD     #2,R5
10495                            3060             ADD     #2,R6
10496                            3061             ADD     #-1,R3
10497                            3062             TST     R3,R3
10498                            3063             TST_BIT_ON SINKAKU_DATCOPY_100LOP       ;
10499                            3064     
10500                            3065     
10501                            3066             SUB_END
10502                            3067             M_RTS
10503                            3068     
10504                            3069     
10505                            3070     
10506                            3071     
10507                            3072     ;       *******************************************
10508                            3073     ;       ***                                     ***
10509                            3074     ;       ***                                     ***
10510                            3075     ;       ***                                     ***
10511                            3076     ;       ***                                     ***
10512                            3077     ;       ***                                     ***
10513                            3078     ;       *******************************************
10514                            3079     ;       進角×運転速度%×オーバライド%
10515                            3080     ;       運転速度%は行程番号から引っ張る
10516                            3081     ;
10517                            3082     ;       1行程毎にスキャン分割して進角データをつくる
10518                            3083     ;       進角しないなどは別
10519                            3084     ;
10520                            3085     _SINKAKU_DATA_MAKE1
10521                            3086             SUB_START
10522                            3087     
10523                            3088     
10524                            3089             MOV.L   #_SINKAKU_ROTCAM_ENBSEL,R1              ;//BIT0=1 CH1:ENB
10525                            3090             MOV.W   @R1,R0                                  ;
10526                            3091             TST     R0,R0                                   ;
10527                            3092             TST_BIT_OF SINKAKU_DATMK1_200                   ;
10528                            3093     
10529                            3094     
10530                            3095             MOV.L   #_SEQAB_DP_TOP+55*2,R1          ;SQ55
10531                            3096             MOV.W   @R1,R5
10532                            3097             MOV.L   #_SEQAB_DP_TOP+59*2,R1          ;SQ59
10533                            3098             MOV.W   @R1,R6
10534                            3099     
10535                            3100     
10536                            3101             MOV.L   #_SEQAB_DP_TOP+151*2,R1                 ;151.11
10537                            3102             MOV.W   @R1,R0                                  ;進角ﾀｲﾏｶﾑ未仕様
10538                            3103             MOV.W   #BIT11,R4                               ;
10539                            3104             TST     R4,R0                                   ;
10540                            3105             TST_BIT_ON SINKAKU_DATMK1_100                   ;
*** SuperH RISC engine ASSEMBLER V.7.01.02.000 ***    11/14/21 17:24:34                                                  PAGE    58
PROGRAM NAME =

10541                            3106             XOR     R5,R5                                   ;
10542                            3107             XOR     R6,R6                                   ;
10543                            3108     SINKAKU_DATMK1_100:
10544                            3109             MOV.L   #_WK_SIN_RCAMON_SW1,R1                  ;SQ55
10545                            3110             MOV.W   R5,@R1                                  ;
10546                            3111             MOV.L   #_WK_SIN_RCAMOF_SW1,R1                  ;SQ59
10547                            3112             MOV.W   R6,@R1
10548                            3113     
10549                            3114             FAR_JSR #_SINKAKU_DATA_MAKE2,R0         ;演算はﾜｰｸに対して行う
10550                            3115     
10551                            3116     
10552                            3117     
10553                            3118     SINKAKU_DATMK1_200:
10554                            3119     
10555                            3120             SUB_END
10556                            3121             M_RTS
10557                            3122     
10558                            3123     
10559                            3124     
10560                            3125     ;       ***************************************************
10561                            3126     ;       ***                                             ***
10562                            3127     ;       ***                                             ***
10563                            3128     ;       ***             1行程(ON,OFF)                   ***
10564                            3129     ;       ***                                             ***
10565                            3130     ;       ***************************************************
10566                            3131             .IMPORT _WORD_BIT_TBL1
10567                            3132     
10568                            3133     _SINKAKU_DATA_MAKE2
10569                            3134             SUB_START
10570                            3135     
10571                            3136             MOV.L   #_SINWK_CALC_SCAN,R1            ;
10572                            3137             MOV.W   @R1,R0                          ;0~15:16ｽｷｬﾝ分割
10573                            3138     
10574                            3139             MOV.L   #_WK_SIN_RCAMON_SW1,R1          ;SQ55
10575                            3140             MOV.W   @R1,R5                          ;
10576                            3141     
10577                            3142             MOV.L   #_WK_SIN_RCAMOF_SW1,R1          ;SQ59
10578                            3143             MOV.W   @R1,R6                          ;
10579                            3144     
10580                            3145     
10581                            3146             TST     R0,R0                           ;
10582                            3147             TST_BIT_ON SINKAKU_DATAMK2_100          ;
10583                            3148     
10584                            3149             MOV.W   #BIT0,R7                        ;
10585                            3150             AND     R5,R7                           ;進角=角度(0),ﾀｲﾏ(0以外)
10586                            3151             MOV.L   #_SVP_RCAMON_P000,R8            ;行程
10587                            3152             MOV.L   #_SVP_RCAMON_D000,R9            ;角度固定
10588                            3153             MOV.L   #_SVP_RCAMON_SA00,R10           ;進角ON角度 0.1度
10589                            3154             MOV.L   #_SVP_RCAMON_ST00,R11           ;進角ON時間 ms
10590                            3155     ;;;;;;;;;不要   MOV.L   #_WK_SIN_RCAM_ON_KOUTEI,R12     ;設定レベル 設定が0以外あれば設定
                                          、00位置の場合算出
10591                            3156     ;;;;;;;;;不要   MOV.L   #_WK_SIN_RCAM_ON_SPD,R13        ;設定レベル
10592                            3157             MOV.L   #_WK_SIN_RCAM_ON_DIG,R14        ;設定レベル−ON角度(360ｴﾝｺｰﾀﾞ演算結果0.1)
10593                            3158             PUSH_REG1 R6
10594                            3159             PUSH_REG1 R7
10595                            3160             FAR_JSR #_SINKAKU_1STEP_DATMAKE,R0      ;
10596                            3161             POP_REG1 R7
*** SuperH RISC engine ASSEMBLER V.7.01.02.000 ***    11/14/21 17:24:34                                                  PAGE    59
PROGRAM NAME =

10597                            3162             POP_REG1 R6
10598                            3163     
10599                            3164     
10600                            3165             AND     R6,R7                           ;進角=角度(0),ﾀｲﾏ(0以外)
10601                            3166             MOV.L   #_SVP_RCAMOF_P000,R8            ;
10602                            3167             MOV.L   #_SVP_RCAMOF_D000,R9            ;
10603                            3168             MOV.L   #_SVP_RCAMOF_SA00,R10           ;進角OF角度 0.1度
10604                            3169             MOV.L   #_SVP_RCAMOF_ST00,R11           ;進角OF時間 ms
10605                            3170     ;;;;;;;;;不要   MOV.L   #_WK_SIN_RCAM_OF_KOUTEI,R12     ;設定レベル 設定が0以外あれば設定
                                          、00位置の場合算出
10606                            3171     ;;;;;;;;;不要   MOV.L   #_WK_SIN_RCAM_OF_SPD,R13        ;設定レベル
10607                            3172             MOV.L   #_WK_SIN_RCAM_OF_DIG,R14        ;設定レベル−ON角度(360ｴﾝｺｰﾀﾞ演算結果0.1)
10608                            3173             FAR_JSR #_SINKAKU_1STEP_DATMAKE,R0      ;
10609                            3174             M_BRA   SINKAKU_DATAMK2_200
10610                            3175     
10611                            3176     SINKAKU_DATAMK2_100
10612                            3177             SHLL    R0                              ;2byte
10613                            3178     
10614                            3179     
10615                            3180             PUSH_REG1 R0
10616                            3181             MOV.L   #_WORD_BIT_TBL1,R4              ;R0=0のときにBIT0
10617                            3182             ADD     R0,R4                           ;
10618                            3183             MOV.W   @R4,R7                          ;ﾁｪｯｸﾋﾞｯﾄ
10619                            3184     
10620                            3185             MOV.L   #_WK_SIN_RCAM_ON_DIG,R14        ;設定レベル−ON角度(360ｴﾝｺｰﾀﾞ演算結果0.1)
10621                            3186             ADD     R0,R14
10622                            3187     
10623                            3188             SHLL    R0                              ;*4
10624                            3189             SHLL    R0                              ;*8
10625                            3190             MOV.L   #_SVP_RCAMON_P000,R8            ;行程
10626                            3191             ADD     R0,R8
10627                            3192             MOV.L   #_SVP_RCAMON_D000,R9            ;角度固定
10628                            3193             ADD     R0,R9
10629                            3194             MOV.L   #_SVP_RCAMON_SA00,R10           ;進角ON角度 0.1度
10630                            3195             ADD     R0,R10
10631                            3196             MOV.L   #_SVP_RCAMON_ST00,R11           ;進角ON時間 ms
10632                            3197             ADD     R0,R11
10633                            3198     
10634                            3199             AND     R5,R7                           ;進角=角度(0),ﾀｲﾏ(0以外)
10635                            3200     
10636                            3201             PUSH_REG1 R6
10637                            3202             PUSH_REG1 R7
10638                            3203             FAR_JSR #_SINKAKU_1STEP_DATMAKE,R0      ;
10639                            3204             POP_REG1 R7
10640                            3205             POP_REG1 R6
10641                            3206     
10642                            3207             POP_REG1 R0
10643                            3208     
10644                            3209             MOV.L   #_WK_SIN_RCAM_OF_DIG,R14        ;設定レベル−ON角度(360ｴﾝｺｰﾀﾞ演算結果0.1)
10645                            3210             ADD     R0,R14
10646                            3211             SHLL    R0                              ;*4
10647                            3212             SHLL    R0                              ;*8
10648                            3213     
10649                            3214     
10650                            3215             MOV.L   #_SVP_RCAMOF_P000,R8            ;
10651                            3216             ADD     R0,R8
10652                            3217             MOV.L   #_SVP_RCAMOF_D000,R9            ;
*** SuperH RISC engine ASSEMBLER V.7.01.02.000 ***    11/14/21 17:24:34                                                  PAGE    60
PROGRAM NAME =

10653                            3218             ADD     R0,R9
10654                            3219             MOV.L   #_SVP_RCAMOF_SA00,R10           ;進角OF角度 0.1度
10655                            3220             ADD     R0,R10
10656                            3221             MOV.L   #_SVP_RCAMOF_ST00,R11           ;進角OF時間 ms
10657                            3222             ADD     R0,R11
10658                            3223     
10659                            3224             AND     R6,R7                           ;進角=角度(0),ﾀｲﾏ(0以外)
10660                            3225             FAR_JSR #_SINKAKU_1STEP_DATMAKE,R0      ;
10661                            3226     
10662                            3227     
10663                            3228     SINKAKU_DATAMK2_200
10664                            3229     
10665                            3230     
10666                            3231     
10667                            3232     ;       ------------ 16ｽｷｬﾝで反映----------------
10668                            3233             MOV.L   #_SINWK_CALC_SCAN,R1            ;
10669                            3234             MOV.W   @R1,R0                          ;
10670                            3235             ADD     #1,R0                           ;
10671                            3236             AND     #H'0F,R0                        ;
10672                            3237             MOV.W   R0,@R1                          ;
10673                            3238     
10674                            3239             TST     R0,R0
10675                            3240             TST_BIT_ON SINKAKU_DATAMK2_EXT          ;
10676                            3241     
10677                            3242             FAR_JSR #_SINKAKU_DATA_COPY,R0          ;最後
10678                            3243     
10679                            3244             MOV.L   #_WK_SIN_RCAMON_SW1,R1          ;SQ55
10680                            3245             MOV.W   @R1,R0                          ;
10681                            3246             MOV.L   #_SIN_RCAMON_SW1,R1;//設定レベル−ON角度(360ｴﾝｺｰﾀﾞ演算結果0.1)
10682                            3247             MOV.W   R0,@R1
10683                            3248     
10684                            3249             MOV.L   #_WK_SIN_RCAMOF_SW1,R1          ;SQ59
10685                            3250             MOV.W   @R1,R0                          ;
10686                            3251             MOV.L   #_SIN_RCAMOF_SW1,R1             ;//設定レベル−OFF角度(360ｴﾝｺｰﾀﾞ演算結果0.
                                          1)
10687                            3252             MOV.W   R0,@R1
10688                            3253     
10689                            3254     SINKAKU_DATAMK2_EXT
10690                            3255     
10691                            3256             SUB_END
10692                            3257             M_RTS
10693                            3258     
10694                            3259     
10695                            3260     ;       R7 0(進角=位置)/0以外(進角=タイマ)
10696                            3261     ;       MOV.L   #_SVP_RCAMON_P000,R8    ;行程
10697                            3262     ;       MOV.L   #_SVP_RCAMON_D000,R9    ;角度固定
10698                            3263     ;       MOV.L   #_SVP_RCAMON_SA00,R10   ;進角ON角度 0.1度
10699                            3264     ;       MOV.L   #_SVP_RCAMON_ST00,R11   ;進角ON時間 ms
10700                            3265     ;
10701                            3266     ;       MOV.L   #_WK_SIN_RCAM_ON_KOUTEI,R12;    //設定レベル 設定が0以外あれば設定、00位置
                                          の場合算出
10702                            3267     ;       MOV.L   #_WK_SIN_RCAM_ON_SPD,R13;       //設定レベル
10703                            3268     ;       MOV.L   #_WK_SIN_RCAM_ON_DIG,R14;       //設定レベル−ON角度(360ｴﾝｺｰﾀﾞ演算結果0.1)
10704                            3269     
10705                            3270     _SINKAKU_1STEP_DATMAKE
10706                            3271             SUB_START
10707                            3272     
*** SuperH RISC engine ASSEMBLER V.7.01.02.000 ***    11/14/21 17:24:34                                                  PAGE    61
PROGRAM NAME =

10708                            3273             MOV.W   @R8,R0                          ;行程番号
10709                            3274             TST     R0,R0                           ;00:位置カム
10710                            3275             TST_BIT_ON SINKAKU_1STEP_DATMAK100                      ;NO!行程ｶﾑ
10711                            3276             MOV.W   @R9,R2                          ;位置LOAD
10712                            3277             FAR_JSR #_POSCAM_SEARCH_KOUTEI,R0       ;input R2
10713                            3278             TST     R0,R0                           ;
10714                            3279             TST_BIT_ON SINKAKU_1STEP_DATMAK100      ;
10715                            3280             M_BRA   SINKAKU_1STEP_DATMAK400         ;進角演算無し
10716                            3281     
10717                            3282     SINKAKU_1STEP_DATMAK100:                        ;R0:行程番号
10718                            3283     ;;;;;;;;;不要   MOV.W   R0,@R12                         ;
10719                            3284     
10720                            3285             MOV.L   #_CAM_STEP_MAX,R1               ;
10721                            3286             MOV.W   @R1,R4                          ;
10722                            3287             ADD     #1,R4                           ;
10723                            3288             CMP/EQ  R0,R4                           ;
10724                            3289             BF      SINKAKU_1STEP_DATMAK120         ;最終行程(戻)ではない
10725                            3290             MOV.L   #_SVP_UPAREA_SPD0,R1            ;基準速度(戻速度)
10726                            3291             MOV.W   @R1,R2                          ;
10727                            3292             M_BRA   SINKAKU_1STEP_DATMAK150         ;
10728                            3293     
10729                            3294     SINKAKU_1STEP_DATMAK120:
10730                            3295             ADD     #-1,R0                          ;
10731                            3296             SHLL    R0
10732                            3297             MOV.L   #_SVP_OBJECT_SPD_TOP,R1         ;
10733                            3298             ADD     R0,R1                           ;
10734                            3299             MOV.W   @R1,R2                          ;速度 0~100.0%
10735                            3300     SINKAKU_1STEP_DATMAK150:
10736                            3301     
10737                            3302     
10738                            3303     
10739                            3304     
10740                            3305     
10741                            3306     
10742                            3307     
10743                            3308             MOV.L   #_SET_SPD_OVRLIDE,R1            ;画面ｵｰﾊﾞﾗｲﾄﾞﾃﾞｰﾀ　もしくはｼｰｹﾝｽｵｰﾊﾞﾗｲﾄﾞﾃﾞ
                                          ｰﾀ
10744                            3309             MOV.W   @R1,R1                          ;_OVERLIDE_DT_SEL=1
10745                            3310             MOV.W   #_OVRLIDE_LATE_MAX,R4           ;
10746                            3311             FAR_JSR #_FPU_R2_MUL_R1_DIV_R4,R0       ;R2:SPD
10747                            3312     ;;;;;;;;;不要   MOV.W   R2,@R13                         ;SPD SAVE(ｵｰﾊﾞﾗｲﾄﾞ結果の速度 0.1%)
10748                            3313     
10749                            3314             TST     R7,R7                           ;
10750                            3315             TST_BIT_ON SINKAKU_1STEP_DATMAK200      ;ﾀｲﾏ
10751                            3316     
10752                            3317             PUSH_REG1 R2                            ;速度
10753                            3318             MOV.W   @R10,R2                         ;進み角度量
10754                            3319                                                     ;ここで実はｸﾗﾝｸｰﾘﾝｸの面倒な計算必要
10755                            3320     
10756                            3321             POP_REG1 R1                             ;
10757                            3322             MOV.W   #_SPD_PER_MAX/10,R4             ;10000/10 100.0per
10758                            3323             FAR_JSR #_FPU_R2_MUL_R1_DIV_R4,R0       ;R2:角度
10759                            3324             M_BRA   SINKAKU_1STEP_DATMAK500         ;進角演算終了
10760                            3325     
10761                            3326     SINKAKU_1STEP_DATMAK200:                        ;
10762                            3327     
10763                            3328             PUSH_REG1 R2                            ;設定速度
*** SuperH RISC engine ASSEMBLER V.7.01.02.000 ***    11/14/21 17:24:34                                                  PAGE    62
PROGRAM NAME =

10764                            3329             MOV.W   @R11,R1                         ;設定時間1msec
10765                            3330             MOV.W   #_SPD_PER_MAX/10,R4             ;10000/10 100.0per
10766                            3331             FAR_JSR #_FPU_R2_MUL_R1_DIV_R4,R0       ;R2:時間
10767                            3332             MOV     R2,R1                           ;R1:時間 速度が半分なら 時間も半分でいい
10768                            3333             POP_REG1 R2                             ;
10769                            3334     
10770                            3335             PUSH_REG1 R1                            ;
10771                            3336             MOV.L   #_SETD_DEGSPD_MAX,R0            ;//最大速度で1秒間に何度動作しますか 0.1度
                                          /SEC
10772                            3337             MOV.L   @R0,R1                          ;最大速度　0.1度/sec
10773                            3338             MOV.W   #_SPD_PER_MAX/10,R4             ;10000/10 100.0per
10774                            3339             FAR_JSR #_FPU_R2_MUL_R1_DIV_R4,R0       ;R2:速度
10775                            3340                                                     ;R2:移動速度 この速度時に1秒間で移動する量
10776                            3341             POP_REG1 R1                             ;
10777                            3342     
10778                            3343     ;       R2:移動速度 R1時間
10779                            3344             MOV.W   #D'1000,R4                      ;msec
10780                            3345             FAR_JSR #_FPU_R2_MUL_R1_DIV_R4,R0       ;R2:速度*時間
10781                            3346             M_BRA   SINKAKU_1STEP_DATMAK500         ;進角演算終了
10782                            3347     
10783                            3348     
10784                            3349     SINKAKU_1STEP_DATMAK400:                        ;進角演算無し
10785                            3350             XOR     R2,R2                           ;
10786                            3351     SINKAKU_1STEP_DATMAK500:                        ;進角演算終了
10787                            3352             MOV.W   R2,@R14                         ;
10788                            3353             SUB_END
10789                            3354             M_RTS
10790                            3355     
10791                            3356     
10792                            3357     ;
10793                            3358     ;
10794                            3359     ;
10795                            3360     ;
10796                            3361     ;
10797                            3362     
10798                            3363     
10799                            3364     
10800                            3365     
10801                            3366     
10802                            3367             SUB_START
10803                            3368             MOV.L   #_SET_SPD_OVRLIDE,R1                            ;画面ｵｰﾊﾞﾗｲﾄﾞﾃﾞｰﾀ　もしく
                                          はｼｰｹﾝｽｵｰﾊﾞﾗｲﾄﾞﾃﾞｰﾀ
10804                            3369             MOV.W   @R1,R2                                          ;_OVERLIDE_DT_SEL=1
10805                            3370             SUB_END
10806                            3371             M_RTS
10807                            3372     
10808                            3373     
10809                            3374     ;"00:位置カムの場合 初めにその位置を横切る角度→速度算出"
10810                            3375     
10811                            3376     
10812                            3377     ;       ***************************************************
10813                            3378     ;       ***                                             ***
10814                            3379     ;       ***     行程00 設定した角度を横切る行程算出     ***
10815                            3380     ;       ***                                             ***
10816                            3381     ;       ***************************************************
10817                            3382     ;       input  R2:角度
10818                            3383     ;       Output R0:行程
*** SuperH RISC engine ASSEMBLER V.7.01.02.000 ***    11/14/21 17:24:34                                                  PAGE    63
PROGRAM NAME =

10819                            3384     ;       R8:dig_n1       = SV_TAIKIKAKU_SRV;     //ｽﾀｰﾄ地点
10820                            3385     ;       R9:dig_n        = SV_TAIKIKAKU_SRV;     //
10821                            3386     ;       R7:STEPMAX+1(LOOP回数)
10822                            3387     ;       R10:最後の段の目標角度
10823                            3388     ;       R11:ANSWK
10824                            3389     ;       R12:
10825                            3390     _POSCAM_SEARCH_KOUTEI
10826                            3391             SUB_START
10827                            3392             PUSH_REG1 R7
10828                            3393             PUSH_REG1 R8
10829                            3394             PUSH_REG1 R9
10830                            3395             PUSH_REG1 R10
10831                            3396             PUSH_REG1 R11
10832                            3397             PUSH_REG1 R12
10833                            3398             PUSH_REG1 R13
10834                            3399             PUSH_REG1 R14
10835                            3400     
10836                            3401             XOR     R0,R0
10837                            3402             MOV.L   #_SVP_UPAREA_DIG0,R1            ;待機点角度
10838                            3403             MOV.W   @R1,R8                          ;
10839                            3404             MOV     R8,R9                           ;R9:degN,R8:degN_1
10840                            3405             MOV.L   #_CAM_STEP_MAX,R1               ;
10841                            3406             MOV.W   @R1,R7                          ;
10842                            3407             TST     R7,R7                           ;
10843                            3408             TST_BIT_ON POSCAM_SEARCH_KT100          ;
10844                            3409             M_BRA   POSCAM_SEARCH_KTEXT             ;
10845                            3410     
10846                            3411     POSCAM_SEARCH_KT100
10847                            3412     
10848                            3413             ADD     #1,R7                           ;LOOP
10849                            3414             XOR     R11,R11                         ;CNT
10850                            3415     
10851                            3416             MOV.L   #_SETX_POS_CTL_MATH,R1          ;
10852                            3417             MOV.W   @R1,R0                          ;
10853                            3418             TST     #_DMATH_REVRSE,R0               ;DRIVE MATH 反転
10854                            3419             TST_BIT_OF POSCAM_SEARCH_KT120
10855                            3420             MOV     R8,R10                          ;R10:dig_last=待機点
10856                            3421             M_BRA   POSCAM_SEARCH_KT200
10857                            3422     
10858                            3423     POSCAM_SEARCH_KT120:
10859                            3424             TST     #_DMATH_DNDRIV,R0               ;DRIVE MATH ふりこ
10860                            3425             TST_BIT_OF POSCAM_SEARCH_KT140          ;
10861                            3426             MOV.W   #_CAM_DIG_UNIT,R10              ;.EQU3600
10862                            3427             SUB     R8,R10                          ;3600-開始待機点＝終了待機点
10863                            3428             M_BRA   POSCAM_SEARCH_KT200
10864                            3429     POSCAM_SEARCH_KT140:
10865                            3430             MOV.W   #_CAM_DIG_UNIT,R10              ;.EQU3600
10866                            3431             ADD     R8,R10                          ;3600+開始待機点0＝終了待機点3600
10867                            3432     POSCAM_SEARCH_KT200
10868                            3433     
10869                            3434     
10870                            3435     
10871                            3436             MOV.L   #_SVP_OBJECT_DIG_TOP,R12        ;角度
10872                            3437     
10873                            3438     
10874                            3439     POSCAM_SEARCH_KT300LOP
10875                            3440             MOV     R9,R8                   ;N->N_1
*** SuperH RISC engine ASSEMBLER V.7.01.02.000 ***    11/14/21 17:24:34                                                  PAGE    64
PROGRAM NAME =

10876                            3441     
10877                            3442             MOV     R10,R9                  ;LAST
10878                            3443             MOV.B   #1,R4                   ;
10879                            3444             CMP/EQ  R4,R7                   ;
10880                            3445             BT      POSCAM_SEARCH_KT320     ;YES LAST
10881                            3446             MOV.W   @R12+,R9                ;NO.通常
10882                            3447     POSCAM_SEARCH_KT320
10883                            3448     
10884                            3449             CMP/EQ  R8,R9                   ;
10885                            3450             BT      POSCAM_SEARCH_KT500     ;同じ位置(評価しない)
10886                            3451     
10887                            3452             CMP/GT  R8,R9                   ;degN_1<degN
10888                            3453             BT      POSCAM_SEARCH_KT450     ;yes 正転
10889                            3454     ;       --------- 逆----------
10890                            3455             CMP/GT  R9,R2                   ;
10891                            3456             BF      POSCAM_SEARCH_KT500     ;NO!
10892                            3457             CMP/GE  R2,R8                   ;
10893                            3458             BF      POSCAM_SEARCH_KT500     ;NO!
10894                            3459     ;       ------- 見つけた(R8 >= R2 >R9)----------
10895                            3460             M_BRA   POSCAM_SEARCH_KT800
10896                            3461     
10897                            3462     
10898                            3463     POSCAM_SEARCH_KT450:
10899                            3464     ;       --------- 正----------
10900                            3465             CMP/GE  R8,R2                   ;N1=<OBJ
10901                            3466             BF      POSCAM_SEARCH_KT500     ;NO!
10902                            3467             CMP/GT  R2,R9                   ;OBJ<N
10903                            3468             BF      POSCAM_SEARCH_KT500     ;NO!
10904                            3469             M_BRA   POSCAM_SEARCH_KT800
10905                            3470     
10906                            3471     POSCAM_SEARCH_KT500
10907                            3472             ADD     #1,R11
10908                            3473             ADD     #-1,R7
10909                            3474             TST     R7,R7
10910                            3475             TST_BIT_ON POSCAM_SEARCH_KT300LOP       ;
10911                            3476     
10912                            3477             XOR     R0,R0
10913                            3478             M_BRA   POSCAM_SEARCH_KTEXT             ;見つからなかった
10914                            3479     
10915                            3480     POSCAM_SEARCH_KT800
10916                            3481     ;       ------- 見つけた(R8 =< R2 <R9)----------
10917                            3482             MOV     R11,R0                          ;
10918                            3483             ADD     #1,R0                           ;
10919                            3484     POSCAM_SEARCH_KTEXT
10920                            3485     
10921                            3486             POP_REG1 R14
10922                            3487             POP_REG1 R13
10923                            3488             POP_REG1 R12
10924                            3489             POP_REG1 R11
10925                            3490             POP_REG1 R10
10926                            3491             POP_REG1 R9
10927                            3492             POP_REG1 R8
10928                            3493             POP_REG1 R7
10929                            3494             SUB_END
10930                            3495             M_RTS
10931                            3496     
10932                            3497     
*** SuperH RISC engine ASSEMBLER V.7.01.02.000 ***    11/14/21 17:24:34                                                  PAGE    65
PROGRAM NAME =

10933                            3498     _SIN_RCAMON_ERR_SIGSET
10934                            3499             SUB_START
10935                            3500     
10936                            3501             PUSH_REG1 R0
10937                            3502             PUSH_REG1 R1
10938                            3503             MOV.L   #_SIN_RCAM_ON_ERR1,R1
10939                            3504             MOV.W   @R1,R0
10940                            3505             OR      R12,R0
10941                            3506             MOV.W   R0,@R1
10942                            3507             POP_REG1 R1
10943                            3508             POP_REG1 R0
10944                            3509             SUB_END
10945                            3510             M_RTS
10946                            3511     
10947                            3512     _SIN_RCAMOF_ERR_SIGSET
10948                            3513             SUB_START
10949                            3514     
10950                            3515             PUSH_REG1 R0
10951                            3516             PUSH_REG1 R1
10952                            3517             MOV.L   #_SIN_RCAM_OF_ERR1,R1
10953                            3518             MOV.W   @R1,R0
10954                            3519             OR      R12,R0
10955                            3520             MOV.W   R0,@R1
10956                            3521             POP_REG1 R1
10957                            3522             POP_REG1 R0
10958                            3523             SUB_END
10959                            3524             M_RTS
10960                            3525     
10961                            3526     
10962                            3527     
10963                            3528     ;;
10964                            3529     ;;
10965                            3530     ;;
10966                            3531     ;;
10967                            3532     ;;
10968                            3533     ;;
10969                            3534     ;;
10970                            3535     ;;
10971                            3536     ;;//    ***********************************************************
10972                            3537     ;;//    ***                                                             ***
10973                            3538     ;;//    ***                     進角演算可能／不可能                    ***
10974                            3539     ;;//    ***     回転・ふりこで待機点以外で停止する(逆転含む)            ***
10975                            3540     ;;//    ***     反転で待機点以外、最死点以外で停止する(逆転含む)        ***
10976                            3541     ;;//    ***                                                             ***
10977                            3542     ;;//    ***********************************************************
10978                            3543     ;;//    0:進角演算可能
10979                            3544     ;;//    1:不可能
10980                            3545     ;;U2b           MOT_INF_GET(void)
10981                            3546     ;;{
10982                            3547     ;;      U2b     *srvdeg;
10983                            3548     ;;      U2b     *srvtim;
10984                            3549     ;;
10985                            3550     ;;      U2b     stepmax;
10986                            3551     ;;      U2b     dig_n1,dig_n,dig_last;
10987                            3552     ;;      U2b     dir=0;
10988                            3553     ;;      U2b     olddir=0;
10989                            3554     ;;      U2b     tim_n;
*** SuperH RISC engine ASSEMBLER V.7.01.02.000 ***    11/14/21 17:24:34                                                  PAGE    66
PROGRAM NAME =

10990                            3555     ;;
10991                            3556     ;;      U2b     stopcnt=0;
10992                            3557     ;;      U2b     stopcntmax;
10993                            3558     ;;      U2b     ans=0;
10994                            3559     ;;      int     i;
10995                            3560     ;;
10996                            3561     ;;      dig_n1  = SV_TAIKIKAKU_SRV;     //ｽﾀｰﾄ地点
10997                            3562     ;;      dig_n   = SV_TAIKIKAKU_SRV;     //
10998                            3563     ;;
10999                            3564     ;;      stepmax = SV_DANSUU_SRV+1;
11000                            3565     ;;      if((1<stepmax)&&(stepmax<=11)){//1~10→2~11
11001                            3566     ;;              if(SEQ_050_SV & BIT_1) {//反転
11002                            3567     ;;                      dig_last        =dig_n1;//待機点に戻る
11003                            3568     ;;                      stopcntmax      =1;     //反転の場合１回は必ず存在する
11004                            3569     ;;          }else{
11005                            3570     ;;                      if(SEQ_050_SV & BIT_2) {//ふりこ
11006                            3571     ;;                              dig_last=3600-dig_n1;   //180.0-taiki+180.0
11007                            3572     ;;                      }else{//回転
11008                            3573     ;;                              dig_last=dig_n1+3600;   //370.0度でも良い
11009                            3574     ;;                      }
11010                            3575     ;;                      stopcntmax      =0;     //回転・ふりこでは存在しない
11011                            3576     ;;              }
11012                            3577     ;;
11013                            3578     ;;              srvdeg  = &SV_1DANDEG_SRV;      //
11014                            3579     ;;              srvtim  = &SV_1DANTIM_SRV;
11015                            3580     ;;              tim_n   =0;                     //最初の行程は0とする 2行程のときに1行程の
                                          ﾀｲﾏと1→2行程の方向を評価する
11016                            3581     ;;
11017                            3582     ;;              for(i=0;i<stepmax;i++){
11018                            3583     ;;                      dig_n1  =dig_n;
11019                            3584     ;;                      if(i==(stepmax-1)){//最後
11020                            3585     ;;                              dig_n   =dig_last;
11021                            3586     ;;                      }else{
11022                            3587     ;;                              dig_n   =srvdeg[i];
11023                            3588     ;;                      }
11024                            3589     ;;                      if(dig_n1!=dig_n){//角度が異なる
11025                            3590     ;;                              if(dig_n1<dig_n){
11026                            3591     ;;                                      dir=0;//正転
11027                            3592     ;;                              }else{
11028                            3593     ;;                                      dir=1;//逆転
11029                            3594     ;;                              }
11030                            3595     ;;                      }
11031                            3596     ;;                      if((olddir!=dir)||(tim_n!=0)){//ﾀｲﾏが0以外　または　極性が反対
11032                            3597     ;;                              stopcnt++;
11033                            3598     ;;                      }
11034                            3599     ;;                      olddir  =dir;
11035                            3600     ;;                      tim_n   =srvtim[i];//戻り行程のﾀｲﾏは評価されない
11036                            3601     ;;              }
11037                            3602     ;;      }
11038                            3603     ;;
11039                            3604     ;;      if(stopcntmax<stopcnt){
11040                            3605     ;;              ans=1;//停止有り=>進角設定不可
11041                            3606     ;;      }
11042                            3607     ;;
11043                            3608     ;;      return(ans);//
11044                            3609     ;;
11045                            3610     ;;
*** SuperH RISC engine ASSEMBLER V.7.01.02.000 ***    11/14/21 17:24:34                                                  PAGE    67
PROGRAM NAME =

11046                            3611     ;;}
11047                            3612     ;;
11048                            3613     ;;
11049                            3614     ;;
11050                            3615     ;;
11051                            3616     ;;
11052                            3617     
11053                            3618     
11054                            3619     
11055                            3620      .AENDI
11056                            3621     
11057                            3622     
11058                            3623     ;       *******************************************
11059                            3624     ;       ***                                                                             **
                                          *
11060                            3625     ;       ***                                                                             **
                                          *
11061                            3626     ;       ***                                                                             **
                                          *
11062                            3627     ;       ***             画面設定 汎用出力                               ***
11063                            3628     ;       ***             2021-06-29[1/]                                  ***
11064                            3629     ;       ***                                                                             **
                                          *
11065                            3630     ;       ***                                                                             **
                                          *
11066                            3631     ;       ***                                                                             **
                                          *
11067                            3632     ;       *******************************************
11068                            3633     ;       Input MAKE 16BIT
11069                            3634     ;       Input 画面設定
11070                            3635     ;       Output 16BIT
11071                            3636     
11072                            3637     
11073 00000018                   3638     _GAMEN_SEL_HANYOU_CALC:
11074                            3639             SUB_START
11075 00000018 4F22                   M           STS.L   PR,@-R15                ;[必要]
11076                                 M   ;;;;;;; ADD     #-4,R15                 ;[不要?]
11077                            3640     
11078                            3641             FAR_JSR #_GAMEN_SEL_HANYOU_DI_LOAD,R0   ;R9:
11079 0000001A D00A                   M           MOV.L   #_GAMEN_SEL_HANYOU_DI_LOAD,R0           ;ﾃｰﾌﾞﾙｱﾄﾞﾚｽの内容をREGへ
11080 0000001C 400B                   M           JSR     @R0                     ;
11081 0000001E 0009                   M           NOP                                     ;
11082                            3642     
11083                            3643     
11084 00000020 9A0E              3644             MOV.W   #BIT0,R10                                               ;R10:
11085 00000022 D109              3645             MOV.L   #_CAM_OUTPUT_DT+0*2,R1                  ;ﾛｰﾀﾘｶﾑ　SQ360
11086 00000024 6011              3646             MOV.W   @R1,R0
11087 00000026 D109              3647             MOV.L   #_CAM_OUTPUT_DT+4*2,R1                  ;ﾛｰﾀﾘｶﾑ　SQ364
11088 00000028 6811              3648             MOV.W   @R1,R8                                                  ;R8:CAM
11089 0000002A 280B              3649             OR              R0,R8                                                   ;
11090                            3650     
11091 0000002C D508              3651             MOV.L   #_SEQAB_DP_TOP+60*2,R5                  ;画面SW 60~
11092 0000002E 9308              3652             MOV.W   #D'16,R3                                                ;
11093                            3653     
11094                            3654     ;       ------------ OUTPUT------------------
11095 00000030 277A              3655             XOR             R7,R7                                                   ;
11096                            3656     ;       -------------------------------------
*** SuperH RISC engine ASSEMBLER V.7.01.02.000 ***    11/14/21 17:24:34                                                  PAGE    68
PROGRAM NAME =

11097                            3657     
11098 00000032                   3658     GAMEN_SEL_HANYOU_CAL_LOP:
11099 00000032 6055              3659             MOV.W   @R5+,R0                                                 ;画面SW-LOAD
11100 00000034 C801              3660             TST             #BIT0,R0                                                ;ｶﾑ出力?
11101                            3661             TST_BIT_OF GAMEN_SEL_HANYOU_CAL100              ;no
11102 00000036 890D                   M           BT      GAMEN_SEL_HANYOU_CAL100
11103                            3662     
11104                            3663     ;       --------カム-------------------------
11105 00000038 28A8              3664             TST             R10,R8                                                  ;CAM ON?
11106                            3665             TST_BIT_ON GAMEN_SEL_HANYOU_CAL150              ;BIT0,BIT1,,,,BIT15
11107 0000003A 8B0D                   M           BF      GAMEN_SEL_HANYOU_CAL150
11108                            3666             M_BRA   GAMEN_SEL_HANYOU_CAL200                 ;
11109 0000003C A00D                   M           BRA     GAMEN_SEL_HANYOU_CAL200
11110 0000003E 0009                   M           NOP
11111                            3667     
11112                            3668     
11113                            3669     ;       --------汎用出力-------------------------
11114                                     ***** BEGIN-POOL *****
11115 00000040 0001                       DATA FOR SOURCE-LINE 3644
11116 00000042 0010                       DATA FOR SOURCE-LINE 3652
11117 00000044 00000000                   DATA FOR SOURCE-LINE 3641
11118 00000048 00000000                   DATA FOR SOURCE-LINE 3645
11119 0000004C 00000000                   DATA FOR SOURCE-LINE 3647
11120 00000050 00000000                   DATA FOR SOURCE-LINE 3651
11121                                     ***** END-POOL *****
11122 00000054                   3670     GAMEN_SEL_HANYOU_CAL100:
11123 00000054 2908              3671             TST             R0,R9                                                   ;BIT1~BIT1
                                          5
11124                            3672             TST_BIT_OF GAMEN_SEL_HANYOU_CAL200              ;選択されたSWの対象ﾋﾞｯﾄがON？ NO!
11125 00000056 8900                   M           BT      GAMEN_SEL_HANYOU_CAL200
11126                            3673     ;       --------------- ON---------------------
11127 00000058                   3674     GAMEN_SEL_HANYOU_CAL150:
11128 00000058 27AB              3675             OR              R10,R7                                                  ;BIT0,BIT1
                                          ,,,,BIT15
11129 0000005A                   3676     GAMEN_SEL_HANYOU_CAL200:
11130 0000005A 4A00              3677             SHLL    R10
11131 0000005C 73FF              3678             ADD             #-1,R3
11132 0000005E 2338              3679             TST             R3,R3
11133                            3680             TST_BIT_ON GAMEN_SEL_HANYOU_CAL_LOP             ;
11134 00000060 8BE7                   M           BF      GAMEN_SEL_HANYOU_CAL_LOP
11135                            3681     
11136 00000062 D103              3682             MOV.L   #_GMN_HANYO_OUT1_SQ,R1                  ;
11137 00000064 2171              3683             MOV.W   R7,@R1                                                  ;
11138 00000066 D103              3684             MOV.L   #_SEQAB_DP_TOP+370*2,R1                 ;汎用出力
11139 00000068 2171              3685             MOV.W   R7,@R1                                                  ;
11140                            3686     
11141                            3687             SUB_END
11142                                 M   ;;;;;;; ADD     #4,R15                  ;[不要?]
11143 0000006A 4F26                   M           LDS.L   @R15+,PR                ;[必要]
11144                            3688             M_RTS
11145 0000006C 000B                   M           RTS                             ;RTSの後ろの
11146 0000006E 0009                   M           NOP                             ;@R15+,PRはﾀﾞﾒ
11147                            3689     
11148                            3690     
11149                            3691     
11150                                     ***** BEGIN-POOL *****
11151 00000070 00000000                   DATA FOR SOURCE-LINE 3682
*** SuperH RISC engine ASSEMBLER V.7.01.02.000 ***    11/14/21 17:24:34                                                  PAGE    69
PROGRAM NAME =

11152 00000074 00000000                   DATA FOR SOURCE-LINE 3684
11153                                     ***** END-POOL *****
11154 00000078                   3692     _GAMEN_SEL_HANYOU_DI_LOAD:
11155                            3693             SUB_START
11156 00000078 4F22                   M           STS.L   PR,@-R15                ;[必要]
11157                                 M   ;;;;;;; ADD     #-4,R15                 ;[不要?]
11158                            3694     
11159 0000007A 299A              3695             XOR             R9,R9                                                   ;SQ ANS
11160                            3696     
11161 0000007C D126              3697             MOV.L   #_SEQAB_DP_TOP+200*2,R1                 ;
11162 0000007E 6011              3698             MOV.W   @R1,R0                                                  ;
11163 00000080 6203              3699             MOV             R0,R2                                                   ;BIT15
11164 00000082 C91F              3700             AND             #H'1F,R0                                                ;BIT0~BIT4
                                          (200.0~200.4)
11165 00000084 4000              3701             SHLL    R0                                                              ;
11166 00000086 290B              3702             OR              R0,R9                                                   ;BIT0=0,　
                                          BIT1,2,3,4,5
11167                            3703     
11168 00000088 6023              3704             MOV             R2,R0                                                   ;
11169 0000008A 973E              3705             MOV.W   #BIT6,R7                                                ;
11170 0000008C C840              3706             TST             #BIT6,R0                                                ;(200.6)上
                                          昇復帰
11171                            3707             TST_BIT_OF GAMEN_SEL_HANYOU_DI_LD020    ;
11172 0000008E 8900                   M           BT      GAMEN_SEL_HANYOU_DI_LD020
11173 00000090 297B              3708             OR              R7,R9
11174 00000092                   3709     GAMEN_SEL_HANYOU_DI_LD020:                                      ;BIT6(200.6)
11175                            3710     
11176                            3711     
11177 00000092 973B              3712             MOV.W   #BIT7,R7                                                ;
11178 00000094 C820              3713             TST             #BIT5,R0                                                ;(200.5)段
                                          取スンドウ
11179                            3714             TST_BIT_OF GAMEN_SEL_HANYOU_DI_LD030    ;
11180 00000096 8900                   M           BT      GAMEN_SEL_HANYOU_DI_LD030
11181 00000098 297B              3715             OR              R7,R9
11182 0000009A                   3716     GAMEN_SEL_HANYOU_DI_LD030:                                      ;BIT7(200.5)
11183                            3717     
11184                            3718     
11185 0000009A 9738              3719             MOV.W   #BIT8,R7                                                ;
11186 0000009C 9438              3720             MOV.W   #BIT15,R4                                               ;
11187 0000009E 2248              3721             TST             R4,R2                                                   ;(200.15)
11188                            3722             TST_BIT_OF GAMEN_SEL_HANYOU_DI_LD040    ;
11189 000000A0 8900                   M           BT      GAMEN_SEL_HANYOU_DI_LD040
11190 000000A2 297B              3723             OR              R7,R9
11191 000000A4                   3724     GAMEN_SEL_HANYOU_DI_LD040:                                      ;BIT8(200.15)
11192                            3725     
11193                            3726     
11194 000000A4 4700              3727             SHLL    R7                                                              ;BIT9
11195 000000A6 D11D              3728             MOV.L   #_SEQAB_DP_TOP+203*2,R1                 ;
11196 000000A8 6011              3729             MOV.W   @R1,R0                                                  ;
11197 000000AA C820              3730             TST             #BIT5,R0                                                ;203.5
11198                            3731             TST_BIT_OF GAMEN_SEL_HANYOU_DI_LD050    ;
11199 000000AC 8900                   M           BT      GAMEN_SEL_HANYOU_DI_LD050
11200 000000AE 297B              3732             OR              R7,R9
11201 000000B0                   3733     GAMEN_SEL_HANYOU_DI_LD050:                                      ;BIT9(203.5)
11202                            3734     
11203                            3735     
11204 000000B0 4700              3736             SHLL    R7                                                              ;BIT10
*** SuperH RISC engine ASSEMBLER V.7.01.02.000 ***    11/14/21 17:24:34                                                  PAGE    70
PROGRAM NAME =

11205 000000B2 D11B              3737             MOV.L   #_SEQAB_DP_TOP+352*2,R1                 ;
11206 000000B4 6011              3738             MOV.W   @R1,R0                                                  ;
11207 000000B6 942B              3739             MOV.W   #BIT15,R4                                               ;
11208 000000B8 2048              3740             TST             R4,R0                                                   ;352.15(55
                                          0.0 AND 550.1)
11209                            3741             TST_BIT_OF GAMEN_SEL_HANYOU_DI_LD060    ;
11210 000000BA 8900                   M           BT      GAMEN_SEL_HANYOU_DI_LD060
11211 000000BC 297B              3742             OR              R7,R9
11212 000000BE                   3743     GAMEN_SEL_HANYOU_DI_LD060:                                      ;BIT10(352.15)
11213                            3744     
11214 000000BE 4700              3745             SHLL    R7
11215 000000C0 D118              3746             MOV.L   #_SEQAB_DP_TOP+204*2,R1                 ;
11216 000000C2 6011              3747             MOV.W   @R1,R0                                                  ;
11217 000000C4 9425              3748             MOV.W   #(BIT9|BIT8),R4                                 ;
11218 000000C6 2048              3749             TST             R4,R0                                                   ;204,8/204
                                          .9
11219                            3750             TST_BIT_ON      GAMEN_SEL_HANYOU_DI_LD080       ;負論理
11220 000000C8 8B00                   M           BF      GAMEN_SEL_HANYOU_DI_LD080
11221 000000CA 297B              3751             OR              R7,R9
11222 000000CC                   3752     GAMEN_SEL_HANYOU_DI_LD080:                                      ;BIT11
11223                            3753     
11224 000000CC 4700              3754             SHLL    R7
11225 000000CE D112              3755             MOV.L   #_SEQAB_DP_TOP+200*2,R1                 ;
11226 000000D0 6011              3756             MOV.W   @R1,R0                                                  ;
11227 000000D2 C880              3757             TST             #BIT7,R0                                                ;200.7
11228                            3758             TST_BIT_ON GAMEN_SEL_HANYOU_DI_LD100    ;負論理
11229 000000D4 8B00                   M           BF      GAMEN_SEL_HANYOU_DI_LD100
11230 000000D6 297B              3759             OR              R7,R9                                                   ;
11231 000000D8                   3760     GAMEN_SEL_HANYOU_DI_LD100:                                      ;BIT12
11232                            3761     
11233 000000D8 4700              3762             SHLL    R7
11234 000000DA D113              3763             MOV.L   #_SEQAB_DP_TOP+202*2,R1                 ;
11235 000000DC 6011              3764             MOV.W   @R1,R0                                                  ;
11236 000000DE 9419              3765             MOV.W   #(BIT13|BIT12|BIT11|BIT10),R4   ;
11237 000000E0 2048              3766             TST             R4,R0                                                   ;202,10~13
11238                            3767             TST_BIT_ON GAMEN_SEL_HANYOU_DI_LD120    ;負論理
11239 000000E2 8B00                   M           BF      GAMEN_SEL_HANYOU_DI_LD120
11240 000000E4 297B              3768             OR              R7,R9                                                   ;
11241 000000E6                   3769     GAMEN_SEL_HANYOU_DI_LD120:                                      ;BIT13
11242                            3770     
11243 000000E6 4700              3771             SHLL    R7
11244 000000E8 D110              3772             MOV.L   #_SEQAB_DP_TOP+139*2,R1                 ;
11245 000000EA 6011              3773             MOV.W   @R1,R0                                                  ;
11246 000000EC 940F              3774             MOV.W   #BIT8,R4                                                ;
11247 000000EE 2048              3775             TST             R4,R0                                                   ;139.8
11248                            3776             TST_BIT_OF GAMEN_SEL_HANYOU_DI_LD140    ;
11249 000000F0 8900                   M           BT      GAMEN_SEL_HANYOU_DI_LD140
11250 000000F2 297B              3777             OR              R7,R9
11251 000000F4                   3778     GAMEN_SEL_HANYOU_DI_LD140:                                      ;BIT14
11252                            3779     
11253 000000F4 4700              3780             SHLL    R7
11254 000000F6 D10E              3781             MOV.L   #_SEQAB_DP_TOP+33*2,R1                  ;
11255 000000F8 6011              3782             MOV.W   @R1,R0                                                  ;
11256 000000FA C801              3783             TST             #BIT0,R0                                                ;
11257                            3784             TST_BIT_OF GAMEN_SEL_HANYOU_DI_LD160    ;
11258 000000FC 8900                   M           BT      GAMEN_SEL_HANYOU_DI_LD160
11259 000000FE 297B              3785             OR              R7,R9
*** SuperH RISC engine ASSEMBLER V.7.01.02.000 ***    11/14/21 17:24:34                                                  PAGE    71
PROGRAM NAME =

11260 00000100                   3786     GAMEN_SEL_HANYOU_DI_LD160:                                      ;BIT15
11261                            3787     
11262                            3788     
11263 00000100 D10C              3789             MOV.L   #_SEQAB_DP_TOP+373*2,R1                 ;ﾃﾞﾊﾞｯｸ用信号
11264 00000102 2191              3790             MOV.W   R9,@R1                                                  ;
11265                            3791     
11266                            3792             SUB_END
11267                                 M   ;;;;;;; ADD     #4,R15                  ;[不要?]
11268 00000104 4F26                   M           LDS.L   @R15+,PR                ;[必要]
11269                            3793             M_RTS
11270 00000106 000B                   M           RTS                             ;RTSの後ろの
11271 00000108 0009                   M           NOP                             ;@R15+,PRはﾀﾞﾒ
11272                            3794     
11273                            3795     ;       *******************************************
11274                            3796     ;       ***                                                                             **
                                          *
11275                            3797     ;       ***                                                                             **
                                          *
11276                            3798     ;       ***                                                                             **
                                          *
11277                            3799     ;       ***             画面設定 ミス検                                 ***
11278                            3800     ;       ***             2021-06-29                                              ***
11279                            3801     ;       ***             <ﾌｨｰﾀﾞｶﾑ>                                               ***
11280                            3802     ;       ***             [1]     ｶﾑON中ｾﾝｻON                                     ***
11281                            3803     ;       ***             [2]     区間完了時でONしていること      ***
11282                            3804     ;       ***             [3]     区間内でon->offすること         ***
11283                            3805     ;       ***                                                                             **
                                          *
11284                            3806     ;       *******************************************
11285                            3807     ;       Input   DI相当
11286                            3808     ;       Output  停止信号[2word:即停止/連続停止]
11287                            3809     ;
11288                            3810     ;       Input   SV-SW:条件 入/切･1,2,4回路:[ENB]
11289                            3811     ;       Input   SV-SW:論理 N.O/N.C
11290                            3812     ;       Input   SV-SW:演算 PAT1,PAT2,PAT3
11291                            3813     ;       Input   SV-SW:出力
11292                            3814     ;
11293                            3815     ;
11294                                     ***** BEGIN-POOL *****
11295 0000010A 0040                       DATA FOR SOURCE-LINE 3705
11296 0000010C 0080                       DATA FOR SOURCE-LINE 3712
11297 0000010E 0100                       DATA FOR SOURCE-LINE 3719,3774
11298 00000110 8000                       DATA FOR SOURCE-LINE 3720,3739
11299 00000112 0300                       DATA FOR SOURCE-LINE 3748
11300 00000114 3C00                       DATA FOR SOURCE-LINE 3765
11301 00000116 0000                       ALIGNMENT CODE
11302 00000118 00000000                   DATA FOR SOURCE-LINE 3697,3755
11303 0000011C 00000000                   DATA FOR SOURCE-LINE 3728
11304 00000120 00000000                   DATA FOR SOURCE-LINE 3737
11305 00000124 00000000                   DATA FOR SOURCE-LINE 3746
11306 00000128 00000000                   DATA FOR SOURCE-LINE 3763
11307 0000012C 00000000                   DATA FOR SOURCE-LINE 3772
11308 00000130 00000000                   DATA FOR SOURCE-LINE 3781
11309 00000134 00000000                   DATA FOR SOURCE-LINE 3789
11310                                     ***** END-POOL *****
11311 00000138                   3816     _MISS_KEN_FEEDER_CALC:
11312                            3817             SUB_START
*** SuperH RISC engine ASSEMBLER V.7.01.02.000 ***    11/14/21 17:24:34                                                  PAGE    72
PROGRAM NAME =

11313 00000138 4F22                   M           STS.L   PR,@-R15                ;[必要]
11314                                 M   ;;;;;;; ADD     #-4,R15                 ;[不要?]
11315                            3818     ;361
11316                            3819     
11317 0000013A D50C              3820             MOV.L   #_MISS_KEN_INIT_FLG,R5          ;
11318 0000013C 6050              3821             MOV.B   @R5,R0                                          ;
11319 0000013E 2008              3822             TST             R0,R0                                           ;
11320                            3823             TST_BIT_ON MISS_KEN_FEEDER_CAL050       ;
11321 00000140 8B04                   M           BF      MISS_KEN_FEEDER_CAL050
11322                            3824     
11323 00000142 CB01              3825             OR              #BIT0,R0
11324 00000144 2500              3826             MOV.B   R0,@R5                                          ;
11325                            3827     
11326 00000146 9010              3828             MOV.W   #D'200,R0                                       ;1~2秒
11327 00000148 D509              3829             MOV.L   #_MISS_KEN_INIT_TIM,R5          ;
11328 0000014A 2501              3830             MOV.W   R0,@R5                                          ;
11329                            3831     
11330 0000014C                   3832     MISS_KEN_FEEDER_CAL050:
11331                            3833     
11332 0000014C D508              3834             MOV.L   #_MISS_KEN_INIT_TIM,R5          ;
11333 0000014E 6051              3835             MOV.W   @R5,R0                                          ;
11334 00000150 2008              3836             TST             R0,R0                                           ;
11335                            3837             TST_BIT_OF      MISS_KEN_FEEDER_CAL100  ;
11336 00000152 8901                   M           BT      MISS_KEN_FEEDER_CAL100
11337 00000154 70FF              3838             ADD             #-1,R0                                          ;
11338 00000156 2501              3839             MOV.W   R0,@R5                                          ;
11339 00000158                   3840     MISS_KEN_FEEDER_CAL100:
11340                            3841     
11341                            3842             FAR_JSR #_MISS_KEN_FEEDER_DI_LOAD,R0    ;DI,CAM LOAD だけ
11342 00000158 D006                   M           MOV.L   #_MISS_KEN_FEEDER_DI_LOAD,R0            ;ﾃｰﾌﾞﾙｱﾄﾞﾚｽの内容をREGへ
11343 0000015A 400B                   M           JSR     @R0                     ;
11344 0000015C 0009                   M           NOP                                     ;
11345                            3843     
11346                            3844     
11347                            3845     ;       ----------------------------------------
11348                            3846             FAR_JSR #_MISS_KEN_FEEDER_CHECK,R0      ;
11349 0000015E D006                   M           MOV.L   #_MISS_KEN_FEEDER_CHECK,R0              ;ﾃｰﾌﾞﾙｱﾄﾞﾚｽの内容をREGへ
11350 00000160 400B                   M           JSR     @R0                     ;
11351 00000162 0009                   M           NOP                                     ;
11352                            3847     
11353                            3848     
11354                            3849     
11355                            3850     
11356                            3851     
11357                            3852             SUB_END
11358                                 M   ;;;;;;; ADD     #4,R15                  ;[不要?]
11359 00000164 4F26                   M           LDS.L   @R15+,PR                ;[必要]
11360                            3853             M_RTS
11361 00000166 000B                   M           RTS                             ;RTSの後ろの
11362 00000168 0009                   M           NOP                             ;@R15+,PRはﾀﾞﾒ
11363                            3854     
11364                            3855     
11365                            3856     ;       Output R9
11366                            3857     ;
11367                            3858     ;   MATHED
11368                            3859     ;   R11     R10
11369                            3860     ;               0(37.*):接触
*** SuperH RISC engine ASSEMBLER V.7.01.02.000 ***    11/14/21 17:24:34                                                  PAGE    73
PROGRAM NAME =

11370                            3861     ;       0(23.*),1(37.*):保持
11371                            3862     ;       1(23.*),1(37.*):排出
11372                            3863     
11373                                     ***** BEGIN-POOL *****
11374 0000016A 00C8                       DATA FOR SOURCE-LINE 3828
11375 0000016C 00000000                   DATA FOR SOURCE-LINE 3820
11376 00000170 00000000                   DATA FOR SOURCE-LINE 3829,3834
11377 00000174 00000000                   DATA FOR SOURCE-LINE 3842
11378 00000178 00000000                   DATA FOR SOURCE-LINE 3846
11379                                     ***** END-POOL *****
11380 0000017C                   3864     _MISS_KEN_FEEDER_CHECK
11381                            3865             SUB_START
11382 0000017C 4F22                   M           STS.L   PR,@-R15                ;[必要]
11383                                 M   ;;;;;;; ADD     #-4,R15                 ;[不要?]
11384                            3866     
11385                            3867     ;       -------------------------------------------------
11386 0000017E 200A              3868             XOR             R0,R0
11387 00000180 D117              3869             MOV.L   #_SEQAB_DP_TOP+18*2,R1                  ;(回路有/無,)
11388 00000182 6211              3870             MOV.W   @R1,R2                                                  ;
11389                            3871     
11390 00000184 9425              3872             MOV.W   #BIT8,R4
11391 00000186 2248              3873             TST             R4,R2                                                   ;1回路
11392                            3874             TST_BIT_OF MISS_KEN_FEEDER_ENB_CHK050   ;
11393 00000188 8900                   M           BT      MISS_KEN_FEEDER_ENB_CHK050
11394 0000018A CB01              3875             OR              #BIT0,R0                                                ;
11395 0000018C                   3876     MISS_KEN_FEEDER_ENB_CHK050                                      ;
11396                            3877     
11397 0000018C 9422              3878             MOV.W   #BIT9,R4
11398 0000018E 2248              3879             TST             R4,R2                                                   ;2回路
11399                            3880             TST_BIT_OF MISS_KEN_FEEDER_ENB_CHK100   ;
11400 00000190 8900                   M           BT      MISS_KEN_FEEDER_ENB_CHK100
11401 00000192 CB02              3881             OR              #BIT1,R0                                                ;
11402 00000194                   3882     MISS_KEN_FEEDER_ENB_CHK100                                      ;
11403                            3883     
11404 00000194 941F              3884             MOV.W   #BIT10,R4
11405 00000196 2248              3885             TST             R4,R2                                                   ;3,4回路
11406                            3886             TST_BIT_OF MISS_KEN_FEEDER_ENB_CHK150   ;
11407 00000198 8900                   M           BT      MISS_KEN_FEEDER_ENB_CHK150
11408 0000019A CB0C              3887             OR              #(BIT3|BIT2),R0                                 ;
11409 0000019C                   3888     MISS_KEN_FEEDER_ENB_CHK150                                      ;
11410                            3889     
11411 0000019C 941C              3890             MOV.W   #BIT11,R4
11412 0000019E 2248              3891             TST             R4,R2                                                   ;5,6回路
11413                            3892             TST_BIT_OF MISS_KEN_FEEDER_ENB_CHK200   ;
11414 000001A0 8900                   M           BT      MISS_KEN_FEEDER_ENB_CHK200
11415 000001A2 CB30              3893             OR              #(BIT5|BIT4),R0                                 ;
11416 000001A4                   3894     MISS_KEN_FEEDER_ENB_CHK200                                      ;
11417 000001A4 6503              3895             MOV             R0,R5                                                   ;ENB
11418                            3896     ;       -------------------------------------------------
11419                            3897     
11420                            3898     
11421 000001A6 D10F              3899             MOV.L   #_SEQAB_DP_TOP+37*2,R1  ;接触/保持･排出SW
11422 000001A8 6611              3900             MOV.W   @R1,R6                                  ;
11423 000001AA 4619              3901             SHLR8   R6                                              ;37.8~ BIT0~BIT5 0:接触  1
                                          :(保持OR排出)
11424                            3902     
11425 000001AC D10E              3903             MOV.L   #_SEQAB_DP_TOP+23*2,R1  ;
*** SuperH RISC engine ASSEMBLER V.7.01.02.000 ***    11/14/21 17:24:34                                                  PAGE    74
PROGRAM NAME =

11426 000001AE 6711              3904             MOV.W   @R1,R7                                  ;
11427 000001B0 4719              3905             SHLR8   R7                                              ;
11428 000001B2 4709              3906             SHLR2   R7                                              ;23.10~BIT0~BIT5 0:保持 1:
                                          排出
11429                            3907     
11430 000001B4 9811              3908             MOV.W   #BIT0,R8                                ;
11431 000001B6 299A              3909             XOR             R9,R9                                   ;SQ OUT
11432                            3910     
11433 000001B8 D10C              3911             MOV.L   #_MISS_KEN_DI,R1                        ;
11434 000001BA 6A11              3912             MOV.W   @R1,R10                                         ;R10:ｾﾝｻ
11435 000001BC D10C              3913             MOV.L   #_MISS_KEN_CAM_IN,R1            ;
11436 000001BE 6B11              3914             MOV.W   @R1,R11                                         ;R11:ｶﾑ
11437 000001C0 D10C              3915             MOV.L   #_MISS_KEN_CAM_OF_EDG,R1        ;
11438 000001C2 6C11              3916             MOV.W   @R1,R12                                         ;R12:ｶﾑOFFｴｯｼﾞ
11439 000001C4 DE0C              3917             MOV.L   #_MISS_KEN_DI_REC_ON,R14        ;R14:REC MEM
11440 000001C6 6DE1              3918             MOV.W   @R14,R13                                        ;R13 REC DATA
11441                            3919     
11442 000001C8 9308              3920             MOV.W   #6,R3                                           ;LOOP
11443                            3921     
11444 000001CA                   3922     MISS_KEN_FEEDER_CHK_LOP
11445                            3923     
11446 000001CA 2588              3924             TST             R8,R5                                           ;MISS_KEN_ENB ENB?
11447                            3925             TST_BIT_ON MISS_KEN_FEEDER_CHK_100      ;YES
11448 000001CC 8B16                   M           BF      MISS_KEN_FEEDER_CHK_100
11449                            3926             M_BRA   MISS_KEN_FEEDER_CHK_900
11450 000001CE A03F                   M           BRA     MISS_KEN_FEEDER_CHK_900
11451 000001D0 0009                   M           NOP
11452                            3927     
11453                            3928     ;       ------------ ENB-----------------
11454                                     ***** BEGIN-POOL *****
11455 000001D2 0100                       DATA FOR SOURCE-LINE 3872
11456 000001D4 0200                       DATA FOR SOURCE-LINE 3878
11457 000001D6 0400                       DATA FOR SOURCE-LINE 3884
11458 000001D8 0800                       DATA FOR SOURCE-LINE 3890
11459 000001DA 0001                       DATA FOR SOURCE-LINE 3908
11460 000001DC 0006                       DATA FOR SOURCE-LINE 3920
11461 000001DE 0000                       ALIGNMENT CODE
11462 000001E0 00000000                   DATA FOR SOURCE-LINE 3869
11463 000001E4 00000000                   DATA FOR SOURCE-LINE 3899
11464 000001E8 00000000                   DATA FOR SOURCE-LINE 3903
11465 000001EC 00000000                   DATA FOR SOURCE-LINE 3911
11466 000001F0 00000000                   DATA FOR SOURCE-LINE 3913
11467 000001F4 00000000                   DATA FOR SOURCE-LINE 3915
11468 000001F8 00000000                   DATA FOR SOURCE-LINE 3917
11469                                     ***** END-POOL *****
11470 000001FC                   3929     MISS_KEN_FEEDER_CHK_100:
11471                            3930     
11472 000001FC 2688              3931             TST             R8,R6                                           ;37.8~ BIT0~BIT5 0
                                          :接触  1:(保持OR排出) 非接触?
11473                            3932             TST_BIT_ON MISS_KEN_FEEDER_CHK_200      ;NO
11474 000001FE 8B07                   M           BF      MISS_KEN_FEEDER_CHK_200
11475                            3933     ;       ------ 非接触 ｶﾑON区間中　ｾﾝｻON--------
11476 00000200 2B88              3934             TST             R8,R11                                          ;ｶﾑon
11477                            3935             TST_BIT_OF MISS_KEN_FEEDER_CHK_190      ;
11478 00000202 8903                   M           BT      MISS_KEN_FEEDER_CHK_190
11479 00000204 2A88              3936             TST             R8,R10                                          ;ｾﾝｻON?
11480                            3937             TST_BIT_ON MISS_KEN_FEEDER_CHK_190      ;YES NOMAL
*** SuperH RISC engine ASSEMBLER V.7.01.02.000 ***    11/14/21 17:24:34                                                  PAGE    75
PROGRAM NAME =

11481 00000206 8B01                   M           BF      MISS_KEN_FEEDER_CHK_190
11482                            3938             M_BRA   MISS_KEN_FEEDER_CHK_800         ;ABNOMAL SET
11483 00000208 A021                   M           BRA     MISS_KEN_FEEDER_CHK_800
11484 0000020A 0009                   M           NOP
11485                            3939     
11486 0000020C                   3940     MISS_KEN_FEEDER_CHK_190
11487                            3941             M_BRA   MISS_KEN_FEEDER_CHK_900
11488 0000020C A020                   M           BRA     MISS_KEN_FEEDER_CHK_900
11489 0000020E 0009                   M           NOP
11490                            3942     
11491 00000210                   3943     MISS_KEN_FEEDER_CHK_200
11492 00000210 2788              3944             TST             R8,R7                                           ;23.10~ BIT0~BIT5
                                          0:保持 1:排出
11493                            3945             TST_BIT_ON MISS_KEN_FEEDER_CHK_400      ;1:排出 JUMP
11494 00000212 8B09                   M           BF      MISS_KEN_FEEDER_CHK_400
11495                            3946     
11496                            3947     ;       ------ 保持　ｶﾑON区間中　ｾﾝｻON記憶--------
11497 00000214 2C88              3948             TST             R8,R12                                          ;ｶﾑOFFｴｯｼﾞ
11498                            3949             TST_BIT_ON MISS_KEN_FEEDER_CHK_250      ;
11499 00000216 8B03                   M           BF      MISS_KEN_FEEDER_CHK_250
11500                            3950     
11501 00000218 2B88              3951             TST             R8,R11                                          ;ｶﾑon
11502                            3952             TST_BIT_ON MISS_KEN_FEEDER_CHK_700      ;ON YES JUMP 記憶開始
11503 0000021A 8B0F                   M           BF      MISS_KEN_FEEDER_CHK_700
11504                            3953             M_BRA   MISS_KEN_FEEDER_CHK_750         ;記憶消去
11505 0000021C A013                   M           BRA     MISS_KEN_FEEDER_CHK_750
11506 0000021E 0009                   M           NOP
11507                            3954     
11508 00000220                   3955     MISS_KEN_FEEDER_CHK_250
11509 00000220 2D88              3956             TST             R8,R13                                          ;ON記憶有り?
11510                            3957             TST_BIT_ON MISS_KEN_FEEDER_CHK_900      ;記憶有り ok
11511 00000222 8B15                   M           BF      MISS_KEN_FEEDER_CHK_900
11512                            3958             M_BRA   MISS_KEN_FEEDER_CHK_800         ;ERR
11513 00000224 A013                   M           BRA     MISS_KEN_FEEDER_CHK_800
11514 00000226 0009                   M           NOP
11515                            3959     
11516                            3960     
11517                            3961     
11518                            3962     ;       -------------- 排出---------------------
11519 00000228                   3963     MISS_KEN_FEEDER_CHK_400
11520                            3964     
11521 00000228 2B88              3965             TST             R8,R11                                                  ;ｶﾑon
11522                            3966             TST_BIT_ON MISS_KEN_FEEDER_CHK_700              ;ON YES JUMP 記憶開始
11523 0000022A 8B07                   M           BF      MISS_KEN_FEEDER_CHK_700
11524                            3967     
11525 0000022C 2A88              3968             TST             R8,R10                                                  ;ｾﾝｻON?
11526                            3969             TST_BIT_ON MISS_KEN_FEEDER_CHK_800              ;YES ERR
11527 0000022E 8B0E                   M           BF      MISS_KEN_FEEDER_CHK_800
11528                            3970     
11529 00000230 2C88              3971             TST             R8,R12                                                  ;ｶﾑOFFｴｯｼﾞ
11530                            3972             TST_BIT_OF MISS_KEN_FEEDER_CHK_750              ;NO. 記憶消去
11531 00000232 8908                   M           BT      MISS_KEN_FEEDER_CHK_750
11532                            3973     
11533                            3974     ;       ------ OFF ｴｯｼﾞ------------
11534 00000234 2D88              3975             TST             R8,R13                                          ;ON記憶有り?
11535                            3976             TST_BIT_ON MISS_KEN_FEEDER_CHK_900      ;記憶有り ok
11536 00000236 8B0B                   M           BF      MISS_KEN_FEEDER_CHK_900
*** SuperH RISC engine ASSEMBLER V.7.01.02.000 ***    11/14/21 17:24:34                                                  PAGE    76
PROGRAM NAME =

11537                            3977             M_BRA   MISS_KEN_FEEDER_CHK_800         ;ERR
11538 00000238 A009                   M           BRA     MISS_KEN_FEEDER_CHK_800
11539 0000023A 0009                   M           NOP
11540                            3978     
11541                            3979     
11542                            3980     
11543                            3981     ;       ---------- ｾﾝｻ記憶開始------------
11544 0000023C                   3982     MISS_KEN_FEEDER_CHK_700
11545 0000023C 60A3              3983             MOV             R10,R0                                          ;ｾﾝｻLOAD
11546 0000023E 2089              3984             AND             R8,R0                                           ;
11547 00000240 2D0B              3985             OR              R0,R13                                          ;R13:ｾﾝｻON記憶
11548                            3986             M_BRA   MISS_KEN_FEEDER_CHK_900
11549 00000242 A005                   M           BRA     MISS_KEN_FEEDER_CHK_900
11550 00000244 0009                   M           NOP
11551                            3987     
11552                            3988     ;       ---------- ｾﾝｻ記憶OFF------------
11553 00000246                   3989     MISS_KEN_FEEDER_CHK_750
11554 00000246 6087              3990             NOT             R8,R0                                           ;
11555 00000248 2D09              3991             AND             R0,R13                                          ;R13:ｾﾝｻ記憶OFF
11556                            3992             M_BRA   MISS_KEN_FEEDER_CHK_900
11557 0000024A A001                   M           BRA     MISS_KEN_FEEDER_CHK_900
11558 0000024C 0009                   M           NOP
11559                            3993     
11560                            3994     ;       ---------- ABNOMAL -----------
11561 0000024E                   3995     MISS_KEN_FEEDER_CHK_800
11562 0000024E 298B              3996             OR              R8,R9                   ;
11563                            3997     
11564 00000250                   3998     MISS_KEN_FEEDER_CHK_900
11565 00000250 4800              3999             SHLL    R8                              ;
11566 00000252 73FF              4000             ADD             #-1,R3
11567 00000254 2338              4001             TST             R3,R3
11568                            4002             TST_BIT_OF MISS_KEN_FEEDER_CHK_950      ;
11569 00000256 8901                   M           BT      MISS_KEN_FEEDER_CHK_950
11570                            4003             M_BRA   MISS_KEN_FEEDER_CHK_LOP         ;
11571 00000258 AFB7                   M           BRA     MISS_KEN_FEEDER_CHK_LOP
11572 0000025A 0009                   M           NOP
11573                            4004     
11574                            4005     
11575 0000025C                   4006     MISS_KEN_FEEDER_CHK_950
11576 0000025C 2ED1              4007             MOV.W   R13,@R14                                        ;R13 REC DATA,R14:REC MEM
11577                            4008     
11578                            4009     
11579 0000025E                   4010     MISS_KEN_FEEDER_CHK_EXT
11580                            4011     
11581                            4012     ;INPUT R9
11582                            4013             FAR_JSR #_MISS_KEN_FEEDER_OUT,R0        ;
11583 0000025E D003                   M           MOV.L   #_MISS_KEN_FEEDER_OUT,R0                ;ﾃｰﾌﾞﾙｱﾄﾞﾚｽの内容をREGへ
11584 00000260 400B                   M           JSR     @R0                     ;
11585 00000262 0009                   M           NOP                                     ;
11586                            4014     
11587                            4015             SUB_END
11588                                 M   ;;;;;;; ADD     #4,R15                  ;[不要?]
11589 00000264 4F26                   M           LDS.L   @R15+,PR                ;[必要]
11590                            4016             M_RTS
11591 00000266 000B                   M           RTS                             ;RTSの後ろの
11592 00000268 0009                   M           NOP                             ;@R15+,PRはﾀﾞﾒ
11593                            4017     
*** SuperH RISC engine ASSEMBLER V.7.01.02.000 ***    11/14/21 17:24:34                                                  PAGE    77
PROGRAM NAME =

11594                            4018     
11595                                     ***** BEGIN-POOL *****
11596 0000026A 0000                       ALIGNMENT CODE
11597 0000026C 00000000                   DATA FOR SOURCE-LINE 4013
11598                                     ***** END-POOL *****
11599 00000270                   4019     _MISS_KEN_FEEDER_DI_LOAD
11600                            4020             SUB_START
11601 00000270 4F22                   M           STS.L   PR,@-R15                ;[必要]
11602                                 M   ;;;;;;; ADD     #-4,R15                 ;[不要?]
11603                            4021     
11604                            4022     ;       ----------- CAM ----------------
11605 00000272 D10B              4023             MOV.L   #_CAM_OUTPUT_DT+1*2,R1                  ;SQ361
11606 00000274 6811              4024             MOV.W   @R1,R8                                                  ;R8:CAM
11607 00000276 D10B              4025             MOV.L   #_MISS_KEN_CAM_IN,R1                    ;[フィーダカム信号]
11608 00000278 6211              4026             MOV.W   @R1,R2                                                  ;OLD
11609 0000027A 2181              4027             MOV.W   R8,@R1                                                  ;R8:NOW
11610 0000027C 6983              4028             MOV             R8,R9                                                   ;
11611                            4029     
11612 0000027E 292A              4030             XOR             R2,R9                                                   ;R9:EDGE
11613 00000280 2299              4031             AND             R9,R2                                                   ;OFF EDGE
11614 00000282 D109              4032             MOV.L   #_MISS_KEN_CAM_OF_EDG,R1                ;
11615 00000284 2121              4033             MOV.W   R2,@R1                                                  ;R2:OFFｴｯｼﾞ(ｶﾑの区
                                          間終了)
11616                            4034     
11617                            4035     
11618                            4036     ;       ---------- DI -----------------------
11619 00000286 D109              4037             MOV.L   #_SEQAB_DP_TOP+352*2,R1                                 ;ｾﾝｻ信号
11620 00000288 6011              4038             MOV.W   @R1,R0                                                                  ;
11621 0000028A 4019              4039             SHLR8   R0
                                          ;
11622                            4040     
11623 0000028C D108              4041             MOV.L   #_SEQAB_DP_TOP+37*2,R1                                  ; 37.0~37.5 1:N.C(
                                          反転) 0:N.O(通常)
11624 0000028E 6611              4042             MOV.W   @R1,R6                                                                  ;
11625 00000290 206A              4043             XOR             R6,R0
                                          ;
11626 00000292 C93F              4044             AND             #(BIT5|BIT4|BIT3|BIT2|BIT1|BIT0),R0             ;
11627 00000294 D107              4045             MOV.L   #_MISS_KEN_DI,R1                                                ;
11628 00000296 2101              4046             MOV.W   R0,@R1                                                                  ;
11629                            4047     
11630                            4048     
11631                            4049             SUB_END
11632                                 M   ;;;;;;; ADD     #4,R15                  ;[不要?]
11633 00000298 4F26                   M           LDS.L   @R15+,PR                ;[必要]
11634                            4050             M_RTS
11635 0000029A 000B                   M           RTS                             ;RTSの後ろの
11636 0000029C 0009                   M           NOP                             ;@R15+,PRはﾀﾞﾒ
11637                            4051     
11638                            4052     ;       Input R9
11639                                     ***** BEGIN-POOL *****
11640 0000029E 0000                       ALIGNMENT CODE
11641 000002A0 00000000                   DATA FOR SOURCE-LINE 4023
11642 000002A4 00000000                   DATA FOR SOURCE-LINE 4025
11643 000002A8 00000000                   DATA FOR SOURCE-LINE 4032
11644 000002AC 00000000                   DATA FOR SOURCE-LINE 4037
11645 000002B0 00000000                   DATA FOR SOURCE-LINE 4041
11646 000002B4 00000000                   DATA FOR SOURCE-LINE 4045
*** SuperH RISC engine ASSEMBLER V.7.01.02.000 ***    11/14/21 17:24:34                                                  PAGE    78
PROGRAM NAME =

11647                                     ***** END-POOL *****
11648 000002B8                   4053     _MISS_KEN_FEEDER_OUT
11649                            4054             SUB_START
11650 000002B8 4F22                   M           STS.L   PR,@-R15                ;[必要]
11651                                 M   ;;;;;;; ADD     #-4,R15                 ;[不要?]
11652                            4055     
11653                            4056             FAR_JSR #_MISS_KEN_FEEDER_CLR_CHECK,R0                  ;RESET: R9=0
11654 000002BA D00D                   M           MOV.L   #_MISS_KEN_FEEDER_CLR_CHECK,R0          ;ﾃｰﾌﾞﾙｱﾄﾞﾚｽの内容をREGへ
11655 000002BC 400B                   M           JSR     @R0                     ;
11656 000002BE 0009                   M           NOP                                     ;
11657                            4057     
11658 000002C0 D10C              4058             MOV.L   #_SEQAB_DP_TOP+36*2,R1                                  ;
11659 000002C2 6011              4059             MOV.W   @R1,R0                                                                  ;S
                                          W SQ36.0~36.5(1:入)
11660 000002C4 2909              4060             AND             R0,R9
                                          ;
11661 000002C6 4019              4061             SHLR8   R0
                                          ;SW SQ36.8~13  (1:連続停止)
11662 000002C8 6293              4062             MOV             R9,R2
                                          ;
11663 000002CA 2209              4063             AND             R0,R2
                                          ;
11664                            4064     
11665 000002CC D10A              4065             MOV.L   #_MISS_KEN_CNT_STOP_SQ,R1                               ;
11666 000002CE 6311              4066             MOV.W   @R1,R3
11667 000002D0 223B              4067             OR              R3,R2
11668 000002D2 2121              4068             MOV.W   R2,@R1                                                                  ;
11669 000002D4 D109              4069             MOV.L   #_SEQAB_DP_TOP+372*2,R1                                 ;(連続停止)
11670 000002D6 2121              4070             MOV.W   R2,@R1                                                                  ;
11671                            4071     
11672 000002D8 6007              4072             NOT             R0,R0
11673 000002DA 2909              4073             AND             R0,R9
                                          ;
11674 000002DC D108              4074             MOV.L   #_MISS_KEN_EMG_STOP_SQ,R1                               ;
11675 000002DE 6311              4075             MOV.W   @R1,R3                                                                  ;
11676 000002E0 293B              4076             OR              R3,R9
                                          ;
11677 000002E2 2191              4077             MOV.W   R9,@R1                                                                  ;
11678 000002E4 D107              4078             MOV.L   #_SEQAB_DP_TOP+371*2,R1                                 ;
11679 000002E6 2191              4079             MOV.W   R9,@R1                                                                  ;(
                                          即停止)
11680                            4080     
11681                            4081     
11682                            4082     
11683                            4083             SUB_END
11684                                 M   ;;;;;;; ADD     #4,R15                  ;[不要?]
11685 000002E8 4F26                   M           LDS.L   @R15+,PR                ;[必要]
11686                            4084             M_RTS
11687 000002EA 000B                   M           RTS                             ;RTSの後ろの
11688 000002EC 0009                   M           NOP                             ;@R15+,PRはﾀﾞﾒ
11689                            4085     
11690                                     ***** BEGIN-POOL *****
11691 000002EE 0000                       ALIGNMENT CODE
11692 000002F0 00000000                   DATA FOR SOURCE-LINE 4056
11693 000002F4 00000000                   DATA FOR SOURCE-LINE 4058
11694 000002F8 00000000                   DATA FOR SOURCE-LINE 4065
11695 000002FC 00000000                   DATA FOR SOURCE-LINE 4069
*** SuperH RISC engine ASSEMBLER V.7.01.02.000 ***    11/14/21 17:24:34                                                  PAGE    79
PROGRAM NAME =

11696 00000300 00000000                   DATA FOR SOURCE-LINE 4074
11697 00000304 00000000                   DATA FOR SOURCE-LINE 4078
11698                                     ***** END-POOL *****
11699 00000308                   4086     _MISS_KEN_FEEDER_CLR_CHECK
11700                            4087             SUB_START
11701 00000308 4F22                   M           STS.L   PR,@-R15                ;[必要]
11702                                 M   ;;;;;;; ADD     #-4,R15                 ;[不要?]
11703                            4088     
11704                            4089     
11705 0000030A D506              4090             MOV.L   #_MISS_KEN_INIT_TIM,R5                  ;
11706 0000030C 6051              4091             MOV.W   @R5,R0                                                  ;
11707 0000030E 2008              4092             TST             R0,R0                                                   ;
11708                            4093             TST_BIT_ON MISS_KEN_FEEDER_CLR_100              ;CLR
11709 00000310 8B0C                   M           BF      MISS_KEN_FEEDER_CLR_100
11710                            4094     
11711 00000312 D105              4095             MOV.L   #_SEQAB_DP_TOP+200*2,R1                 ;
11712 00000314 6011              4096             MOV.W   @R1,R0                                                  ;
11713 00000316 9403              4097             MOV.W   #BIT15,R4                                               ;
11714 00000318 2048              4098             TST             R4,R0                                                   ;
11715                            4099             TST_BIT_ON MISS_KEN_FEEDER_CLR_100              ;CLR
11716 0000031A 8B07                   M           BF      MISS_KEN_FEEDER_CLR_100
11717                            4100             M_BRA   MISS_KEN_FEEDER_CLR_EXT                 ;
11718 0000031C A010                   M           BRA     MISS_KEN_FEEDER_CLR_EXT
11719 0000031E 0009                   M           NOP
11720                            4101     
11721                                     ***** BEGIN-POOL *****
11722 00000320 8000                       DATA FOR SOURCE-LINE 4097
11723 00000322 0000                       ALIGNMENT CODE
11724 00000324 00000000                   DATA FOR SOURCE-LINE 4090
11725 00000328 00000000                   DATA FOR SOURCE-LINE 4095
11726                                     ***** END-POOL *****
11727 0000032C                   4102     MISS_KEN_FEEDER_CLR_100:
11728                            4103     
11729                            4104     
11730 0000032C 299A              4105             XOR             R9,R9
11731 0000032E D106              4106             MOV.L   #_MISS_KEN_CNT_STOP_SQ,R1                               ;
11732 00000330 2191              4107             MOV.W   R9,@R1                                                                  ;
11733 00000332 D106              4108             MOV.L   #_SEQAB_DP_TOP+372*2,R1                                 ;(連続停止)
11734 00000334 2191              4109             MOV.W   R9,@R1                                                                  ;
11735                            4110     
11736                            4111     
11737 00000336 299A              4112             XOR             R9,R9
11738 00000338 D105              4113             MOV.L   #_MISS_KEN_EMG_STOP_SQ,R1                               ;
11739 0000033A 2191              4114             MOV.W   R9,@R1                                                                  ;
11740 0000033C D105              4115             MOV.L   #_SEQAB_DP_TOP+371*2,R1                                 ;
11741 0000033E 2191              4116             MOV.W   R9,@R1                                                                  ;(
                                          即停止)
11742                            4117     
11743 00000340                   4118     MISS_KEN_FEEDER_CLR_EXT:
11744                            4119     
11745                            4120             SUB_END
11746                                 M   ;;;;;;; ADD     #4,R15                  ;[不要?]
11747 00000340 4F26                   M           LDS.L   @R15+,PR                ;[必要]
11748                            4121             M_RTS
11749 00000342 000B                   M           RTS                             ;RTSの後ろの
11750 00000344 0009                   M           NOP                             ;@R15+,PRはﾀﾞﾒ
11751                            4122     
*** SuperH RISC engine ASSEMBLER V.7.01.02.000 ***    11/14/21 17:24:34                                                  PAGE    80
PROGRAM NAME =

11752                            4123     
11753                            4124     
11754                            4125     
11755                            4126     
11756                            4127     
11757                                     ***** BEGIN-POOL *****
11758 00000346 0000                       ALIGNMENT CODE
11759 00000348 00000000                   DATA FOR SOURCE-LINE 4106
11760 0000034C 00000000                   DATA FOR SOURCE-LINE 4108
11761 00000350 00000000                   DATA FOR SOURCE-LINE 4113
11762 00000354 00000000                   DATA FOR SOURCE-LINE 4115
11763                                     ***** END-POOL *****
11764                            4128             .END
  *****TOTAL ERRORS       0
  *****TOTAL WARNINGS     0
*** SuperH RISC engine ASSEMBLER V.7.01.02.000 ***    11/14/21 17:24:34                                                  PAGE    81

*** CROSS REFERENCE LIST

NAME                             SECTION  ATTR VALUE             SEQUENCE

BIT0                                      EQU  00000001     15* 2029  2333  2348 11084 11100 11256 11323 11394 11430 11626 
BIT1                                      EQU  00000002     16* 2030  2334  2349 11401 11626 
BIT10                                     EQU  00000400     25* 2359 11236 11404 
BIT11                                     EQU  00000800     26* 2360 11236 11411 
BIT12                                     EQU  00001000     27* 2365 11236 
BIT13                                     EQU  00002000     28* 2366 11236 
BIT14                                     EQU  00004000     29* 2367 
BIT15                                     EQU  00008000     30* 2368 11186 11207 11713 
BIT16                                     EQU  00010000     31*
BIT17                                     EQU  00020000     32*
BIT18                                     EQU  00040000     33*
BIT19                                     EQU  00080000     34*
BIT2                                      EQU  00000004     17* 2031  2335  2350  2370 11408 11626 
BIT20                                     EQU  00100000     35*
BIT21                                     EQU  00200000     36*
BIT22                                     EQU  00400000     37*
BIT23                                     EQU  00800000     38*
BIT24                                     EQU  01000000     39*
BIT25                                     EQU  02000000     40*
BIT26                                     EQU  04000000     41*
BIT27                                     EQU  08000000     42*
BIT28                                     EQU  10000000     43*
BIT29                                     EQU  20000000     44*
BIT3                                      EQU  00000008     18* 2032  2336  2351  2371 11408 11626 
BIT30                                     EQU  40000000     45*
BIT31                                     EQU  80000000     46*
BIT4                                      EQU  00000010     19* 2337  2352  2372 11415 11626 
BIT5                                      EQU  00000020     20* 2338  2353  2373 11178 11197 11415 11626 
BIT6                                      EQU  00000040     21* 2339  2354  2374 11169 11170 
BIT7                                      EQU  00000080     22* 2340  2355  2375 11177 11227 
BIT8                                      EQU  00000100     23* 2341  2356 11185 11217 11246 11390 
BIT9                                      EQU  00000200     24* 2342  2357 11217 11397 
GAMEN_SEL_HANYOU_CAL100          P             00000054  11102 11122*
GAMEN_SEL_HANYOU_CAL150          P             00000058  11107 11127*
GAMEN_SEL_HANYOU_CAL200          P             0000005A  11109 11125 11129*
GAMEN_SEL_HANYOU_CAL_LOP         P             00000032  11098*11134 
GAMEN_SEL_HANYOU_DI_LD020        P             00000092  11172 11174*
GAMEN_SEL_HANYOU_DI_LD030        P             0000009A  11180 11182*
GAMEN_SEL_HANYOU_DI_LD040        P             000000A4  11189 11191*
GAMEN_SEL_HANYOU_DI_LD050        P             000000B0  11199 11201*
GAMEN_SEL_HANYOU_DI_LD060        P             000000BE  11210 11212*
GAMEN_SEL_HANYOU_DI_LD080        P             000000CC  11220 11222*
GAMEN_SEL_HANYOU_DI_LD100        P             000000D8  11229 11231*
GAMEN_SEL_HANYOU_DI_LD120        P             000000E6  11239 11241*
GAMEN_SEL_HANYOU_DI_LD140        P             000000F4  11249 11251*
GAMEN_SEL_HANYOU_DI_LD160        P             00000100  11258 11260*
H_BYTE                                    EQU  00000000     82*
L_BYTE                                    EQU  00000001     81*
MISS_KEN_FEEDER_CAL050           P             0000014C  11321 11330*
MISS_KEN_FEEDER_CAL100           P             00000158  11336 11339*
MISS_KEN_FEEDER_CHK_100          P             000001FC  11448 11470*
MISS_KEN_FEEDER_CHK_190          P             0000020C  11478 11481 11486*
MISS_KEN_FEEDER_CHK_200          P             00000210  11474 11491*
MISS_KEN_FEEDER_CHK_250          P             00000220  11499 11508*
*** SuperH RISC engine ASSEMBLER V.7.01.02.000 ***    11/14/21 17:24:34                                                  PAGE    82

*** CROSS REFERENCE LIST

NAME                             SECTION  ATTR VALUE             SEQUENCE

MISS_KEN_FEEDER_CHK_400          P             00000228  11494 11519*
MISS_KEN_FEEDER_CHK_700          P             0000023C  11503 11523 11544*
MISS_KEN_FEEDER_CHK_750          P             00000246  11505 11531 11553*
MISS_KEN_FEEDER_CHK_800          P             0000024E  11483 11513 11527 11538 11561*
MISS_KEN_FEEDER_CHK_900          P             00000250  11450 11488 11511 11536 11549 11557 11564*
MISS_KEN_FEEDER_CHK_950          P             0000025C  11569 11575*
MISS_KEN_FEEDER_CHK_EXT          P             0000025E  11579*
MISS_KEN_FEEDER_CHK_LOP          P             000001CA  11444*11571 
MISS_KEN_FEEDER_CLR_100          P             0000032C  11709 11716 11727*
MISS_KEN_FEEDER_CLR_EXT          P             00000340  11718 11743*
MISS_KEN_FEEDER_ENB_CHK050       P             0000018C  11393 11395*
MISS_KEN_FEEDER_ENB_CHK100       P             00000194  11400 11402*
MISS_KEN_FEEDER_ENB_CHK150       P             0000019C  11407 11409*
MISS_KEN_FEEDER_ENB_CHK200       P             000001A4  11414 11416*
NBIT0                                     EQU  000000FE     49*
NBIT1                                     EQU  000000FD     50*
NBIT10                                    EQU  0000FBFF     60*
NBIT11                                    EQU  0000F7FF     61*
NBIT12                                    EQU  0000EFFF     62*
NBIT13                                    EQU  0000DFFF     63*
NBIT14                                    EQU  0000BFFF     64*
NBIT15                                    EQU  00007FFF     65*
NBIT2                                     EQU  000000FB     51*
NBIT3                                     EQU  000000F7     52*
NBIT4                                     EQU  000000EF     53*
NBIT5                                     EQU  000000DF     54*
NBIT6                                     EQU  000000BF     55*
NBIT7                                     EQU  0000007F     56*
NBIT8                                     EQU  0000FEFF     58*
NBIT9                                     EQU  0000FDFF     59*
P                                P        SCT  00000000   7439*
XBIT0                                     EQU  00000000     68*
XBIT1                                     EQU  00000001     69*
XBIT2                                     EQU  00000002     70*
XBIT3                                     EQU  00000003     71*
XBIT4                                     EQU  00000004     72*
XBIT5                                     EQU  00000005     73*
XBIT6                                     EQU  00000006     74*
XBIT7                                     EQU  00000007     75*
_ABS_ENC_PLS_SPD                          IMPT 00000000   3425 
_ABS_OUT_PLS_SPD                          IMPT 00000000   3435 
_ACCERR_ACC_HENSA                         IMPT 00000000   4442 
_ACCERR_ACC_OBJ                           IMPT 00000000   4441 
_ACCERR_ACC_PV                            IMPT 00000000   4440 
_ACCERR_DLY_PV_TIM                        IMPT 00000000   4451 
_ACCERR_ERR_CNT                           IMPT 00000000   4443 
_ACCESS_ERR1                              IMPT 00000000   3521 
_ACC_MONITOR_DAT1                         IMPT 00000000   4254 
_ACC_MONITOR_DAT2                         IMPT 00000000   4255 
_ACC_MONITOR_DAT3                         IMPT 00000000   4256 
_ACC_MONITOR_DAT4                         IMPT 00000000   4257 
_ACC_MONITOR_DAT5                         IMPT 00000000   4258 
_ACC_MONITOR_DAT6                         IMPT 00000000   4259 
_ACC_MONITOR_DAT7                         IMPT 00000000   4260 
*** SuperH RISC engine ASSEMBLER V.7.01.02.000 ***    11/14/21 17:24:34                                                  PAGE    83

*** CROSS REFERENCE LIST

NAME                             SECTION  ATTR VALUE             SEQUENCE

_ACC_MONITOR_DAT8                         IMPT 00000000   4261 
_ACC_REST_ABS_PLS                         IMPT 00000000   4211 
_ACC_REST_FLG                             IMPT 00000000   4212 
_ANTI_OF                                  IMPT 00000000   7281 
_ANTI_ON                                  IMPT 00000000   7280 
_ATOB_KJYUALL_SMPCLR                      IMPT 00000000   5789 
_ATOB_KJYUALL_SMPSTART                    IMPT 00000000   5790 
_ATOB_KJYUTRD_SMPCLR                      IMPT 00000000   5793 
_ATOB_KJYUTRD_SMPSTART                    IMPT 00000000   5794 
_AUTO_OF                                  IMPT 00000000   7283 
_AUTO_ON                                  IMPT 00000000   7282 
_BANK1_CALC_ROT_NUM_ZR                    IMPT 00000000   3668 
_BANK1_LK_END_OBJ_ABSPLS                  IMPT 00000000   3661 
_BANK2_LINK_OBJROT_NUMPLS_ZR              IMPT 00000000   3666 
_BANK2_LINK_OBJROT_NUM_ZR                 IMPT 00000000   3665 
_BANK2_LK_END_OBJ_ABSPLS                  IMPT 00000000   3662 
_BASE_TIM010MS                            IMPT 00000000   2483 
_BASE_TIM100MS                            IMPT 00000000   2484 
_BBN_MESURE_DLY_POINT                     IMPT 00000000   4427 
_BBN_MESURE_DLY_SSPD                      IMPT 00000000   4426 
_BBN_MESURE_POINT                         IMPT 00000000   4421 
_BBN_MESURE_PPOS_BUF                      IMPT 00000000   4411 
_BBN_MESURE_PSPD                          IMPT 00000000   4413 
_BBN_MESURE_PSPD_BUF                      IMPT 00000000   4412 
_BBN_MESURE_SPOS_BUF                      IMPT 00000000   4407 
_BBN_MESURE_SSPD                          IMPT 00000000   4409 
_BBN_MESURE_SSPD_BUF                      IMPT 00000000   4408 
_BBN_MESURE_SSPD_DLYBUF                   IMPT 00000000   4425 
_BBN_MEUSRE_PV_ACC                        IMPT 00000000   4419 
_BBN_MEUSRE_PV_ACC_SRC                    IMPT 00000000   4416 
_BBN_MEUSRE_SV_ACC                        IMPT 00000000   4418 
_BBN_MEUSRE_SV_ACC_SRC                    IMPT 00000000   4415 
_BBN_SET_TIME                             IMPT 00000000   4422 
_BKTMCL_ACCDAT                            IMPT 00000000   4613 
_BKTMCL_ACCDAT_UNIT                       IMPT 00000000   4614 
_BKTMCL_ACCPOINT                          IMPT 00000000   4616 
_BKTMCL_BBNFLT_TIMPV                      IMPT 00000000   4630 
_BKTMCL_BRKSTP_SPD                        IMPT 00000000   4638 
_BKTMCL_BRKSTR_SPD                        IMPT 00000000   4637 
_BKTMCL_BRKSTX_SPD                        IMPT 00000000   4643 
_BKTMCL_BRKSTX_TIMPV                      IMPT 00000000   4644 
_BKTMCL_BRKSTX_TIMSV                      IMPT 00000000   4645 
_BKTMCL_BRK_TIMPV                         IMPT 00000000   4640 
_BKTMCL_BRX_AREA_IN                       IMPT 00000000   4648 
_BKTMCL_BRX_AREA_INLT                     IMPT 00000000   4649 
_BKTMCL_ENC_DIR                           IMPT 00000000   4621 
_BKTMCL_OLD_PLSPOS                        IMPT 00000000   4620 
_BKTMCL_POINTMAX                          IMPT 00000000   4617 
_BKTMCL_SETX_TMDEF                        IMPT 00000000   4632 
_BKTMCL_SPDBUF                            IMPT 00000000   4612 
_BKTMCL_STOP_SPD                          IMPT 00000000   4636 
_BKTMCL_STOP_TIMPV                        IMPT 00000000   4629 
_BKTMCL_TMDEF_PV                          IMPT 00000000   4631 
_BKTMCL_TMSTEP_FLG                        IMPT 00000000   4625 
*** SuperH RISC engine ASSEMBLER V.7.01.02.000 ***    11/14/21 17:24:34                                                  PAGE    84

*** CROSS REFERENCE LIST

NAME                             SECTION  ATTR VALUE             SEQUENCE

_BKTMCL_TMSTEP_STS                        IMPT 00000000   4626 
_BKTMCL_TOTAL_TIMPV                       IMPT 00000000   4628 
_BRK1_CAL_DN_ACC                          IMPT 00000000   3414 
_BRK1_CHKDLY_TM                           IMPT 00000000   3402 
_BRK1_GEN_PV_ACCTM                        IMPT 00000000   3410 
_BRK1_GEN_PV_DLYTM                        IMPT 00000000   3409 
_BRK1_GEN_SV_ACCTM                        IMPT 00000000   3408 
_BRK1_GEN_SV_DLYTM                        IMPT 00000000   3407 
_BRK1_GEN_SV_FRQ1                         IMPT 00000000   3405 
_BRK1_GEN_SV_FRQ2                         IMPT 00000000   3406 
_BRK1_SV_DN_ACC                           IMPT 00000000   3413 
_BRK2_CHKDLY_TM                           IMPT 00000000   3403 
_BRK2_SV_DN_ACC                           IMPT 00000000   3415 
_BRKTST_AREA_SIG                          IMPT 00000000   4152 
_BRKTST_BAKUP_FLG_PV1                     IMPT 00000000   4162 
_BRKTST_BAKUP_FLG_PV2                     IMPT 00000000   4163 
_BRKTST_BAKUP_FLG_SV1                     IMPT 00000000   4160 
_BRKTST_BAKUP_FLG_SV2                     IMPT 00000000   4161 
_BRKTST_CHKSPD_PLS                        IMPT 00000000   4142 
_BRKTST_CLNK_UP_POS_DN                    IMPT 00000000   4155 
_BRKTST_CLNK_UP_POS_UP                    IMPT 00000000   4154 
_BRKTST_INPUT_CMD                         IMPT 00000000   4145 
_BRKTST_LINK_UP_POS_DN                    IMPT 00000000   4157 
_BRKTST_LINK_UP_POS_UP                    IMPT 00000000   4156 
_BRKTST_MOD_FLG                           IMPT 00000000   4140 
_BRKTST_OUTSPD_PLS                        IMPT 00000000   4141 
_BRKTST_STP_ABSPLS                        IMPT 00000000   4149 
_BRKTST_STR_FLG                           IMPT 00000000   4150 
_BRKTST_SW_IN                             IMPT 00000000   4151 
_BRK_CHK_COM                              IMPT 00000000   3399 
_BRK_CHK_FLG                              IMPT 00000000   3400 
_BTOA_LFT_HAB                             IMPT 00000000   5810 
_BTOA_LFT_MAX                             IMPT 00000000   5808 
_BTOA_LFT_MIN                             IMPT 00000000   5809 
_BTOA_LFT_TRDHAB                          IMPT 00000000   5823 
_BTOA_LFT_TRDMAX                          IMPT 00000000   5821 
_BTOA_LFT_TRDMIN                          IMPT 00000000   5822 
_BTOA_RIH_HAB                             IMPT 00000000   5814 
_BTOA_RIH_MAX                             IMPT 00000000   5812 
_BTOA_RIH_MIN                             IMPT 00000000   5813 
_BTOA_RIH_TRDHAB                          IMPT 00000000   5827 
_BTOA_RIH_TRDMAX                          IMPT 00000000   5825 
_BTOA_RIH_TRDMIN                          IMPT 00000000   5826 
_BTOA_TTL_HAB                             IMPT 00000000   5818 
_BTOA_TTL_MAX                             IMPT 00000000   5816 
_BTOA_TTL_MIN                             IMPT 00000000   5817 
_BTOA_TTL_TRDHAB                          IMPT 00000000   5831 
_BTOA_TTL_TRDMAX                          IMPT 00000000   5829 
_BTOA_TTL_TRDMIN                          IMPT 00000000   5830 
_BTTN_FLG                                 IMPT 00000000   2551 
_BTTN_ON_TIME                             IMPT 00000000   3691 
_BVLV_CTL_FLG                             IMPT 00000000   4799 
_BVLV_CTL_ON                              IMPT 00000000   4800 
_BVLV_START_IN                            IMPT 00000000   4803 
*** SuperH RISC engine ASSEMBLER V.7.01.02.000 ***    11/14/21 17:24:34                                                  PAGE    85

*** CROSS REFERENCE LIST

NAME                             SECTION  ATTR VALUE             SEQUENCE

_CALC_FULCLS_MXPLS                        IMPT 00000000   3172 
_CALC_MEM_1REV_ML_NROT_ML36               IMPT 00000000   2897 
_CALC_MEM_1REV_MUL_NROT                   IMPT 00000000   2896 
_CALC_MISS_FLG1                           IMPT 00000000   3774 
_CALC_PLS_MMIN_H32                        EQU  C0000000   2078*
_CALC_PLS_MMIN_L32                        EQU  00000001   2079*
_CALC_PLS_PMAX_H32                        EQU  3FFFFFFF   2074*
_CALC_PLS_PMAX_L32                        EQU  FFFFFFFF   2075*
_CALC_ROT_MAX                             EQU  60000000   2070*
_CAM_CNT_CHG_FLG                          IMPT 00000000   3271 
_CAM_CTL_STEP                             IMPT 00000000   2627 
_CAM_CTRL                        P        EXPT 00000010   8455 10130*
_CAM_DATA_MOV                    P        EXPT 00000000   7479  8432*
_CAM_DT_FLG                               EQU  0000000E   2188*
_CAM_INF_D1                               EQU  00000010   2189*
_CAM_INF_D2                               EQU  00000012   2190*
_CAM_NOW_DIG                              IMPT 00000000   3268 
_CAM_OF_DGT                               EQU  0000000C   2187*
_CAM_OF_DIG                               EQU  00000008   2184* 2185 
_CAM_OF_DIR                               EQU  0000000A   2186*
_CAM_OF_STP                               EQU  00000006   2183*
_CAM_OF_TIM                               EQU  00000008   2185*
_CAM_OLD_DIG                              IMPT 00000000   3269 
_CAM_ON_DIG                               EQU  00000002   2181*
_CAM_ON_DIR                               EQU  00000004   2182*
_CAM_ON_STP                               EQU  00000000   2180*
_CAM_OUTPUT_DT                            IMPT 00000000   3262 11085 11087 11605 
_CAM_OUTPUT_SW                            IMPT 00000000   3260 
_CAM_POS_CTL_STEP                         IMPT 00000000   3270 
_CAM_POS_STEP_END_FLG1                    IMPT 00000000   3027 
_CAM_POS_STEP_END_FLG2                    IMPT 00000000   3028 
_CAM_SELECT_SW                            IMPT 00000000   3261 
_CAM_START_FLG                            IMPT 00000000   3263 
_CAM_START_MODE                           IMPT 00000000   3264 
_CAM_STEP_MAX                             IMPT 00000000   3267 
_CAM_STEP_NO                              IMPT 00000000   3265 
_CAM_STEP_NO_OLD                          IMPT 00000000   3266 
_CAM_STRCUT                               EQU  00000014   2179*
_CBSTS_LOAD_FLG                           IMPT 00000000   4562 
_CBSTS_SAVE_CMDWK                         IMPT 00000000   4570 
_CBSTS_SAVE_DAT                           IMPT 00000000   4579 
_CB_BAKUP_CMD1                            EQU  00005678    114*
_CB_BAKUP_CMD2                            EQU  00001234    115*
_CB_BAK_SUM_COD1                          EQU  5AA51234    112*
_CB_BAK_SUM_COD2                          EQU  A55A4321    113*
_CB_ERR_INFO_MEM                          EQU  00000080    138*
_CB_ERR_INFO_PSIZE                        EQU  00000008    139*
_CB_INT_START_OK                          IMPT 00000000   2480 
_CB_IN_HANYO                              IMPT 00000000   4838 
_CB_SEQ_CB_COM340                         IMPT 00000000   3013 
_CB_SEQ_CB_COM345                         IMPT 00000000   3016 
_CB_SEQ_CB_COM345X                        IMPT 00000000   5433 
_CB_SEQ_CB_COM346                         IMPT 00000000   3017 
_CB_SEQ_CB_COM347                         IMPT 00000000   3018 
*** SuperH RISC engine ASSEMBLER V.7.01.02.000 ***    11/14/21 17:24:34                                                  PAGE    86

*** CROSS REFERENCE LIST

NAME                             SECTION  ATTR VALUE             SEQUENCE

_CB_SEQ_CB_COM348                         IMPT 00000000   3019 
_CB_SEQ_CB_COM349                         IMPT 00000000   3020 
_CB_SEQ_CB_COM350                         IMPT 00000000   3022 
_CB_SEQ_CB_COM351                         IMPT 00000000   3023 
_CB_SEQ_CB_COM352                         IMPT 00000000   3024 
_CB_SEQ_CB_COM356                         IMPT 00000000   5285 
_CB_SEQ_CB_SEL341                         IMPT 00000000   3014 
_CB_SEQ_CB_SEL342                         IMPT 00000000   3015 
_CB_SEQ_SW_SEL022                         IMPT 00000000   3008 
_CB_SEQ_SW_SEL024                         IMPT 00000000   3009 
_CB_SEQ_SW_SEL028                         IMPT 00000000   3010 
_CB_SEQ_SW_SEL029                         IMPT 00000000   3011 
_CB_SEQ_SW_SEL058                         IMPT 00000000   4888 
_CB_STS_BUF_1BLK                          EQU  00000040    117*  119 
_CB_STS_BUF_BLKMAX                        EQU  00000008    118*  119 
_CB_STS_BUF_MAX                           EQU  00000200    119*
_CB_STS_SAVE_FLG                          IMPT 00000000   5956 
_CB_TIME                                  EQU  0000000A   1997* 2010  2011  2012  2017 
_CB_TRD_BEFORE                            EQU  00000060    127*
_CB_TRD_BUF_DP_MAX                        EQU  00000080    131*
_CB_TRD_BUF_MAX                           EQU  00000800    128*
_CB_TRD_DP_1CNT                           EQU  00000008    130*
_CB_TRD_DP_CH                             EQU  00000004    123*
_CB_TRD_SAVE_FLG                          IMPT 00000000   5957 
_CB_TRD_SMP_CNT                           EQU  00000080    126*
_CCS_BTTN_OFF                             IMPT 00000000   3513 
_CHKPOSANSDIG                             IMPT 00000000   4733 
_CHKPOSWORK1                              IMPT 00000000   4720 
_CHKPOSWORK2                              IMPT 00000000   4721 
_CHKPOSWORKANS                            IMPT 00000000   4726 
_CHKSPDANSPER                             IMPT 00000000   4725 
_CHKSPDPERWORK1                           IMPT 00000000   4728 
_CHKSPDPERWORK2                           IMPT 00000000   4729 
_CHKSPDPOSINFO                            IMPT 00000000   4731 
_CHKSPDPOSOFS                             IMPT 00000000   4732 
_CHKSPDWORK1                              IMPT 00000000   4718 
_CHKSPDWORK2                              IMPT 00000000   4719 
_CHKSPDWORKANS                            IMPT 00000000   4722 
_CHKSPDWORKTMAX                           IMPT 00000000   4724 
_CHKSPDWORKVMAX                           IMPT 00000000   4723 
_CHK_ADD_DATA_LATCH                       IMPT 00000000   4251 
_CHK_CLK_SIG                              IMPT 00000000   4764 
_CHK_LSI_LOAD_OUT_CNT                     IMPT 00000000   4000 
_CHK_LSI_LOAD_POS_CNT                     IMPT 00000000   3999 
_CHK_OBJECT_TIM_TOP                       IMPT 00000000   3216 
_CLS_INC_MOST_DOWN_PLS                    IMPT 00000000   2763 
_CLS_RNA_MOST_DOWN_POS                    IMPT 00000000   2762 
_CMD_1CYCLE_DSP1                          IMPT 00000000   5960 
_CMD_DAIPOS_DSP1                          IMPT 00000000   5961 
_CMD_KJTECH_DSP1                          IMPT 00000000   5964 
_CMP2_ACC_NG_CNT                          IMPT 00000000   3580 
_CMP2_ACC_TOTAL_NG_CNT                    IMPT 00000000   3574 
_CMP2_BAS_NG_CNT                          IMPT 00000000   3577 
_CMP2_BAS_TOTAL_NG_CNT                    IMPT 00000000   3571 
*** SuperH RISC engine ASSEMBLER V.7.01.02.000 ***    11/14/21 17:24:34                                                  PAGE    87

*** CROSS REFERENCE LIST

NAME                             SECTION  ATTR VALUE             SEQUENCE

_CMP2_LAT_NG_CNT                          IMPT 00000000   3579 
_CMP2_LAT_TOTAL_NG_CNT                    IMPT 00000000   3573 
_CMP2_NOW_NG_CNT                          IMPT 00000000   3581 
_CMP2_NOW_TOTAL_NG_CNT                    IMPT 00000000   3575 
_CMP2_TOP_NG_CNT                          IMPT 00000000   3578 
_CMP2_TOP_TOTAL_NG_CNT                    IMPT 00000000   3572 
_CMPSTEP_CNT_STOP                         IMPT 00000000   2671 
_CMPSTEP_CTRL_BUSY                        IMPT 00000000   2667 
_CMPSTEP_CTRL_REDY                        IMPT 00000000   2666 
_CMPSTEP_NEAR_ZERO                        IMPT 00000000   2670 
_CMPSTEP_POS_START                        IMPT 00000000   2668 
_CMPSTEP_SFTY_AUTO                        IMPT 00000000   2669 
_CMPSTEP_STEP_END                         IMPT 00000000   2672 
_CMP_ERR_CHK_STSA                         IMPT 00000000   2880 
_CMP_ERR_CHK_STSB                         IMPT 00000000   2881 
_CMP_ERR_STEP_A                           IMPT 00000000   2886 
_CMP_ERR_STEP_B                           IMPT 00000000   2887 
_CMP_ERR_STSA_INF1                        IMPT 00000000   2882 
_CMP_ERR_STSA_INF2                        IMPT 00000000   2883 
_CMP_ERR_STSA_INF3                        IMPT 00000000   2884 
_CMP_ERR_STSA_INF4                        IMPT 00000000   2885 
_CMP_ERR_TIM1                             IMPT 00000000   2583 
_CMP_LNGTH_AD_ERR_CNT                     IMPT 00000000   3684 
_CMP_POS_LSI_ACCLT1                       IMPT 00000000   3889 
_CMP_RECOVER_FLG                          IMPT 00000000   3994 
_CMP_RESTP_SR_ERR_CNT                     IMPT 00000000   3685 
_CMP_STEP_ERR_TIM1                        IMPT 00000000   2585 
_CNT_BANK_CALC_ERR                        IMPT 00000000   3671 
_CNT_GRF_I_DATA                           IMPT 00000000   5426 
_CNT_GRF_POINT                            IMPT 00000000   5428 
_CNT_GRF_Y_DATA                           IMPT 00000000   5427 
_CNT_PLSOUT_STOP_CNT                      IMPT 00000000   3938 
_CNT_REST_SPD_HOSEI_DAT                   IMPT 00000000   3677 
_CNT_REST_SPD_HOSEI_FLG                   IMPT 00000000   3678 
_CNT_STOP_CMD                             IMPT 00000000   2506 
_CNT_STOP_CMD_BEF1                        IMPT 00000000   4388 
_CNT_STOP_CTRL_FLG                        IMPT 00000000   3658 
_CNT_STOP_DBG_CNT                         IMPT 00000000   5341 
_CNT_STOP_LNGTH                           IMPT 00000000   3664 
_CNT_STOP_WAIT_TIM                        IMPT 00000000   5340 
_CNT_SYNC_CHK_CNT1                        IMPT 00000000   3953 
_CNT_SYNC_CHK_CNT2                        IMPT 00000000   3954 
_CNT_SYNC_ERR_FLG                         IMPT 00000000   3936 
_CNT_SYNC_HOS_CNT1                        IMPT 00000000   3955 
_CNT_SYNC_HOS_DAT1                        IMPT 00000000   3950 
_CNT_SYNC_HOS_DAT2                        IMPT 00000000   3951 
_CNT_SYNC_HOS_FLAG                        IMPT 00000000   3952 
_CNT_SYNC_STS_FLG                         IMPT 00000000   3937 
_CONT_MOD_CNT_PV                          IMPT 00000000   3084 
_CONT_MOD_TIM_PV                          IMPT 00000000   3086 
_CONT_STOP_END_SUBPLS                     IMPT 00000000   3670 
_COP_CB_LD_MONI_SIG                       IMPT 00000000   3331 
_COP_DIG_SIG_FLG                          IMPT 00000000   3330 
_COP_OLD_ENC3600                          IMPT 00000000   3349 
*** SuperH RISC engine ASSEMBLER V.7.01.02.000 ***    11/14/21 17:24:34                                                  PAGE    88

*** CROSS REFERENCE LIST

NAME                             SECTION  ATTR VALUE             SEQUENCE

_COP_SET_CLRF                             IMPT 00000000   7260 
_CPOS_BANK_USELFUL                        IMPT 00000000   3657 
_CPOS_CTL_MATH                            IMPT 00000000   2747 
_CPOS_DND_DIGTOP                          IMPT 00000000   3766 
_CPOS_DND_PLSTOP                          IMPT 00000000   3767 
_CPOS_DND_STOP_DIRECTOLD                  IMPT 00000000   3765 
_CPOS_DND_STOP_SW                         IMPT 00000000   3763 
_CPOS_DND_STOP_SWOLD                      IMPT 00000000   3764 
_CPOS_FULCLS_MATEHD_SW                    IMPT 00000000   4823 
_CPOS_KJYUCLS_OBJ                         IMPT 00000000   4825 
_CPOS_MOD_FLG1                            IMPT 00000000   2746 
_CPOS_SDAT1_CHGAPOS                       IMPT 00000000   2744 
_CPOS_SDAT1_CHGAPOS2                      IMPT 00000000   3659 
_CPOS_SDAT1_CNTSTEP                       IMPT 00000000   2741 
_CPOS_SDAT1_INF1                          IMPT 00000000   2742 
_CPOS_SDAT1_NUM                           IMPT 00000000   2743 
_CPOS_SDAT1_OFSPOS                        IMPT 00000000   2738 
_CPOS_SDAT1_SPD                           IMPT 00000000   2739 
_CPOS_SDAT1_STPAPOS                       IMPT 00000000   2745 
_CPOS_SDAT1_STPAPOS2                      IMPT 00000000   3660 
_CPOS_SDAT1_TIM                           IMPT 00000000   2740 
_CPOS_SDAT1_UP_OFSPOS                     IMPT 00000000   2766 
_CPOS_SDAT1_UP_POS                        IMPT 00000000   2767 
_CPOS_STEP_MAX                            IMPT 00000000   2748 
_CPOS_UPAREA_PLS                          IMPT 00000000   2761 
_CPUABD_WDTOK_FLG                         IMPT 00000000   5064 
_CPUATOB_STS_SAVECMD                      IMPT 00000000   7022 
_CPUATOB_STS_SAVEDAT1                     IMPT 00000000   7023 
_CPUATOB_STS_SAVEDAT2                     IMPT 00000000   7024 
_CPUATOB_STS_SAVEDAT3                     IMPT 00000000   7025 
_CPUA_CONT_MOD_CNT_PV                     IMPT 00000000   5868 
_CPUA_DNM_DIR_NOW                         IMPT 00000000   5857 
_CPUA_DNM_DIR_SET                         IMPT 00000000   5856 
_CPUA_IRQ_ERR_INT_CNT1                    IMPT 00000000   5730 
_CPUA_IRQ_ERR_INT_CNT2                    IMPT 00000000   5731 
_CPUA_IRQ_ERR_INT_CNT3                    IMPT 00000000   5732 
_CPUA_IRQ_ERR_INT_CNT4                    IMPT 00000000   5733 
_CPUA_IRQ_ERR_INT_CNT5                    IMPT 00000000   5734 
_CPUA_IRQ_ERR_INT_CNT6                    IMPT 00000000   5735 
_CPUA_IRQ_ERR_INT_CNT7                    IMPT 00000000   5736 
_CPUA_IRQ_ERR_INT_CNT8                    IMPT 00000000   5737 
_CPUA_IRQ_ERR_INT_CNT9                    IMPT 00000000   5738 
_CPUA_LOT_CHK_FLG                         IMPT 00000000   5864 
_CPUA_LOT_CNT_FLG                         IMPT 00000000   5866 
_CPUA_OP_OUT1_PLS                         IMPT 00000000   5766 
_CPUA_OP_PG1_PLS                          IMPT 00000000   5765 
_CPUA_PLS_OUTF                            IMPT 00000000   5524 
_CPUA_SELF2_CD1                           IMPT 00000000   5752 
_CPUA_SELF2_CD2                           IMPT 00000000   5753 
_CPUA_SELF2_CD3                           IMPT 00000000   5754 
_CPUA_SELF2_CD4                           IMPT 00000000   5755 
_CPUA_SELF2_END                           IMPT 00000000   5751 
_CPUA_SELF2_STR                           IMPT 00000000   5750 
_CPUA_SELF_HAND_FLG                       IMPT 00000000   5611 
*** SuperH RISC engine ASSEMBLER V.7.01.02.000 ***    11/14/21 17:24:34                                                  PAGE    89

*** CROSS REFERENCE LIST

NAME                             SECTION  ATTR VALUE             SEQUENCE

_CPUA_SV_STEP                             IMPT 00000000   5854 
_CPUBTOA_DAT1_ACKCOD                      IMPT 00000000   5889 
_CPUBTOA_DAT1_DATTOP                      IMPT 00000000   5890 
_CPUBTOA_DAT1_REQADR                      IMPT 00000000   5885 
_CPUBTOA_DAT1_REQCNT                      IMPT 00000000   5887 
_CPUBTOA_DAT1_REQCOD                      IMPT 00000000   5888 
_CPUBTOA_DAT1_REQKND                      IMPT 00000000   5886 
_CPUBTOA_STS_LOADDAT1                     IMPT 00000000   7028 
_CPUBTOA_STS_LOADDAT2                     IMPT 00000000   7029 
_CPUBTOA_STS_LOADDAT3                     IMPT 00000000   7030 
_CPUBTOA_STS_LOADSTS                      IMPT 00000000   7027 
_CPUBX_MEM1_BUF                           IMPT 00000000   5442 
_CPUBX_MEM1_ENDFLG                        IMPT 00000000   5441 
_CPUBX_MEM1_RCVFLG                        IMPT 00000000   5440 
_CPUBX_MEM1_SNDEVN                        IMPT 00000000   5451 
_CPUBX_MEM1_SNDFLG                        IMPT 00000000   5453 
_CPUBX_MEM1_SNDKND                        IMPT 00000000   5452 
_CPUBX_SEND_MAXCNT                        IMPT 00000000   5448 
_CPUBX_SEND_NOWCNT                        IMPT 00000000   5449 
_CPUBX_SEND_TOPADR                        IMPT 00000000   5447 
_CPUB_CONT_MOD_CNT_PV                     IMPT 00000000   5869 
_CPUB_DBG_MONI_CNT                        IMPT 00000000   5871 
_CPUB_DBG_MONI_STP                        IMPT 00000000   5870 
_CPUB_DNM_DIR_NOW                         IMPT 00000000   5859 
_CPUB_DNM_DIR_SET                         IMPT 00000000   5858 
_CPUB_IRQ_ERR_INT_CNT1                    IMPT 00000000   5739 
_CPUB_IRQ_ERR_INT_CNT2                    IMPT 00000000   5740 
_CPUB_IRQ_ERR_INT_CNT3                    IMPT 00000000   5741 
_CPUB_IRQ_ERR_INT_CNT4                    IMPT 00000000   5742 
_CPUB_IRQ_ERR_INT_CNT5                    IMPT 00000000   5743 
_CPUB_IRQ_ERR_INT_CNT6                    IMPT 00000000   5744 
_CPUB_IRQ_ERR_INT_CNT7                    IMPT 00000000   5745 
_CPUB_IRQ_ERR_INT_CNT8                    IMPT 00000000   5746 
_CPUB_IRQ_ERR_INT_CNT9                    IMPT 00000000   5747 
_CPUB_LOT_CHK_FLG                         IMPT 00000000   5865 
_CPUB_LOT_CNT_FLG                         IMPT 00000000   5867 
_CPUB_PARAM_ERR_NO                        IMPT 00000000   5162 
_CPUB_PLS_OUTF                            IMPT 00000000   5525 
_CPUB_SELF2_CD1                           IMPT 00000000   5759 
_CPUB_SELF2_CD2                           IMPT 00000000   5760 
_CPUB_SELF2_CD3                           IMPT 00000000   5761 
_CPUB_SELF2_CD4                           IMPT 00000000   5762 
_CPUB_SELF2_END                           IMPT 00000000   5758 
_CPUB_SELF2_STR                           IMPT 00000000   5757 
_CPUB_SELF_HAND_FLG                       IMPT 00000000   5612 
_CPUB_START_COD                           IMPT 00000000   5511 
_CPUB_SV_STEP                             IMPT 00000000   5855 
_CPUC_PARAM_ERR_NO                        IMPT 00000000   5161 
_CPUDX_MEM1_ENDFLG                        IMPT 00000000   5444 
_CPUDX_MEM1_RCVFLG                        IMPT 00000000   5443 
_CPUD_CHK_OLDCNT                          IMPT 00000000   5055 
_CPUD_CHK_TIME                            IMPT 00000000   5056 
_CPUD_START_COD                           IMPT 00000000   5931 
_CPUX_PARAM_SEND_FLG                      IMPT 00000000   5151 
*** SuperH RISC engine ASSEMBLER V.7.01.02.000 ***    11/14/21 17:24:34                                                  PAGE    90

*** CROSS REFERENCE LIST

NAME                             SECTION  ATTR VALUE             SEQUENCE

_CPUX_PARAM_SEND_NO                       IMPT 00000000   5152 
_CPU_AB_BSY_OF_JG                         IMPT 00000000   7328 
_CPU_AB_BSY_OF_OUT                        IMPT 00000000   7324 
_CPU_AB_BSY_ON_OUT                        IMPT 00000000   7326 
_CPU_AB_CED_OF_JG                         IMPT 00000000   7391 
_CPU_AB_CED_OF_OUT                        IMPT 00000000   7387 
_CPU_AB_CED_ON_OUT                        IMPT 00000000   7389 
_CPU_AB_CST_OF_JG                         IMPT 00000000   7380 
_CPU_AB_CST_OF_OUT1                       IMPT 00000000   7374 
_CPU_AB_CST_OF_OUT2                       IMPT 00000000   7375 
_CPU_AB_CST_ON_OUT1                       IMPT 00000000   7377 
_CPU_AB_CST_ON_OUT2                       IMPT 00000000   7378 
_CPU_AB_DRVHLDSTOP_OF_OUT                 IMPT 00000000   7406 
_CPU_AB_DRVHLDSTOP_ON_OUT                 IMPT 00000000   7405 
_CPU_AB_DRVSTOP_OF_OUT                    IMPT 00000000   7346 
_CPU_AB_DRVSTOP_ON_OUT                    IMPT 00000000   7347 
_CPU_AB_NZR_OF_JG                         IMPT 00000000   7366 
_CPU_AB_NZR_OF_OUT                        IMPT 00000000   7362 
_CPU_AB_NZR_ON_OUT                        IMPT 00000000   7364 
_CPU_AB_RDY_OF_JG                         IMPT 00000000   7317 
_CPU_AB_RDY_OF_OUT                        IMPT 00000000   7313 
_CPU_AB_RDY_ON_OUT                        IMPT 00000000   7315 
_CPU_AB_STR_OF_JG                         IMPT 00000000   7339 
_CPU_AB_STR_OF_OUT                        IMPT 00000000   7335 
_CPU_AB_STR_ON_OUT                        IMPT 00000000   7337 
_CPU_BA_BSY_OF_OUT                        IMPT 00000000   7325 
_CPU_BA_BSY_ON_JG                         IMPT 00000000   7327 
_CPU_BA_CED_OF_OUT                        IMPT 00000000   7388 
_CPU_BA_CED_ON_JG                         IMPT 00000000   7390 
_CPU_BA_CST_OF_OUT                        IMPT 00000000   7376 
_CPU_BA_CST_ON_JG                         IMPT 00000000   7379 
_CPU_BA_DRVHLDSTOP_OF_JG                  IMPT 00000000   7408 
_CPU_BA_DRVHLDSTOP_ON_JG                  IMPT 00000000   7407 
_CPU_BA_DRVSTOP_OF_OUT                    IMPT 00000000   7349 
_CPU_BA_DRVSTOP_ON_JG                     IMPT 00000000   7348 
_CPU_BA_NZR_OF_OUT                        IMPT 00000000   7363 
_CPU_BA_NZR_ON_JG                         IMPT 00000000   7365 
_CPU_BA_RDY_OF_OUT                        IMPT 00000000   7314 
_CPU_BA_RDY_ON_JG                         IMPT 00000000   7316 
_CPU_BA_STEP_LOAD                         IMPT 00000000   7398 
_CPU_BA_STR_OF_OUT                        IMPT 00000000   7336 
_CPU_BA_STR_ON_JG                         IMPT 00000000   7338 
_CPU_CTRL_CLK                             IMPT 00000000   5615 
_CPU_SV_HAND_IN                           IMPT 00000000   2508 
_CPU_SV_HAND_IN_ON                        IMPT 00000000   2509 
_CPU_SV_HAND_OUT                          IMPT 00000000   2511 
_CPUy_RESTPLS_LTFLG                       IMPT 00000000   3956 
_CTL_ENC360                               IMPT 00000000   2520 
_CTL_ENC360_OLD                           IMPT 00000000   4040 
_CYCLE_SPD_CMP_FLG1                       IMPT 00000000   4298 
_CYCLE_SPD_CMP_PV_DAT                     IMPT 00000000   4299 
_CYCLE_TIME_DAT                           IMPT 00000000   3000 
_CYCLE_TIME_FLG                           IMPT 00000000   3002 
_CYCLE_TIME_PV                            IMPT 00000000   3001 
*** SuperH RISC engine ASSEMBLER V.7.01.02.000 ***    11/14/21 17:24:34                                                  PAGE    91

*** CROSS REFERENCE LIST

NAME                             SECTION  ATTR VALUE             SEQUENCE

_CYCL_DSP_CNT_PV                          IMPT 00000000   3465 
_CYCL_DSP_DISENB                          IMPT 00000000   3464 
_CYCL_START_CNT                           IMPT 00000000   2764 
_DAIHAI_CALC_WORK1                        IMPT 00000000   4339 
_DAIHAI_CALC_WORK10                       IMPT 00000000   4348 
_DAIHAI_CALC_WORK11                       IMPT 00000000   4350 
_DAIHAI_CALC_WORK12                       IMPT 00000000   4351 
_DAIHAI_CALC_WORK13X                      IMPT 00000000   4352 
_DAIHAI_CALC_WORK2                        IMPT 00000000   4340 
_DAIHAI_CALC_WORK3                        IMPT 00000000   4341 
_DAIHAI_CALC_WORK4                        IMPT 00000000   4342 
_DAIHAI_CALC_WORK5                        IMPT 00000000   4343 
_DAIHAI_CALC_WORK6                        IMPT 00000000   4344 
_DAIHAI_CALC_WORK7X                       IMPT 00000000   4345 
_DAIHAI_CALC_WORK8                        IMPT 00000000   4346 
_DAIHAI_CALC_WORK9X                       IMPT 00000000   4347 
_DAI_CMP_SMPSTART                         IMPT 00000000   2944 
_DAI_HOSEI1_FLG                           IMPT 00000000   2934 
_DBG2_MONI_A00                            IMPT 00000000   6995 
_DBG2_MONI_A01                            IMPT 00000000   6996 
_DBG2_MONI_A02                            IMPT 00000000   6997 
_DBG2_MONI_A03                            IMPT 00000000   6998 
_DBG2_MONI_A04                            IMPT 00000000   6999 
_DBG2_MONI_A05                            IMPT 00000000   7000 
_DBG2_MONI_A06                            IMPT 00000000   7001 
_DBG2_MONI_A07                            IMPT 00000000   7002 
_DBG2_MONI_B00                            IMPT 00000000   7012 
_DBG2_MONI_B01                            IMPT 00000000   7013 
_DBG2_MONI_B02                            IMPT 00000000   7014 
_DBG2_MONI_B03                            IMPT 00000000   7015 
_DBG2_MONI_B04                            IMPT 00000000   7016 
_DBG2_MONI_B05                            IMPT 00000000   7017 
_DBG2_MONI_B06                            IMPT 00000000   7018 
_DBG2_MONI_B07                            IMPT 00000000   7019 
_DBG4_MONI_A00                            IMPT 00000000   6987 
_DBG4_MONI_A01                            IMPT 00000000   6988 
_DBG4_MONI_A02                            IMPT 00000000   6989 
_DBG4_MONI_A03                            IMPT 00000000   6990 
_DBG4_MONI_A04                            IMPT 00000000   6991 
_DBG4_MONI_A05                            IMPT 00000000   6992 
_DBG4_MONI_A06                            IMPT 00000000   6993 
_DBG4_MONI_A07                            IMPT 00000000   6994 
_DBG4_MONI_B00                            IMPT 00000000   7004 
_DBG4_MONI_B01                            IMPT 00000000   7005 
_DBG4_MONI_B02                            IMPT 00000000   7006 
_DBG4_MONI_B03                            IMPT 00000000   7007 
_DBG4_MONI_B04                            IMPT 00000000   7008 
_DBG4_MONI_B05                            IMPT 00000000   7009 
_DBG4_MONI_B06                            IMPT 00000000   7010 
_DBG4_MONI_B07                            IMPT 00000000   7011 
_DBG_ATO_DRV_START_FLG                    IMPT 00000000   5085 
_DBG_ATO_DRV_TIME_PV                      IMPT 00000000   5086 
_DBG_ATO_DRV_TIME_PV2                     IMPT 00000000   5091 
_DBG_ATO_DRV_TIME_SV                      IMPT 00000000   5087 
*** SuperH RISC engine ASSEMBLER V.7.01.02.000 ***    11/14/21 17:24:34                                                  PAGE    92

*** CROSS REFERENCE LIST

NAME                             SECTION  ATTR VALUE             SEQUENCE

_DBG_ATO_DRV_TIME_SV2                     IMPT 00000000   5092 
_DBG_CNT_GPOSINT                          IMPT 00000000   3595 
_DBG_CNT_STOP_CNT                         IMPT 00000000   3589 
_DBG_CNT_STOP_FLG                         IMPT 00000000   3588 
_DBG_CNT_STOP_SPC                         IMPT 00000000   3590 
_DBG_DNM_CLR_CNT                          IMPT 00000000   5324 
_DBG_DNM_END_CNT                          IMPT 00000000   5323 
_DBG_DNM_STR_CNT                          IMPT 00000000   5322 
_DBG_REVMOD_CTLPLS                        IMPT 00000000   3229 
_DBG_REVMOD_DNPLS                         IMPT 00000000   3231 
_DBG_REVMOD_OBJPLS                        IMPT 00000000   3228 
_DBG_REVMOD_UPPLS                         IMPT 00000000   3230 
_DBG_STEP12_CHG_DIG                       IMPT 00000000   3598 
_DBG_STEP12_CHG_POS                       IMPT 00000000   3602 
_DBG_STEP12_CHG_RSTP                      IMPT 00000000   3610 
_DBG_STEP12_CHG_SPD                       IMPT 00000000   3606 
_DBG_STEP12_CHG_TIM                       IMPT 00000000   3592 
_DBG_STEP23_CHG_DIG                       IMPT 00000000   3599 
_DBG_STEP23_CHG_POS                       IMPT 00000000   3603 
_DBG_STEP23_CHG_RSTP                      IMPT 00000000   3611 
_DBG_STEP23_CHG_SPD                       IMPT 00000000   3607 
_DBG_STEP23_CHG_TIM                       IMPT 00000000   3593 
_DBG_STEPCD_CHG_DIG                       IMPT 00000000   3600 
_DBG_STEPCD_CHG_GPS                       IMPT 00000000   3614 
_DBG_STEPCD_CHG_POS                       IMPT 00000000   3604 
_DBG_STEPCD_CHG_RSTP                      IMPT 00000000   3612 
_DBG_STEPCD_CHG_SPD                       IMPT 00000000   3608 
_DBG_STEPCD_CHG_TIM                       IMPT 00000000   3594 
_DEBUG_ENC360_STS                         IMPT 00000000   4652 
_DEBUG_ENC360_STS2                        IMPT 00000000   4653 
_DEBUG_MOD_CODE                           IMPT 00000000   5083 
_DEBUG_MONI_ABS_POS                       IMPT 00000000   6813 
_DEBUG_MONI_C1                            IMPT 00000000   6816 
_DEBUG_MONI_C2                            IMPT 00000000   6817 
_DEBUG_MONI_MD_DT0                        IMPT 00000000   6814 
_DEBUG_MONI_MD_DT1                        IMPT 00000000   6815 
_DEBUG_MONI_WORK1                         IMPT 00000000   6818 
_DEBUG_MONI_WORK2                         IMPT 00000000   6819 
_DEBUG_MONI_WORK3                         IMPT 00000000   6820 
_DEBUG_MONI_WORK4                         IMPT 00000000   6821 
_DEBUG_MONI_WORK5                         IMPT 00000000   6822 
_DEBUG_MONI_WORK6                         IMPT 00000000   6823 
_DEF_DAI_POS_PV                           IMPT 00000000   2973 
_DG_PS_INF_CHK1                           EQU  00000000   2197*
_DG_PS_INF_CHK2                           EQU  0000003C   2202*
_DG_PS_INF_CONT                           EQU  00000004   2198*
_DG_PS_INF_LATE                           EQU  00000010   2201*
_DG_PS_INF_STLK                           EQU  0000000C   2200*
_DG_PS_INF_UNIT                           EQU  00000008   2199*
_DIG_AREA_CHK0                            IMPT 00000000   7430 
_DIG_AREA_CHK1                            IMPT 00000000   7431 
_DIR_FLG                                  IMPT 00000000   4052 
_DISP_ENC360                              IMPT 00000000   2524 
_DISP_RE_VIEW_FLG                         IMPT 00000000   3003 
*** SuperH RISC engine ASSEMBLER V.7.01.02.000 ***    11/14/21 17:24:34                                                  PAGE    93

*** CROSS REFERENCE LIST

NAME                             SECTION  ATTR VALUE             SEQUENCE

_DISP_SV_DG_DAT                           IMPT 00000000   3315 
_DISP_SV_MM_DAT                           IMPT 00000000   3316 
_DIVS_32REG2_32REG1_R4_32REG2_R2          IMPT 00000000   7413 
_DIVS_64R1R2_32R4_32R2                    IMPT 00000000   7414 
_DIVS_64R1R2_32R4_64R1R2                  IMPT 00000000   7427 
_DIVU_64R1R2_32R4_32R2                    IMPT 00000000   7415 
_DIVU_64R1R2_32R4_64R1R2                  IMPT 00000000   7428 
_DMATH_CNTROT                             EQU  00000001   2029*
_DMATH_DNDRIV                             EQU  00000004   2031*
_DMATH_REVRSE                             EQU  00000002   2030*
_DMATH_UPDRIV                             EQU  00000008   2032*
_DNDINC_CTRL_STEP                         IMPT 00000000   3762 
_DND_CALC_WORK                            IMPT 00000000   2790 
_DND_OVERCHK_DIG                          IMPT 00000000   4252 
_DNM_ACC_CALFLG                           IMPT 00000000   4222 
_DNM_CTL_INC3600                          IMPT 00000000   4090 
_DNM_DEBUG_CNT                            IMPT 00000000   4693 
_DNM_DEBUG_STS1                           IMPT 00000000   4692 
_DNM_DIR_CHG_FLG                          IMPT 00000000   4088 
_DNM_DIR_CHG_TIM                          IMPT 00000000   4089 
_DNM_DIR_FLG_INC_LATCH                    IMPT 00000000   5049 
_DNM_DIR_FLG_OLD                          IMPT 00000000   4128 
_DNM_DIR_NOW_FLG                          IMPT 00000000   4086 
_DNM_DIR_SAM_FLG                          IMPT 00000000   4087 
_DNM_DIR_SET_FLG                          IMPT 00000000   4085 
_DNM_MAX_GENSOK_LENGTH                    IMPT 00000000   4741 
_DNM_RESET_AREA                           IMPT 00000000   5004 
_DNM_RST_SPEC_AREASIG                     IMPT 00000000   5314 
_DNM_SET1_OBJECT_DIG_TOP                  IMPT 00000000   4084 
_DNM_SET1_OBJECT_PLS_TOP                  IMPT 00000000   4082 
_DNM_SET1_UPAREA_DIG0                     IMPT 00000000   4083 
_DNM_SET1_UPAREA_PLS0                     IMPT 00000000   4081 
_DNM_SETX_HOLD_CMP1_DEG                   IMPT 00000000   4457 
_DNM_SETX_LINK_UP_POS_DN                  IMPT 00000000   4098 
_DNM_SETX_LINK_UP_POS_UP                  IMPT 00000000   4097 
_DNM_SETX_MOTREP_DIR                      IMPT 00000000   5029 
_DNM_SETX_UPAREA_DIG                      IMPT 00000000   4093 
_DNM_SETX_UPAREA_PLS                      IMPT 00000000   4092 
_DNM_WSVX_CLNK_UP_POS                     IMPT 00000000   4094 
_DNM_WSVX_CLNK_UP_POS_DN                  IMPT 00000000   4096 
_DNM_WSVX_CLNK_UP_POS_UP                  IMPT 00000000   4095 
_DPCHK_CPU_ERR_TIM                        IMPT 00000000   5134 
_DPCHK_DI_ERR_TIM                         IMPT 00000000   5143 
_DPCHK_ERR_SIG                            IMPT 00000000   5133 
_DPCHK_WR_COD                             IMPT 00000000   5135 
_DPSQ022                                  EQU  0000002C   2084*
_DPSQ024                                  EQU  00000030   2085*
_DPSQ028                                  EQU  00000038   2086*
_DPSQ029                                  EQU  0000003A   2087*
_DPSQ058                                  EQU  00000074   2088*
_DPSQ287                                  EQU  0000023E   2099*
_DPSQ288                                  EQU  00000240   2100*
_DPSQ340                                  EQU  000002A8   2090*
_DPSQ341                                  EQU  000002AA   2091*
*** SuperH RISC engine ASSEMBLER V.7.01.02.000 ***    11/14/21 17:24:34                                                  PAGE    94

*** CROSS REFERENCE LIST

NAME                             SECTION  ATTR VALUE             SEQUENCE

_DPSQ356                                  EQU  000002C8   2092*
_DPSQ358                                  EQU  000002CC   2093*
_DPSQ359                                  EQU  000002CE   2094*
_DPSQ367                                  EQU  000002DE   2095*
_DPSQ368                                  EQU  000002E0   2096*
_DPSQ369                                  EQU  000002E2   2097*
_DP_COP_CB_LD_MONI_SIG                    IMPT 00000000   5514 
_DP_DBG_CPUAB_DRV_START                   IMPT 00000000   5516 
_DRVHOS_CAL_RNA_POS                       IMPT 00000000   2966 
_DRVHOS_DEF_CNT_PV                        IMPT 00000000   2958 
_DRVHOS_DEF_RNA_POS                       IMPT 00000000   2965 
_DRVHOS_IDO_BUF                           IMPT 00000000   2970 
_DRVHOS_IDO_CNT                           IMPT 00000000   2961 
_DRVHOS_IDO_POINT                         IMPT 00000000   2959 
_DRVHOS_IDO_TOTAL                         IMPT 00000000   2969 
_DRVHOS_MOST_DN_RNAPOS                    IMPT 00000000   2967 
_DRVHOS_USE_FLG                           IMPT 00000000   2956 
_DRVHOS_WAIT_CNT_PV                       IMPT 00000000   2957 
_DRVHOS_WORK_BUF                          IMPT 00000000   2971 
_DRV_ACT_FLG                              IMPT 00000000   2657 
_DRV_START_KEEP                           IMPT 00000000   3988 
_DSET_SW_CPUB                             IMPT 00000000   7253 
_DT_100PER_0                              EQU  00000064   2001*
_DT_100PER_1                              EQU  000003E8   2000*
_DUMMY_SUM_CODE                           EQU  5AA53CC3    105*
_DUM_MRTION_SEL1                          IMPT 00000000   3325 
_DUM_MTSTEP_MAXM                          IMPT 00000000   3324 
_DUM_SET1_DIG_TOP                         IMPT 00000000   3323 
_DUM_SET1_SPD_TOP                         IMPT 00000000   5110 
_DUM_SET2_SPD_TOP                         IMPT 00000000   5111 
_DUM_UPAREA_DIG0                          IMPT 00000000   3322 
_DURING_TIM_FX                            IMPT 00000000   4655 
_ELSE_ERR_FLG1                            IMPT 00000000   2579 
_ELSE_ERR_FLG2                            IMPT 00000000   2580 
_EMG_OUT                                  IMPT 00000000   7268 
_EMG_SCANCUT_FLG                          IMPT 00000000   4777 
_EMG_SH2_TO_SH4                           IMPT 00000000   5571 
_EMG_SH4_TO_SH2                           IMPT 00000000   5570 
_ENC360_BITERR_CNT                        IMPT 00000000   2544 
_ENC360_BITFLW_CNT                        IMPT 00000000   2543 
_ENC360_BITNML_CNT                        IMPT 00000000   2545 
_ENC360_HEX                               IMPT 00000000   2519 
_ENC360_INDT                              IMPT 00000000   2518 
_ENC360_INOLD                             IMPT 00000000   2517 
_ENC360_LINK_AREASIG                      IMPT 00000000   3637 
_ENC360_OVER_ENC                          IMPT 00000000   3529 
_ENC360_OVER_FLG                          IMPT 00000000   3528 
_ENCPLS_1000MSEC_LAT                      IMPT 00000000   3431 
_ENCPLS_DELT                              IMPT 00000000   3427 
_ENCPLS_POINT_SEL                         IMPT 00000000   3430 
_ENCPLS_SPD_AVL_TOP                       IMPT 00000000   3428 
_ENCPLS_SPD_POINT                         IMPT 00000000   3429 
_ENCPLS_SPD_TOTAL                         IMPT 00000000   3423 
_ENC_PLS_SPD                              IMPT 00000000   3424 
*** SuperH RISC engine ASSEMBLER V.7.01.02.000 ***    11/14/21 17:24:34                                                  PAGE    95

*** CROSS REFERENCE LIST

NAME                             SECTION  ATTR VALUE             SEQUENCE

_ENC_PLS_SPD_DIR                          IMPT 00000000   3426 
_ENC_SYSRST_CMD                           IMPT 00000000   2535 
_ENC_TIMEXT_FLG                           IMPT 00000000   2536 
_ENDHAND_TIMOUT_PV                        IMPT 00000000   5101 
_END_CMD_LATCH                            IMPT 00000000   2630 
_EPCHK_COM                                IMPT 00000000   4923 
_EPCHK_DLY_TIM                            IMPT 00000000   4926 
_EPCHK_ERR_TIM                            IMPT 00000000   4927 
_EPCHK_FLG                                IMPT 00000000   4924 
_EPCHK_FORCE_VONCMD                       IMPT 00000000   4930 
_EPCHK_RETRY_CNT                          IMPT 00000000   4928 
_EPCHK_STEP                               IMPT 00000000   4925 
_EPCHK_STOP_DISENB                        IMPT 00000000   5247 
_EPCHK_STS                                IMPT 00000000   4929 
_EQ_DND_MAX                               EQU  00000002   2034*
_EQ_STEP_MAX                              EQU  00000005   2027*
_EQ_STEP_MX2                              EQU  0000000A   2028*
_ERRCHK_ENC360                            IMPT 00000000   4604 
_ERR_FIRST_ST                             IMPT 00000000   4992 
_ERR_INFO_A01                             EQU  00000020   2253*
_ERR_INFO_A02                             EQU  00000022   2254*
_ERR_INFO_A03                             EQU  00000024   2255*
_ERR_INFO_A04                             EQU  00000026   2256*
_ERR_INFO_A05                             EQU  00000028   2257*
_ERR_INFO_A06                             EQU  0000002A   2258*
_ERR_INFO_A07                             EQU  0000002C   2259*
_ERR_INFO_A08                             EQU  0000002E   2260*
_ERR_INFO_B01                             EQU  00000030   2261*
_ERR_INFO_B02                             EQU  00000032   2262*
_ERR_INFO_B03                             EQU  00000034   2263*
_ERR_INFO_B04                             EQU  00000036   2264*
_ERR_INFO_B05                             EQU  00000038   2265*
_ERR_INFO_B06                             EQU  0000003A   2266*
_ERR_INFO_B07                             EQU  0000003C   2267*
_ERR_INFO_B08                             EQU  0000003E   2268*
_ERR_INFO_C01                             EQU  00000000   2245*
_ERR_INFO_C02                             EQU  00000004   2246*
_ERR_INFO_C03                             EQU  00000008   2247*
_ERR_INFO_C04                             EQU  0000000C   2248*
_ERR_INFO_C05                             EQU  00000010   2249*
_ERR_INFO_C06                             EQU  00000014   2250*
_ERR_INFO_C07                             EQU  00000018   2251*
_ERR_INFO_C08                             EQU  0000001C   2252*
_ERR_INFO_CPUA_FLG                        IMPT 00000000   7053 
_ERR_INFO_CPUA_TOP                        IMPT 00000000   7054 
_ERR_INFO_DLY_TIM                         IMPT 00000000   3523 
_ERR_INFO_SAVE_FLG                        IMPT 00000000   3524 
_ERR_INFO_SAVE_LATCH                      IMPT 00000000   3525 
_ERR_LEV_IN2                              IMPT 00000000   4277 
_ERR_LEV_IN3                              IMPT 00000000   4278 
_ERR_LEV_IN4                              IMPT 00000000   4279 
_ERR_LEV_IN5                              IMPT 00000000   4280 
_ERR_LEV_IN6                              IMPT 00000000   4281 
_ET2_WORD_SITM_ACK                        IMPT 00000000   7263 
*** SuperH RISC engine ASSEMBLER V.7.01.02.000 ***    11/14/21 17:24:34                                                  PAGE    96

*** CROSS REFERENCE LIST

NAME                             SECTION  ATTR VALUE             SEQUENCE

_ET2_WORD_SITM_REQ                        IMPT 00000000   7262 
_EXQ_LT_CMPSTEP_STEP_END                  IMPT 00000000   5298 
_EXQ_LT_GET_FLG                           IMPT 00000000   5297 
_EXQ_LT_PROC_CNT1                         IMPT 00000000   5299 
_EXQ_LT_PROC_CNT2                         IMPT 00000000   5300 
_EXQ_LT_PROC_CNT3                         IMPT 00000000   5301 
_EXQ_LT_PROC_CNT4                         IMPT 00000000   5302 
_EXQ_OUT                                  IMPT 00000000   7269 
_EXQ_SH2_TO_SH4                           IMPT 00000000   5574 
_EXQ_SH4_TO_SH2                           IMPT 00000000   5573 
_EXTDRV_BTTN_ERR_TIM                      IMPT 00000000   4846 
_EXTDRV_BTTN_USE                          IMPT 00000000   4839 
_EXTDRV_UTINUKI_FLG                       IMPT 00000000   4840 
_EXT_BTTN_FLG                             IMPT 00000000   4843 
_FPU_DIVS_32REG2_32REG1_R4_32REG*         IMPT 00000000   7420 
_FPU_DIVS_32REG2_DIV_32REG4_R2_M*         IMPT 00000000   7421 
_FPU_POS_HOKAN1                           IMPT 00000000   7433 
_FPU_R2_MUL_R1_DIV_R4                     IMPT 00000000   7418 
_FPU_R2_MUL_R1_R3_DIV_R4                  IMPT 00000000   7419 
_FPU_TIM_HOKAN1                           IMPT 00000000   7434 
_FRCYCL_OF                                IMPT 00000000   7284 
_FRCYCL_ON                                IMPT 00000000   7285 
_FREQ_BAS_SV_SPD                          IMPT 00000000   3570 
_FREQ_PLSI_MAX_FRQ                        IMPT 00000000   3569 
_FREQ_SV_SPD                              IMPT 00000000   3502 
_FR_CYL_MASK_FLG                          IMPT 00000000   2629 
_FULCLS_ELSE_STS                          IMPT 00000000   4829 
_FULCLS_MATHED                            IMPT 00000000   4819 
_FULCLS_TIM_SETFLG                        IMPT 00000000   4827 
_FULL_CLS_OBJ_MM                          IMPT 00000000   3065 
_FUL_CLS_DLYTM_SV                         IMPT 00000000   4659 
_FUL_CLS_MAXOVER_F                        IMPT 00000000   4660 
_FUL_CLS_RNADIG                           EQU  00000320   2005*
_GAMEN_SEL_HANYOU_CALC           P             00000018  11073*
_GAMEN_SEL_HANYOU_DI_LOAD        P             00000078  11079 11154*
_GMN_HANYO_DI1                            IMPT 00000000   5359 
_GMN_HANYO_OUT1_SQ                        IMPT 00000000   5360 11136 
_GMN_LAST_STEP                            EQU  FFFFFFFF   7463*
_GMN_OVER_LIDE_FLG                        IMPT 00000000   3868 
_HD_CMP_PLS_A1                            IMPT 00000000   5527 
_HD_CMP_PLS_B1                            IMPT 00000000   5528 
_HENSA_OVER_MOVE_CNT                      IMPT 00000000   3944 
_HENSA_OVER_STOP_CNT                      IMPT 00000000   3945 
_HENSA_OVR_ENCPOS                         IMPT 00000000   2865 
_HENSA_OVR_OUTPLS                         IMPT 00000000   2864 
_HIGH_DIVS_32REG2_16REG1_R4_16RE*         IMPT 00000000   7416 
_HIGH_S32R2_MUL_S32R1_DIV_S32R4_*         IMPT 00000000   7417 
_HIST_DAT_SEND_COM                        IMPT 00000000   5420 
_HIST_DAT_SEND_DIS                        IMPT 00000000   5419 
_HIST_EVENT_COD                           IMPT 00000000   5421 
_HIST_KEP_SEND_COM                        IMPT 00000000   5422 
_HS_PVP_LOTCNT_FLG                        IMPT 00000000   5951 
_HS_PVP_TAKIKI_FLG                        IMPT 00000000   5950 
_HS_SVCHG_A_TO_B                          IMPT 00000000   5949 
*** SuperH RISC engine ASSEMBLER V.7.01.02.000 ***    11/14/21 17:24:34                                                  PAGE    97

*** CROSS REFERENCE LIST

NAME                             SECTION  ATTR VALUE             SEQUENCE

_HS_SVCHG_B_TO_A                          IMPT 00000000   5926 
_INCENC_ADD                               EQU  00000000   2056*
_INCENC_LINK_NOWROT_NUMPLS_ZR             IMPT 00000000   2686 
_INCENC_LINK_NOWROT_NUM_ZR                IMPT 00000000   2685 
_INCENC_LINK_NOWROT_OFSPLS                IMPT 00000000   2687 
_INCHEN_ADD                               EQU  00000000   2055*
_INCREV_ADD                               EQU  00000000   2060*
_INCRNA_ADD                               EQU  00000000   2057*
_INCSTP_ADD                               EQU  00000000   2058*
_INC_ABS_ORGWORK                          IMPT 00000000   2912 
_INC_ABS_ORGWORK2                         IMPT 00000000   4331 
_INC_ABS_ORGWORK2A                        IMPT 00000000   4332 
_INC_ENC360                               IMPT 00000000   2523 
_INC_ENC_MM_POS                           IMPT 00000000   2707 
_INC_LINK_NOWROT_OFSPLS_P                 IMPT 00000000   2688 
_INC_OFS_ORGWORK2A                        IMPT 00000000   4333 
_INC_RESET_STEP                           IMPT 00000000   5044 
_INC_RESET_USE_F                          IMPT 00000000   5045 
_INC_STOP_CNT                             IMPT 00000000   3243 
_INFO_CHK1_COD                            EQU  5AA51234   2195*
_INFO_CHK2_COD                            EQU  4321A55A   2196*
_INPUT_MODE_SW                            IMPT 00000000   2578 
_INP_ERR_FLG                              IMPT 00000000   4595 
_INP_MODE                                 IMPT 00000000   2610 
_INSERT_MOT_SV_CHGF                       IMPT 00000000   5109 
_INT1MS_SCAN_02MS                         IMPT 00000000   4270 
_INT1MS_SCAN_03MS                         IMPT 00000000   4271 
_INT1MS_SCAN_05MS1                        IMPT 00000000   4272 
_INT1MS_SCAN_05MS2                        IMPT 00000000   4273 
_INT1MS_SCAN_10MS                         IMPT 00000000   4274 
_INT_CLS_CTL_FLG                          IMPT 00000000   2831 
_INT_CLS_DYL_TIM                          IMPT 00000000   2832 
_INT_CYC_DRV_STS                          IMPT 00000000   2830 
_INT_DND_CTL_STEP                         IMPT 00000000   2826 
_INT_DND_NEG_STEP                         IMPT 00000000   2834 
_INT_DND_STEP_FLG                         IMPT 00000000   2829 
_INT_LINK_TOTAL_ABSPLS                    IMPT 00000000   2843 
_INT_POS_CTL_FLAG                         IMPT 00000000   2827 
_INT_POS_CTL_STEP                         IMPT 00000000   2824 
_INT_POS_STEP_FLG                         IMPT 00000000   2828 
_INT_SFY_INP_DAT                          IMPT 00000000   3630 
_INT_STP_INP_DAT                          IMPT 00000000   3631 
_INT_STP_INP_DAT1                         IMPT 00000000   3632 
_INT_STP_INP_DAT2                         IMPT 00000000   3633 
_INT_STP_INP_DAT3                         IMPT 00000000   3634 
_IN_PARAM_RNA_CHK                         IMPT 00000000   4027 
_IN_POS_GPOINT_POS                        IMPT 00000000   3929 
_IN_RDY_FLG                               IMPT 00000000   2618 
_IRQ_EMG_CNT                              IMPT 00000000   3624 
_IRQ_EMG_FLG                              IMPT 00000000   3623 
_IRQ_SFY_CNT                              IMPT 00000000   3626 
_IRQ_SFY_FLG                              IMPT 00000000   3625 
_IRQ_STP_CNT                              IMPT 00000000   3628 
_IRQ_STP_FLG                              IMPT 00000000   3627 
*** SuperH RISC engine ASSEMBLER V.7.01.02.000 ***    11/14/21 17:24:34                                                  PAGE    98

*** CROSS REFERENCE LIST

NAME                             SECTION  ATTR VALUE             SEQUENCE

_KAJLIV_TTL_IDOBUF                        IMPT 00000000   4185 
_KAJLIV_TTL_POINT                         IMPT 00000000   4184 
_KAJLIV_TTL_TOTAL                         IMPT 00000000   4182 
_KEEPRY_BKUP_FLG                          IMPT 00000000   5953 
_KEY_DT_CPUB                              IMPT 00000000   7252 
_KEY_USE_SEL                              IMPT 00000000   7251 
_KJPHOS_CAL_PRS                           IMPT 00000000   2993 
_KJPHOS_DEF_CNT_PV                        IMPT 00000000   2985 
_KJPHOS_IDO_BUF                           IMPT 00000000   2988 
_KJPHOS_IDO_CNT                           IMPT 00000000   2982 
_KJPHOS_IDO_POINT                         IMPT 00000000   2981 
_KJPHOS_IDO_TOTAL                         IMPT 00000000   2987 
_KJPHOS_USE_FLG                           IMPT 00000000   2980 
_KJPHOS_WAIT_CNT_PV                       IMPT 00000000   2984 
_KJYUCLS_KN_HENSA                         IMPT 00000000   4816 
_KJYUCLS_KN_HENSA_PLS                     IMPT 00000000   4817 
_KJYUCLS_OBJ_KN                           IMPT 00000000   4815 
_KJYUU_DEF_DAT_PV                         IMPT 00000000   2991 
_KJYUU_IN_DAT_PV                          IMPT 00000000   2990 
_KJYUU_NEW_DAT_PV                         IMPT 00000000   2992 
_KJYU_CHK_NEARSIG                         IMPT 00000000   4826 
_KJYU_CMP_CMD                             IMPT 00000000   4885 
_KJYU_CMP_SEQHABA                         IMPT 00000000   4891 
_KJYU_CMP_SEQMINS                         IMPT 00000000   4890 
_KJ_AREATRD_SIG                           IMPT 00000000   4867 
_KJ_AREATRD_SIG_OLD                       IMPT 00000000   4868 
_KJ_AREA_BT0_OLD                          IMPT 00000000   3748 
_KJ_AREA_SIG                              IMPT 00000000   3747 
_KOMA_ASM_RAM_TOP                         IMPT 00000000   2471 
_LINKX_SV_OBJ_ABSPLS                      IMPT 00000000   3663 
_LINK_1000ROT_PLS                         IMPT 00000000   4203 
_LINK_1ROT_PLS                            IMPT 00000000   2758 
_LINK_2ROT_PLS                            IMPT 00000000   4200 
_LINK_3ROT_PLS                            IMPT 00000000   4201 
_LINK_4ROT_PLS                            IMPT 00000000   4202 
_LINK_CLANK_PV                            IMPT 00000000   3480 
_LINK_MAX_SPD_PLS                         IMPT 00000000   3033 
_LINK_NOWROT_NUMPLS_ZR                    IMPT 00000000   2681 
_LINK_NOWROT_NUM_ZR                       IMPT 00000000   2680 
_LINK_NOWROT_OFSPLS                       IMPT 00000000   2682 
_LINK_NOWROT_OFSPLS_P                     IMPT 00000000   2683 
_LINK_OBJROT_NUMPLS_ZR                    IMPT 00000000   2752 
_LINK_OBJROT_NUM_ZR                       IMPT 00000000   2751 
_LINK_POS_OFFSET1                         IMPT 00000000   2845 
_LINK_POS_OFFSET2                         IMPT 00000000   2846 
_LINK_PV_ABSPLS                           IMPT 00000000   2844 
_LINK_RL_OBJ_ABSPLS                       IMPT 00000000   2805 
_LINK_SV_OBJ_ABSPLS                       IMPT 00000000   2813 
_LINK_SV_OBJ_SPDPLS                       IMPT 00000000   2814 
_LNGTH_ADD_DATA                           IMPT 00000000   2839 
_LNGTH_TOTAL_OUTPLS                       IMPT 00000000   2840 
_LOT_CHK_DBG_CNT1                         IMPT 00000000   3467 
_LOT_CHK_DBG_CNT2                         IMPT 00000000   3468 
_LOT_CHK_FLG                              IMPT 00000000   2650 
*** SuperH RISC engine ASSEMBLER V.7.01.02.000 ***    11/14/21 17:24:34                                                  PAGE    99

*** CROSS REFERENCE LIST

NAME                             SECTION  ATTR VALUE             SEQUENCE

_LOT_CNT_FLG                              IMPT 00000000   2648 
_LSA1_FILETR_TIM                          IMPT 00000000   3729 
_LSA2_FILETR_TIM                          IMPT 00000000   3730 
_LSA_CHK_DELAY_TM                         IMPT 00000000   3735 
_LSA_ENC_DIG                              IMPT 00000000   3722 
_LSA_ENC_MOV_LNG1A                        IMPT 00000000   3723 
_LSA_ENC_MOV_LNG1B                        IMPT 00000000   3724 
_LSA_ENC_MOV_LNG2                         IMPT 00000000   3725 
_LSA_ERR_SIG                              IMPT 00000000   3734 
_LSA_SIG_DT                               IMPT 00000000   3726 
_LSA_SIG_DT2                              IMPT 00000000   4051 
_LSA_SIG_OLD_DT                           IMPT 00000000   3727 
_LSA_SIG_OLD_WRK                          IMPT 00000000   3728 
_LSI_BUF_PLS_BitComdL                     IMPT 00000000   3586 
_LSI_CHK_DBG_CNT1                         IMPT 00000000   4459 
_LSI_CHK_DBG_CNT2                         IMPT 00000000   4460 
_LSI_CHK_DBG_CNT3                         IMPT 00000000   4461 
_LSI_CHK_DBG_CNT4                         IMPT 00000000   4462 
_LSI_CMPCPUAB_POSMAX                      IMPT 00000000   3565 
_LSI_CMPCPUAB_POS_RL                      IMPT 00000000   3564 
_LSI_LOAD_PLS                             IMPT 00000000   5171 
_LSI_PLSCLR_AC_CNT1                       IMPT 00000000   3554 
_LSI_PLSCLR_NG_CNT1                       IMPT 00000000   3555 
_LSI_PLSCLR_NG_CNT2                       IMPT 00000000   3556 
_LSI_PLSCLR_RETRY_CNT1                    IMPT 00000000   3537 
_LSI_PLSCMP_AC_CNT1                       IMPT 00000000   3550 
_LSI_PLSCMP_NG_CNT1                       IMPT 00000000   3548 
_LSI_PLSCMP_RETRY_CNT1                    IMPT 00000000   3547 
_LSI_PLSRD_NG_CNT1                        IMPT 00000000   3551 
_LSI_PLSSET_AC_CNT1                       IMPT 00000000   3557 
_LSI_PLSSET_AC_CNT2                       IMPT 00000000   3558 
_LSI_PLSSET_NG_CNT1                       IMPT 00000000   3559 
_LSI_PLSSET_NG_CNT2                       IMPT 00000000   3560 
_LSI_PLSSET_NG_CNT3                       IMPT 00000000   3561 
_LSI_PLSSET_RETRY_CNT1                    IMPT 00000000   3538 
_LSI_SET_SPD_MAXLMT                       IMPT 00000000   3648 
_LSI_SET_SPD_MINLMT                       IMPT 00000000   3649 
_LSI_SET_SPD_SV                           IMPT 00000000   3647 
_LT_INT_LINK_RL_OBJ_ABSPLS                IMPT 00000000   3498 
_LT_LINK_SV_OBJ_ABSPLS                    IMPT 00000000   3497 
_LT_LNGTH_ADD_DATA                        IMPT 00000000   3499 
_LT_LNGTH_TOTAL_OUTPLS                    IMPT 00000000   3500 
_MAIN_CAM_DATA_SORT              P             00000008   8442*
_MAIN_CLK                                 IMPT 00000000   4763 
_MAIN_START_OK                            IMPT 00000000   2481 
_MCN_DBG_COD11                            EQU  00000063   2230*
_MCN_DBG_COD21                            EQU  00000059   2232*
_MCN_DBG_COD22                            EQU  00000058   2233*
_MCN_DBG_COD23                            EQU  00000058   2234*
_MCN_DBG_COD31                            EQU  0000004F   2236*
_MCN_DBG_COD32                            EQU  0000004E   2237*
_MCN_DBG_COD33                            EQU  0000004D   2238*
_MCN_FUJI_DBG1                            EQU  000004D2   2240*
_MISS_KEN_CAM_IN                          IMPT 00000000   5376 11435 11607 
*** SuperH RISC engine ASSEMBLER V.7.01.02.000 ***    11/14/21 17:24:34                                                  PAGE   100

*** CROSS REFERENCE LIST

NAME                             SECTION  ATTR VALUE             SEQUENCE

_MISS_KEN_CAM_OF_EDG                      IMPT 00000000   5377 11437 11614 
_MISS_KEN_CNT_STOP_SQ                     IMPT 00000000   5379 11665 11731 
_MISS_KEN_DI                              IMPT 00000000   5372 11433 11627 
_MISS_KEN_DI_REC_ON                       IMPT 00000000   5373 11439 
_MISS_KEN_EMG_STOP_SQ                     IMPT 00000000   5380 11674 11738 
_MISS_KEN_FEEDER_CALC            P             00000138  11311*
_MISS_KEN_FEEDER_CHECK           P             0000017C  11349 11380*
_MISS_KEN_FEEDER_CLR_CHECK       P             00000308  11654 11699*
_MISS_KEN_FEEDER_DI_LOAD         P             00000270  11342 11599*
_MISS_KEN_FEEDER_OUT             P             000002B8  11583 11648*
_MISS_KEN_INIT_FLG                        IMPT 00000000   5369 11317 
_MISS_KEN_INIT_TIM                        IMPT 00000000   5370 11327 11332 11705 
_MNWR_POS_CMD                             IMPT 00000000   2774 
_MODE_SEL                                 IMPT 00000000   2611 
_MONI_CPUAB_PLSDELT                       IMPT 00000000   3904 
_MONI_DISP_MOD                            IMPT 00000000   5424 
_MONI_RDY_STEP                            IMPT 00000000   4985 
_MONI_RESET_STEP                          IMPT 00000000   4984 
_MONI_SELF_STS1                           IMPT 00000000   4986 
_MONI_SELF_STS2                           IMPT 00000000   4987 
_MOT_REP_CNT                              IMPT 00000000   5031 
_MOT_REP_F                                IMPT 00000000   5030 
_MOVE_MODE_MATH_LATCH                     IMPT 00000000   5048 
_MOV_DATA_ERR_FLG1                        IMPT 00000000   2584 
_MOV_ERR_FLG1                             IMPT 00000000   2581 
_MRTION_SEL                               IMPT 00000000   2616 
_MULDIV_R1R2S64mR3S32dR4S32aR1R2*         IMPT 00000000   7424 
_MULDIV_R2S32mR1S32dR4S32aR1R2S6*         IMPT 00000000   7423 
_MUL_R1R2S64mR3S32aR1R2S64                IMPT 00000000   7425 
_MYUTING_MOD_STOPSEL                      IMPT 00000000   4712 
_M_LINK_AREASIG                           IMPT 00000000   2690 
_M_LINK_RL_OBJ_ABSPLS                     IMPT 00000000   2798 
_NEAR_IN_FLG                              IMPT 00000000   2673 
_NEG_CTL_OBJ_POS_PUSH                     IMPT 00000000   4311 
_NEG_CTRL_BEFOR_OBJ_PLS                   IMPT 00000000   4309 
_NEG_CTRL_BEFOR_SLW_PLS                   IMPT 00000000   4310 
_NEG_DND_STOP_POS_END_F                   IMPT 00000000   5388 
_NEG_DND_STOP_USE_F                       IMPT 00000000   5387 
_NEG_EXITTIM                              IMPT 00000000   4681 
_NEW_POSLSI_RESTPLS                       IMPT 00000000   3566 
_NEW_TEP_CNT                              IMPT 00000000   3794 
_NOW_MOTREP_DIR                           IMPT 00000000   5032 
_NZ_TIM_OUT_PV1                           IMPT 00000000   3382 
_NZ_TIM_OUT_PV2                           IMPT 00000000   3383 
_NZ_TIM_OUT_SV1                           IMPT 00000000   3380 
_NZ_TIM_OUT_SV2                           IMPT 00000000   3381 
_OBJDIG_CLANK                             IMPT 00000000   4684 
_OBJ_ENC360                               IMPT 00000000   2525 
_OLD_RNAORG_POS1                          IMPT 00000000   2512 
_OPTION_COP_ARI                           IMPT 00000000   7257 
_OPTION_ET1_ARI                           IMPT 00000000   7258 
_ORGIN2_STEP_FLG                          IMPT 00000000   4320 
_ORGIN_END_FLG1                           IMPT 00000000   3055 
_ORGIN_MOD2_CHKTIM                        IMPT 00000000   3818 
*** SuperH RISC engine ASSEMBLER V.7.01.02.000 ***    11/14/21 17:24:34                                                  PAGE   101

*** CROSS REFERENCE LIST

NAME                             SECTION  ATTR VALUE             SEQUENCE

_ORGIN_MOD2_SEL                           IMPT 00000000   3817 
_ORGIN_MOD2_START_FLG                     IMPT 00000000   3819 
_ORGPOS_LATCH1_INC_OFFSET_PLS             IMPT 00000000   4376 
_ORGPOS_LATCH1_RNA_ABS_DAT                IMPT 00000000   4377 
_ORGPOS_SERCH_RNA_ABS_DAT                 IMPT 00000000   4378 
_ORG_DND_NOMAL_FLG1                       IMPT 00000000   2588 
_ORG_DRV_CNT_PV                           IMPT 00000000   3454 
_ORG_ELSE_NOMAL_FLG1                      IMPT 00000000   2587 
_ORG_FIRST_OBJPLS                         IMPT 00000000   3046 
_ORG_PRESET_TIM                           IMPT 00000000   2596 
_ORG_RDY_CTL_FLG                          IMPT 00000000   3455 
_ORG_SECOND_OBJPLS                        IMPT 00000000   3047 
_ORIGN_180ARA_FLG                         IMPT 00000000   4012 
_ORIGN_OBJ_CTL_FLG                        IMPT 00000000   3650 
_OUTPLS_1000MSEC_LAT                      IMPT 00000000   3441 
_OUTPLS_DELT                              IMPT 00000000   3437 
_OUTPLS_DIV                               IMPT 00000000   2848 
_OUTPLS_MOD                               IMPT 00000000   2847 
_OUTPLS_POINT_SEL                         IMPT 00000000   3440 
_OUTPLS_SPD_AVL_TOP                       IMPT 00000000   3438 
_OUTPLS_SPD_POINT                         IMPT 00000000   3439 
_OUTPLS_SPD_TOTAL                         IMPT 00000000   3433 
_OUT_PLS_SPD                              IMPT 00000000   3434 
_OUT_PLS_SPD_DIR                          IMPT 00000000   3436 
_OVER1_JGDIG                              EQU  00000032   2039*
_OVERH_CALC_USE                           IMPT 00000000   4678 
_OVERH_MODE_SEL                           IMPT 00000000   4676 
_OVERLIDE_DT_SEL                          IMPT 00000000   3866 
_OVER_LIDE_ANS_TIM                        IMPT 00000000   3893 
_OVER_RIDE_LATE_ANS                       IMPT 00000000   3856 
_OVER_RIDE_LATE_FLG                       IMPT 00000000   3854 
_OVER_RIDE_LATE_REQ                       IMPT 00000000   3855 
_OVER_RIDE_USEFUL                         IMPT 00000000   3888 
_OVER_UPDN_DBGCNT                         IMPT 00000000   3890 
_OVRLIDE_LATE_MAX                         EQU  00000064   2271*
_PANEL_FRQ_DAT                            IMPT 00000000   7255 
_PANEL_LED_DAT                            IMPT 00000000   7254 
_PAR_WTSEL_USE                            IMPT 00000000   7446 
_PLSOUTEND_FLG                            IMPT 00000000   5194 
_PLSOUTEND_PVPLS                          IMPT 00000000   5192 
_PLSOUTEND_SHIN                           IMPT 00000000   5193 
_PLS_OUTPUT_FLG                           IMPT 00000000   3373 
_PLS_OUT_END_STS                          IMPT 00000000   4746 
_PON_ERR_WAIT_TIM                         IMPT 00000000   5124 
_POSCANSEL_CMD                            IMPT 00000000   5313 
_POSCTL_CALC_ERR                          IMPT 00000000   3841 
_POSCTL_OVER_ACC_LAT                      IMPT 00000000   3897 
_POSCTL_OVER_SPD_LAT                      IMPT 00000000   3896 
_POSCTL_RL_PLS                            IMPT 00000000   3828 
_POSCTL_RL_SPD                            IMPT 00000000   3832 
_POSCTL_SET_SPD                           IMPT 00000000   3830 
_POSCTL_STEP_CMD                          IMPT 00000000   3839 
_POSCTL_STEP_FLG                          IMPT 00000000   3840 
_POSCTL_SV_DN_ACC                         IMPT 00000000   3835 
*** SuperH RISC engine ASSEMBLER V.7.01.02.000 ***    11/14/21 17:24:34                                                  PAGE   102

*** CROSS REFERENCE LIST

NAME                             SECTION  ATTR VALUE             SEQUENCE

_POSCTL_SV_OFS_SPD                        IMPT 00000000   3837 
_POSCTL_SV_PLS                            IMPT 00000000   3827 
_POSCTL_SV_SPD                            IMPT 00000000   3831 
_POSCTL_SV_UP_ACC                         IMPT 00000000   3834 
_POSHLD1_CHKLST_FLG                       IMPT 00000000   4979 
_POSHLD1_GENSKPOSWK                       IMPT 00000000   4958 
_POSHLD1_GENSK_STEP                       IMPT 00000000   4959 
_POSHLD1_SDAT1_HOLDPOS                    IMPT 00000000   4961 
_POSHLD1_SDAT2_HOLDPOS                    IMPT 00000000   4962 
_POSHLD1_STOPLATCH                        IMPT 00000000   4967 
_POSHLD1_STOPSPDWK                        IMPT 00000000   4956 
_POSHLD1_STOP_STEP                        IMPT 00000000   4955 
_POSHLD1_STOP_STEPWK                      IMPT 00000000   4954 
_POSHLD_SET_DN_ACC                        IMPT 00000000   4966 
_POSINER_FLG                              IMPT 00000000   4907 
_POSINER_MOSTPV_POS                       IMPT 00000000   4903 
_POSINER_OLDPV_POS                        IMPT 00000000   4902 
_POSINER_PV_POS                           IMPT 00000000   4901 
_POSINER_RETRY_CNT                        IMPT 00000000   4909 
_POSINER_STOPCHK_TIM1                     IMPT 00000000   4910 
_POSINER_STOPCHK_TIM2                     IMPT 00000000   4911 
_POSINER_STS                              IMPT 00000000   4908 
_POSINER_SV_OVRPOS                        IMPT 00000000   4905 
_POSINER_SV_POS                           IMPT 00000000   4904 
_POSINER_SV_STPPOS                        IMPT 00000000   4906 
_POSLSI_CHK_CNT                           IMPT 00000000   2857 
_POSLSI_CHK_DLT                           IMPT 00000000   2858 
_POSLSI_CHK_RESTPLS                       IMPT 00000000   2851 
_POSLSI_CHK_STS                           IMPT 00000000   2859 
_POSLSI_CMP_DATA                          IMPT 00000000   2841 
_POSLSI_DELT_POS                          IMPT 00000000   2842 
_POSLSI_DRIV_SHIN                         IMPT 00000000   2850 
_POSLSI_DRV_FRQ                           IMPT 00000000   3567 
_POSLSI_HENSA_LATCH                       IMPT 00000000   2855 
_POSLSI_OUTPUT_TOTAL_PLS                  IMPT 00000000   2853 
_POS_CALC_ERR_FLG1                        IMPT 00000000   3540 
_POS_CALC_ERR_FLG2                        IMPT 00000000   3541 
_POS_CALC_ERR_INF1                        IMPT 00000000   3544 
_POS_CALC_ERR_INF2                        IMPT 00000000   3545 
_POS_CTRL_SQ_STS                          IMPT 00000000   2821 
_POS_DRV_DIRECT                           IMPT 00000000   2815 
_POS_END_MYUTIG_KEEPTIM                   IMPT 00000000   5213 
_POS_END_MYUTIG_STOPTIM                   IMPT 00000000   5212 
_POS_END_WAIT_TIM                         IMPT 00000000   5203 
_POS_FRQ_SPDMAX                           IMPT 00000000   3039 
_POS_GPOINT_POS                           IMPT 00000000   3930 
_POS_HLDSTOP1_CHKTIM                      IMPT 00000000   4938 
_POS_HLDSTOP1_FLG                         IMPT 00000000   4939 
_POS_HLDSTOP1_SIG1TIM                     IMPT 00000000   4940 
_POS_HLDSTOP1_SIG2TIM                     IMPT 00000000   4941 
_POS_HOLDABS_CALCF                        IMPT 00000000   4978 
_POS_HOLD_CMD                             IMPT 00000000   4973 
_POS_HOLD_FLG                             IMPT 00000000   4974 
_POS_HOLD_RDY_EXITF                       IMPT 00000000   4975 
*** SuperH RISC engine ASSEMBLER V.7.01.02.000 ***    11/14/21 17:24:34                                                  PAGE   103

*** CROSS REFERENCE LIST

NAME                             SECTION  ATTR VALUE             SEQUENCE

_POS_HOLD_RDY_EXITF2                      IMPT 00000000   4976 
_POS_HOLD_RESTARTCMD                      IMPT 00000000   4972 
_POS_LSI_ABSPLS                           IMPT 00000000   2903 
_POS_LSI_ACCLT1                           IMPT 00000000   3043 
_POS_LSI_ACCLT2                           IMPT 00000000   3044 
_POS_LSI_ACS_ERR_FLG1                     IMPT 00000000   3539 
_POS_LSI_ACS_ERR_INF1                     IMPT 00000000   3543 
_POS_LSI_CLSINC_SPDBAS                    IMPT 00000000   3061 
_POS_LSI_CLS_SPDBAS                       IMPT 00000000   3060 
_POS_LSI_CTL_NOWPLS                       IMPT 00000000   2907 
_POS_LSI_OFFSET1                          IMPT 00000000   2905 
_POS_LSI_OFFSET2                          IMPT 00000000   2906 
_POS_LSI_OLDCNT                           IMPT 00000000   2909 
_POS_LSI_SPDBAS                           IMPT 00000000   3042 
_POS_LSI_SPDLAT                           IMPT 00000000   3041 
_POS_LSI_SPDMAX                           IMPT 00000000   3040 
_POS_LSI_TOTAL_PLS                        IMPT 00000000   2902 
_PRD_DAI_CMP_ENB                          IMPT 00000000   3492 
_PRD_DAI_POS0                             IMPT 00000000   3490 
_PRD_DAI_POS1                             IMPT 00000000   3491 
_PRD_KJP_CMP_ENB                          IMPT 00000000   3978 
_PS_DG_INF_CHK1                           EQU  00000000   2204*
_PS_DG_INF_CHK2                           EQU  0000003C   2209*
_PS_DG_INF_CONT                           EQU  00000004   2205*
_PS_DG_INF_LATE                           EQU  00000010   2208*
_PS_DG_INF_STLK                           EQU  0000000C   2207*
_PS_DG_INF_UNIT                           EQU  00000008   2206*
_PS_TIME                                  EQU  00000002   1998*
_PVCK_STOP_SMPTIM                         IMPT 00000000   3241 
_PVC_BRK_ENC_SPD                          IMPT 00000000   3445 
_PVC_BRK_OUT_SPD                          IMPT 00000000   3446 
_PVOP2_WAIT_CODA                          IMPT 00000000   5767 
_PVOP2_WAIT_CODB                          IMPT 00000000   5768 
_PVPAB_ARA1_KAJ_L                         IMPT 00000000   5803 
_PVPAB_ARA1_KAJ_R                         IMPT 00000000   5804 
_PVPAB_ARA1_KAJ_T                         IMPT 00000000   5805 
_PVPAB_DBG_KYUIN1                         IMPT 00000000   5778 
_PVPAB_DBG_KYUIN2                         IMPT 00000000   5779 
_PVPAB_DBG_KYUIN3                         IMPT 00000000   5780 
_PVPAB_KAJLIV_LFT                         IMPT 00000000   5798 
_PVPAB_KAJLIV_RIH                         IMPT 00000000   5799 
_PVPAB_KAJLIV_TTL                         IMPT 00000000   5800 
_PVPAB_SH2_AD_DAT2                        IMPT 00000000   5775 
_PVPAB_SH2_AD_DAT3                        IMPT 00000000   5776 
_PVPAB_SH2_AD_DAT4                        IMPT 00000000   5777 
_PVPAB_SH2_AD_DATA                        IMPT 00000000   5774 
_PVP_1ROT_CALSPM                          IMPT 00000000   6384 
_PVP_360_DEG                              IMPT 00000000   6395 
_PVP_ABS_ENC_SPD                          IMPT 00000000   6953 
_PVP_ABS_OUT_SPD                          IMPT 00000000   6954 
_PVP_ARA1_KAJ_L                           IMPT 00000000   6380 
_PVP_ARA1_KAJ_R                           IMPT 00000000   6379 
_PVP_ARA1_KAJ_T                           IMPT 00000000   6381 
_PVP_ARA1_KAJ_T2                          IMPT 00000000   6448 
*** SuperH RISC engine ASSEMBLER V.7.01.02.000 ***    11/14/21 17:24:34                                                  PAGE   104

*** CROSS REFERENCE LIST

NAME                             SECTION  ATTR VALUE             SEQUENCE

_PVP_ATSLID_OBJ1                          IMPT 00000000   7241 
_PVP_A_LOT_CNT1                           IMPT 00000000   6962 
_PVP_A_LOT_CNT2                           IMPT 00000000   6964 
_PVP_A_LOT_CNT3                           IMPT 00000000   6966 
_PVP_A_LOT_CNT4                           IMPT 00000000   6968 
_PVP_A_LOT_CNT5                           IMPT 00000000   6970 
_PVP_BAKORG_PLS1                          IMPT 00000000   6391 
_PVP_BAKORG_PLS2                          IMPT 00000000   6392 
_PVP_BREAK_DIG                            IMPT 00000000   6918 
_PVP_BREAK_TIM1                           IMPT 00000000   6923 
_PVP_BRK_ENC_SPD                          IMPT 00000000   6957 
_PVP_BRK_OUT_SPD                          IMPT 00000000   6958 
_PVP_B_LOT_CNT1                           IMPT 00000000   6963 
_PVP_B_LOT_CNT2                           IMPT 00000000   6965 
_PVP_B_LOT_CNT3                           IMPT 00000000   6967 
_PVP_B_LOT_CNT4                           IMPT 00000000   6969 
_PVP_B_LOT_CNT5                           IMPT 00000000   6971 
_PVP_CB_A_VER                             IMPT 00000000   7037 
_PVP_CB_B_VER                             IMPT 00000000   7038 
_PVP_CB_C_VER                             IMPT 00000000   7057 
_PVP_CKAGL_OVBIT                          IMPT 00000000   7212 
_PVP_CKLMT_AGL01                          IMPT 00000000   7214 
_PVP_CKLMT_AGL02                          IMPT 00000000   7215 
_PVP_CKLMT_AGL03                          IMPT 00000000   7216 
_PVP_CKLMT_AGL04                          IMPT 00000000   7217 
_PVP_CKLMT_AGL05                          IMPT 00000000   7218 
_PVP_CKLMT_AGL06                          IMPT 00000000   7219 
_PVP_CKLMT_AGL07                          IMPT 00000000   7220 
_PVP_CKLMT_AGL08                          IMPT 00000000   7221 
_PVP_CKLMT_AGL09                          IMPT 00000000   7222 
_PVP_CKLMT_AGL10                          IMPT 00000000   7223 
_PVP_CKLMT_AGLTOP                         IMPT 00000000   7213 
_PVP_CKLMT_MDSPD                          IMPT 00000000   6523 
_PVP_CKLMT_SPD01                          IMPT 00000000   6526 
_PVP_CKLMT_SPD02                          IMPT 00000000   6527 
_PVP_CKLMT_SPD03                          IMPT 00000000   6528 
_PVP_CKLMT_SPD04                          IMPT 00000000   6529 
_PVP_CKLMT_SPD05                          IMPT 00000000   6530 
_PVP_CKLMT_SPD06                          IMPT 00000000   6531 
_PVP_CKLMT_SPD07                          IMPT 00000000   6532 
_PVP_CKLMT_SPD08                          IMPT 00000000   6533 
_PVP_CKLMT_SPD09                          IMPT 00000000   6534 
_PVP_CKLMT_SPD10                          IMPT 00000000   6535 
_PVP_CKLMT_SPDTOP                         IMPT 00000000   6525 
_PVP_CKSPD_LMBIT                          IMPT 00000000   7236 
_PVP_CKSPD_OVBIT                          IMPT 00000000   6522 
_PVP_CKSPD_STPBT                          IMPT 00000000   7237 
_PVP_COM_ADR                              IMPT 00000000   6920 
_PVP_COM_ERR                              IMPT 00000000   6919 
_PVP_CPUA_ANAIN                           IMPT 00000000   6948 
_PVP_CPUA_TEPPLS                          IMPT 00000000   6946 
_PVP_CPUB_ANAIN                           IMPT 00000000   6949 
_PVP_CPUB_TEPPLS                          IMPT 00000000   6947 
_PVP_CYCLE_SPM1                           IMPT 00000000   6907 
*** SuperH RISC engine ASSEMBLER V.7.01.02.000 ***    11/14/21 17:24:34                                                  PAGE   105

*** CROSS REFERENCE LIST

NAME                             SECTION  ATTR VALUE             SEQUENCE

_PVP_CYCLE_TIME0                          IMPT 00000000   6904 
_PVP_DEB_DAT0                             IMPT 00000000   6843 
_PVP_DEB_DAT1                             IMPT 00000000   6844 
_PVP_DEB_DAT2                             IMPT 00000000   6845 
_PVP_DEB_DAT3                             IMPT 00000000   6846 
_PVP_DEB_DAT4                             IMPT 00000000   6847 
_PVP_DEB_DAT5                             IMPT 00000000   6848 
_PVP_DEB_DAT6                             IMPT 00000000   6849 
_PVP_DEB_DAT7                             IMPT 00000000   6850 
_PVP_DEB_DAT8                             IMPT 00000000   6851 
_PVP_DEB_DAT9                             IMPT 00000000   6852 
_PVP_DISP_SPM2                            IMPT 00000000   6908 
_PVP_DYHITO_HOSLNG                        IMPT 00000000   6910 
_PVP_DYHITO_POS                           IMPT 00000000   6911 
_PVP_ECO_METER                            IMPT 00000000   6975 
_PVP_ENC_PLS_SPD                          IMPT 00000000   6951 
_PVP_ENC_SPD_DIR                          IMPT 00000000   6959 
_PVP_ENC_SPD_PER                          IMPT 00000000   6955 
_PVP_EPM_KAISE                            IMPT 00000000   6978 
_PVP_EPM_SYOHI                            IMPT 00000000   6977 
_PVP_GMNSEQ_CNT01                         IMPT 00000000   6925 
_PVP_GMNSEQ_CNT02                         IMPT 00000000   6926 
_PVP_GMNSEQ_CNT03                         IMPT 00000000   6927 
_PVP_GMNSEQ_CNT04                         IMPT 00000000   6928 
_PVP_GMNSEQ_CNT05                         IMPT 00000000   6929 
_PVP_GMNSEQ_CNT06                         IMPT 00000000   6930 
_PVP_GMNSEQ_CNT07                         IMPT 00000000   6931 
_PVP_GMNSEQ_CNT08                         IMPT 00000000   6932 
_PVP_GMNSEQ_TIM01                         IMPT 00000000   6934 
_PVP_GMNSEQ_TIM02                         IMPT 00000000   6935 
_PVP_GMNSEQ_TIM03                         IMPT 00000000   6936 
_PVP_GMNSEQ_TIM04                         IMPT 00000000   6937 
_PVP_GMNSEQ_TIM05                         IMPT 00000000   6938 
_PVP_GMNSEQ_TIM06                         IMPT 00000000   6939 
_PVP_GMNSEQ_TIM07                         IMPT 00000000   6940 
_PVP_GMNSEQ_TIM08                         IMPT 00000000   6941 
_PVP_IVW_DOT                              IMPT 00000000   6980 
_PVP_KAJLIV_LFT                           IMPT 00000000   6364 
_PVP_KAJLIV_RIH                           IMPT 00000000   6366 
_PVP_KAJLIV_TTL                           IMPT 00000000   6365 
_PVP_MENTE_CNT                            IMPT 00000000   6450 
_PVP_MONALM1_TOP                          IMPT 00000000   6866 
_PVP_MONALM2_TOP                          IMPT 00000000   6986 
_PVP_MONALM_A01                           IMPT 00000000   6879 
_PVP_MONALM_A02                           IMPT 00000000   6880 
_PVP_MONALM_A03                           IMPT 00000000   6881 
_PVP_MONALM_A04                           IMPT 00000000   6882 
_PVP_MONALM_A05                           IMPT 00000000   6883 
_PVP_MONALM_A06                           IMPT 00000000   6884 
_PVP_MONALM_A07                           IMPT 00000000   6885 
_PVP_MONALM_A08                           IMPT 00000000   6886 
_PVP_MONALM_B01                           IMPT 00000000   6887 
_PVP_MONALM_B02                           IMPT 00000000   6888 
_PVP_MONALM_B03                           IMPT 00000000   6889 
*** SuperH RISC engine ASSEMBLER V.7.01.02.000 ***    11/14/21 17:24:34                                                  PAGE   106

*** CROSS REFERENCE LIST

NAME                             SECTION  ATTR VALUE             SEQUENCE

_PVP_MONALM_B04                           IMPT 00000000   6890 
_PVP_MONALM_B05                           IMPT 00000000   6891 
_PVP_MONALM_B06                           IMPT 00000000   6892 
_PVP_MONALM_B07                           IMPT 00000000   6893 
_PVP_MONALM_B08                           IMPT 00000000   6894 
_PVP_MONALM_C01                           IMPT 00000000   6871 
_PVP_MONALM_C02                           IMPT 00000000   6872 
_PVP_MONALM_C03                           IMPT 00000000   6873 
_PVP_MONALM_C04                           IMPT 00000000   6874 
_PVP_MONALM_C05                           IMPT 00000000   6875 
_PVP_MONALM_C06                           IMPT 00000000   6876 
_PVP_MONALM_C07                           IMPT 00000000   6877 
_PVP_MONALM_C08                           IMPT 00000000   6878 
_PVP_MONALM_P01                           IMPT 00000000   6867 
_PVP_MONALM_P02                           IMPT 00000000   6868 
_PVP_MONALM_P03                           IMPT 00000000   6869 
_PVP_MONALM_P04                           IMPT 00000000   6870 
_PVP_MOTINS_AG2                           IMPT 00000000   6514 
_PVP_MOTINS_AG3                           IMPT 00000000   6517 
_PVP_MOTINS_AGL                           IMPT 00000000   6509 
_PVP_MOTINS_DAN                           IMPT 00000000   6508 
_PVP_MOTINS_DANAFT                        IMPT 00000000   6538 
_PVP_MOTINS_DANBEF                        IMPT 00000000   6537 
_PVP_MOTINS_INF                           IMPT 00000000   6519 
_PVP_MOTINS_POS                           IMPT 00000000   6510 
_PVP_MOTINS_PS2                           IMPT 00000000   6513 
_PVP_MOTINS_PS3                           IMPT 00000000   6518 
_PVP_NOW_ANGLE00                          IMPT 00000000   6903 
_PVP_NOW_ANGLE_RNA                        IMPT 00000000   6909 
_PVP_NOW_POSI000                          IMPT 00000000   6901 
_PVP_ORGRNA_MOV1                          IMPT 00000000   6387 
_PVP_ORGRNA_MOV2                          IMPT 00000000   6388 
_PVP_ORGSTRK_LEG1                         IMPT 00000000   6389 
_PVP_ORGSTRK_LEG2                         IMPT 00000000   6390 
_PVP_OUT_PLS_SPD                          IMPT 00000000   6952 
_PVP_OUT_SPD_DIR                          IMPT 00000000   6960 
_PVP_OUT_SPD_PER                          IMPT 00000000   6956 
_PVP_PAR_A_CHAR                           IMPT 00000000   7047 
_PVP_PAR_A_VER                            IMPT 00000000   7041 
_PVP_PAR_B_CHAR                           IMPT 00000000   7048 
_PVP_PAR_B_VER                            IMPT 00000000   7042 
_PVP_PAR_C_CHAR                           IMPT 00000000   7059 
_PVP_PAR_C_VER                            IMPT 00000000   7058 
_PVP_PG12_DEG1                            IMPT 00000000   6457 
_PVP_PG_DEG1                              IMPT 00000000   6396 
_PVP_PG_DEG1X                             IMPT 00000000   6453 
_PVP_PG_DEG2                              IMPT 00000000   6397 
_PVP_PG_DEG2X                             IMPT 00000000   6454 
_PVP_PG_PLS1                              IMPT 00000000   6455 
_PVP_PG_PLS2                              IMPT 00000000   6456 
_PVP_POWER_KWH                            IMPT 00000000   6976 
_PVP_POWER_MONI                           IMPT 00000000   6944 
_PVP_RENIA_BUP1                           IMPT 00000000   6440 
_PVP_RENIA_BUP2                           IMPT 00000000   6441 
*** SuperH RISC engine ASSEMBLER V.7.01.02.000 ***    11/14/21 17:24:34                                                  PAGE   107

*** CROSS REFERENCE LIST

NAME                             SECTION  ATTR VALUE             SEQUENCE

_PVP_RENIA_BUP3                           IMPT 00000000   6442 
_PVP_RENIA_BUP4                           IMPT 00000000   6443 
_PVP_RENIA_POS1                           IMPT 00000000   6393 
_PVP_RENIA_POS2                           IMPT 00000000   6394 
_PVP_RENIA_POSI0                          IMPT 00000000   6902 
_PVP_RNABUP_ENB                           IMPT 00000000   6444 
_PVP_RNAORG_PLS1                          IMPT 00000000   6900 
_PVP_RNA_STLORK                           IMPT 00000000   6916 
_PVP_SEQ_ERR                              IMPT 00000000   6921 
_PVP_SINKAKU_UPDN1                        IMPT 00000000   7231 
_PVP_SINKAKU_UPDN2                        IMPT 00000000   7232 
_PVP_SLIDE_POS                            IMPT 00000000   6912 
_PVP_STOP_TIM                             IMPT 00000000   6917 
_PVP_TAIKITEN_POS                         IMPT 00000000   6914 
_PVP_TAIKI_POS                            IMPT 00000000   6913 
_PVP_TBL_A_CHAR                           IMPT 00000000   7049 
_PVP_TBL_A_VER                            IMPT 00000000   7043 
_PVP_TBL_B_CHAR                           IMPT 00000000   7050 
_PVP_TBL_B_VER                            IMPT 00000000   7044 
_PVP_TBL_C_CHAR                           IMPT 00000000   7061 
_PVP_TBL_C_VER                            IMPT 00000000   7060 
_PVP_WTJUD_AGL                            IMPT 00000000   7227 
_PVP_WTJUD_POS                            IMPT 00000000   7228 
_PVP_WTJUD_SNO                            IMPT 00000000   7226 
_PVP_ZURE_PLS                             IMPT 00000000   6398 
_PVP_ZURE_RNA                             IMPT 00000000   6399 
_PVX_AMPERR_TIM1                          IMPT 00000000   3179 
_PVX_AMPERR_TIM2                          IMPT 00000000   3180 
_PVX_AMPERR_TIM3                          IMPT 00000000   3181 
_PVX_CKAGL_OVBIT                          IMPT 00000000   4736 
_PVX_CKSPD_OVBIT                          IMPT 00000000   4717 
_PVX_DAI_POS0                             IMPT 00000000   2923 
_PVX_DAI_POS1                             IMPT 00000000   2924 
_PVX_DNMOD_DLYTIM                         IMPT 00000000   4701 
_PVX_DYHITO_POS                           IMPT 00000000   2931 
_PVX_IAMP_VLT                             IMPT 00000000   3182 
_PVX_INPPOS_TIM1                          IMPT 00000000   3155 
_PVX_MOTINS_AG2                           IMPT 00000000   4521 
_PVX_MOTINS_AG2X                          IMPT 00000000   4522 
_PVX_MOTINS_AG3                           IMPT 00000000   4527 
_PVX_MOTINS_AG3X                          IMPT 00000000   4528 
_PVX_MOTINS_AGL                           IMPT 00000000   4524 
_PVX_MOTINS_AGLX                          IMPT 00000000   4525 
_PVX_MOTINS_DAN                           IMPT 00000000   4532 
_PVX_MOTINS_DANAFT                        IMPT 00000000   4533 
_PVX_MOTINS_DANBEF                        IMPT 00000000   4531 
_PVX_MOTINS_INF                           IMPT 00000000   4535 
_PVX_MOTINS_POS                           IMPT 00000000   4518 
_PVX_MOTINS_PS2                           IMPT 00000000   4517 
_PVX_MOTINS_PS3                           IMPT 00000000   4519 
_PVX_RNA_DIGDT                            IMPT 00000000   5567 
_PVX_RNA_INDAT                            IMPT 00000000   5563 
_PVX_RNA_PLS_P                            IMPT 00000000   5569 
_PVX_RNA_POSD1                            IMPT 00000000   5564 
*** SuperH RISC engine ASSEMBLER V.7.01.02.000 ***    11/14/21 17:24:34                                                  PAGE   108

*** CROSS REFERENCE LIST

NAME                             SECTION  ATTR VALUE             SEQUENCE

_PVX_RNA_POSD2                            IMPT 00000000   5565 
_PVX_RNA_POSDT                            IMPT 00000000   5566 
_PVX_RNA_STLORK                           IMPT 00000000   2925 
_PVX_SH4_OUTPLS                           IMPT 00000000   5576 
_PVX_SH4_SFTY_IN                          IMPT 00000000   5568 
_PV_CB_STS_DAT_TOP                        IMPT 00000000   6857 
_PV_CB_STS_POINT                          IMPT 00000000   6859 
_PV_CB_TRD_DAT_TOP                        IMPT 00000000   6858 
_PV_CB_TRD_POINT                          IMPT 00000000   6860 
_PV_ENC_SPD_PER                           IMPT 00000000   3443 
_PV_OUT_SPD_PER                           IMPT 00000000   3444 
_PV_POWER_ON_CNT                          IMPT 00000000   6861 
_RDY_OF                                   IMPT 00000000   7279 
_RDY_ON                                   IMPT 00000000   7278 
_RDY_SFTY_LOCK                            IMPT 00000000   3714 
_RDY_SFTY_WAIT_TIM                        IMPT 00000000   3715 
_REP_CAMOBJ_DIG                           IMPT 00000000   5033 
_RESET_END_OUT                            IMPT 00000000   7271 
_RESET_OUT                                IMPT 00000000   7270 
_RESET_ROTNUMPLS_ZR                       IMPT 00000000   2715 
_RESET_ROTNUM_ZR                          IMPT 00000000   2714 
_REVCHK_DRIV_SHIN                         IMPT 00000000   4602 
_REVCHK_MASK_PVTIM                        IMPT 00000000   4603 
_REVMOD_REVDN_DIG                         IMPT 00000000   4605 
_REV_CALC_WORK0                           IMPT 00000000   3232 
_REV_CALC_WORK1                           IMPT 00000000   3233 
_REV_CALC_WORK2                           IMPT 00000000   3234 
_REV_ERR_FLG                              IMPT 00000000   5234 
_REV_ERR_LT_PGPOS                         IMPT 00000000   5237 
_REV_ERR_LT_SVPOS                         IMPT 00000000   5238 
_REV_ERR_WAIT_TIMPV                       IMPT 00000000   4601 
_REV_LATCH_ENCPOS                         IMPT 00000000   2873 
_REV_LATCH_OUTPLS                         IMPT 00000000   2872 
_REV_LATCH_RNAPOS                         IMPT 00000000   2874 
_RM1_CHK_OLDSTS                           IMPT 00000000   5058 
_RM1_CHK_TIME                             IMPT 00000000   5059 
_RM2_CHK_OLDSTS                           IMPT 00000000   5061 
_RM2_CHK_TIME                             IMPT 00000000   5062 
_RNAREV_ADD                               EQU  00000000   2061*
_RNASTP_ADD                               EQU  00000000   2059*
_RNA_ABS_DRVHOS_DT                        IMPT 00000000   2964 
_RNA_ABS_MAXPOS                           IMPT 00000000   2943 
_RNA_ABS_MD2_C1                           IMPT 00000000   4335 
_RNA_ABS_MD2_C1A                          IMPT 00000000   4336 
_RNA_ABS_MD2_C2                           IMPT 00000000   4337 
_RNA_ABS_MD_DT0                           IMPT 00000000   2927 
_RNA_ABS_MD_DT1                           IMPT 00000000   2928 
_RNA_ABS_MEMORG                           IMPT 00000000   2920 
_RNA_ABS_MINPOS                           IMPT 00000000   2942 
_RNA_ABS_ORGWORK                          IMPT 00000000   2911 
_RNA_ABS_ORGWORK2                         IMPT 00000000   4329 
_RNA_ABS_ORGWORK2A                        IMPT 00000000   4330 
_RNA_ABS_POS                              IMPT 00000000   2919 
_RNA_ABS_WKMAXPOS                         IMPT 00000000   2941 
*** SuperH RISC engine ASSEMBLER V.7.01.02.000 ***    11/14/21 17:24:34                                                  PAGE   109

*** CROSS REFERENCE LIST

NAME                             SECTION  ATTR VALUE             SEQUENCE

_RNA_ABS_WKMINPOS                         IMPT 00000000   2940 
_RNA_BBN_MESURE_POINT                     IMPT 00000000   4476 
_RNA_BBN_MESURE_SPOS_BUF                  IMPT 00000000   4469 
_RNA_BBN_MESURE_SSPD                      IMPT 00000000   4471 
_RNA_BBN_MESURE_SSPD_BUF                  IMPT 00000000   4470 
_RNA_BBN_MEUSRE_ACC                       IMPT 00000000   4473 
_RNA_BBN_MEUSRE_ACC_SRC                   IMPT 00000000   4472 
_RNA_BBN_SET_TIME                         IMPT 00000000   4475 
_RNA_CMD_RD_CNT                           IMPT 00000000   2538 
_RNA_CMD_SND_CNT                          IMPT 00000000   2537 
_RNA_COM_ERR_CNT                          IMPT 00000000   2530 
_RNA_COM_NML_CNT                          IMPT 00000000   2531 
_RNA_CTL_POS0                             IMPT 00000000   2929 
_RNA_CTL_POS1                             IMPT 00000000   2930 
_RNA_ENC360                               IMPT 00000000   2522 
_RNA_HOS_DELT                             IMPT 00000000   2932 
_RNA_INSERT_CHKFLG                        IMPT 00000000   4488 
_RNA_LINK_NOWROT_OFSPLS_P                 IMPT 00000000   2706 
_RNA_OLD_STEP                             IMPT 00000000   4491 
_RNA_POS_OFFSET1                          IMPT 00000000   2917 
_RNA_POS_OFFSET2                          IMPT 00000000   2918 
_RNA_PROTOCOL_SEL                         IMPT 00000000   4028 
_RNA_PROTOCOL_X                           IMPT 00000000   4031 
_RNA_RESET_FLG                            IMPT 00000000   2533 
_RNA_RESET_TIM                            IMPT 00000000   2534 
_RNA_STLORK                               IMPT 00000000   2922 
_RNA_STLORK_HALF                          IMPT 00000000   4327 
_RNA_STOP_CNT                             IMPT 00000000   3242 
_RNA_TECH_POINT                           IMPT 00000000   4487 
_RNA_TECH_POSBUF                          IMPT 00000000   4486 
_ROOT_MAIN_INP                            IMPT 00000000   5430 
_ROOT_MAIN_OUT                            IMPT 00000000   5431 
_ROTCAM_SIN_CNT                           EQU  00000010   7467*
_RST_DLY_TM                               EQU  000000C8   2017*
_RST_ERR_CHK_ERR                          IMPT 00000000   2878 
_RST_ERR_CHK_FLG                          IMPT 00000000   2876 
_SAME_TIM                                 IMPT 00000000   2658 
_SCAN_DBG_CNT                             IMPT 00000000   4782 
_SCAN_SMP_SIG                             IMPT 00000000   4769 
_SCAN_TIM_IDOBUF                          IMPT 00000000   4760 
_SCAN_TIM_IN                              IMPT 00000000   4765 
_SCAN_TIM_POINT                           IMPT 00000000   4761 
_SCAN_TIM_TOTAL                           IMPT 00000000   4759 
_SDATCLS_OBJMM                            IMPT 00000000   3067 
_SDATCLS_OBJPLS                           IMPT 00000000   3066 
_SDATCLS_OBJ_NEAR_UPDNPLS                 IMPT 00000000   3068 
_SDATCLS_TRG_STEP                         IMPT 00000000   3070 
_SDATCLS_UPOBJ_PLS                        IMPT 00000000   3069 
_SDAT_WAIT_PVTIM                          IMPT 00000000   2760 
_SELF_AD_LATCH                            IMPT 00000000   3703 
_SELF_BRK_LOCK                            IMPT 00000000   3699 
_SELF_CHK_MATHED                          IMPT 00000000   3698 
_SELF_CHK_SEL                             IMPT 00000000   2605 
_SELF_COM                                 IMPT 00000000   2603 
*** SuperH RISC engine ASSEMBLER V.7.01.02.000 ***    11/14/21 17:24:34                                                  PAGE   110

*** CROSS REFERENCE LIST

NAME                             SECTION  ATTR VALUE             SEQUENCE

_SELF_FIRST_END_FLG                       IMPT 00000000   3696 
_SELF_FLG                                 IMPT 00000000   2601 
_SELF_LOCK_FLG                            IMPT 00000000   3983 
_SELF_MOV_LENGTH                          IMPT 00000000   3706 
_SELF_MOV_SPEED                           IMPT 00000000   3707 
_SELF_SECOND_ACT_FLG                      IMPT 00000000   3701 
_SELF_SECOND_STEP                         IMPT 00000000   3702 
_SELF_START_POS_LATCH                     IMPT 00000000   3705 
_SELF_START_WAIT_TM                       IMPT 00000000   2604 
_SELF_TIMING_SIG                          IMPT 00000000   3697 
_SEQAB_DP_TOP                             IMPT 00000000   5877 11091 11138 11161 11195 11205 11215 11225 11234 11244 11254 11263 
                                                         11387 11421 11425 11619 11623 11658 11669 11678 11711 11733 11740 
_SET1_ACCLAT_TIM1                         IMPT 00000000   3142 
_SET1_AMP100P_VLT                         IMPT 00000000   3176 
_SET1_ARACHK_LNG1                         IMPT 00000000   3157 
_SET1_ATDAT_DOTPOS                        IMPT 00000000   4919 
_SET1_ATSLID_BAKLNG                       IMPT 00000000   4914 
_SET1_ATSLID_COEF1                        IMPT 00000000   4917 
_SET1_ATSLID_COEF2                        IMPT 00000000   4918 
_SET1_ATSLID_DNOBJ1                       IMPT 00000000   4915 
_SET1_ATSLID_UPOBJ1                       IMPT 00000000   4916 
_SET1_BREAK_DIG                           IMPT 00000000   3478 
_SET1_BREAK_TIM1                          IMPT 00000000   3476 
_SET1_CNT_CNT                             IMPT 00000000   3085 
_SET1_CNT_TIM                             IMPT 00000000   3083 
_SET1_DAIHAI_LNG1                         IMPT 00000000   3168 
_SET1_DAIHAI_LNG2                         IMPT 00000000   3169 
_SET1_DAIHAI_LNG3                         IMPT 00000000   3170 
_SET1_DAIHAI_ORG0                         IMPT 00000000   3187 
_SET1_DAIORG0_CMP1DN                      IMPT 00000000   3189 
_SET1_DAIORG0_CMP1UP                      IMPT 00000000   3188 
_SET1_DAIORG0_CMP2DN                      IMPT 00000000   3191 
_SET1_DAIORG0_CMP2UP                      IMPT 00000000   3190 
_SET1_DAIORG0_CMP3DN                      IMPT 00000000   3193 
_SET1_DAIORG0_CMP3UP                      IMPT 00000000   3192 
_SET1_DAIORG0_CMP4DN                      IMPT 00000000   3195 
_SET1_DAIORG0_CMP4UP                      IMPT 00000000   3194 
_SET1_DNAREA_INPX                         IMPT 00000000   3145 
_SET1_DNAREA_INPXPLS                      IMPT 00000000   3149 
_SET1_DNAREA_JUDG                         IMPT 00000000   3119 
_SET1_DNDINC_SPD1                         IMPT 00000000   3128 
_SET1_DND_DIGTOP                          IMPT 00000000   3757 
_SET1_DND_PLSTOP                          IMPT 00000000   3758 
_SET1_DND_STOPDIG_UP                      IMPT 00000000   3756 
_SET1_DND_STOP_SW                         IMPT 00000000   3755 
_SET1_DND_UPPLS                           IMPT 00000000   3759 
_SET1_EJECAM_OFR                          IMPT 00000000   5022 
_SET1_EJECAM_ONR                          IMPT 00000000   5021 
_SET1_ENC360_HOS1                         IMPT 00000000   3159 
_SET1_FULCLS_MXPLS                        IMPT 00000000   3171 
_SET1_INCDIR_SEL1                         IMPT 00000000   3100 
_SET1_INCENC_ELNG                         IMPT 00000000   3162 
_SET1_INCHEN_ELNG                         IMPT 00000000   3161 
_SET1_INCPLS_1REV                         IMPT 00000000   3097 
*** SuperH RISC engine ASSEMBLER V.7.01.02.000 ***    11/14/21 17:24:34                                                  PAGE   111

*** CROSS REFERENCE LIST

NAME                             SECTION  ATTR VALUE             SEQUENCE

_SET1_INCPLS_HOSM                         IMPT 00000000   3102 
_SET1_INCPLS_HOSN                         IMPT 00000000   3101 
_SET1_INCPOS_KP01                         IMPT 00000000   3140 
_SET1_INCREV_ELNG                         IMPT 00000000   3166 
_SET1_INCRNA_ELNG                         IMPT 00000000   3163 
_SET1_INCSTP_ELNG                         IMPT 00000000   3164 
_SET1_INPPOS_TIM1                         IMPT 00000000   3154 
_SET1_INTLIM_AGL                          IMPT 00000000   4944 
_SET1_INTLIM_PLS                          IMPT 00000000   4946 
_SET1_KAJAREA_ENO                         IMPT 00000000   4855 
_SET1_KAJAREA_SEL                         IMPT 00000000   4869 
_SET1_KAJAREA_SNO                         IMPT 00000000   4854 
_SET1_KATTCH_EAG                          IMPT 00000000   4877 
_SET1_KATTCH_SAG                          IMPT 00000000   4876 
_SET1_KATTCH_SPD                          IMPT 00000000   4545 
_SET1_KJEND_DIG1                          IMPT 00000000   3746 
_SET1_KJEND_DIG2                          IMPT 00000000   4858 
_SET1_KJEND_STEP1                         IMPT 00000000   3745 
_SET1_KJSTR_DIG1                          IMPT 00000000   3744 
_SET1_KJSTR_DIG2                          IMPT 00000000   4857 
_SET1_KJSTR_STEP1                         IMPT 00000000   3743 
_SET1_LSAABN_AGL1                         IMPT 00000000   3732 
_SET1_LSAABN_AGL2                         IMPT 00000000   3733 
_SET1_MAX_KJYU                            IMPT 00000000   4188 
_SET1_MISCAM_OFR                          IMPT 00000000   5024 
_SET1_MISCAM_ONR                          IMPT 00000000   5023 
_SET1_MOTMAX_FREQ                         IMPT 00000000   3114 
_SET1_MOTREP_CNT                          IMPT 00000000   5014 
_SET1_MOTREP_SPD                          IMPT 00000000   5013 
_SET1_MOTREP_STGE                         IMPT 00000000   5012 
_SET1_MOTREP_STGS                         IMPT 00000000   5011 
_SET1_MOTREP_USEFUL                       IMPT 00000000   5010 
_SET1_MOTRPM_MAXM                         IMPT 00000000   3104 
_SET1_MRTION_SEL1                         IMPT 00000000   3197 
_SET1_MTSTEP_MAXM                         IMPT 00000000   3198 
_SET1_NEG_OFS_LNG                         IMPT 00000000   3175 
_SET1_OBJARA_INPX                         IMPT 00000000   3146 
_SET1_OBJARA_INPXPLS                      IMPT 00000000   3150 
_SET1_OBJARA_INPXPSX                      IMPT 00000000   3152 
_SET1_OBJECT_DIG_TOP                      IMPT 00000000   3222 
_SET1_OBJECT_PLS_TOP                      IMPT 00000000   3208 
_SET1_OBJECT_POS_TOP                      IMPT 00000000   3203 
_SET1_OBJECT_SPD_TOP                      IMPT 00000000   3211 
_SET1_OBJECT_TIM_TOP                      IMPT 00000000   3215 
_SET1_OBJ_CAM_DIG_TOP                     IMPT 00000000   3256 
_SET1_OVERLIDE_COF                        IMPT 00000000   3867 
_SET1_PLSAHI_PLS                          IMPT 00000000   3783 
_SET1_PLSALO_PLS                          IMPT 00000000   3782 
_SET1_RCAMON_POS_TOP                      IMPT 00000000   3258 
_SET1_RCAMON_TIM_TOP                      IMPT 00000000   3259 
_SET1_REVDAT_SPD1                         IMPT 00000000   3131 
_SET1_REVDAT_SPD2                         IMPT 00000000   3134 
_SET1_REVDAT_SPD3                         IMPT 00000000   3135 
_SET1_RNADIR_SEL1                         IMPT 00000000   3099 
*** SuperH RISC engine ASSEMBLER V.7.01.02.000 ***    11/14/21 17:24:34                                                  PAGE   112

*** CROSS REFERENCE LIST

NAME                             SECTION  ATTR VALUE             SEQUENCE

_SET1_RNAORG_POS1                         IMPT 00000000   3115 
_SET1_RNAPOS_KP01                         IMPT 00000000   3141 
_SET1_RNAPOS_MAXP                         IMPT 00000000   3116 
_SET1_RNAPOS_MINP                         IMPT 00000000   3117 
_SET1_RNAREV_ELNG                         IMPT 00000000   3167 
_SET1_RNASTP_ELNG                         IMPT 00000000   3165 
_SET1_ROTCAM_OFR                          IMPT 00000000   5020 
_SET1_ROTCAM_ONR                          IMPT 00000000   5019 
_SET1_RPARAM_TOP1                         IMPT 00000000   3093 
_SET1_SSCURV_TIM1                         IMPT 00000000   3143 
_SET1_STDINC_SPD1                         IMPT 00000000   3130 
_SET1_TEPCTL_SPD1                         IMPT 00000000   3790 
_SET1_TEPLAT_DAT1                         IMPT 00000000   3137 
_SET1_TEPLAT_DAT2                         IMPT 00000000   3138 
_SET1_UPAREA_DIG0                         IMPT 00000000   3221 
_SET1_UPAREA_DIG1                         IMPT 00000000   3158 
_SET1_UPAREA_INPX                         IMPT 00000000   3144 
_SET1_UPAREA_INPXPLS                      IMPT 00000000   3148 
_SET1_UPAREA_JUDG                         IMPT 00000000   3118 
_SET1_UPAREA_PLS0                         IMPT 00000000   3206 
_SET1_UPAREA_PLS1                         IMPT 00000000   3207 
_SET1_UPAREA_POS0                         IMPT 00000000   3202 
_SET1_UPAREA_POS1                         IMPT 00000000   3038 
_SET1_UPAREA_SPD0                         IMPT 00000000   3210 
_SET1_UPAREA_SPD1                         IMPT 00000000   3129 
_SET1_UPAREA_TIM0                         IMPT 00000000   3214 
_SET1_UPCLEEP_SPD                         IMPT 00000000   3132 
_SET1_VIB_KJYU_TTL                        IMPT 00000000   4187 
_SET2_INTLIM_AGL                          IMPT 00000000   4945 
_SET2_INTLIM_PLS                          IMPT 00000000   4947 
_SET360_UPAREA_DIG1                       IMPT 00000000   4043 
_SET360_UPAREA_PLS1                       IMPT 00000000   4044 
_SETC_KJEND_DIG1                          IMPT 00000000   4126 
_SETC_KJEND_DIG2                          IMPT 00000000   4865 
_SETC_KJSTR_DIG1                          IMPT 00000000   4125 
_SETC_KJSTR_DIG2                          IMPT 00000000   4864 
_SETD_DEGSPD_MAX                          IMPT 00000000   3294 
_SETD_LINK_MAX_SPD_PLS                    IMPT 00000000   4236 
_SETD_MOTRPM_MAXM                         IMPT 00000000   4237 
_SETXY_LINK_UP_POS_DN                     IMPT 00000000   4107 
_SETXY_LINK_UP_POS_UP                     IMPT 00000000   4106 
_SETXY_UPAREA_DIG                         IMPT 00000000   4102 
_SETXY_UPAREA_PLS                         IMPT 00000000   4101 
_SETX_ACCERR_DLY1                         IMPT 00000000   4444 
_SETX_ACCERR_ERR3DAT                      IMPT 00000000   4439 
_SETX_ACCERR_SEL                          IMPT 00000000   4449 
_SETX_BANK_USELFUL                        IMPT 00000000   3656 
_SETX_BREAK_DIG2                          IMPT 00000000   4172 
_SETX_BREAK_TIM2                          IMPT 00000000   4173 
_SETX_DAIPOS_MAXP                         IMPT 00000000   3124 
_SETX_DAIPOS_MINP                         IMPT 00000000   3125 
_SETX_DNAREA_JG_LNK                       IMPT 00000000   3120 
_SETX_DNAREA_JG_PLS                       IMPT 00000000   3121 
_SETX_FULCLS_AREA_DIG                     IMPT 00000000   3063 
*** SuperH RISC engine ASSEMBLER V.7.01.02.000 ***    11/14/21 17:24:34                                                  PAGE   113

*** CROSS REFERENCE LIST

NAME                             SECTION  ATTR VALUE             SEQUENCE

_SETX_FULCLS_AREA_PLS                     IMPT 00000000   3064 
_SETX_FULCLS_MATEHD_SW                    IMPT 00000000   4822 
_SETX_HOLD_CMP1_DEG                       IMPT 00000000   4456 
_SETX_INCPLS_HOSM                         IMPT 00000000   3103 
_SETX_KJEND_DIG1                          IMPT 00000000   4121 
_SETX_KJEND_DIG2                          IMPT 00000000   4861 
_SETX_KJSTR_DIG1                          IMPT 00000000   4120 
_SETX_KJSTR_DIG2                          IMPT 00000000   4860 
_SETX_KJYUCLS_OBJ                         IMPT 00000000   4824 
_SETX_KJYU_INCPOS_KP01                    IMPT 00000000   5114 
_SETX_LINK_UP_POS_DN                      IMPT 00000000   2701 
_SETX_LINK_UP_POS_UP                      IMPT 00000000   2700 
_SETX_MAX_ACC_LATE                        IMPT 00000000   4433 
_SETX_MOTREP_DIR                          IMPT 00000000   5028 
_SETX_OUTPLS_HOSA                         IMPT 00000000   3111 
_SETX_OUTPLS_HOSB                         IMPT 00000000   3112 
_SETX_OVERH_AMP                           IMPT 00000000   4675 
_SETX_OVERH_LNGTH                         IMPT 00000000   4674 
_SETX_POS_CTL_MATH                        IMPT 00000000   2734 
_SETX_POS_MOD_FLG1                        IMPT 00000000   2733 
_SETX_POS_SDAT1_CNTSTEP                   IMPT 00000000   2725 
_SETX_POS_SDAT1_INF1                      IMPT 00000000   2726 
_SETX_POS_SDAT1_OFSPOS                    IMPT 00000000   2722 
_SETX_POS_SDAT1_SPD                       IMPT 00000000   2723 
_SETX_POS_SDAT1_TIM                       IMPT 00000000   2724 
_SETX_POS_SDAT2_INF1                      IMPT 00000000   2732 
_SETX_POS_SDAT2_OFSPOS                    IMPT 00000000   2728 
_SETX_POS_STEP_MAX                        IMPT 00000000   2735 
_SETX_RNA_ACC_BEFTIM                      IMPT 00000000   4489 
_SETX_RNA_ACC_CHKPOS                      IMPT 00000000   4490 
_SETX_SDAT1_INTLIMOFS                     IMPT 00000000   4948 
_SETX_SDAT2_INTLIMOFS                     IMPT 00000000   4949 
_SETX_UPAREA_DIG                          IMPT 00000000   3036 
_SETX_UPAREA_PLS                          IMPT 00000000   3034 
_SETX_UPAREA_RNA                          IMPT 00000000   3035 
_SETX_UPDN_CHK_DN_DIG                     IMPT 00000000   3051 
_SETX_UPDN_CHK_DN_PLS                     IMPT 00000000   3053 
_SETX_UPDN_CHK_UP_DIG                     IMPT 00000000   3050 
_SETX_UPDN_CHK_UP_PLS                     IMPT 00000000   3052 
_SETX_UPERR_ERRCMPDAT                     IMPT 00000000   4455 
_SETY_INCPLS_HOSM0001                     IMPT 00000000   3109 
_SETY_INCPLS_HOSM001                      IMPT 00000000   3108 
_SETY_INCPLS_HOSM01X                      IMPT 00000000   3107 
_SETY_INCPLS_HOSM1XX                      IMPT 00000000   3106 
_SETY_KJEND_DIG1                          IMPT 00000000   4123 
_SETY_KJEND_DIG2                          IMPT 00000000   4863 
_SETY_KJSTR_DIG1                          IMPT 00000000   4122 
_SETY_KJSTR_DIG2                          IMPT 00000000   4862 
_SETY_SDAT1_INTLIMOFS                     IMPT 00000000   4951 
_SETY_SDAT2_INTLIMOFS                     IMPT 00000000   4952 
_SET_ACC_OVRLIDE                          IMPT 00000000   3878 
_SET_CLSINC_SPDBAS_PLS                    IMPT 00000000   3846 
_SET_CLS_SPDBAS_PLS                       IMPT 00000000   3844 
_SET_DN_ACC_LATE                          IMPT 00000000   3895 
*** SuperH RISC engine ASSEMBLER V.7.01.02.000 ***    11/14/21 17:24:34                                                  PAGE   114

*** CROSS REFERENCE LIST

NAME                             SECTION  ATTR VALUE             SEQUENCE

_SET_GMN_ACC_OVRLIDE                      IMPT 00000000   3870 
_SET_GMN_SPD_OVRLIDE                      IMPT 00000000   3869 
_SET_SEQ_ACC_OVRLIDE                      IMPT 00000000   3858 
_SET_SEQ_SPD_OVRLIDE                      IMPT 00000000   3857 
_SET_SPDBAS_PLS                           IMPT 00000000   3845 
_SET_SPD_OVRLIDE                          IMPT 00000000   3877 
_SET_UP_ACC_LATE                          IMPT 00000000   3894 
_SET_UP_TIM                               IMPT 00000000   2659 
_SFTYCHK_CLANK_DEG                        IMPT 00000000   5180 
_SFTYCHK_LINK_PLS                         IMPT 00000000   5181 
_SFTYCHK_RNA_POS                          IMPT 00000000   3374 
_SFTY_CTL_IN_DAT                          IMPT 00000000   2553 
_SFTY_IN_DAT                              IMPT 00000000   2552 
_SFTY_LOCK_DLYTM                          IMPT 00000000   3977 
_SH2_ADD_PLS                              IMPT 00000000   5716 
_SH2_AD_DATA                              IMPT 00000000   5928 
_SH2_BAS_FRQ_SV                           IMPT 00000000   5677 
_SH2_CMP_STS1                             IMPT 00000000   5587 
_SH2_CMP_STS2                             IMPT 00000000   5589 
_SH2_CNT_REST_HF                          IMPT 00000000   5688 
_SH2_CNT_REST_PLS                         IMPT 00000000   5672 
_SH2_DBG_KAGEN                            IMPT 00000000   5930 
_SH2_DNM_CALC_INFO                        IMPT 00000000   5851 
_SH2_GPOINT_LNG                           IMPT 00000000   5532 
_SH2_GPOINT_LNGDSP                        IMPT 00000000   5534 
_SH2_GPOINT_SPDDSP                        IMPT 00000000   5536 
_SH2_HD_CNT_CNT                           IMPT 00000000   5607 
_SH2_HD_CNT_STOP                          IMPT 00000000   5603 
_SH2_HD_CTRL_BUSY                         IMPT 00000000   5595 
_SH2_HD_CTRL_REDY                         IMPT 00000000   5593 
_SH2_HD_HLDSTOP1                          IMPT 00000000   5835 
_SH2_HD_HLDSTOP2                          IMPT 00000000   5838 
_SH2_HD_NEAR_ZERO                         IMPT 00000000   5601 
_SH2_HD_POS_START                         IMPT 00000000   5597 
_SH2_HD_SFTY_AUTO                         IMPT 00000000   5599 
_SH2_HD_STEP_END                          IMPT 00000000   5605 
_SH2_LNGH_ADD_SR                          IMPT 00000000   5673 
_SH2_LOT_CNT_A                            IMPT 00000000   5684 
_SH2_LOT_STEP_A                           IMPT 00000000   5685 
_SH2_MAIN_CLK                             IMPT 00000000   5929 
_SH2_NOW_FRQ_PV                           IMPT 00000000   5679 
_SH2_NOW_STEP                             IMPT 00000000   5723 
_SH2_OBJ_ENC360                           IMPT 00000000   5845 
_SH2_PDOWN_FLG                            IMPT 00000000   5927 
_SH2_PLSI_ACCS                            IMPT 00000000   5681 
_SH2_PLSI_LATE                            IMPT 00000000   5682 
_SH2_POS_STS1                             IMPT 00000000   5585 
_SH2_PV_ENC_SPD_PER                       IMPT 00000000   5847 
_SH2_PV_OUT_SPD_PER                       IMPT 00000000   5846 
_SH2_REST_PLS_RL                          IMPT 00000000   5675 
_SH2_REST_PLS_SR                          IMPT 00000000   5674 
_SH2_REST_RL_HF                           IMPT 00000000   5687 
_SH2_REST_SR_HF                           IMPT 00000000   5686 
_SH2_SCAN_AVLMAX                          IMPT 00000000   5941 
*** SuperH RISC engine ASSEMBLER V.7.01.02.000 ***    11/14/21 17:24:34                                                  PAGE   115

*** CROSS REFERENCE LIST

NAME                             SECTION  ATTR VALUE             SEQUENCE

_SH2_SCAN_AVLPV                           IMPT 00000000   5942 
_SH2_SCAN_REALMAX                         IMPT 00000000   5940 
_SH2_STEP1_FRQ                            IMPT 00000000   5705 
_SH2_STEP1_PV_PLS                         IMPT 00000000   5695 
_SH2_STEP1_REST_P                         IMPT 00000000   5700 
_SH2_STEP1_SV_PLS                         IMPT 00000000   5690 
_SH2_STEP1_TIM                            IMPT 00000000   5710 
_SH2_STEP2_FRQ                            IMPT 00000000   5706 
_SH2_STEP2_PV_PLS                         IMPT 00000000   5696 
_SH2_STEP2_REST_P                         IMPT 00000000   5701 
_SH2_STEP2_SV_PLS                         IMPT 00000000   5691 
_SH2_STEP2_TIM                            IMPT 00000000   5711 
_SH2_STEP3_FRQ                            IMPT 00000000   5707 
_SH2_STEP3_PV_PLS                         IMPT 00000000   5697 
_SH2_STEP3_REST_P                         IMPT 00000000   5702 
_SH2_STEP3_SV_PLS                         IMPT 00000000   5692 
_SH2_STEP3_TIM                            IMPT 00000000   5712 
_SH2_STEP4_FRQ                            IMPT 00000000   5708 
_SH2_STEP4_PV_PLS                         IMPT 00000000   5698 
_SH2_STEP4_REST_P                         IMPT 00000000   5703 
_SH2_STEP4_SV_PLS                         IMPT 00000000   5693 
_SH2_STEP4_TIM                            IMPT 00000000   5713 
_SH2_STEP5_FRQ                            IMPT 00000000   5709 
_SH2_STEP5_PV_PLS                         IMPT 00000000   5699 
_SH2_STEP5_REST_P                         IMPT 00000000   5704 
_SH2_STEP5_SV_PLS                         IMPT 00000000   5694 
_SH2_STEP5_TIM                            IMPT 00000000   5714 
_SH2_STEP_FRQ                             IMPT 00000000   5721 
_SH2_STEP_NO                              IMPT 00000000   5578 
_SH2_STEP_PV_PLS                          IMPT 00000000   5719 
_SH2_STEP_REST_P                          IMPT 00000000   5720 
_SH2_STEP_SV_PLS                          IMPT 00000000   5718 
_SH2_STEP_TIM                             IMPT 00000000   5722 
_SH2_TOP_FRQ_SV                           IMPT 00000000   5678 
_SH2_TOTAL_PLS                            IMPT 00000000   5715 
_SH2_VLV_SIG                              IMPT 00000000   5842 
_SH2toSH4_TEPSIG                          IMPT 00000000   5539 
_SH4_ADD_PLS                              IMPT 00000000   5664 
_SH4_BAS_FRQ_SV                           IMPT 00000000   5625 
_SH4_CMP_STS1                             IMPT 00000000   5586 
_SH4_CMP_STS2                             IMPT 00000000   5588 
_SH4_CNT_REST_HF                          IMPT 00000000   5636 
_SH4_CNT_REST_PLS                         IMPT 00000000   5621 
_SH4_DNM_CALC_INFO                        IMPT 00000000   5850 
_SH4_GPOINT_LNG                           IMPT 00000000   5531 
_SH4_GPOINT_LNGDSP                        IMPT 00000000   5533 
_SH4_GPOINT_SPDDSP                        IMPT 00000000   5535 
_SH4_HD_CNT_CNT                           IMPT 00000000   5606 
_SH4_HD_CNT_STOP                          IMPT 00000000   5602 
_SH4_HD_CTRL_BUSY                         IMPT 00000000   5594 
_SH4_HD_CTRL_REDY                         IMPT 00000000   5592 
_SH4_HD_HLDSTOP1                          IMPT 00000000   5834 
_SH4_HD_HLDSTOP2                          IMPT 00000000   5837 
_SH4_HD_NEAR_ZERO                         IMPT 00000000   5600 
*** SuperH RISC engine ASSEMBLER V.7.01.02.000 ***    11/14/21 17:24:34                                                  PAGE   116

*** CROSS REFERENCE LIST

NAME                             SECTION  ATTR VALUE             SEQUENCE

_SH4_HD_POS_START                         IMPT 00000000   5596 
_SH4_HD_SFTY_AUTO                         IMPT 00000000   5598 
_SH4_HD_STEP_END                          IMPT 00000000   5604 
_SH4_LNGH_ADD_SR                          IMPT 00000000   5622 
_SH4_LOT_CNT_A                            IMPT 00000000   5632 
_SH4_LOT_STEP_A                           IMPT 00000000   5633 
_SH4_NOW_FRQ_PV                           IMPT 00000000   5627 
_SH4_NOW_STEP                             IMPT 00000000   5670 
_SH4_ORG_DIR_REV                          IMPT 00000000   5515 
_SH4_PDOWN_FLG                            IMPT 00000000   5954 
_SH4_PLSI_ACCS                            IMPT 00000000   5629 
_SH4_PLSI_LATE                            IMPT 00000000   5630 
_SH4_POS_STS1                             IMPT 00000000   5584 
_SH4_REST_PLS_RL                          IMPT 00000000   5624 
_SH4_REST_PLS_SR                          IMPT 00000000   5623 
_SH4_REST_RL_HF                           IMPT 00000000   5635 
_SH4_REST_SR_HF                           IMPT 00000000   5634 
_SH4_STEP1_FRQ                            IMPT 00000000   5653 
_SH4_STEP1_PV_PLS                         IMPT 00000000   5643 
_SH4_STEP1_REST_P                         IMPT 00000000   5648 
_SH4_STEP1_SV_PLS                         IMPT 00000000   5638 
_SH4_STEP1_TIM                            IMPT 00000000   5658 
_SH4_STEP2_FRQ                            IMPT 00000000   5654 
_SH4_STEP2_PV_PLS                         IMPT 00000000   5644 
_SH4_STEP2_REST_P                         IMPT 00000000   5649 
_SH4_STEP2_SV_PLS                         IMPT 00000000   5639 
_SH4_STEP2_TIM                            IMPT 00000000   5659 
_SH4_STEP3_FRQ                            IMPT 00000000   5655 
_SH4_STEP3_PV_PLS                         IMPT 00000000   5645 
_SH4_STEP3_REST_P                         IMPT 00000000   5650 
_SH4_STEP3_SV_PLS                         IMPT 00000000   5640 
_SH4_STEP3_TIM                            IMPT 00000000   5660 
_SH4_STEP4_FRQ                            IMPT 00000000   5656 
_SH4_STEP4_PV_PLS                         IMPT 00000000   5646 
_SH4_STEP4_REST_P                         IMPT 00000000   5651 
_SH4_STEP4_SV_PLS                         IMPT 00000000   5641 
_SH4_STEP4_TIM                            IMPT 00000000   5661 
_SH4_STEP5_FRQ                            IMPT 00000000   5657 
_SH4_STEP5_PV_PLS                         IMPT 00000000   5647 
_SH4_STEP5_REST_P                         IMPT 00000000   5652 
_SH4_STEP5_SV_PLS                         IMPT 00000000   5642 
_SH4_STEP5_TIM                            IMPT 00000000   5662 
_SH4_STEP_FRQ                             IMPT 00000000   5668 
_SH4_STEP_NO                              IMPT 00000000   5577 
_SH4_STEP_PV_PLS                          IMPT 00000000   5666 
_SH4_STEP_REST_P                          IMPT 00000000   5667 
_SH4_STEP_SV_PLS                          IMPT 00000000   5665 
_SH4_STEP_TIM                             IMPT 00000000   5669 
_SH4_TOP_FRQ_SV                           IMPT 00000000   5626 
_SH4_TOTAL_PLS                            IMPT 00000000   5663 
_SH4_VLV_SIG                              IMPT 00000000   5841 
_SH4toSH2_TEPSIG                          IMPT 00000000   5538 
_SHOT_MOST_DOWN_POS                       IMPT 00000000   4006 
_SHOT_MOST_DOWN_POSWK                     IMPT 00000000   4007 
*** SuperH RISC engine ASSEMBLER V.7.01.02.000 ***    11/14/21 17:24:34                                                  PAGE   117

*** CROSS REFERENCE LIST

NAME                             SECTION  ATTR VALUE             SEQUENCE

_SH_CNTSTOP_FLG                           IMPT 00000000   5556 
_SH_OUTPLS_DELT                           IMPT 00000000   5557 
_SH_POSCTL_ACC                            IMPT 00000000   5544 
_SH_POSCTL_CAL_REST                       IMPT 00000000   5550 
_SH_POSCTL_HENSA                          IMPT 00000000   5551 
_SH_POSCTL_LSIFREQ                        IMPT 00000000   5552 
_SH_POSCTL_OFS                            IMPT 00000000   5545 
_SH_POSCTL_PV_ABSPLS                      IMPT 00000000   5548 
_SH_POSCTL_REST_PLS                       IMPT 00000000   5549 
_SH_POSCTL_RL_ABSPLS                      IMPT 00000000   5547 
_SH_POSCTL_RL_SPD                         IMPT 00000000   5543 
_SH_POSCTL_SV_ABSPLS                      IMPT 00000000   5546 
_SH_POSCTL_SV_SPD                         IMPT 00000000   5542 
_SH_SQ200_IN                              IMPT 00000000   5555 
_SINKAKU_INF                              IMPT 00000000   3275 
_SINKAKU_ROTCAM_ENBSEL                    IMPT 00000000   3277 
_SINKAKU_ROTCAM_ENBSEL_WK                 IMPT 00000000   3276 
_SINKAKU_USESEL_OF_INF                    IMPT 00000000   3279 
_SINKAKU_USESEL_ON_INF                    IMPT 00000000   3278 
_SINWK_CALC_SCAN                          IMPT 00000000   3287 
_SIN_RCAMOF_SW1                           IMPT 00000000   3303 
_SIN_RCAMON_SW1                           IMPT 00000000   3302 
_SIN_RCAM_OF_DIG                          IMPT 00000000   3282 
_SIN_RCAM_OF_ERR1                         IMPT 00000000   3306 
_SIN_RCAM_ON_DIG                          IMPT 00000000   3281 
_SIN_RCAM_ON_ERR1                         IMPT 00000000   3305 
_SLIDALM_CHK_FLG                          IMPT 00000000   4364 
_SLIDALM_CHK_POS                          IMPT 00000000   4366 
_SLIDALM_CHK_TIM                          IMPT 00000000   4365 
_SLIDALM_POS_MINAS                        IMPT 00000000   4368 
_SLIDALM_POS_PULAS                        IMPT 00000000   4367 
_SPD_PER_MAX                              EQU  00002710   1999*
_SPLCHK_FLG                               IMPT 00000000   4998 
_SPLCHK_TIM                               IMPT 00000000   4999 
_SPL_ERR_INIT_WAIT_TIM                    IMPT 00000000   5071 
_SQ_OVERH_CMP                             IMPT 00000000   4677 
_SQ_RNA_ALMRST_OLD                        IMPT 00000000   4026 
_START_ACK_COD                            EQU  00004321    213*
_START_FLG_AFTER_EMG                      IMPT 00000000   3356 
_START_REQ_COD                            EQU  00009876    212*
_STEP_CMPERR_TIMX1                        IMPT 00000000   5333 
_STOPCHK_INC_POS                          IMPT 00000000   3240 
_STOPCHK_RNA_POS                          IMPT 00000000   3239 
_STOPPING_STOP_POS                        IMPT 00000000   2637 
_STOPPING_STOP_TIM                        IMPT 00000000   2639 
_STOPPING_TIM_FLG                         IMPT 00000000   2638 
_STOPPING_TIM_PV1                         IMPT 00000000   2640 
_STOPPING_TIM_PV2                         IMPT 00000000   2641 
_STOPPING_VLVOFF_POS                      IMPT 00000000   2636 
_STOP_360ENC_DIG                          IMPT 00000000   4059 
_STOP_ERR_LATCH                           IMPT 00000000   3477 
_STOP_LATCH                               IMPT 00000000   2619 
_STOP_LATCH_B                             IMPT 00000000   2620 
_STOP_LATCH_CHK_TIM                       IMPT 00000000   2870 
*** SuperH RISC engine ASSEMBLER V.7.01.02.000 ***    11/14/21 17:24:34                                                  PAGE   118

*** CROSS REFERENCE LIST

NAME                             SECTION  ATTR VALUE             SEQUENCE

_STOP_LATCH_ENCPOS                        IMPT 00000000   2868 
_STOP_LATCH_OUTPLS                        IMPT 00000000   2867 
_STOP_LATCH_RNAPOS                        IMPT 00000000   2869 
_STR_ENC3600_DIG                          IMPT 00000000   2787 
_STR_ENC3600_DIG_LNG                      IMPT 00000000   2788 
_SVB_ARA1_KAJ_T2                          IMPT 00000000   6026 
_SVB_BAKORG_PLS1                          IMPT 00000000   6017 
_SVB_BAKORG_PLS2                          IMPT 00000000   6018 
_SVB_DYHITO_POS                           IMPT 00000000   6014 
_SVB_RENIA_BUP1                           IMPT 00000000   6020 
_SVB_RENIA_BUP2                           IMPT 00000000   6021 
_SVB_RENIA_BUP3                           IMPT 00000000   6022 
_SVB_RENIA_BUP4                           IMPT 00000000   6023 
_SVB_RNAORG_PLS1                          IMPT 00000000   6012 
_SVB_SLIDE_POS                            IMPT 00000000   6015 
_SVCHK_SCAN                               IMPT 00000000   4696 
_SVOP2_WAIT_ANSA                          IMPT 00000000   5769 
_SVOP2_WAIT_ANSB                          IMPT 00000000   5770 
_SVPX_UPAREA_DIG1                         IMPT 00000000   3225 
_SVP_ACCLAT_TIM1                          IMPT 00000000   6064 
_SVP_ACCLAT_TIMP                          IMPT 00000000   6487 
_SVP_AMP100P_VLT                          IMPT 00000000   6111 
_SVP_AMPERR_TIM1                          IMPT 00000000   6085 
_SVP_AMPERR_TIM2                          IMPT 00000000   6087 
_SVP_AMPERR_TIM3                          IMPT 00000000   6089 
_SVP_AMPERR_VLT1                          IMPT 00000000   6084 
_SVP_AMPERR_VLT2                          IMPT 00000000   6086 
_SVP_AMPERR_VLT3                          IMPT 00000000   6088 
_SVP_ARACHK_LNG1                          IMPT 00000000   6070 
_SVP_ATCOL_CYC                            IMPT 00000000   6164 
_SVP_ATCOL_SPAG                           IMPT 00000000   6168 
_SVP_ATCOL_SPNO                           IMPT 00000000   6167 
_SVP_ATCOL_STAG                           IMPT 00000000   6166 
_SVP_ATCOL_STNO                           IMPT 00000000   6165 
_SVP_ATSLID_BAKLNG                        IMPT 00000000   6347 
_SVP_ATSLID_COEF1                         IMPT 00000000   6348 
_SVP_ATSLID_DNOBJ1                        IMPT 00000000   6345 
_SVP_ATSLID_OBJ1                          IMPT 00000000   6344 
_SVP_ATSLID_UPOBJ1                        IMPT 00000000   6346 
_SVP_BREAK_DIG                            IMPT 00000000   6094 
_SVP_BREAK_DIG_RAT                        IMPT 00000000   6189 
_SVP_BREAK_TIM1                           IMPT 00000000   6095 
_SVP_BREAK_TIM_RAT                        IMPT 00000000   6190 
_SVP_CAMFUN_SEL00                         IMPT 00000000   6326 
_SVP_CAMFUN_SEL01                         IMPT 00000000   6327 
_SVP_CAMFUN_SEL02                         IMPT 00000000   6328 
_SVP_CAMFUN_SEL03                         IMPT 00000000   6329 
_SVP_CAMFUN_SEL04                         IMPT 00000000   6330 
_SVP_CAMFUN_SEL05                         IMPT 00000000   6331 
_SVP_CAMFUN_SEL06                         IMPT 00000000   6332 
_SVP_CAMFUN_SEL07                         IMPT 00000000   6333 
_SVP_CAMFUN_SEL08                         IMPT 00000000   6334 
_SVP_CAMFUN_SEL09                         IMPT 00000000   6335 
_SVP_CAMFUN_SEL0A                         IMPT 00000000   6336 
*** SuperH RISC engine ASSEMBLER V.7.01.02.000 ***    11/14/21 17:24:34                                                  PAGE   119

*** CROSS REFERENCE LIST

NAME                             SECTION  ATTR VALUE             SEQUENCE

_SVP_CAMFUN_SEL0B                         IMPT 00000000   6337 
_SVP_CAMFUN_SEL0C                         IMPT 00000000   6338 
_SVP_CAMFUN_SEL0D                         IMPT 00000000   6339 
_SVP_CAMFUN_SEL0E                         IMPT 00000000   6340 
_SVP_CAMFUN_SEL0F                         IMPT 00000000   6341 
_SVP_CAMFUN_SEL_TOP                       IMPT 00000000   6325 
_SVP_CNT_CNT                              IMPT 00000000   6093 
_SVP_CNT_TIM                              IMPT 00000000   6092 
_SVP_DAIHAI_LNG1                          IMPT 00000000   6080 
_SVP_DAIHAI_LNG2                          IMPT 00000000   6081 
_SVP_DAIHAI_LNG3                          IMPT 00000000   6082 
_SVP_DAIHAI_ORG0                          IMPT 00000000   6289 
_SVP_DAIHSA_LENG                          IMPT 00000000   6300 
_SVP_DANSAM_LEN                           IMPT 00000000   6430 
_SVP_DEB_ADR0                             IMPT 00000000   6831 
_SVP_DEB_ADR1                             IMPT 00000000   6832 
_SVP_DEB_ADR2                             IMPT 00000000   6833 
_SVP_DEB_ADR3                             IMPT 00000000   6834 
_SVP_DEB_ADR4                             IMPT 00000000   6835 
_SVP_DEB_SEL0                             IMPT 00000000   6837 
_SVP_DEB_SEL1                             IMPT 00000000   6838 
_SVP_DEB_SEL2                             IMPT 00000000   6839 
_SVP_DEB_SEL3                             IMPT 00000000   6840 
_SVP_DEB_SEL4                             IMPT 00000000   6841 
_SVP_DNAREA_INP0                          IMPT 00000000   6298 
_SVP_DNAREA_INP1                          IMPT 00000000   6067 
_SVP_DNAREA_JUDG                          IMPT 00000000   6048 
_SVP_DNDATA_A21                           IMPT 00000000   7082 
_SVP_DNDINC_SPD1                          IMPT 00000000   6052 
_SVP_DND_STOPDIG1                         IMPT 00000000   6372 
_SVP_DNSTOP_A21                           IMPT 00000000   7085 
_SVP_ECOM_BASE                            IMPT 00000000   6484 
_SVP_ECOM_SCAL                            IMPT 00000000   6485 
_SVP_EJECAM_OFR                           IMPT 00000000   7200 
_SVP_EJECAM_ONR                           IMPT 00000000   7199 
_SVP_EP_ADJSIN                            IMPT 00000000   6482 
_SVP_EP_ADJVAL                            IMPT 00000000   6483 
_SVP_EP_K1                                IMPT 00000000   6480 
_SVP_EP_K2                                IMPT 00000000   6481 
_SVP_EP_LTM                               IMPT 00000000   6479 
_SVP_EP_TRQ                               IMPT 00000000   6478 
_SVP_EP_VMX                               IMPT 00000000   6477 
_SVP_EP_VOF                               IMPT 00000000   6476 
_SVP_FCLS_STR_DEG                         IMPT 00000000   6458 
_SVP_FCLS_STR_HENS                        IMPT 00000000   6459 
_SVP_FCLS_ZIKI_SPD1                       IMPT 00000000   6460 
_SVP_FCLS_ZIKI_SPD2                       IMPT 00000000   6461 
_SVP_GENITI_A21                           IMPT 00000000   7083 
_SVP_GMNSEQ_CNT01                         IMPT 00000000   6307 
_SVP_GMNSEQ_CNT02                         IMPT 00000000   6308 
_SVP_GMNSEQ_CNT03                         IMPT 00000000   6309 
_SVP_GMNSEQ_CNT04                         IMPT 00000000   6310 
_SVP_GMNSEQ_CNT05                         IMPT 00000000   6311 
_SVP_GMNSEQ_CNT06                         IMPT 00000000   6312 
*** SuperH RISC engine ASSEMBLER V.7.01.02.000 ***    11/14/21 17:24:34                                                  PAGE   120

*** CROSS REFERENCE LIST

NAME                             SECTION  ATTR VALUE             SEQUENCE

_SVP_GMNSEQ_CNT07                         IMPT 00000000   6313 
_SVP_GMNSEQ_CNT08                         IMPT 00000000   6314 
_SVP_GMNSEQ_TIM01                         IMPT 00000000   6316 
_SVP_GMNSEQ_TIM02                         IMPT 00000000   6317 
_SVP_GMNSEQ_TIM03                         IMPT 00000000   6318 
_SVP_GMNSEQ_TIM04                         IMPT 00000000   6319 
_SVP_GMNSEQ_TIM05                         IMPT 00000000   6320 
_SVP_GMNSEQ_TIM06                         IMPT 00000000   6321 
_SVP_GMNSEQ_TIM07                         IMPT 00000000   6322 
_SVP_GMNSEQ_TIM08                         IMPT 00000000   6323 
_SVP_HOSEI_SPD                            IMPT 00000000   6428 
_SVP_HOSRAG_PLS1                          IMPT 00000000   6426 
_SVP_HOSRAG_PLS2                          IMPT 00000000   6427 
_SVP_INCDIR_SEL1                          IMPT 00000000   6037 
_SVP_INCENC_ELNG                          IMPT 00000000   6074 
_SVP_INCHEN_ELNG                          IMPT 00000000   6073 
_SVP_INCPLS_1REV                          IMPT 00000000   6038 
_SVP_INCPLS_HOSM                          IMPT 00000000   6040 
_SVP_INCPLS_HOSN                          IMPT 00000000   6039 
_SVP_INCPOS_KP01                          IMPT 00000000   6062 
_SVP_INCREV_ELNG                          IMPT 00000000   6078 
_SVP_INCRNA_ELNG                          IMPT 00000000   6075 
_SVP_INCSTP_ELNG                          IMPT 00000000   6076 
_SVP_INPPOS_TIM1                          IMPT 00000000   6069 
_SVP_INTLIM_AGL                           IMPT 00000000   7119 
_SVP_INTLIM_POS                           IMPT 00000000   7120 
_SVP_INTLIM_SNO                           IMPT 00000000   7118 
_SVP_KAJAREA_EAG                          IMPT 00000000   7072 
_SVP_KAJAREA_ENO                          IMPT 00000000   7071 
_SVP_KAJAREA_SAG                          IMPT 00000000   7070 
_SVP_KAJAREA_SEL                          IMPT 00000000   7073 
_SVP_KAJAREA_SNO                          IMPT 00000000   7069 
_SVP_KAJOBJ_HAB                           IMPT 00000000   7115 
_SVP_KAJYUU_OBJP                          IMPT 00000000   6360 
_SVP_KAJYUU_PRS1                          IMPT 00000000   6359 
_SVP_KAJYUU_PV1                           IMPT 00000000   6361 
_SVP_KANDO_A21                            IMPT 00000000   7080 
_SVP_KATTCH_EAG                           IMPT 00000000   7077 
_SVP_KATTCH_SAG                           IMPT 00000000   7076 
_SVP_KATTCH_SPD                           IMPT 00000000   5970 
_SVP_KJEND_DIG1                           IMPT 00000000   6378 
_SVP_KJEND_STEP1                          IMPT 00000000   6377 
_SVP_KJSTR_DIG1                           IMPT 00000000   6376 
_SVP_KJSTR_STEP1                          IMPT 00000000   6375 
_SVP_LSAABN_AGL1                          IMPT 00000000   6114 
_SVP_LSAABN_AGL2                          IMPT 00000000   6115 
_SVP_MACINE_SEL1                          IMPT 00000000   6107 
_SVP_MANSAMER_PLS                         IMPT 00000000   6433 
_SVP_MANSAM_LEN                           IMPT 00000000   6429 
_SVP_MAX_KJYU                             IMPT 00000000   6191 
_SVP_MISCAM_OFR                           IMPT 00000000   7202 
_SVP_MISCAM_ONR                           IMPT 00000000   7201 
_SVP_MOADR0_SQH                           IMPT 00000000   6126 
_SVP_MOADR0_SQL                           IMPT 00000000   6127 
*** SuperH RISC engine ASSEMBLER V.7.01.02.000 ***    11/14/21 17:24:34                                                  PAGE   121

*** CROSS REFERENCE LIST

NAME                             SECTION  ATTR VALUE             SEQUENCE

_SVP_MOADR1_SQH                           IMPT 00000000   6128 
_SVP_MOADR1_SQL                           IMPT 00000000   6129 
_SVP_MOADR2_SQH                           IMPT 00000000   6130 
_SVP_MOADR2_SQL                           IMPT 00000000   6131 
_SVP_MOADR3_SQH                           IMPT 00000000   6132 
_SVP_MOADR3_SQL                           IMPT 00000000   6133 
_SVP_MOADR4_SQH                           IMPT 00000000   6134 
_SVP_MOADR4_SQL                           IMPT 00000000   6135 
_SVP_MOADR5_SQH                           IMPT 00000000   6136 
_SVP_MOADR5_SQL                           IMPT 00000000   6137 
_SVP_MOADR6_SQH                           IMPT 00000000   6138 
_SVP_MOADR6_SQL                           IMPT 00000000   6139 
_SVP_MOADR7_SQH                           IMPT 00000000   6140 
_SVP_MOADR7_SQL                           IMPT 00000000   6141 
_SVP_MOADR8_SQH                           IMPT 00000000   6142 
_SVP_MOADR8_SQL                           IMPT 00000000   6143 
_SVP_MOADR9_SQH                           IMPT 00000000   6144 
_SVP_MOADR9_SQL                           IMPT 00000000   6145 
_SVP_MOADRA_SQH                           IMPT 00000000   6146 
_SVP_MOADRA_SQL                           IMPT 00000000   6147 
_SVP_MOADRB_SQH                           IMPT 00000000   6148 
_SVP_MOADRB_SQL                           IMPT 00000000   6149 
_SVP_MOADRC_SQH                           IMPT 00000000   6150 
_SVP_MOADRC_SQL                           IMPT 00000000   6151 
_SVP_MOADRD_SQH                           IMPT 00000000   6152 
_SVP_MOADRD_SQL                           IMPT 00000000   6153 
_SVP_MOADRE_SQH                           IMPT 00000000   6154 
_SVP_MOADRE_SQL                           IMPT 00000000   6155 
_SVP_MOADRF_SQH                           IMPT 00000000   6156 
_SVP_MOADRF_SQL                           IMPT 00000000   6157 
_SVP_MODORI_A21                           IMPT 00000000   7084 
_SVP_MONALM_S01                           IMPT 00000000   6353 
_SVP_MONALM_S02                           IMPT 00000000   6354 
_SVP_MONALM_S03                           IMPT 00000000   6355 
_SVP_MONALM_S04                           IMPT 00000000   6356 
_SVP_MOTMAX_FREQ                          IMPT 00000000   6043 
_SVP_MOTREP_CNT                           IMPT 00000000   7195 
_SVP_MOTREP_SPD                           IMPT 00000000   7194 
_SVP_MOTREP_STGE                          IMPT 00000000   7193 
_SVP_MOTREP_STGS                          IMPT 00000000   7192 
_SVP_MOTRPM_MAXM                          IMPT 00000000   6041 
_SVP_MOTRPM_MAXP                          IMPT 00000000   6486 
_SVP_MOTWT_TIM                            IMPT 00000000   6099 
_SVP_MOT_FIX                              IMPT 00000000   7204 
_SVP_MRTION_SEL1                          IMPT 00000000   6290 
_SVP_MTSTEP_MAXM                          IMPT 00000000   6291 
_SVP_NEG_OFS_LNG                          IMPT 00000000   6110 
_SVP_OBJARA_INP0                          IMPT 00000000   6299 
_SVP_OBJARA_INP1                          IMPT 00000000   6068 
_SVP_OBJECT_DG01                          IMPT 00000000   6221 
_SVP_OBJECT_DG02                          IMPT 00000000   6222 
_SVP_OBJECT_DG03                          IMPT 00000000   6223 
_SVP_OBJECT_DG04                          IMPT 00000000   6224 
_SVP_OBJECT_DG05                          IMPT 00000000   6225 
*** SuperH RISC engine ASSEMBLER V.7.01.02.000 ***    11/14/21 17:24:34                                                  PAGE   122

*** CROSS REFERENCE LIST

NAME                             SECTION  ATTR VALUE             SEQUENCE

_SVP_OBJECT_DG06                          IMPT 00000000   6226 
_SVP_OBJECT_DG07                          IMPT 00000000   6227 
_SVP_OBJECT_DG08                          IMPT 00000000   6228 
_SVP_OBJECT_DG09                          IMPT 00000000   6229 
_SVP_OBJECT_DG10                          IMPT 00000000   6230 
_SVP_OBJECT_DG11                          IMPT 00000000   6231 
_SVP_OBJECT_DG12                          IMPT 00000000   6232 
_SVP_OBJECT_DG13                          IMPT 00000000   6233 
_SVP_OBJECT_DG14                          IMPT 00000000   6234 
_SVP_OBJECT_DG15                          IMPT 00000000   6235 
_SVP_OBJECT_DG16                          IMPT 00000000   6236 
_SVP_OBJECT_DG17                          IMPT 00000000   6237 
_SVP_OBJECT_DG18                          IMPT 00000000   6238 
_SVP_OBJECT_DG19                          IMPT 00000000   6239 
_SVP_OBJECT_DG20                          IMPT 00000000   6240 
_SVP_OBJECT_DIG_TOP                       IMPT 00000000   6220 
_SVP_OBJECT_POS_TOP                       IMPT 00000000   6198 
_SVP_OBJECT_PRS01                         IMPT 00000000   6177 
_SVP_OBJECT_PRS02                         IMPT 00000000   6178 
_SVP_OBJECT_PRS03                         IMPT 00000000   6179 
_SVP_OBJECT_PRS04                         IMPT 00000000   6180 
_SVP_OBJECT_PRS05                         IMPT 00000000   6181 
_SVP_OBJECT_PRS06                         IMPT 00000000   6182 
_SVP_OBJECT_PRS07                         IMPT 00000000   6183 
_SVP_OBJECT_PRS08                         IMPT 00000000   6184 
_SVP_OBJECT_PRS09                         IMPT 00000000   6185 
_SVP_OBJECT_PRS10                         IMPT 00000000   6186 
_SVP_OBJECT_PRS_TOP                       IMPT 00000000   6176 
_SVP_OBJECT_PS01                          IMPT 00000000   6199 
_SVP_OBJECT_PS02                          IMPT 00000000   6200 
_SVP_OBJECT_PS03                          IMPT 00000000   6201 
_SVP_OBJECT_PS04                          IMPT 00000000   6202 
_SVP_OBJECT_PS05                          IMPT 00000000   6203 
_SVP_OBJECT_PS06                          IMPT 00000000   6204 
_SVP_OBJECT_PS07                          IMPT 00000000   6205 
_SVP_OBJECT_PS08                          IMPT 00000000   6206 
_SVP_OBJECT_PS09                          IMPT 00000000   6207 
_SVP_OBJECT_PS10                          IMPT 00000000   6208 
_SVP_OBJECT_PS11                          IMPT 00000000   6209 
_SVP_OBJECT_PS12                          IMPT 00000000   6210 
_SVP_OBJECT_PS13                          IMPT 00000000   6211 
_SVP_OBJECT_PS14                          IMPT 00000000   6212 
_SVP_OBJECT_PS15                          IMPT 00000000   6213 
_SVP_OBJECT_PS16                          IMPT 00000000   6214 
_SVP_OBJECT_PS17                          IMPT 00000000   6215 
_SVP_OBJECT_PS18                          IMPT 00000000   6216 
_SVP_OBJECT_PS19                          IMPT 00000000   6217 
_SVP_OBJECT_PS20                          IMPT 00000000   6218 
_SVP_OBJECT_SP01                          IMPT 00000000   6243 
_SVP_OBJECT_SP02                          IMPT 00000000   6244 
_SVP_OBJECT_SP03                          IMPT 00000000   6245 
_SVP_OBJECT_SP04                          IMPT 00000000   6246 
_SVP_OBJECT_SP05                          IMPT 00000000   6247 
_SVP_OBJECT_SP06                          IMPT 00000000   6248 
*** SuperH RISC engine ASSEMBLER V.7.01.02.000 ***    11/14/21 17:24:34                                                  PAGE   123

*** CROSS REFERENCE LIST

NAME                             SECTION  ATTR VALUE             SEQUENCE

_SVP_OBJECT_SP07                          IMPT 00000000   6249 
_SVP_OBJECT_SP08                          IMPT 00000000   6250 
_SVP_OBJECT_SP09                          IMPT 00000000   6251 
_SVP_OBJECT_SP10                          IMPT 00000000   6252 
_SVP_OBJECT_SP11                          IMPT 00000000   6253 
_SVP_OBJECT_SP12                          IMPT 00000000   6254 
_SVP_OBJECT_SP13                          IMPT 00000000   6255 
_SVP_OBJECT_SP14                          IMPT 00000000   6256 
_SVP_OBJECT_SP15                          IMPT 00000000   6257 
_SVP_OBJECT_SP16                          IMPT 00000000   6258 
_SVP_OBJECT_SP17                          IMPT 00000000   6259 
_SVP_OBJECT_SP18                          IMPT 00000000   6260 
_SVP_OBJECT_SP19                          IMPT 00000000   6261 
_SVP_OBJECT_SP20                          IMPT 00000000   6262 
_SVP_OBJECT_SPD_TOP                       IMPT 00000000   6242 
_SVP_OBJECT_TIM_TOP                       IMPT 00000000   6264 
_SVP_OBJECT_TM01                          IMPT 00000000   6265 
_SVP_OBJECT_TM02                          IMPT 00000000   6266 
_SVP_OBJECT_TM03                          IMPT 00000000   6267 
_SVP_OBJECT_TM04                          IMPT 00000000   6268 
_SVP_OBJECT_TM05                          IMPT 00000000   6269 
_SVP_OBJECT_TM06                          IMPT 00000000   6270 
_SVP_OBJECT_TM07                          IMPT 00000000   6271 
_SVP_OBJECT_TM08                          IMPT 00000000   6272 
_SVP_OBJECT_TM09                          IMPT 00000000   6273 
_SVP_OBJECT_TM10                          IMPT 00000000   6274 
_SVP_OBJECT_TM11                          IMPT 00000000   6275 
_SVP_OBJECT_TM12                          IMPT 00000000   6276 
_SVP_OBJECT_TM13                          IMPT 00000000   6277 
_SVP_OBJECT_TM14                          IMPT 00000000   6278 
_SVP_OBJECT_TM15                          IMPT 00000000   6279 
_SVP_OBJECT_TM16                          IMPT 00000000   6280 
_SVP_OBJECT_TM17                          IMPT 00000000   6281 
_SVP_OBJECT_TM18                          IMPT 00000000   6282 
_SVP_OBJECT_TM19                          IMPT 00000000   6283 
_SVP_OBJECT_TM20                          IMPT 00000000   6284 
_SVP_ONESTR_SPD2                          IMPT 00000000   6490 
_SVP_ORGCAL_DAT1                          IMPT 00000000   6402 
_SVP_ORGCAL_DAT2                          IMPT 00000000   6403 
_SVP_ORGCAL_DAT3                          IMPT 00000000   6404 
_SVP_ORGCAL_DAT4                          IMPT 00000000   6405 
_SVP_ORGCAL_DAT5                          IMPT 00000000   6406 
_SVP_ORGCAL_DAT6                          IMPT 00000000   6407 
_SVP_ORGFWD_AGL                           IMPT 00000000   6497 
_SVP_ORGLDN_DEG                           IMPT 00000000   6419 
_SVP_ORGLUP_DEG                           IMPT 00000000   6418 
_SVP_ORGMEM_DEG1                          IMPT 00000000   6420 
_SVP_ORGMEM_DEG1A                         IMPT 00000000   6437 
_SVP_ORGMEM_DEG2                          IMPT 00000000   6422 
_SVP_ORGMEM_DEG2A                         IMPT 00000000   6438 
_SVP_ORGMEM_DEGS1                         IMPT 00000000   6421 
_SVP_ORGMEM_DEGS2                         IMPT 00000000   6423 
_SVP_ORGMPL_SEL1                          IMPT 00000000   6424 
_SVP_ORGMPL_SEL2                          IMPT 00000000   6425 
*** SuperH RISC engine ASSEMBLER V.7.01.02.000 ***    11/14/21 17:24:34                                                  PAGE   124

*** CROSS REFERENCE LIST

NAME                             SECTION  ATTR VALUE             SEQUENCE

_SVP_ORGRDN_DEG                           IMPT 00000000   6417 
_SVP_ORGREV_AGL                           IMPT 00000000   6496 
_SVP_ORGRUP_DEG                           IMPT 00000000   6416 
_SVP_ORGSOK_PLS                           IMPT 00000000   6401 
_SVP_ORGSTRK_LEN1                         IMPT 00000000   6408 
_SVP_ORGSTRK_LEN2                         IMPT 00000000   6409 
_SVP_OUTPLS_HOSA                          IMPT 00000000   6104 
_SVP_OUTPLS_HOSB                          IMPT 00000000   6105 
_SVP_OVERE1_A26                           IMPT 00000000   7091 
_SVP_OVERE1_A27                           IMPT 00000000   7099 
_SVP_OVERE1_A28                           IMPT 00000000   7107 
_SVP_OVERE2_A26                           IMPT 00000000   7093 
_SVP_OVERE2_A27                           IMPT 00000000   7101 
_SVP_OVERE2_A28                           IMPT 00000000   7109 
_SVP_OVERE3_A26                           IMPT 00000000   7095 
_SVP_OVERE3_A27                           IMPT 00000000   7103 
_SVP_OVERE3_A28                           IMPT 00000000   7111 
_SVP_OVERLIDE_COF                         IMPT 00000000   6369 
_SVP_PLSAHI_PLS                           IMPT 00000000   6117 
_SVP_PLSALO_PLS                           IMPT 00000000   6116 
_SVP_PSMOD_SEL                            IMPT 00000000   6100 
_SVP_RAD                                  IMPT 00000000   6495 
_SVP_RCAMOF_D000                          IMPT 00000000   6550 
_SVP_RCAMOF_D001                          IMPT 00000000   6554 
_SVP_RCAMOF_D002                          IMPT 00000000   6558 
_SVP_RCAMOF_D003                          IMPT 00000000   6562 
_SVP_RCAMOF_D004                          IMPT 00000000   6566 
_SVP_RCAMOF_D005                          IMPT 00000000   6570 
_SVP_RCAMOF_D006                          IMPT 00000000   6574 
_SVP_RCAMOF_D007                          IMPT 00000000   6578 
_SVP_RCAMOF_D008                          IMPT 00000000   6582 
_SVP_RCAMOF_D009                          IMPT 00000000   6586 
_SVP_RCAMOF_D00A                          IMPT 00000000   6590 
_SVP_RCAMOF_D00B                          IMPT 00000000   6594 
_SVP_RCAMOF_D00C                          IMPT 00000000   6598 
_SVP_RCAMOF_D00D                          IMPT 00000000   6602 
_SVP_RCAMOF_D00E                          IMPT 00000000   6606 
_SVP_RCAMOF_D00F                          IMPT 00000000   6610 
_SVP_RCAMOF_D010                          IMPT 00000000   6614 
_SVP_RCAMOF_D011                          IMPT 00000000   6618 
_SVP_RCAMOF_D012                          IMPT 00000000   6622 
_SVP_RCAMOF_D013                          IMPT 00000000   6626 
_SVP_RCAMOF_D014                          IMPT 00000000   6630 
_SVP_RCAMOF_D015                          IMPT 00000000   6634 
_SVP_RCAMOF_D016                          IMPT 00000000   6638 
_SVP_RCAMOF_D017                          IMPT 00000000   6642 
_SVP_RCAMOF_D018                          IMPT 00000000   6646 
_SVP_RCAMOF_D019                          IMPT 00000000   6650 
_SVP_RCAMOF_D01A                          IMPT 00000000   6654 
_SVP_RCAMOF_D01B                          IMPT 00000000   6658 
_SVP_RCAMOF_D01C                          IMPT 00000000   6662 
_SVP_RCAMOF_D01D                          IMPT 00000000   6666 
_SVP_RCAMOF_D01E                          IMPT 00000000   6670 
_SVP_RCAMOF_D01F                          IMPT 00000000   6674 
*** SuperH RISC engine ASSEMBLER V.7.01.02.000 ***    11/14/21 17:24:34                                                  PAGE   125

*** CROSS REFERENCE LIST

NAME                             SECTION  ATTR VALUE             SEQUENCE

_SVP_RCAMOF_D020                          IMPT 00000000   6678 
_SVP_RCAMOF_D021                          IMPT 00000000   6682 
_SVP_RCAMOF_D022                          IMPT 00000000   6686 
_SVP_RCAMOF_D023                          IMPT 00000000   6690 
_SVP_RCAMOF_D024                          IMPT 00000000   6694 
_SVP_RCAMOF_D025                          IMPT 00000000   6698 
_SVP_RCAMOF_D026                          IMPT 00000000   6702 
_SVP_RCAMOF_D027                          IMPT 00000000   6706 
_SVP_RCAMOF_D028                          IMPT 00000000   6710 
_SVP_RCAMOF_D029                          IMPT 00000000   6714 
_SVP_RCAMOF_D02A                          IMPT 00000000   6718 
_SVP_RCAMOF_D02B                          IMPT 00000000   6722 
_SVP_RCAMOF_D02C                          IMPT 00000000   6726 
_SVP_RCAMOF_D02D                          IMPT 00000000   6730 
_SVP_RCAMOF_D02E                          IMPT 00000000   6734 
_SVP_RCAMOF_D02F                          IMPT 00000000   6738 
_SVP_RCAMOF_D100                          IMPT 00000000   6743 
_SVP_RCAMOF_D101                          IMPT 00000000   6747 
_SVP_RCAMOF_D102                          IMPT 00000000   6751 
_SVP_RCAMOF_D103                          IMPT 00000000   6755 
_SVP_RCAMOF_D104                          IMPT 00000000   6759 
_SVP_RCAMOF_D105                          IMPT 00000000   6763 
_SVP_RCAMOF_D106                          IMPT 00000000   6767 
_SVP_RCAMOF_D107                          IMPT 00000000   6771 
_SVP_RCAMOF_D108                          IMPT 00000000   6775 
_SVP_RCAMOF_D109                          IMPT 00000000   6779 
_SVP_RCAMOF_D10A                          IMPT 00000000   6783 
_SVP_RCAMOF_D10B                          IMPT 00000000   6787 
_SVP_RCAMOF_D10C                          IMPT 00000000   6791 
_SVP_RCAMOF_D10D                          IMPT 00000000   6795 
_SVP_RCAMOF_D10E                          IMPT 00000000   6799 
_SVP_RCAMOF_D10F                          IMPT 00000000   6803 
_SVP_RCAMOF_P000                          IMPT 00000000   6549 
_SVP_RCAMOF_P001                          IMPT 00000000   6553 
_SVP_RCAMOF_P002                          IMPT 00000000   6557 
_SVP_RCAMOF_P003                          IMPT 00000000   6561 
_SVP_RCAMOF_P004                          IMPT 00000000   6565 
_SVP_RCAMOF_P005                          IMPT 00000000   6569 
_SVP_RCAMOF_P006                          IMPT 00000000   6573 
_SVP_RCAMOF_P007                          IMPT 00000000   6577 
_SVP_RCAMOF_P008                          IMPT 00000000   6581 
_SVP_RCAMOF_P009                          IMPT 00000000   6585 
_SVP_RCAMOF_P00A                          IMPT 00000000   6589 
_SVP_RCAMOF_P00B                          IMPT 00000000   6593 
_SVP_RCAMOF_P00C                          IMPT 00000000   6597 
_SVP_RCAMOF_P00D                          IMPT 00000000   6601 
_SVP_RCAMOF_P00E                          IMPT 00000000   6605 
_SVP_RCAMOF_P00F                          IMPT 00000000   6609 
_SVP_RCAMOF_P010                          IMPT 00000000   6613 
_SVP_RCAMOF_P011                          IMPT 00000000   6617 
_SVP_RCAMOF_P012                          IMPT 00000000   6621 
_SVP_RCAMOF_P013                          IMPT 00000000   6625 
_SVP_RCAMOF_P014                          IMPT 00000000   6629 
_SVP_RCAMOF_P015                          IMPT 00000000   6633 
*** SuperH RISC engine ASSEMBLER V.7.01.02.000 ***    11/14/21 17:24:34                                                  PAGE   126

*** CROSS REFERENCE LIST

NAME                             SECTION  ATTR VALUE             SEQUENCE

_SVP_RCAMOF_P016                          IMPT 00000000   6637 
_SVP_RCAMOF_P017                          IMPT 00000000   6641 
_SVP_RCAMOF_P018                          IMPT 00000000   6645 
_SVP_RCAMOF_P019                          IMPT 00000000   6649 
_SVP_RCAMOF_P01A                          IMPT 00000000   6653 
_SVP_RCAMOF_P01B                          IMPT 00000000   6657 
_SVP_RCAMOF_P01C                          IMPT 00000000   6661 
_SVP_RCAMOF_P01D                          IMPT 00000000   6665 
_SVP_RCAMOF_P01E                          IMPT 00000000   6669 
_SVP_RCAMOF_P01F                          IMPT 00000000   6673 
_SVP_RCAMOF_P020                          IMPT 00000000   6677 
_SVP_RCAMOF_P021                          IMPT 00000000   6681 
_SVP_RCAMOF_P022                          IMPT 00000000   6685 
_SVP_RCAMOF_P023                          IMPT 00000000   6689 
_SVP_RCAMOF_P024                          IMPT 00000000   6693 
_SVP_RCAMOF_P025                          IMPT 00000000   6697 
_SVP_RCAMOF_P026                          IMPT 00000000   6701 
_SVP_RCAMOF_P027                          IMPT 00000000   6705 
_SVP_RCAMOF_P028                          IMPT 00000000   6709 
_SVP_RCAMOF_P029                          IMPT 00000000   6713 
_SVP_RCAMOF_P02A                          IMPT 00000000   6717 
_SVP_RCAMOF_P02B                          IMPT 00000000   6721 
_SVP_RCAMOF_P02C                          IMPT 00000000   6725 
_SVP_RCAMOF_P02D                          IMPT 00000000   6729 
_SVP_RCAMOF_P02E                          IMPT 00000000   6733 
_SVP_RCAMOF_P02F                          IMPT 00000000   6737 
_SVP_RCAMOF_P100                          IMPT 00000000   6742 
_SVP_RCAMOF_P101                          IMPT 00000000   6746 
_SVP_RCAMOF_P102                          IMPT 00000000   6750 
_SVP_RCAMOF_P103                          IMPT 00000000   6754 
_SVP_RCAMOF_P104                          IMPT 00000000   6758 
_SVP_RCAMOF_P105                          IMPT 00000000   6762 
_SVP_RCAMOF_P106                          IMPT 00000000   6766 
_SVP_RCAMOF_P107                          IMPT 00000000   6770 
_SVP_RCAMOF_P108                          IMPT 00000000   6774 
_SVP_RCAMOF_P109                          IMPT 00000000   6778 
_SVP_RCAMOF_P10A                          IMPT 00000000   6782 
_SVP_RCAMOF_P10B                          IMPT 00000000   6786 
_SVP_RCAMOF_P10C                          IMPT 00000000   6790 
_SVP_RCAMOF_P10D                          IMPT 00000000   6794 
_SVP_RCAMOF_P10E                          IMPT 00000000   6798 
_SVP_RCAMOF_P10F                          IMPT 00000000   6802 
_SVP_RCAMOF_SA00                          IMPT 00000000   7126 
_SVP_RCAMOF_SA01                          IMPT 00000000   7130 
_SVP_RCAMOF_SA02                          IMPT 00000000   7134 
_SVP_RCAMOF_SA03                          IMPT 00000000   7138 
_SVP_RCAMOF_SA04                          IMPT 00000000   7142 
_SVP_RCAMOF_SA05                          IMPT 00000000   7146 
_SVP_RCAMOF_SA06                          IMPT 00000000   7150 
_SVP_RCAMOF_SA07                          IMPT 00000000   7154 
_SVP_RCAMOF_SA08                          IMPT 00000000   7158 
_SVP_RCAMOF_SA09                          IMPT 00000000   7162 
_SVP_RCAMOF_SA10                          IMPT 00000000   7166 
_SVP_RCAMOF_SA11                          IMPT 00000000   7170 
*** SuperH RISC engine ASSEMBLER V.7.01.02.000 ***    11/14/21 17:24:34                                                  PAGE   127

*** CROSS REFERENCE LIST

NAME                             SECTION  ATTR VALUE             SEQUENCE

_SVP_RCAMOF_SA12                          IMPT 00000000   7174 
_SVP_RCAMOF_SA13                          IMPT 00000000   7178 
_SVP_RCAMOF_SA14                          IMPT 00000000   7182 
_SVP_RCAMOF_SA15                          IMPT 00000000   7186 
_SVP_RCAMOF_ST00                          IMPT 00000000   7127 
_SVP_RCAMOF_ST01                          IMPT 00000000   7131 
_SVP_RCAMOF_ST02                          IMPT 00000000   7135 
_SVP_RCAMOF_ST03                          IMPT 00000000   7139 
_SVP_RCAMOF_ST04                          IMPT 00000000   7143 
_SVP_RCAMOF_ST05                          IMPT 00000000   7147 
_SVP_RCAMOF_ST06                          IMPT 00000000   7151 
_SVP_RCAMOF_ST07                          IMPT 00000000   7155 
_SVP_RCAMOF_ST08                          IMPT 00000000   7159 
_SVP_RCAMOF_ST09                          IMPT 00000000   7163 
_SVP_RCAMOF_ST10                          IMPT 00000000   7167 
_SVP_RCAMOF_ST11                          IMPT 00000000   7171 
_SVP_RCAMOF_ST12                          IMPT 00000000   7175 
_SVP_RCAMOF_ST13                          IMPT 00000000   7179 
_SVP_RCAMOF_ST14                          IMPT 00000000   7183 
_SVP_RCAMOF_ST15                          IMPT 00000000   7187 
_SVP_RCAMON_D000                          IMPT 00000000   6548 
_SVP_RCAMON_D001                          IMPT 00000000   6552 
_SVP_RCAMON_D002                          IMPT 00000000   6556 
_SVP_RCAMON_D003                          IMPT 00000000   6560 
_SVP_RCAMON_D004                          IMPT 00000000   6564 
_SVP_RCAMON_D005                          IMPT 00000000   6568 
_SVP_RCAMON_D006                          IMPT 00000000   6572 
_SVP_RCAMON_D007                          IMPT 00000000   6576 
_SVP_RCAMON_D008                          IMPT 00000000   6580 
_SVP_RCAMON_D009                          IMPT 00000000   6584 
_SVP_RCAMON_D00A                          IMPT 00000000   6588 
_SVP_RCAMON_D00B                          IMPT 00000000   6592 
_SVP_RCAMON_D00C                          IMPT 00000000   6596 
_SVP_RCAMON_D00D                          IMPT 00000000   6600 
_SVP_RCAMON_D00E                          IMPT 00000000   6604 
_SVP_RCAMON_D00F                          IMPT 00000000   6608 
_SVP_RCAMON_D010                          IMPT 00000000   6612 
_SVP_RCAMON_D011                          IMPT 00000000   6616 
_SVP_RCAMON_D012                          IMPT 00000000   6620 
_SVP_RCAMON_D013                          IMPT 00000000   6624 
_SVP_RCAMON_D014                          IMPT 00000000   6628 
_SVP_RCAMON_D015                          IMPT 00000000   6632 
_SVP_RCAMON_D016                          IMPT 00000000   6636 
_SVP_RCAMON_D017                          IMPT 00000000   6640 
_SVP_RCAMON_D018                          IMPT 00000000   6644 
_SVP_RCAMON_D019                          IMPT 00000000   6648 
_SVP_RCAMON_D01A                          IMPT 00000000   6652 
_SVP_RCAMON_D01B                          IMPT 00000000   6656 
_SVP_RCAMON_D01C                          IMPT 00000000   6660 
_SVP_RCAMON_D01D                          IMPT 00000000   6664 
_SVP_RCAMON_D01E                          IMPT 00000000   6668 
_SVP_RCAMON_D01F                          IMPT 00000000   6672 
_SVP_RCAMON_D020                          IMPT 00000000   6676 
_SVP_RCAMON_D021                          IMPT 00000000   6680 
*** SuperH RISC engine ASSEMBLER V.7.01.02.000 ***    11/14/21 17:24:34                                                  PAGE   128

*** CROSS REFERENCE LIST

NAME                             SECTION  ATTR VALUE             SEQUENCE

_SVP_RCAMON_D022                          IMPT 00000000   6684 
_SVP_RCAMON_D023                          IMPT 00000000   6688 
_SVP_RCAMON_D024                          IMPT 00000000   6692 
_SVP_RCAMON_D025                          IMPT 00000000   6696 
_SVP_RCAMON_D026                          IMPT 00000000   6700 
_SVP_RCAMON_D027                          IMPT 00000000   6704 
_SVP_RCAMON_D028                          IMPT 00000000   6708 
_SVP_RCAMON_D029                          IMPT 00000000   6712 
_SVP_RCAMON_D02A                          IMPT 00000000   6716 
_SVP_RCAMON_D02B                          IMPT 00000000   6720 
_SVP_RCAMON_D02C                          IMPT 00000000   6724 
_SVP_RCAMON_D02D                          IMPT 00000000   6728 
_SVP_RCAMON_D02E                          IMPT 00000000   6732 
_SVP_RCAMON_D02F                          IMPT 00000000   6736 
_SVP_RCAMON_D100                          IMPT 00000000   6741 
_SVP_RCAMON_D101                          IMPT 00000000   6745 
_SVP_RCAMON_D102                          IMPT 00000000   6749 
_SVP_RCAMON_D103                          IMPT 00000000   6753 
_SVP_RCAMON_D104                          IMPT 00000000   6757 
_SVP_RCAMON_D105                          IMPT 00000000   6761 
_SVP_RCAMON_D106                          IMPT 00000000   6765 
_SVP_RCAMON_D107                          IMPT 00000000   6769 
_SVP_RCAMON_D108                          IMPT 00000000   6773 
_SVP_RCAMON_D109                          IMPT 00000000   6777 
_SVP_RCAMON_D10A                          IMPT 00000000   6781 
_SVP_RCAMON_D10B                          IMPT 00000000   6785 
_SVP_RCAMON_D10C                          IMPT 00000000   6789 
_SVP_RCAMON_D10D                          IMPT 00000000   6793 
_SVP_RCAMON_D10E                          IMPT 00000000   6797 
_SVP_RCAMON_D10F                          IMPT 00000000   6801 
_SVP_RCAMON_P000                          IMPT 00000000   6547 
_SVP_RCAMON_P001                          IMPT 00000000   6551 
_SVP_RCAMON_P002                          IMPT 00000000   6555 
_SVP_RCAMON_P003                          IMPT 00000000   6559 
_SVP_RCAMON_P004                          IMPT 00000000   6563 
_SVP_RCAMON_P005                          IMPT 00000000   6567 
_SVP_RCAMON_P006                          IMPT 00000000   6571 
_SVP_RCAMON_P007                          IMPT 00000000   6575 
_SVP_RCAMON_P008                          IMPT 00000000   6579 
_SVP_RCAMON_P009                          IMPT 00000000   6583 
_SVP_RCAMON_P00A                          IMPT 00000000   6587 
_SVP_RCAMON_P00B                          IMPT 00000000   6591 
_SVP_RCAMON_P00C                          IMPT 00000000   6595 
_SVP_RCAMON_P00D                          IMPT 00000000   6599 
_SVP_RCAMON_P00E                          IMPT 00000000   6603 
_SVP_RCAMON_P00F                          IMPT 00000000   6607 
_SVP_RCAMON_P010                          IMPT 00000000   6611 
_SVP_RCAMON_P011                          IMPT 00000000   6615 
_SVP_RCAMON_P012                          IMPT 00000000   6619 
_SVP_RCAMON_P013                          IMPT 00000000   6623 
_SVP_RCAMON_P014                          IMPT 00000000   6627 
_SVP_RCAMON_P015                          IMPT 00000000   6631 
_SVP_RCAMON_P016                          IMPT 00000000   6635 
_SVP_RCAMON_P017                          IMPT 00000000   6639 
*** SuperH RISC engine ASSEMBLER V.7.01.02.000 ***    11/14/21 17:24:34                                                  PAGE   129

*** CROSS REFERENCE LIST

NAME                             SECTION  ATTR VALUE             SEQUENCE

_SVP_RCAMON_P018                          IMPT 00000000   6643 
_SVP_RCAMON_P019                          IMPT 00000000   6647 
_SVP_RCAMON_P01A                          IMPT 00000000   6651 
_SVP_RCAMON_P01B                          IMPT 00000000   6655 
_SVP_RCAMON_P01C                          IMPT 00000000   6659 
_SVP_RCAMON_P01D                          IMPT 00000000   6663 
_SVP_RCAMON_P01E                          IMPT 00000000   6667 
_SVP_RCAMON_P01F                          IMPT 00000000   6671 
_SVP_RCAMON_P020                          IMPT 00000000   6675 
_SVP_RCAMON_P021                          IMPT 00000000   6679 
_SVP_RCAMON_P022                          IMPT 00000000   6683 
_SVP_RCAMON_P023                          IMPT 00000000   6687 
_SVP_RCAMON_P024                          IMPT 00000000   6691 
_SVP_RCAMON_P025                          IMPT 00000000   6695 
_SVP_RCAMON_P026                          IMPT 00000000   6699 
_SVP_RCAMON_P027                          IMPT 00000000   6703 
_SVP_RCAMON_P028                          IMPT 00000000   6707 
_SVP_RCAMON_P029                          IMPT 00000000   6711 
_SVP_RCAMON_P02A                          IMPT 00000000   6715 
_SVP_RCAMON_P02B                          IMPT 00000000   6719 
_SVP_RCAMON_P02C                          IMPT 00000000   6723 
_SVP_RCAMON_P02D                          IMPT 00000000   6727 
_SVP_RCAMON_P02E                          IMPT 00000000   6731 
_SVP_RCAMON_P02F                          IMPT 00000000   6735 
_SVP_RCAMON_P100                          IMPT 00000000   6740 
_SVP_RCAMON_P101                          IMPT 00000000   6744 
_SVP_RCAMON_P102                          IMPT 00000000   6748 
_SVP_RCAMON_P103                          IMPT 00000000   6752 
_SVP_RCAMON_P104                          IMPT 00000000   6756 
_SVP_RCAMON_P105                          IMPT 00000000   6760 
_SVP_RCAMON_P106                          IMPT 00000000   6764 
_SVP_RCAMON_P107                          IMPT 00000000   6768 
_SVP_RCAMON_P108                          IMPT 00000000   6772 
_SVP_RCAMON_P109                          IMPT 00000000   6776 
_SVP_RCAMON_P10A                          IMPT 00000000   6780 
_SVP_RCAMON_P10B                          IMPT 00000000   6784 
_SVP_RCAMON_P10C                          IMPT 00000000   6788 
_SVP_RCAMON_P10D                          IMPT 00000000   6792 
_SVP_RCAMON_P10E                          IMPT 00000000   6796 
_SVP_RCAMON_P10F                          IMPT 00000000   6800 
_SVP_RCAMON_POS_TOP                       IMPT 00000000   6546 
_SVP_RCAMON_SA00                          IMPT 00000000   7124 
_SVP_RCAMON_SA01                          IMPT 00000000   7128 
_SVP_RCAMON_SA02                          IMPT 00000000   7132 
_SVP_RCAMON_SA03                          IMPT 00000000   7136 
_SVP_RCAMON_SA04                          IMPT 00000000   7140 
_SVP_RCAMON_SA05                          IMPT 00000000   7144 
_SVP_RCAMON_SA06                          IMPT 00000000   7148 
_SVP_RCAMON_SA07                          IMPT 00000000   7152 
_SVP_RCAMON_SA08                          IMPT 00000000   7156 
_SVP_RCAMON_SA09                          IMPT 00000000   7160 
_SVP_RCAMON_SA10                          IMPT 00000000   7164 
_SVP_RCAMON_SA11                          IMPT 00000000   7168 
_SVP_RCAMON_SA12                          IMPT 00000000   7172 
*** SuperH RISC engine ASSEMBLER V.7.01.02.000 ***    11/14/21 17:24:34                                                  PAGE   130

*** CROSS REFERENCE LIST

NAME                             SECTION  ATTR VALUE             SEQUENCE

_SVP_RCAMON_SA13                          IMPT 00000000   7176 
_SVP_RCAMON_SA14                          IMPT 00000000   7180 
_SVP_RCAMON_SA15                          IMPT 00000000   7184 
_SVP_RCAMON_ST00                          IMPT 00000000   7125 
_SVP_RCAMON_ST01                          IMPT 00000000   7129 
_SVP_RCAMON_ST02                          IMPT 00000000   7133 
_SVP_RCAMON_ST03                          IMPT 00000000   7137 
_SVP_RCAMON_ST04                          IMPT 00000000   7141 
_SVP_RCAMON_ST05                          IMPT 00000000   7145 
_SVP_RCAMON_ST06                          IMPT 00000000   7149 
_SVP_RCAMON_ST07                          IMPT 00000000   7153 
_SVP_RCAMON_ST08                          IMPT 00000000   7157 
_SVP_RCAMON_ST09                          IMPT 00000000   7161 
_SVP_RCAMON_ST10                          IMPT 00000000   7165 
_SVP_RCAMON_ST11                          IMPT 00000000   7169 
_SVP_RCAMON_ST12                          IMPT 00000000   7173 
_SVP_RCAMON_ST13                          IMPT 00000000   7177 
_SVP_RCAMON_ST14                          IMPT 00000000   7181 
_SVP_RCAMON_ST15                          IMPT 00000000   7185 
_SVP_RCAMON_TIM_TOP                       IMPT 00000000   6739 
_SVP_REVDAT_SPD1                          IMPT 00000000   6055 
_SVP_REVDAT_SPD2                          IMPT 00000000   6056 
_SVP_REVDAT_SPD3                          IMPT 00000000   6057 
_SVP_RISE_CMP1                            IMPT 00000000   6501 
_SVP_RISE_CMP2                            IMPT 00000000   6502 
_SVP_RISE_CMP3                            IMPT 00000000   6503 
_SVP_RISE_DLY1                            IMPT 00000000   6504 
_SVP_RISE_DLY2                            IMPT 00000000   6505 
_SVP_RISE_ZWID                            IMPT 00000000   6500 
_SVP_RNADIR_SEL1                          IMPT 00000000   6036 
_SVP_RNADIR_SEL2                          IMPT 00000000   6436 
_SVP_RNAORGMEM_LEG1                       IMPT 00000000   6410 
_SVP_RNAORGMEM_LEG2                       IMPT 00000000   6412 
_SVP_RNAORG_PLS1                          IMPT 00000000   6411 
_SVP_RNAORG_PLS2                          IMPT 00000000   6413 
_SVP_RNAORG_POS1                          IMPT 00000000   6044 
_SVP_RNAORG_SIN1                          IMPT 00000000   6414 
_SVP_RNAORG_SIN2                          IMPT 00000000   6415 
_SVP_RNAPOS_KP01                          IMPT 00000000   6063 
_SVP_RNAPOS_MAXP                          IMPT 00000000   6045 
_SVP_RNAPOS_MINP                          IMPT 00000000   6046 
_SVP_RNAREV_ELNG                          IMPT 00000000   6079 
_SVP_RNASTP_ELNG                          IMPT 00000000   6077 
_SVP_RNA_STLORK                           IMPT 00000000   6103 
_SVP_ROALM1_A26                           IMPT 00000000   7092 
_SVP_ROALM1_A27                           IMPT 00000000   7100 
_SVP_ROALM1_A28                           IMPT 00000000   7108 
_SVP_ROALM2_A26                           IMPT 00000000   7094 
_SVP_ROALM2_A27                           IMPT 00000000   7102 
_SVP_ROALM2_A28                           IMPT 00000000   7110 
_SVP_ROALM3_A26                           IMPT 00000000   7096 
_SVP_ROALM3_A27                           IMPT 00000000   7104 
_SVP_ROALM3_A28                           IMPT 00000000   7112 
_SVP_ROTCAM_OFR                           IMPT 00000000   7198 
*** SuperH RISC engine ASSEMBLER V.7.01.02.000 ***    11/14/21 17:24:34                                                  PAGE   131

*** CROSS REFERENCE LIST

NAME                             SECTION  ATTR VALUE             SEQUENCE

_SVP_ROTCAM_ONR                           IMPT 00000000   7197 
_SVP_RPARAM_TOP1                          IMPT 00000000   6031 
_SVP_RUNSAMER_LEN1                        IMPT 00000000   6431 
_SVP_RUNSAMER_LEN2                        IMPT 00000000   6432 
_SVP_RUNSAMER_PLS                         IMPT 00000000   6434 
_SVP_SLIDE_S                              IMPT 00000000   6494 
_SVP_SLID_POS1                            IMPT 00000000   6303 
_SVP_SLID_POS2                            IMPT 00000000   6304 
_SVP_SLID_POS3                            IMPT 00000000   6305 
_SVP_SLPOS_DIR                            IMPT 00000000   7088 
_SVP_SL_TENPOS                            IMPT 00000000   7087 
_SVP_SMPCYC_TIM                           IMPT 00000000   6125 
_SVP_SMPCYC_TIM2                          IMPT 00000000   7190 
_SVP_SMPMAX_CNT                           IMPT 00000000   6123 
_SVP_SMPMAX_CNT2                          IMPT 00000000   7189 
_SVP_SMPSTR_AGL                           IMPT 00000000   6119 
_SVP_SMPSTR_FUK                           IMPT 00000000   6120 
_SVP_SMPSTR_KAJ                           IMPT 00000000   6118 
_SVP_SMPSTR_SEH                           IMPT 00000000   6121 
_SVP_SMPSTR_SQL                           IMPT 00000000   6122 
_SVP_SMPTRG_CNT                           IMPT 00000000   6124 
_SVP_SMPTRG_CNT1                          IMPT 00000000   6173 
_SVP_SMP_CNT                              IMPT 00000000   6160 
_SVP_SSCURV_TIM1                          IMPT 00000000   6065 
_SVP_STDINC_SPD1                          IMPT 00000000   6054 
_SVP_SYNC_ERR_DEGA                        IMPT 00000000   6462 
_SVP_SYNC_ERR_DEGB                        IMPT 00000000   6463 
_SVP_SYNC_ERR_DEGC                        IMPT 00000000   6464 
_SVP_SYNC_ERR_DEGD                        IMPT 00000000   6465 
_SVP_SYNC_ERR_PGA                         IMPT 00000000   6470 
_SVP_SYNC_ERR_PGB                         IMPT 00000000   6471 
_SVP_SYNC_ERR_PGC                         IMPT 00000000   6472 
_SVP_SYNC_ERR_PGD                         IMPT 00000000   6473 
_SVP_SYNC_ERR_RNAA                        IMPT 00000000   6466 
_SVP_SYNC_ERR_RNAB                        IMPT 00000000   6467 
_SVP_SYNC_ERR_RNAC                        IMPT 00000000   6468 
_SVP_SYNC_ERR_RNAD                        IMPT 00000000   6469 
_SVP_TEPDAT_SPD1                          IMPT 00000000   6058 
_SVP_TEPLAT_DAT1                          IMPT 00000000   6059 
_SVP_TEPLAT_DAT2                          IMPT 00000000   6060 
_SVP_TRDCSR_RNAD                          IMPT 00000000   6172 
_SVP_TRDCSR_RNAU                          IMPT 00000000   6171 
_SVP_TRD_CNT                              IMPT 00000000   6161 
_SVP_UPAREA_DIG0                          IMPT 00000000   6294 
_SVP_UPAREA_DIG1                          IMPT 00000000   6071 
_SVP_UPAREA_INP1                          IMPT 00000000   6066 
_SVP_UPAREA_JUDG                          IMPT 00000000   6047 
_SVP_UPAREA_POS0                          IMPT 00000000   6293 
_SVP_UPAREA_SPD0                          IMPT 00000000   6295 
_SVP_UPAREA_SPD1                          IMPT 00000000   6053 
_SVP_UPAREA_TIM0                          IMPT 00000000   6296 
_SVP_UPDATA_A21                           IMPT 00000000   7081 
_SVP_UPHOLD_DIG                           IMPT 00000000   6106 
_SVP_UPSTOP_A21                           IMPT 00000000   7086 
*** SuperH RISC engine ASSEMBLER V.7.01.02.000 ***    11/14/21 17:24:34                                                  PAGE   132

*** CROSS REFERENCE LIST

NAME                             SECTION  ATTR VALUE             SEQUENCE

_SVP_VIB_KJYU_TTL                         IMPT 00000000   6192 
_SVP_VOLST_L                              IMPT 00000000   6493 
_SVP_WTTIM_MAX                            IMPT 00000000   7121 
_SVP_WT_DIG1                              IMPT 00000000   6096 
_SVP_WT_DIG2                              IMPT 00000000   6097 
_SVP_WT_DIG3                              IMPT 00000000   6098 
_SVX_DNM_MAXSPM                           IMPT 00000000   4245 
_SVX_OVER_ERR_DIG                         IMPT 00000000   3531 
_SVX_OVER_JGSTR_DIG                       IMPT 00000000   3532 
_SV_CHG_FLG1                              IMPT 00000000   3318 
_SV_CHG_FLG2                              IMPT 00000000   3319 
_SV_CLNK_DG_CHG_LINK_DG1                  IMPT 00000000   7444 
_SV_CONST_SUB_PV                          IMPT 00000000   3946 
_SV_DAT_ERR1                              IMPT 00000000   3320 
_SV_OBJ360                                IMPT 00000000   3503 
_SV_POS_CTL_STEP                          IMPT 00000000   2820 
_SV_REAL_PLS                              IMPT 00000000   3947 
_SV_REAL_SUB_PV                           IMPT 00000000   3948 
_SW_DEV_MASK_FLG                          IMPT 00000000   2628 
_SYS_BSAME_TIM                            EQU  000001F4   2010*
_SYS_SETUP_TIM                            EQU  000007D0   2011*
_SYS_STOPPING_TIM                         EQU  00000032   2012*
_TABLE_ERR_FLG                            IMPT 00000000   2485 
_TBL_ANS_ACCTIM                           IMPT 00000000   4241 
_TBL_ANS_ACC_SEL                          IMPT 00000000   4243 
_TBL_ANS_MAXSPM                           IMPT 00000000   4242 
_TBL_USE_POS0                             IMPT 00000000   4240 
_TECH2_KJYU_DIG                           IMPT 00000000   4508 
_TECH2_KJYU_LNG                           IMPT 00000000   4506 
_TECH2_KJYU_LT1KN                         IMPT 00000000   4499 
_TECH2_KJYU_LT1PLS                        IMPT 00000000   4500 
_TECH2_KJYU_LT1PLS_OFS                    IMPT 00000000   4501 
_TECH2_KJYU_LT2KN                         IMPT 00000000   4502 
_TECH2_KJYU_LT2PLS                        IMPT 00000000   4503 
_TECH2_KJYU_LT2PLS_OFS                    IMPT 00000000   4504 
_TECH2_KJYU_PLS                           IMPT 00000000   4507 
_TECH2_KJYU_PLSX                          IMPT 00000000   4505 
_TECH2_KN_FLG                             IMPT 00000000   4509 
_TECH_USED_F                              IMPT 00000000   4546 
_TECH_WK_DIG1                             IMPT 00000000   4539 
_TECH_WK_DIG2                             IMPT 00000000   4540 
_TECH_WK_DIG3                             IMPT 00000000   4541 
_TECH_WK_DIG4                             IMPT 00000000   4542 
_TECH_WK_PLS1                             IMPT 00000000   4538 
_TEPA_PLS_ZERO_TIM                        IMPT 00000000   4402 
_TEP_ADDCHK_SVPLS                         IMPT 00000000   3804 
_TEP_CHG_SPD1                             IMPT 00000000   3808 
_TEP_CHG_SPD2                             IMPT 00000000   3809 
_TEP_CNTSMP_TIM                           IMPT 00000000   4752 
_TEP_DND_SPD_PLS                          IMPT 00000000   4751 
_TEP_INPLS_FLG                            IMPT 00000000   3799 
_TEP_IN_ADD                               IMPT 00000000   3793 
_TEP_MIN_SPD_FRQ                          IMPT 00000000   3806 
_TEP_MIN_SPD_PLS                          IMPT 00000000   3805 
*** SuperH RISC engine ASSEMBLER V.7.01.02.000 ***    11/14/21 17:24:34                                                  PAGE   133

*** CROSS REFERENCE LIST

NAME                             SECTION  ATTR VALUE             SEQUENCE

_TEP_MODE_DRV                             IMPT 00000000   3795 
_TEP_POS_ADD_CNT                          IMPT 00000000   3791 
_TEP_REVPLS_LT_FLG                        IMPT 00000000   4753 
_TEP_STEP_FLG                             IMPT 00000000   3796 
_TEP_STEP_SVSMPTM                         IMPT 00000000   3803 
_TEP_STEP_SVWTTM1                         IMPT 00000000   3802 
_TEP_STEP_WTTM                            IMPT 00000000   3797 
_TIM_1MSEC                                EQU  0000000A   1996* 2010  2011  2012  2017 
_TIM_CNT010MS_DT                          EQU  0000000A   2326*
_TIM_CNT100MS_DT                          EQU  00000064   2327*
_TIM_SEC                                  EQU  00002710   1995*
_TMP_SCI_DEBUG                            IMPT 00000000   5275 
_TRD_CLR_CMD                              IMPT 00000000   5407 
_TRD_DP_MOV_CNT                           IMPT 00000000   5413 
_TRD_DP_MOV_FLG                           IMPT 00000000   5412 
_TRD_EVENT_COD                            IMPT 00000000   5402 
_TRD_EVENT_LATCH                          IMPT 00000000   5404 
_TRD_LATE_PV                              IMPT 00000000   5409 
_TRD_LATE_SV                              IMPT 00000000   5408 
_TRD_POINT_END                            IMPT 00000000   5406 
_TRD_POINT_EVENT                          IMPT 00000000   5405 
_TRD_SMP_DAT1                             IMPT 00000000   5393 
_TRD_SMP_DAT2                             IMPT 00000000   5394 
_TRD_SMP_DAT3                             IMPT 00000000   5395 
_TRD_SMP_DAT4                             IMPT 00000000   5396 
_TRD_SMP_DAT5                             IMPT 00000000   5397 
_TRD_SMP_DAT6                             IMPT 00000000   5398 
_TRD_SMP_DAT7                             IMPT 00000000   5399 
_TRD_SMP_DAT8                             IMPT 00000000   5400 
_TRD_SMP_FLG                              IMPT 00000000   5410 
_TRD_SMP_POINT                            IMPT 00000000   5401 
_UP360_CHK_LIST                           IMPT 00000000   4041 
_UP360_JGDIG                              EQU  00000028   2038*
_UPDN_DIRJG_DIG                           EQU  00000708   2004*
_UPHOLD_SPDERR_OK_FLG                     IMPT 00000000   5225 
_UPLIMIT_START_F                          IMPT 00000000   4707 
_UPLIMIT_SV_SPD                           IMPT 00000000   4706 
_UPMAK2_MOD_USE_SW                        IMPT 00000000   4667 
_UPMSK2_DRVSEL                            IMPT 00000000   4669 
_UPMSK2_MATH                              IMPT 00000000   4668 
_UPMSK2_MOD                               IMPT 00000000   4665 
_UPMSK2_MOD_IN_SW                         IMPT 00000000   4666 
_UPMSK2_MOD_IN_SWOLD                      IMPT 00000000   4670 
_UP_HOLD_DIG                              IMPT 00000000   2625 
_UP_HOLD_FLG                              IMPT 00000000   2626 
_UP_HOLD_STEP                             IMPT 00000000   2622 
_UP_HOLD_STEP1                            IMPT 00000000   2623 
_UP_HOLD_STEP2                            IMPT 00000000   2624 
_VALV_OFF_DIG_CLANK                       IMPT 00000000   3479 
_VALV_ON_FLG                              IMPT 00000000   4053 
_VIB_DLY_TIM                              IMPT 00000000   4195 
_VIB_GET_SET_TIM                          IMPT 00000000   4192 
_VIB_PV_UP_TIM                            IMPT 00000000   4194 
_VIB_STEP_COM                             IMPT 00000000   4191 
*** SuperH RISC engine ASSEMBLER V.7.01.02.000 ***    11/14/21 17:24:34                                                  PAGE   134

*** CROSS REFERENCE LIST

NAME                             SECTION  ATTR VALUE             SEQUENCE

_VIB_STEP_FLG                             IMPT 00000000   4190 
_VIB_USE_SET_TIM                          IMPT 00000000   4193 
_VON1_OF                                  IMPT 00000000   7273 
_VON1_ON                                  IMPT 00000000   7272 
_VON2_OF                                  IMPT 00000000   7275 
_VON2_ON                                  IMPT 00000000   7274 
_VON3_OF                                  IMPT 00000000   7277 
_VON3_ON                                  IMPT 00000000   7276 
_VUPCHECK_EQU                             EQU  11AB3739     98*
_VUP_DATA_ADR_OP1                         IMPT 00000000   6008 
_VUP_HSAREA_A_TO_B                        IMPT 00000000   5987 
_VUP_HSAREA_B_TO_A                        IMPT 00000000   5980 
_W1CNT                                    EQU  00000008   2351*
_W1DIC                                    EQU  00000020   2353*
_W1DUP                                    EQU  00000040   2354*
_W1END                                    EQU  00000080   2355*
_W1INC                                    EQU  00000002   2349*
_W1LNC                                    EQU  00000400   2359*
_W1LNO                                    EQU  00000800   2360*
_W1OFF                                    EQU  00000001   2348*
_W1OPT                                    EQU  00000010   2352*
_W1REV                                    EQU  00004000   2367*
_W1RNC                                    EQU  00000100   2356*
_W1RNO                                    EQU  00000200   2357*
_W1RST                                    EQU  00008000   2368*
_W1SGL                                    EQU  00000004   2350*
_W1SNC                                    EQU  00001000   2365*
_W1SNO                                    EQU  00002000   2366*
_W2LS1                                    EQU  00000004   2370*
_W2LS2                                    EQU  00000008   2371*
_W2SUP                                    EQU  00000080   2375*
_W2WT1                                    EQU  00000010   2372*
_W2WT2                                    EQU  00000020   2373*
_W2WT3                                    EQU  00000040   2374*
_W4_PVP_KAJLIV_TTL                        IMPT 00000000   5075 
_W4_PV_CTL_KJYU_TTL_P                     IMPT 00000000   4813 
_W4_PV_FLT_KJYU_TTL                       IMPT 00000000   4811 
_W4_PV_FLT_KJYU_TTL_P                     IMPT 00000000   4812 
_WDT_A_TO_B_ANS                           IMPT 00000000   5520 
_WDT_A_TO_B_REQ                           IMPT 00000000   5519 
_WDT_B_TO_A_ANS                           IMPT 00000000   5522 
_WDT_B_TO_A_REQ                           IMPT 00000000   5521 
_WFSYS_MAX_STEP_SEL                       IMPT 00000000   3511 
_WFSYS_OPT_CNT_SEL                        IMPT 00000000   3510 
_WKSQCB200                                EQU  00000000   2104*
_WKSQCB201                                EQU  00000002   2105*
_WKSQCB202                                EQU  00000004   2106*
_WKSQCB203                                EQU  00000006   2107*
_WKSQCB204                                EQU  00000008   2108*
_WKSQCB205                                EQU  0000000A   2109*
_WKSQCB206                                EQU  0000000C   2110*
_WKSQCB207                                EQU  0000000E   2111*
_WKSQCB208                                EQU  00000010   2112*
_WKSQCB209                                EQU  00000012   2113*
*** SuperH RISC engine ASSEMBLER V.7.01.02.000 ***    11/14/21 17:24:34                                                  PAGE   135

*** CROSS REFERENCE LIST

NAME                             SECTION  ATTR VALUE             SEQUENCE

_WKSQCB210                                EQU  00000014   2114*
_WKSQCB211                                EQU  00000016   2115*
_WKSQCB212                                EQU  00000018   2116*
_WKSQCB213                                EQU  0000001A   2117*
_WKSQCB214                                EQU  0000001C   2118*
_WKSQCB215                                EQU  0000001E   2119*
_WKSQCB216                                EQU  00000020   2120*
_WKSQCB217                                EQU  00000022   2121*
_WKSQCB218                                EQU  00000024   2122*
_WKSQCB219                                EQU  00000026   2123*
_WKSQCB220                                EQU  00000028   2124*
_WKSQCB221                                EQU  0000002A   2125*
_WKSQCB222                                EQU  0000002C   2126*
_WKSQCB223                                EQU  0000002E   2127*
_WKSQCB224                                EQU  00000030   2128*
_WKSQCB225                                EQU  00000032   2129*
_WKSQCB226                                EQU  00000034   2130*
_WKSQCB227                                EQU  00000036   2131*
_WKSQCB228                                EQU  00000038   2132*
_WKSQCB229                                EQU  0000003A   2133*
_WKSQCB230                                EQU  0000003C   2134*
_WKSQCB231                                EQU  0000003E   2135*
_WKSQCB232                                EQU  00000040   2136*
_WKSQCB233                                EQU  00000042   2137*
_WKSQCB234                                EQU  00000044   2138*
_WKSQCB235                                EQU  00000046   2139*
_WKSQCB236                                EQU  00000048   2140*
_WKSQCB237                                EQU  0000004A   2141*
_WKSQCB238                                EQU  0000004C   2142*
_WKSQCB239                                EQU  0000004E   2143*
_WKSQCB240                                EQU  00000050   2144*
_WKSQCB241                                EQU  00000052   2145*
_WKSQCB242                                EQU  00000054   2146*
_WKSQCB243                                EQU  00000056   2147*
_WKSQCB244                                EQU  00000058   2148*
_WKSQCB245                                EQU  0000005A   2149*
_WKSQCB246                                EQU  0000005C   2150*
_WKSQCB247                                EQU  0000005E   2151*
_WKSQCB248                                EQU  00000060   2152*
_WKSQCB249                                EQU  00000062   2153*
_WKSQCB250                                EQU  00000064   2154*
_WKSQCB251                                EQU  00000066   2155*
_WKSQCB252                                EQU  00000068   2156*
_WKSQCB253                                EQU  0000006A   2157*
_WKSQCB254                                EQU  0000006C   2158*
_WKSQCB255                                EQU  0000006E   2159*
_WKSQCB256                                EQU  00000070   2160*
_WKSQCB257                                EQU  00000072   2161*
_WKSQCB258                                EQU  00000074   2162*
_WKSQCB259                                EQU  00000076   2163*
_WKSQCB260                                EQU  00000078   2164*
_WKSQCB261                                EQU  0000007A   2165*
_WKSQCB262                                EQU  0000007C   2166*
_WKSQCB263                                EQU  0000007E   2167*
*** SuperH RISC engine ASSEMBLER V.7.01.02.000 ***    11/14/21 17:24:34                                                  PAGE   136

*** CROSS REFERENCE LIST

NAME                             SECTION  ATTR VALUE             SEQUENCE

_WKSQCB264                                EQU  00000080   2168*
_WKSQCB265                                EQU  00000082   2169*
_WKSQCB266                                EQU  00000084   2170*
_WKSQCB267                                EQU  00000086   2171*
_WKSQCB268                                EQU  00000088   2172*
_WKSQCB269                                EQU  0000008A   2173*
_WK_ERR_INFO_CPU_TOP                      IMPT 00000000   3522 
_WK_SIN_RCAMOF_SW1                        IMPT 00000000   3300 
_WK_SIN_RCAMON_SW1                        IMPT 00000000   3299 
_WK_SIN_RCAM_OF_DIG                       IMPT 00000000   3285 
_WK_SIN_RCAM_OF_KOUTEI                    IMPT 00000000   3292 
_WK_SIN_RCAM_OF_SPD                       IMPT 00000000   3293 
_WK_SIN_RCAM_ON_DIG                       IMPT 00000000   3284 
_WK_SIN_RCAM_ON_KOUTEI                    IMPT 00000000   3290 
_WK_SIN_RCAM_ON_SPD                       IMPT 00000000   3291 
_WK_SIN_RCAM_SQOF1                        IMPT 00000000   3297 
_WK_SIN_RCAM_SQON1                        IMPT 00000000   3296 
_WOANT                                    EQU  00000010   2337*
_WOATO                                    EQU  00000040   2339*
_WOFCY                                    EQU  00000080   2340*
_WOQST                                    EQU  00000001   2333*
_WORCY                                    EQU  00000100   2341*
_WORDY                                    EQU  00000020   2338*
_WORST                                    EQU  00000200   2342*
_WOVN1                                    EQU  00000002   2334*
_WOVN2                                    EQU  00000004   2335*
_WOVN3                                    EQU  00000008   2336*
_WPARX_BRKTST_DNDLMT                      IMPT 00000000   4588 
_WPARX_BRKTST_ORGDEGX                     IMPT 00000000   4396 
_WPARX_BRKTST_ORGPLS                      IMPT 00000000   4397 
_WPARX_BRKTST_STPDEGX                     IMPT 00000000   4146 
_WPARX_BRKTST_STPLNG                      IMPT 00000000   4148 
_WPARX_BRKTST_STPPLS                      IMPT 00000000   4147 
_WPARX_COP_DNDRV1_SDG1                    IMPT 00000000   4113 
_WPARX_COP_DNDRV1_SDG2                    IMPT 00000000   4114 
_WPARX_COP_DNDRV1_ZDG1                    IMPT 00000000   4111 
_WPARX_COP_DNDRV1_ZDG2                    IMPT 00000000   4112 
_WPARX_COP_DNDRV2_SDG1                    IMPT 00000000   4117 
_WPARX_COP_DNDRV2_SDG2                    IMPT 00000000   4118 
_WPARX_COP_DNDRV2_ZDG1                    IMPT 00000000   4115 
_WPARX_COP_DNDRV2_ZDG2                    IMPT 00000000   4116 
_WPARX_ELSE_ORGDEGX                       IMPT 00000000   4689 
_WPARX_ELSE_ORGPLS                        IMPT 00000000   4688 
_WPAR_360STP_HAB                          IMPT 00000000   4038 
_WPAR_ACCTYP_SEL                          IMPT 00000000   3964 
_WPAR_ACC_MATHED                          IMPT 00000000   4208 
_WPAR_ANAIN_SEL                           IMPT 00000000   3962 
_WPAR_BKTMCL_ACCCK                        IMPT 00000000   4635 
_WPAR_BRK1_ACCTM                          IMPT 00000000   3393 
_WPAR_BRK1_DLYTM                          IMPT 00000000   3392 
_WPAR_BRK2_ACCTM                          IMPT 00000000   3394 
_WPAR_BRKTCHK_SPD                         IMPT 00000000   4136 
_WPAR_BRKTOUT_SPD                         IMPT 00000000   4135 
_WPAR_BRKTST_ORGDEG                       IMPT 00000000   4395 
*** SuperH RISC engine ASSEMBLER V.7.01.02.000 ***    11/14/21 17:24:34                                                  PAGE   137

*** CROSS REFERENCE LIST

NAME                             SECTION  ATTR VALUE             SEQUENCE

_WPAR_BRK_SEL_SPD                         IMPT 00000000   3391 
_WPAR_CMP_ERR_TIM1                        IMPT 00000000   4289 
_WPAR_CMP_ERR_TIM2                        IMPT 00000000   4290 
_WPAR_COP_CNTROT_SDG1                     IMPT 00000000   3335 
_WPAR_COP_CNTROT_SDG2                     IMPT 00000000   3336 
_WPAR_COP_CNTROT_ZDG1                     IMPT 00000000   3333 
_WPAR_COP_CNTROT_ZDG2                     IMPT 00000000   3334 
_WPAR_COP_DISP_SPM1                       IMPT 00000000   4300 
_WPAR_COP_REVRSE_SDG1                     IMPT 00000000   3340 
_WPAR_COP_REVRSE_SDG2                     IMPT 00000000   3341 
_WPAR_COP_REVRSE_ZDG1                     IMPT 00000000   3338 
_WPAR_COP_REVRSE_ZDG2                     IMPT 00000000   3339 
_WPAR_COP_SDG1                            IMPT 00000000   3345 
_WPAR_COP_SDG2                            IMPT 00000000   3346 
_WPAR_COP_ZDG1                            IMPT 00000000   3343 
_WPAR_COP_ZDG2                            IMPT 00000000   3344 
_WPAR_CUPCHK_SEL                          IMPT 00000000   4037 
_WPAR_DAIHAI_SEL                          IMPT 00000000   4354 
_WPAR_DRVHOS_AVLCNT                       IMPT 00000000   2953 
_WPAR_DRVHOS_DIG1                         IMPT 00000000   2950 
_WPAR_DRVHOS_DIG2                         IMPT 00000000   2951 
_WPAR_DRVHOS_NO_USE                       IMPT 00000000   2954 
_WPAR_DRVHOS_SEL1                         IMPT 00000000   2949 
_WPAR_DRVHOS_WAITCNT                      IMPT 00000000   2952 
_WPAR_ILNGERR_DIG                         IMPT 00000000   3397 
_WPAR_ILNGERR_LNG                         IMPT 00000000   3396 
_WPAR_INCOVER_LNG                         IMPT 00000000   3362 
_WPAR_INCOVER_LNG1                        IMPT 00000000   3363 
_WPAR_INCOVER_LNG2                        IMPT 00000000   3364 
_WPAR_INCREV_EDYTM                        IMPT 00000000   3365 
_WPAR_INCSTP_EDYTM                        IMPT 00000000   3369 
_WPAR_INCSTP_EDYTM1                       IMPT 00000000   3367 
_WPAR_INCSTP_EDYTM2                       IMPT 00000000   3368 
_WPAR_KJYU_STOPTBL                        IMPT 00000000   4183 
_WPAR_LSA_FILTIM                          IMPT 00000000   3731 
_WPAR_MCNRNA_SEL                          IMPT 00000000   4036 
_WPAR_ORGDRV_MD2                          IMPT 00000000   4319 
_WPAR_ORGMOD2_TIM                         IMPT 00000000   3816 
_WPAR_ORGPOS_LNG1                         IMPT 00000000   4379 
_WPAR_OVRLIDE_GMN                         IMPT 00000000   3865 
_WPAR_RNA_SFTY_LNG1                       IMPT 00000000   3371 
_WPAR_SFYOPT_USEL                         IMPT 00000000   4137 
_WPAR_SLDALM_LNG                          IMPT 00000000   4361 
_WPAR_SLDALM_TIM                          IMPT 00000000   4362 
_WPAR_STOPING_TIM                         IMPT 00000000   4206 
_WPAR_ZERO_SPD                            IMPT 00000000   3390 
_WPVX_KAJLIV_TTL                          IMPT 00000000   4186 
_WPV_ABS_AD_DATA                          IMPT 00000000   3970 
_WPV_AD_DATA                              IMPT 00000000   3969 
_WPV_CB_STS_DAT_TOP                       IMPT 00000000   5390 
_WPV_CB_STS_POINT                         IMPT 00000000   5415 
_WPV_CB_TRD_DAT_TOP                       IMPT 00000000   5391 
_WPV_CB_TRD_POINT                         IMPT 00000000   5416 
_WPV_POWER_MONI                           IMPT 00000000   3971 
*** SuperH RISC engine ASSEMBLER V.7.01.02.000 ***    11/14/21 17:24:34                                                  PAGE   138

*** CROSS REFERENCE LIST

NAME                             SECTION  ATTR VALUE             SEQUENCE

_WPV_POWER_ON_CNT                         IMPT 00000000   5417 
_WPV_SCAN_MAX01                           IMPT 00000000   4771 
_WPV_SCAN_MAX10                           IMPT 00000000   4770 
_WPV_SCAN_TIM_AVL                         IMPT 00000000   4767 
_WPV_SCAN_TIM_REAL                        IMPT 00000000   4766 
_WR_CB_SYS_CHKCOD1                        EQU  00001234   2215*
_WR_CB_SYS_CHKCOD2                        EQU  00004321   2216*
_WR_CB_SYS_CHKCOD3                        EQU  00005678   2217*
_WR_CB_SYS_CHKCOD4                        EQU  00008765   2218*
_WSVXY_CLNK_UP_POS                        IMPT 00000000   4103 
_WSVXY_CLNK_UP_POS_DN                     IMPT 00000000   4105 
_WSVXY_CLNK_UP_POS_UP                     IMPT 00000000   4104 
_WSVX_CLNK_UP_POS                         IMPT 00000000   2697 
_WSVX_CLNK_UP_POS_DN                      IMPT 00000000   2699 
_WSVX_CLNK_UP_POS_UP                      IMPT 00000000   2698 
_WXPV_ERR_DISP                            IMPT 00000000   3641 
_W_PARAM_TOP                              IMPT 00000000   4554 
_X_PROTCOL_TMP_ANS                        IMPT 00000000   5272 
_X_PROTCOL_TMP_EVENTCNT                   IMPT 00000000   5267 
_X_PROTCOL_TMP_FLG                        IMPT 00000000   5260 
_X_PROTCOL_TMP_LNG_PVTM                   IMPT 00000000   5265 
_X_PROTCOL_TMP_LNG_SVTM                   IMPT 00000000   5264 
_X_PROTCOL_TMP_PV1                        IMPT 00000000   5273 
_X_PROTCOL_TMP_PV2                        IMPT 00000000   5261 
_X_PROTCOL_TMP_PVLNG                      IMPT 00000000   5263 
_X_PROTCOL_TMP_REQ                        IMPT 00000000   5271 
_X_PROTCOL_TMP_SVLNG                      IMPT 00000000   5262 
_X_PROTCOL_TMP_TIME_PV                    IMPT 00000000   5268 
_X_R2_MUL_R1_DIV_R4                       IMPT 00000000   7435 
_ZERO_INCENC                              EQU  00000000   2047*
_ZERO_INCHEN                              EQU  00000000   2046*
_ZERO_INCREV                              EQU  00000000   2051*
_ZERO_INCRNA                              EQU  00000001   2048*
_ZERO_INCSTP                              EQU  00000000   2049*
_ZERO_RNAREV                              EQU  00000001   2052*
_ZERO_RNASTP                              EQU  00000001   2050*
_cbsys_tbl_err                            IMPT 00000000   4228 
_di1_cb_ctl1                              IMPT 00000000   2490 
_di1_cb_ctl1_dt                           IMPT 00000000   2498 
_di1_cb_ctl1_of                           IMPT 00000000   2500 
_di1_cb_ctl1_on                           IMPT 00000000   2499 
_di2_cb_ctl2                              IMPT 00000000   2491 
_di2_cb_ctl2_dt                           IMPT 00000000   2502 
_di2_cb_ctl2_of                           IMPT 00000000   2504 
_di2_cb_ctl2_on                           IMPT 00000000   2503 
_di3_cb_inp1                              IMPT 00000000   2492 
_di3_cb_inp1_dt                           IMPT 00000000   2496 
_di4_cb_inp2                              IMPT 00000000   2493 
_dq1_cb_out1                              IMPT 00000000   2494 
_emg_err_flg                              IMPT 00000000   2574 
_emg_lev_flg                              IMPT 00000000   2573 
_exq_err_flg                              IMPT 00000000   2577 
_exq_lev_flg                              IMPT 00000000   2575 
_pass_err_flg1                            IMPT 00000000   2571 
*** SuperH RISC engine ASSEMBLER V.7.01.02.000 ***    11/14/21 17:24:34                                                  PAGE   139

*** CROSS REFERENCE LIST

NAME                             SECTION  ATTR VALUE             SEQUENCE

_pass_err_flg2                            IMPT 00000000   2572 
_reset_dly_tim                            IMPT 00000000   2595 
_reset_flg                                IMPT 00000000   2594 
*** SuperH RISC engine ASSEMBLER V.7.01.02.000 ***    11/14/21 17:24:34                                                  PAGE   140

*** SECTION DATA LIST

SECTION                          ATTRIBUTE    SIZE             START

P                                REL-CODE    000000358        
