*** SuperH RISC engine ASSEMBLER V.7.01.02.000 ***    11/14/21 17:24:39                                                  PAGE     1
PROGRAM NAME =

    1                               1     ;       ***************************************************
    2                               2     ;       ***                                             ***
    3                               3     ;       ***                                             ***
    4                               4     ;       ***     位置関連のテーブル演算                  ***
    5                               5     ;       ***                                             ***
    6                               6     ;       ***                                             ***
    7                               7     ;       ***************************************************
 7438                              21     
 7439                              22     
 7440 00000000                     23             .SECTION        P,CODE                  ;
 7441                              24     
 7442                              25     ;       //      ***********************************
 7443                              26     ;       //      ***     EXTERN 宣言 PROGRAM     ***
 7444                              27     ;       //      ***********************************
 7445                              28     
 7446                              29     
 7447                              30     ;       //      ***********************************
 7448                              31     ;       //      ***     EXTERN 宣言 MEMORY,HARD ***
 7449                              32     ;       //      ***********************************
 7450                              33             .IMPORT _DIG_PLS_CHG_INF1_TOP           ;SSA_TBL1.SRC
 7451                              34             .IMPORT _DIG_PLS_CHG_TBL1_TOP           ;
 7452                              35     
 7453                              36     
 7454                              37             .IMPORT _PLS_DIG_CHG_INF1_TOP           ;
 7455                              38             .IMPORT _PLS_DIG_CHG_TBL1_TOP           ;下りSSA_TBL1.SRC
 7456                              39             .IMPORT _PLS_DIG_CHG_TBL2_TOP           ;上り
 7457                              40     
 7458                              41     ;       //      ***********************************
 7459                              42     ;       //      ***     PUBLIC 宣言 PROGRAM     ***
 7460                              43     ;       //      ***********************************
 7461                              44             .export _DIG36000_CHG_RENEA1            ;表示+制御+異常
 7462                              45             .EXPORT _RENEA_1ROT_PLS_AND_DIG_MAK1    ;原点出し用,表示用
 7463                              46             .EXPORT _RENEA_1ROT_PLS_AND_DIG_MAK2    ;
 7464                              47     
 7465                              48     
 7466                              49     ;       *******************************************
 7467                              50     ;       ***                                     ***
 7468                              51     ;       ***                                     ***
 7469                              52     ;       ***                                     ***
 7470                              53     ;       *******************************************
 7471                              54     
 7472                              55     
 7473                              56     ;       ***********************************************************
 7474                              57     ;       ***                                                     ***
 7475                              58     ;       ***     ﾘﾆｱｽｹｰﾙ次元の位置入力と360.0からﾊﾟﾙｽを求める    ***
 7476                              59     ;       ***                                                     ***
 7477                              60     ;       ***********************************************************
 7478                              61     ;       Input R2 0~360.0度(360度ｴﾝｺｰﾀﾞ)or R2:1回転ﾊﾟﾙｽ
 7479                              62     ;       Input R5 ﾘﾆｱｽｹｰﾙ位置(0.001mm)
 7480                              63     ;       上死点設定~下死点（180）の間は下降
 7481                              64     ;       ﾘﾆｱ位置と方向判別からﾘﾆｱの角度またはﾊﾟﾙｽを求める
 7482                              65     ;
 7483                              66     ;       "Cでも使える:ﾃﾞｰﾀ変換  そのままﾁｪｯｸﾌﾟﾛｸﾞﾗﾑに使用できる"
 7484                              67     ;
 7485 00000000                     68     _RENEA_1ROT_PLS_AND_DIG_MAK1:
 7486                              69             SUB_START
 7487 00000000 4F22                   M           STS.L   PR,@-R15                ;[必要]
*** SuperH RISC engine ASSEMBLER V.7.01.02.000 ***    11/14/21 17:24:39                                                  PAGE     2
PROGRAM NAME =

 7488                                 M   ;;;;;;; ADD     #-4,R15                 ;[不要?]
 7489 00000002 D405                70             MOV.L   #_SETX_UPDN_CHK_DN_DIG,R4       ;(下死点~上死点)
 7490 00000004 6142                71             MOV.L   @R4,R1                          ;
 7491 00000006 D405                72             MOV.L   #_SETX_UPDN_CHK_UP_DIG,R4       ;
 7492 00000008 6342                73             MOV.L   @R4,R3                          ;
 7493                              74             FAR_JSR #_DIG_AREA_CHK0,R0              ;(R0=1 ARAE内 上昇)
 7494 0000000A D005                   M           MOV.L   #_DIG_AREA_CHK0,R0              ;ﾃｰﾌﾞﾙｱﾄﾞﾚｽの内容をREGへ
 7495 0000000C 400B                   M           JSR     @R0                     ;
 7496 0000000E 0009                   M           NOP                                     ;
 7497 00000010 6E03                75             MOV     R0,R14                          ;方向
 7498                              76             M_BRA   RENEA_1ROT_PLS_MAK_STR
 7499 00000012 A021                   M           BRA     RENEA_1ROT_PLS_MAK_STR
 7500 00000014 0009                   M           NOP
 7501                              77     
 7502                              78     ;       Input R2 ﾊﾟﾙｽ 1回転内
 7503                                     ***** BEGIN-POOL *****
 7504 00000016 0000                       ALIGNMENT CODE
 7505 00000018 00000000                   DATA FOR SOURCE-LINE 70
 7506 0000001C 00000000                   DATA FOR SOURCE-LINE 72
 7507 00000020 00000000                   DATA FOR SOURCE-LINE 74
 7508                                     ***** END-POOL *****
 7509 00000024                     79     _RENEA_1ROT_PLS_AND_DIG_MAK2:
 7510                              80             SUB_START
 7511 00000024 4F22                   M           STS.L   PR,@-R15                ;[必要]
 7512                                 M   ;;;;;;; ADD     #-4,R15                 ;[不要?]
 7513 00000026 D406                81             MOV.L   #_SETX_UPDN_CHK_DN_PLS,R4               ;
 7514 00000028 6142                82             MOV.L   @R4,R1                                  ;
 7515 0000002A D406                83             MOV.L   #_SETX_UPDN_CHK_UP_PLS,R4               ;
 7516 0000002C 6342                84             MOV.L   @R4,R3                                  ;
 7517 0000002E 3313                85             CMP/GE  R1,R3                                   ;R1 =< R3 (必ずこうならなければい
                                          けない)
 7518 00000030 890A                86             BT      RENEA_1ROT_PLSMK2_050                   ;
 7519                              87     ;       ==== 180~10 == 上昇
 7520 00000032 3213                88             CMP/GE  R1,R2                                   ;
 7521 00000034 890F                89             BT      RENEA_1ROT_PLSMK2_200                   ;上昇
 7522 00000036 3323                90             CMP/GE  R2,R3                                   ;
 7523 00000038 890D                91             BT      RENEA_1ROT_PLSMK2_200                   ;上昇
 7524                              92             M_BRA   RENEA_1ROT_PLSMK2_100                   ;下降
 7525 0000003A A009                   M           BRA     RENEA_1ROT_PLSMK2_100
 7526 0000003C 0009                   M           NOP
 7527                              93     
 7528                                     ***** BEGIN-POOL *****
 7529 0000003E 0000                       ALIGNMENT CODE
 7530 00000040 00000000                   DATA FOR SOURCE-LINE 81
 7531 00000044 00000000                   DATA FOR SOURCE-LINE 83
 7532                                     ***** END-POOL *****
 7533 00000048                     94     RENEA_1ROT_PLSMK2_050:
 7534                              95     ;       ==== 180~350 ===
 7535 00000048 3213                96             CMP/GE  R1,R2                                   ;R1=<R2
 7536 0000004A 8B01                97             BF      RENEA_1ROT_PLSMK2_100                   ;
 7537 0000004C 3323                98             CMP/GE  R2,R3                                   ;R2=<R3
 7538 0000004E 8902                99             BT      RENEA_1ROT_PLSMK2_200                   ;上昇
 7539 00000050                    100     RENEA_1ROT_PLSMK2_100:
 7540 00000050 2EEA               101             XOR     R14,R14                                 ;0:下降
 7541                             102             M_BRA   RENEA_1ROT_PLS_MAK_STR
 7542 00000052 A001                   M           BRA     RENEA_1ROT_PLS_MAK_STR
 7543 00000054 0009                   M           NOP
*** SuperH RISC engine ASSEMBLER V.7.01.02.000 ***    11/14/21 17:24:39                                                  PAGE     3
PROGRAM NAME =

 7544                             103     
 7545 00000056                    104     RENEA_1ROT_PLSMK2_200:
 7546 00000056 EE01               105             MOV     #1,R14                                  ;上昇
 7547 00000058                    106     RENEA_1ROT_PLS_MAK_STR:
 7548                             107     ;;;;;   MOV.L   #_RNA_CTL_POS1,R1                       ;//制御位置
 7549                             108     ;;;;;   MOV.L   @R1,R2                                  ;
 7550 00000058 6253               109             MOV     R5,R2                                   ;Input data
 7551                             110             FAR_JSR #_RENEA_CHG1_DIG_INCPLS,R0              ;(ﾊﾟﾙｽを作成) InputR2(mm),R14(DIR)
 7552 0000005A D008                   M           MOV.L   #_RENEA_CHG1_DIG_INCPLS,R0              ;ﾃｰﾌﾞﾙｱﾄﾞﾚｽの内容をREGへ
 7553 0000005C 400B                   M           JSR     @R0                     ;
 7554 0000005E 0009                   M           NOP                                     ;
 7555                             111     ;       ===Output R2 ====
 7556                             112             PUSH_REG1 R2                                    ;1REV
 7557 00000060 2F26                   M           MOV.L   R2,@-R15                ;PUSH=SP-4
 7558                                 M                                           ;REG=>[SP]
 7559                                 M                                           ;"-4" FF,FF,FF,FC
 7560                             113     
 7561 00000062 D007               114             MOV.L   #_SETY_INCPLS_HOSM01X,R0                ;//0.1度
 7562 00000064 6102               115             MOV.L   @R0,R1                                  ;
 7563                             116     
 7564 00000066 D007               117             MOV.L   #_CALC_MEM_1REV_MUL_NROT,R0             ;
 7565 00000068 6402               118             MOV.L   @R0,R4                                  ;R2:X回転
 7566                             119     ;;      FAR_JSR #_FPU_R2_MUL_R1_DIV_R4,R0               ;R2*1REV*HOSN/HOSM
 7567                             120             FAR_JSR #_X_R2_MUL_R1_DIV_R4,R0
 7568 0000006A D007                   M           MOV.L   #_X_R2_MUL_R1_DIV_R4,R0         ;ﾃｰﾌﾞﾙｱﾄﾞﾚｽの内容をREGへ
 7569 0000006C 400B                   M           JSR     @R0                     ;
 7570 0000006E 0009                   M           NOP                                     ;
 7571                             121     
 7572                             122     
 7573 00000070 6323               123             MOV     R2,R3                                   ;DIG
 7574                             124             POP_REG1 R2                                     ;R2:ﾊﾟﾙｽ
 7575                                 M                                   ; RE"+4" 00,00,00,04
 7576 00000072 62F6                   M           MOV.L   @R15+,R2        ;
 7577                             125             SUB_END
 7578                                 M   ;;;;;;; ADD     #4,R15                  ;[不要?]
 7579 00000074 4F26                   M           LDS.L   @R15+,PR                ;[必要]
 7580                             126             M_RTS
 7581 00000076 000B                   M           RTS                             ;RTSの後ろの
 7582 00000078 0009                   M           NOP                             ;@R15+,PRはﾀﾞﾒ
 7583                             127     
 7584                             128     
 7585                             129     ;       ***************************************************
 7586                             130     ;       ***                                             ***
 7587                             131     ;       ***     角度 0~360.000==>0.000~500.000mm        ***
 7588                             132     ;       ***                                             ***
 7589                             133     ;       ***************************************************
 7590                             134     ;       === ﾃﾞﾊﾞｯｸ用として 360.0(360.00)ｴﾝｺｰﾀﾞからﾘﾆｱｴﾝｺｰﾀﾞを作る====
 7591                             135     ;       Input R2 360.000度 4byte(符号注意)
 7592                             136     ;       ANS   R2 0~+***.***mm
 7593                             137     ;
 7594                             138     ;       TBL_N= dig_x(360000)/deltx(50)...MODx(50)
 7595                             139     ;       TBL_N_1 ==>YN_1(0~10000%) Yn_1'= YN_1 *RENEA_STL/10000
 7596                             140     ;       TBL_N   ==>Yn  (0~10000%) Yn'  = YN   *RENEA_STL/10000
 7597                             141     ;                       XN_1=(TBL_N-1)*deltx
 7598                             142     ;                       XN  =TBL_N*deltx
 7599                             143     ;
 7600                             144     ;       y=(Yn'-Yn_1')/(XN-XN_1) * (dig_x-XN_1) + Yn_1'
*** SuperH RISC engine ASSEMBLER V.7.01.02.000 ***    11/14/21 17:24:39                                                  PAGE     4
PROGRAM NAME =

 7601                             145     ;       y=(Yn'-Yn_1')/(deltx) * (MODx) + Yn_1'
 7602                             146     ;
 7603                             147     ;
 7604                                     ***** BEGIN-POOL *****
 7605 0000007A 0000                       ALIGNMENT CODE
 7606 0000007C 00000000                   DATA FOR SOURCE-LINE 110
 7607 00000080 00000000                   DATA FOR SOURCE-LINE 114
 7608 00000084 00000000                   DATA FOR SOURCE-LINE 117
 7609 00000088 00000000                   DATA FOR SOURCE-LINE 120
 7610                                     ***** END-POOL *****
 7611 0000008C                    148     _DIG36000_CHG_RENEA1:
 7612                             149             SUB_START
 7613 0000008C 4F22                   M           STS.L   PR,@-R15                ;[必要]
 7614                                 M   ;;;;;;; ADD     #-4,R15                 ;[不要?]
 7615 0000008E D018               150             MOV.L   #_DIG_PLS_CHG_INF1_TOP,R0                       ;
 7616 00000090 401E               151             LDC     R0,GBR                                          ;
 7617 00000092 C602               152             MOV.L   @(_DG_PS_INF_UNIT,GBR),R0                       ;D'50(0.050)
 7618 00000094 6403               153             MOV     R0,R4                                           ;
 7619 00000096 6803               154             MOV     R0,R8                                           ;"ﾃﾞｰﾀ退避"
 7620                             155             FAR_JSR #_FPU_DIVS_32REG2_DIV_32REG4_R2_MOD_R1,R0       ;R2...R1
 7621 00000098 D016                   M           MOV.L   #_FPU_DIVS_32REG2_DIV_32REG4_R2_MOD_R1,R0               ;ﾃｰﾌﾞﾙｱﾄﾞﾚｽの内容
                                          をREGへ
 7622 0000009A 400B                   M           JSR     @R0                     ;
 7623 0000009C 0009                   M           NOP                                     ;
 7624 0000009E 6323               156             MOV     R2,R3
 7625 000000A0 C601               157             MOV.L   @(_DG_PS_INF_CONT,GBR),R0                       ;ﾃｰﾌﾞﾙMAX D'7200(7201個のﾃ
                                          ｰﾌﾞﾙ作成する)
 7626 000000A2 70FF               158             ADD     #-1,R0                                          ;
 7627 000000A4 3032               159             CMP/HS  R3,R0                                           ;7199
 7628 000000A6 8901               160             BT      DIG36000_CHG_RNA1_050                           ;(36000はありえない)
 7629 000000A8 6303               161             MOV     R0,R3                                           ;7199
 7630 000000AA 211A               162             XOR     R1,R1                                           ;
 7631 000000AC                    163     DIG36000_CHG_RNA1_050                                           ;
 7632 000000AC 4300               164             SHLL    R3
 7633 000000AE D512               165             MOV.L   #_DIG_PLS_CHG_TBL1_TOP+1*2,R5                   ;
 7634 000000B0 353C               166             ADD     R3,R5                                           ;
 7635 000000B2 6255               167             MOV.W   @R5+,R2                                         ;"7200" 7201個のﾃｰﾌﾞﾙを作
                                          成
 7636 000000B4 622D               168             EXTU.W  R2,R2
 7637 000000B6 6651               169             MOV.W   @R5,R6                                          ;ﾃﾞｰﾀ退避
 7638 000000B8 666D               170             EXTU.W  R6,R6
 7639 000000BA 4301               171             SHLR    R3                                              ;
 7640 000000BC 3032               172             CMP/HS  R3,R0                                           ;
 7641 000000BE 8901               173             BT      DIG36000_CHG_RNA1_100                           ;7199
 7642 000000C0 C604               174             MOV.L   @(_DG_PS_INF_LATE,GBR),R0                       ;ﾃｰﾌﾞﾙのMAX(10000)
 7643 000000C2 6603               175             MOV     R0,R6                                           ;
 7644 000000C4                    176     DIG36000_CHG_RNA1_100                                           ;
 7645                             177     
 7646                             178     ;       ==== 0~100.00%===
 7647 000000C4 C604               179             MOV.L   @(_DG_PS_INF_LATE,GBR),R0                       ;100.00%
 7648 000000C6 6403               180             MOV     R0,R4
 7649 000000C8 6713               181             MOV     R1,R7                                           ;余り PUSH
 7650 000000CA D00C               182             MOV.L   #_RNA_STLORK,R0                                 ;
 7651 000000CC 6102               183             MOV.L   @R0,R1                                          ;
 7652                             184     ;;      FAR_JSR #_FPU_R2_MUL_R1_DIV_R4,R0                       ;R2(0~100.00)*STL/100.00 [
                                          R2以外はﾚｼﾞｽﾀ保証有り]
 7653                             185             FAR_JSR #_X_R2_MUL_R1_DIV_R4,R0
*** SuperH RISC engine ASSEMBLER V.7.01.02.000 ***    11/14/21 17:24:39                                                  PAGE     5
PROGRAM NAME =

 7654 000000CE D00C                   M           MOV.L   #_X_R2_MUL_R1_DIV_R4,R0         ;ﾃｰﾌﾞﾙｱﾄﾞﾚｽの内容をREGへ
 7655 000000D0 400B                   M           JSR     @R0                     ;
 7656 000000D2 0009                   M           NOP                                     ;
 7657 000000D4 6323               186             MOV     R2,R3                                           ;Yn_1
 7658 000000D6 6263               187             MOV     R6,R2                                           ;R2(Yn),R3(Yn_1),余り(R1)
 7659                             188     ;;      FAR_JSR #_FPU_R2_MUL_R1_DIV_R4,R0                       ;R2 Yn(mm変換)
 7660                             189             FAR_JSR #_X_R2_MUL_R1_DIV_R4,R0
 7661 000000D8 D009                   M           MOV.L   #_X_R2_MUL_R1_DIV_R4,R0         ;ﾃｰﾌﾞﾙｱﾄﾞﾚｽの内容をREGへ
 7662 000000DA 400B                   M           JSR     @R0                     ;
 7663 000000DC 0009                   M           NOP                                     ;
 7664 000000DE 6173               190             MOV     R7,R1                                           ;
 7665 000000E0 6483               191             MOV     R8,R4                                           ;R4(Xn-Xn_1)
 7666 000000E2 6633               192             MOV     R3,R6                                           ;<異常ﾃﾞｰﾀ時の処理ﾃﾞｰﾀ>
 7667                             193     ;       ===== 直線補間 ====
 7668                             194     ;       R3:Yn_1 (0.001mm単位)
 7669                             195     ;       R2:Yn   (0.001mm単位)   R4:Xn - Xn_1(50 0.050度)
 7670                             196     ;       ANS:R2=y                R1:x  - Xn_1(余り 0.001度単位)
 7671                             197     ;       limit R6(Yn)
 7672                             198             FAR_JSR #_FPU_TIM_HOKAN1,R0                             ;Yn
 7673 000000E4 D007                   M           MOV.L   #_FPU_TIM_HOKAN1,R0             ;ﾃｰﾌﾞﾙｱﾄﾞﾚｽの内容をREGへ
 7674 000000E6 400B                   M           JSR     @R0                     ;
 7675 000000E8 0009                   M           NOP                                     ;
 7676                             199             SUB_END
 7677                                 M   ;;;;;;; ADD     #4,R15                  ;[不要?]
 7678 000000EA 4F26                   M           LDS.L   @R15+,PR                ;[必要]
 7679                             200             M_RTS
 7680 000000EC 000B                   M           RTS                             ;RTSの後ろの
 7681 000000EE 0009                   M           NOP                             ;@R15+,PRはﾀﾞﾒ
 7682                             201     
 7683                             202     ;       === ｲﾝｸﾘﾒﾝﾀﾙﾊﾟﾙｽからmmへの変換(0.001度と対して変わらない精度だよ)===
 7684                             203     ;       16回転 360
 7685                             204     ;       360/(16*8192)=0.002746度[1pls]
 7686                             205     
 7687                             206     ;       ***************************************************
 7688                             207     ;       ***                                             ***
 7689                             208     ;       ***     0.000~500.000mm==>角度 0~360.000        ***
 7690                             209     ;       ***     0.000~500.000mm==>角度 ｲﾝｸﾘﾒﾝﾀﾙﾊﾟﾙｽ     ***
 7691                             210     ;       ***                                             ***
 7692                             211     ;       ***************************************************
 7693                             212     ;       =====mmから角度への変換===
 7694                             213     ;       RENEA-->
 7695                             214     ;       EXCELの試しの式
 7696                             215     ;                       (-1*RENEA+STL)*180.00/STL
 7697                             216     ;                        36000-(-1*RENEA+STL)*180.00/STL
 7698                             217     ;
 7699                             218     ;       Input R2 mm ﾘﾆｱ(下死点高さ位置 ﾏｲﾅｽはなくす)
 7700                             219     ;       Input "どっちのテーブルを使うか判別できるデータ" R14==0:TBL1 R14!==1:TBL2
 7701                             220     ;       Input R10:角度を求めたいか?ﾊﾟﾙｽを求めたいか?
 7702                             221     ;
 7703                             222     ;
 7704                             223     ;
 7705                             224     ;
 7706                             225     ;       TBL_N= (renea_x(mm)*10000/STL) *1/1 TABLEが選ばれる.余りはない
 7707                             226     ;       TBL_N_1 ==>YN_1(0~360.00) Yn_1'= YN_1*10
 7708                             227     ;       TBL_N   ==>Yn  (0~360.00) Yn'  = YN  *10
 7709                             228     ;       XN_1mm=TBL_N*STL/10000%
 7710                             229     ;       XNmm  =(TBL_N+1)*STL/10000%
*** SuperH RISC engine ASSEMBLER V.7.01.02.000 ***    11/14/21 17:24:39                                                  PAGE     6
PROGRAM NAME =

 7711                             230     ;                       XN_1=(TBL_N)*deltx
 7712                             231     ;                       XN  =(TBL_N+1)*50*deltx
 7713                             232     ;       renea_x*10000/STL =TBLn...Mod
 7714                             233     ;       10000を無次元として扱う
 7715                             234     ;       XN_1=TBLn_1*STL  /10000=0.001mm
 7716                             235     ;       XN  =TBLn  *STL  /10000=0.001mm
 7717                             236     ;       y=(Yn'-Yn_1')/(XN-XN_1) * (X-XN_1) + Yn_1'
 7718                             237     ;
 7719                             238     ;       R9==0 RENEA==>360.000変換
 7720                             239     ;       R9!=0
 7721                             240     ;       ﾘﾆｱﾃｰﾌﾞﾙは4BYTE
 7722                                     ***** BEGIN-POOL *****
 7723 000000F0 00000000                   DATA FOR SOURCE-LINE 150
 7724 000000F4 00000000                   DATA FOR SOURCE-LINE 155
 7725 000000F8 00000000                   DATA FOR SOURCE-LINE 165
 7726 000000FC 00000000                   DATA FOR SOURCE-LINE 182
 7727 00000100 00000000                   DATA FOR SOURCE-LINE 185,189
 7728 00000104 00000000                   DATA FOR SOURCE-LINE 198
 7729                                     ***** END-POOL *****
 7730 00000108                    241     _RENEA_CHG1_DIG_INCPLS:
 7731                             242             SUB_START
 7732 00000108 4F22                   M           STS.L   PR,@-R15                ;[必要]
 7733                                 M   ;;;;;;; ADD     #-4,R15                 ;[不要?]
 7734 0000010A EA01               243             MOV     #1,R10                          ;
 7735                             244             M_BRA   RENEA_CHG1_DIG_COM1             ;
 7736 0000010C A002                   M           BRA     RENEA_CHG1_DIG_COM1
 7737 0000010E 0009                   M           NOP
 7738                             245     
 7739 00000110                    246     _RENEA_CHG1_DIG36000:
 7740                             247             SUB_START
 7741 00000110 4F22                   M           STS.L   PR,@-R15                ;[必要]
 7742                                 M   ;;;;;;; ADD     #-4,R15                 ;[不要?]
 7743 00000112 2AAA               248             XOR     R10,R10                         ;
 7744                             249     
 7745                             250     
 7746 00000114                    251     RENEA_CHG1_DIG_COM1:
 7747 00000114 D019               252             MOV.L   #_PLS_DIG_CHG_INF1_TOP,R0                       ;
 7748 00000116 401E               253             LDC     R0,GBR                                          ;
 7749 00000118 4211               254             CMP/PZ  R2                                              ;
 7750 0000011A 8900               255             BT      RENEA_CHG1_DIG1_020                             ;
 7751 0000011C 222A               256             XOR     R2,R2                                           ;
 7752 0000011E                    257     RENEA_CHG1_DIG1_020:                                            ;
 7753 0000011E D018               258             MOV.L   #_RNA_STLORK,R0                                 ;
 7754 00000120 6802               259             MOV.L   @R0,R8                                          ;
 7755 00000122 6483               260             MOV     R8,R4                                           ;R8:RENEA_STLORK退避(R8=ST
                                          LORK_MAX)
 7756                             261     
 7757 00000124 3423               262             CMP/GE  R2,R4                                           ;=< R4
 7758 00000126 8900               263             BT      RENEA_CHG1_DIG1_040                             ;
 7759 00000128 6243               264             MOV     R4,R2                                           ;
 7760 0000012A                    265     RENEA_CHG1_DIG1_040:                                            ;
 7761 0000012A 6923               266             MOV     R2,R9                                           ;PVdata ﾃﾞｰﾀ退避(R9=PV_REN
                                          EA_POS)
 7762                             267                                                                     ;R9:RENEA_POS
 7763                             268     
 7764 0000012C C601               269             MOV.L   @(_PS_DG_INF_CONT,GBR),R0                       ;ﾃｰﾌﾞﾙMAX 10000(基数)
 7765 0000012E 6103               270             MOV     R0,R1                                           ;R1:MAX
*** SuperH RISC engine ASSEMBLER V.7.01.02.000 ***    11/14/21 17:24:39                                                  PAGE     7
PROGRAM NAME =

 7766 00000130 6B03               271             MOV     R0,R11                                          ;ﾃﾞｰﾀ退避(R11=10000)
 7767                             272     
 7768                             273     ;       R4:MAXmm
 7769                             274     ;       R2:PVmm
 7770                             275     ;;      FAR_JSR #_FPU_R2_MUL_R1_DIV_R4,R0                       ;PV_STL*0~10000/STL_MAX
 7771                             276             FAR_JSR #_X_R2_MUL_R1_DIV_R4,R0
 7772 00000132 D014                   M           MOV.L   #_X_R2_MUL_R1_DIV_R4,R0         ;ﾃｰﾌﾞﾙｱﾄﾞﾚｽの内容をREGへ
 7773 00000134 400B                   M           JSR     @R0                     ;
 7774 00000136 0009                   M           NOP                                     ;
 7775 00000138 6323               277             MOV     R2,R3                                           ;
 7776                             278     
 7777 0000013A 71FF               279             ADD     #-1,R1                                          ;10000-1
 7778 0000013C 3132               280             CMP/HS  R3,R1                                           ;9999
 7779 0000013E 8900               281             BT      RENEA_CHG1_DIG1_050                             ;
 7780 00000140 6313               282             MOV     R1,R3                                           ;TBLn_1
 7781 00000142                    283     RENEA_CHG1_DIG1_050:                                            ;
 7782 00000142 6733               284             MOV     R3,R7                                           ;TBLn_1:退避"R7=ﾃｰﾌﾞﾙn_1"
 7783                             285     
 7784                             286     
 7785 00000144 4300               287             SHLL    R3
 7786 00000146 D510               288             MOV.L   #_PLS_DIG_CHG_TBL1_TOP+1*2,R5                   ;(下降)
 7787 00000148 2EE8               289             TST     R14,R14
 7788                             290             TST_BIT_OF RENEA_CHG1_DIG1_080                          ;
 7789 0000014A 8900                   M           BT      RENEA_CHG1_DIG1_080
 7790 0000014C D50F               291             MOV.L   #_PLS_DIG_CHG_TBL2_TOP+1*2,R5                   ;(上昇)
 7791 0000014E                    292     RENEA_CHG1_DIG1_080:                                            ;
 7792                             293     
 7793 0000014E 353C               294             ADD     R3,R5                                           ;
 7794 00000150 6255               295             MOV.W   @R5+,R2                                         ;"360.00" 10001個のﾃｰﾌﾞﾙを
                                          作成
 7795 00000152 622D               296             EXTU.W  R2,R2                                           ;
 7796 00000154 6651               297             MOV.W   @R5,R6                                          ;"360.00"
 7797 00000156 666D               298             EXTU.W  R6,R6                                           ;
 7798 00000158 4301               299             SHLR    R3                                              ;
 7799                             300     
 7800                             301     
 7801 0000015A 3132               302             CMP/HS  R3,R1                                           ;
 7802 0000015C 8901               303             BT      RENEA_CHG1_DIG1_100                             ;
 7803 0000015E C604               304             MOV.L   @(_PS_DG_INF_LATE,GBR),R0                       ;360.00
 7804 00000160 6603               305             MOV     R0,R6                                           ;
 7805 00000162                    306     RENEA_CHG1_DIG1_100:                                            ;
 7806                             307     
 7807 00000162 2AA8               308             TST     R10,R10                                         ;
 7808                             309             TST_BIT_ON RENEA_CHG1_DIG1_220                          ;以降R10使用可能
 7809 00000164 8B16                   M           BF      RENEA_CHG1_DIG1_220
 7810                             310     ;       =======R2(Yn_1),R6(Yn):は角度の次元だ ====
 7811                             311             FAR_JSR #_DIG36000_CHG_DIG360000,R0                     ;Yn_1
 7812 00000166 D00A                   M           MOV.L   #_DIG36000_CHG_DIG360000,R0             ;ﾃｰﾌﾞﾙｱﾄﾞﾚｽの内容をREGへ
 7813 00000168 400B                   M           JSR     @R0                     ;
 7814 0000016A 0009                   M           NOP                                     ;
 7815                             312             PUSH_REG1 R2                                            ;R6(Yn),R2(Yn_1)
 7816 0000016C 2F26                   M           MOV.L   R2,@-R15                ;PUSH=SP-4
 7817                                 M                                           ;REG=>[SP]
 7818                                 M                                           ;"-4" FF,FF,FF,FC
 7819 0000016E 6263               313             MOV     R6,R2
 7820                             314             FAR_JSR #_DIG36000_CHG_DIG360000,R0                     ;Yn
 7821 00000170 D007                   M           MOV.L   #_DIG36000_CHG_DIG360000,R0             ;ﾃｰﾌﾞﾙｱﾄﾞﾚｽの内容をREGへ
*** SuperH RISC engine ASSEMBLER V.7.01.02.000 ***    11/14/21 17:24:39                                                  PAGE     8
PROGRAM NAME =

 7822 00000172 400B                   M           JSR     @R0                     ;
 7823 00000174 0009                   M           NOP                                     ;
 7824                             315             POP_REG1 R6                                             ;R2(Yn),R6(Yn_1)
 7825                                 M                                   ; RE"+4" 00,00,00,04
 7826 00000176 66F6                   M           MOV.L   @R15+,R6        ;
 7827                             316             M_BRA   RENEA_CHG1_DIG1_240                             ;
 7828 00000178 A015                   M           BRA     RENEA_CHG1_DIG1_240
 7829 0000017A 0009                   M           NOP
 7830                             317     
 7831                                     ***** BEGIN-POOL *****
 7832 0000017C 00000000                   DATA FOR SOURCE-LINE 252
 7833 00000180 00000000                   DATA FOR SOURCE-LINE 258
 7834 00000184 00000000                   DATA FOR SOURCE-LINE 276
 7835 00000188 00000000                   DATA FOR SOURCE-LINE 288
 7836 0000018C 00000000                   DATA FOR SOURCE-LINE 291
 7837 00000190 00000000                   DATA FOR SOURCE-LINE 311,314
 7838                                     ***** END-POOL *****
 7839 00000194                    318     RENEA_CHG1_DIG1_220:                                            ;
 7840                             319     ;;;;;miss　2007-03-02　補間になってない MOV     R6,R2
                                          ;0.001mm
 7841                             320             FAR_JSR #_DIG36000_CHG_INC_PLS,R0                       ;
 7842 00000194 D010                   M           MOV.L   #_DIG36000_CHG_INC_PLS,R0               ;ﾃｰﾌﾞﾙｱﾄﾞﾚｽの内容をREGへ
 7843 00000196 400B                   M           JSR     @R0                     ;
 7844 00000198 0009                   M           NOP                                     ;
 7845                             321             PUSH_REG1 R2                                            ;R6(Yn),R2(Yn_1)
 7846 0000019A 2F26                   M           MOV.L   R2,@-R15                ;PUSH=SP-4
 7847                                 M                                           ;REG=>[SP]
 7848                                 M                                           ;"-4" FF,FF,FF,FC
 7849 0000019C 6263               322             MOV     R6,R2
 7850                             323             FAR_JSR #_DIG36000_CHG_INC_PLS,R0                       ;
 7851 0000019E D00E                   M           MOV.L   #_DIG36000_CHG_INC_PLS,R0               ;ﾃｰﾌﾞﾙｱﾄﾞﾚｽの内容をREGへ
 7852 000001A0 400B                   M           JSR     @R0                     ;
 7853 000001A2 0009                   M           NOP                                     ;
 7854                             324             POP_REG1 R6                                             ;R2(Yn),R6(Yn_1)
 7855                                 M                                   ; RE"+4" 00,00,00,04
 7856 000001A4 66F6                   M           MOV.L   @R15+,R6        ;
 7857 000001A6                    325     RENEA_CHG1_DIG1_240:                                            ;
 7858 000001A6 6C23               326             MOV     R2,R12                                          ;data 退避(R12=Yn R6=Yn_1)
 7859                             327     
 7860                             328     ;       ===========================
 7861 000001A8 6273               329             MOV     R7,R2                                           ;ﾃｰﾌﾞﾙ
 7862 000001AA 64B3               330             MOV     R11,R4                                          ;ﾃﾞｰﾀ退避(10000)
 7863 000001AC 6183               331             MOV     R8,R1                                           ;TBL*STL/10000
 7864                             332     ;;      FAR_JSR #_FPU_R2_MUL_R1_DIV_R4,R0                       ;R2(0~100.00)*STL/100.00 [
                                          R2以外はﾚｼﾞｽﾀ保証有り]
 7865                             333             FAR_JSR #_X_R2_MUL_R1_DIV_R4,R0
 7866 000001AE D00B                   M           MOV.L   #_X_R2_MUL_R1_DIV_R4,R0         ;ﾃｰﾌﾞﾙｱﾄﾞﾚｽの内容をREGへ
 7867 000001B0 400B                   M           JSR     @R0                     ;
 7868 000001B2 0009                   M           NOP                                     ;
 7869 000001B4 6A23               334             MOV     R2,R10                                          ;R10=Xn_1
 7870 000001B6 6273               335             MOV     R7,R2                                           ;
 7871 000001B8 7201               336             ADD     #1,R2                                           ;
 7872                             337     ;;      FAR_JSR #_FPU_R2_MUL_R1_DIV_R4,R0                       ;R2=Xn
 7873                             338             FAR_JSR #_X_R2_MUL_R1_DIV_R4,R0
 7874 000001BA D008                   M           MOV.L   #_X_R2_MUL_R1_DIV_R4,R0         ;ﾃｰﾌﾞﾙｱﾄﾞﾚｽの内容をREGへ
 7875 000001BC 400B                   M           JSR     @R0                     ;
 7876 000001BE 0009                   M           NOP                                     ;
*** SuperH RISC engine ASSEMBLER V.7.01.02.000 ***    11/14/21 17:24:39                                                  PAGE     9
PROGRAM NAME =

 7877                             339     
 7878                             340     
 7879                             341     ;       増加時用  Sn > Sn_1条件(減少方向で使用する場合は入れ替えて使用可能:R6に注意)
 7880                             342     ;       Input
 7881                             343     ;       R3:Yn_1         R5:Xn_1
 7882                             344     ;       R2:Yn           R4:Xn
 7883                             345     ;       ANS:R2=y        R1:x
 7884                             346     ;       limit R6(Yn)
 7885 000001C0 6423               347             MOV     R2,R4                                           ;Xn
 7886 000001C2 65A3               348             MOV     R10,R5                                          ;Xn_1
 7887 000001C4 6193               349             MOV     R9,R1                                           ;x
 7888 000001C6 62C3               350             MOV     R12,R2                                          ;Yn
 7889 000001C8 6363               351             MOV     R6,R3                                           ;Yn_1
 7890 000001CA 6623               352             MOV     R2,R6                                           ;(360.000の可能性がある:)
 7891                             353             FAR_JSR #_FPU_POS_HOKAN1,R0                             ;ANS角度0~360.000またはﾊﾟﾙ
                                          ｽ
 7892 000001CC D004                   M           MOV.L   #_FPU_POS_HOKAN1,R0             ;ﾃｰﾌﾞﾙｱﾄﾞﾚｽの内容をREGへ
 7893 000001CE 400B                   M           JSR     @R0                     ;
 7894 000001D0 0009                   M           NOP                                     ;
 7895                             354     
 7896                             355     
 7897                             356             SUB_END
 7898                                 M   ;;;;;;; ADD     #4,R15                  ;[不要?]
 7899 000001D2 4F26                   M           LDS.L   @R15+,PR                ;[必要]
 7900                             357             M_RTS
 7901 000001D4 000B                   M           RTS                             ;RTSの後ろの
 7902 000001D6 0009                   M           NOP                             ;@R15+,PRはﾀﾞﾒ
 7903                             358     
 7904                             359     ;       ***********************************
 7905                             360     ;       ***     Input R2                ***
 7906                             361     ;       ***     360.00 data==> 360.000  ***
 7907                             362     ;       ***********************************
 7908                             363     ;       =======R2(Yn_1)は角度の次元だ ====
 7909                             364     ;       R6,R7~R14を壊さない事を保証する事
 7910                                     ***** BEGIN-POOL *****
 7911 000001D8 00000000                   DATA FOR SOURCE-LINE 320,323
 7912 000001DC 00000000                   DATA FOR SOURCE-LINE 333,338
 7913 000001E0 00000000                   DATA FOR SOURCE-LINE 353
 7914                                     ***** END-POOL *****
 7915 000001E4                    365     _DIG36000_CHG_DIG360000:
 7916                             366             SUB_START
 7917 000001E4 4F22                   M           STS.L   PR,@-R15                ;[必要]
 7918                                 M   ;;;;;;; ADD     #-4,R15                 ;[不要?]
 7919                             367     ;;      ADD     R2,R2           ;
 7920                             368     ;;      MOV     R2,R0           ;*2
 7921                             369     ;;      ADD     R2,R2           ;*4
 7922                             370     ;;      ADD     R2,R2           ;*8
 7923                             371     ;;      ADD     R0,R2           ;*10
 7924                             372     
 7925 000001E6 322C               373             ADD     R2,R2           ;
 7926 000001E8 6023               374             MOV     R2,R0           ;*2
 7927 000001EA 322C               375             ADD     R2,R2           ;*4
 7928 000001EC 322C               376             ADD     R2,R2           ;*8
 7929 000001EE 320C               377             ADD     R0,R2           ;*10
 7930                             378     
 7931                             379             SUB_END
 7932                                 M   ;;;;;;; ADD     #4,R15                  ;[不要?]
*** SuperH RISC engine ASSEMBLER V.7.01.02.000 ***    11/14/21 17:24:39                                                  PAGE    10
PROGRAM NAME =

 7933 000001F0 4F26                   M           LDS.L   @R15+,PR                ;[必要]
 7934                             380             M_RTS
 7935 000001F2 000B                   M           RTS                             ;RTSの後ろの
 7936 000001F4 0009                   M           NOP                             ;@R15+,PRはﾀﾞﾒ
 7937                             381     ;       ***************************************************
 7938                             382     ;       ***     Input R2                                ***
 7939                             383     ;       ***     360.000 data==> ｲﾝｸﾘﾒﾝﾀﾙｴﾝｺｰﾀﾞ換算      ***
 7940                             384     ;       ***************************************************
 7941                             385     ;       "360.000"  0~360.000 * N回転(16) *ﾊﾟﾙｽ(8192)/(360.000)
 7942                             386     ;       Input R2
 7943                             387     ;       R6,R7~R14は壊さないことを保証する
 7944                             388     ;       <1REVを越えないようにﾘﾐｯﾀを切る>
 7945                             389     ;       Input 1REV以下のﾊﾟﾙｽ
 7946                             390     ;       Input   R2:
 7947                             391     ;
 7948                             392     ;       _CALC_MEM_1REV_MUL_NROT,R1      ;(8192*32)
 7949                             393     ;
 7950 000001F6                    394     _DIG36000_CHG_INC_PLS:
 7951                             395             SUB_START
 7952 000001F6 4F22                   M           STS.L   PR,@-R15                ;[必要]
 7953                                 M   ;;;;;;; ADD     #-4,R15                 ;[不要?]
 7954 000001F8 D007               396             MOV.L   #_CALC_MEM_1REV_MUL_NROT,R0             ;(N*PLS) 8192*18((1回転[360]ではな
                                          い))
 7955 000001FA 6102               397             MOV.L   @R0,R1                                  ;
 7956 000001FC D007               398             MOV.L   #_SETY_INCPLS_HOSM001,R0                ;//0.01度 180.00
 7957 000001FE 6402               399             MOV.L   @R0,R4                                  ;
 7958                             400     
 7959                             401     
 7960                             402     ;;;     FAR_JSR #_FPU_R2_MUL_R1_DIV_R4,R0               ;R2=Xn
 7961                             403             FAR_JSR #_X_R2_MUL_R1_DIV_R4,R0
 7962 00000200 D007                   M           MOV.L   #_X_R2_MUL_R1_DIV_R4,R0         ;ﾃｰﾌﾞﾙｱﾄﾞﾚｽの内容をREGへ
 7963 00000202 400B                   M           JSR     @R0                     ;
 7964 00000204 0009                   M           NOP                                     ;
 7965                             404     
 7966                             405     ;       -------- 2007-03-02--------
 7967 00000206 D007               406             MOV.L   #_LINK_1ROT_PLS,R0
 7968 00000208 6102               407             MOV.L   @R0,R1
 7969                             408     ;       --------------------------
 7970                             409     
 7971 0000020A 3127               410             CMP/GT  R2,R1                                   ;1REV以下
 7972 0000020C 8900               411             BT      DIG36000_CHG_INCPLS_050                 ;
 7973 0000020E 6213               412             MOV     R1,R2                                   ;1REV未満にした方がいいのでは
 7974 00000210                    413     DIG36000_CHG_INCPLS_050:                                ;ﾊﾟﾙｽ
 7975                             414             SUB_END
 7976                                 M   ;;;;;;; ADD     #4,R15                  ;[不要?]
 7977 00000210 4F26                   M           LDS.L   @R15+,PR                ;[必要]
 7978                             415             M_RTS
 7979 00000212 000B                   M           RTS                             ;RTSの後ろの
 7980 00000214 0009                   M           NOP                             ;@R15+,PRはﾀﾞﾒ
 7981                             416     
 7982                             417     
 7983                             418     
 7984                             419             .EXPORT _NOW_RNA_DIG_MAK                ;
 7985                             420     ;       ***********************************************************
 7986                             421     ;       ***                                                     ***
 7987                             422     ;       ***             ﾘﾆｱｾﾝｻから1回転内角度及びﾊﾟﾙｽ           ***
 7988                             423     ;       ***                                                     ***
*** SuperH RISC engine ASSEMBLER V.7.01.02.000 ***    11/14/21 17:24:39                                                  PAGE    11
PROGRAM NAME =

 7989                             424     ;       ***********************************************************
 7990                                     ***** BEGIN-POOL *****
 7991 00000216 0000                       ALIGNMENT CODE
 7992 00000218 00000000                   DATA FOR SOURCE-LINE 396
 7993 0000021C 00000000                   DATA FOR SOURCE-LINE 398
 7994 00000220 00000000                   DATA FOR SOURCE-LINE 403
 7995 00000224 00000000                   DATA FOR SOURCE-LINE 406
 7996                                     ***** END-POOL *****
 7997 00000228                    425     _NOW_RNA_DIG_MAK:
 7998                             426             SUB_START
 7999 00000228 4F22                   M           STS.L   PR,@-R15                ;[必要]
 8000                                 M   ;;;;;;; ADD     #-4,R15                 ;[不要?]
 8001                             427     ;;;;;2013-03-15 MOV.L   #_LINK_NOWROT_OFSPLS_P,R4               ;(方向判別用)
 8002 0000022A D407               428             MOV.L   #_INC_LINK_NOWROT_OFSPLS_P,R4           ;[[[実測 1REV PLS]]]2013-03-15
 8003 0000022C 6242               429             MOV.L   @R4,R2                                  ;
 8004 0000022E D107               430             MOV.L   #_RNA_CTL_POS1,R1                       ;//制御位置
 8005 00000230 6512               431             MOV.L   @R1,R5                                  ;
 8006                             432             FAR_JSR #_RENEA_1ROT_PLS_AND_DIG_MAK2,R0        ;
 8007 00000232 D007                   M           MOV.L   #_RENEA_1ROT_PLS_AND_DIG_MAK2,R0                ;ﾃｰﾌﾞﾙｱﾄﾞﾚｽの内容をREGへ
 8008 00000234 400B                   M           JSR     @R0                     ;
 8009 00000236 0009                   M           NOP                                     ;
 8010 00000238 D106               433             MOV.L   #_RNA_ENC360,R1                         ;
 8011 0000023A 2131               434             MOV.W   R3,@R1                                  ;
 8012 0000023C D406               435             MOV.L   #_RNA_LINK_NOWROT_OFSPLS_P,R4           ;       //余り角度 +ﾃﾞｰﾀ
 8013 0000023E 2422               436             MOV.L   R2,@R4                                  ;
 8014                             437     
 8015                             438             .AIF    1 EQ    0
 8016                             439             MOV.L   #_PVX_RNA_DIGDT,R1                      ;角度   360.0度程度 RNAｾﾝｻから求ま
                                          る角度
 8017                             440             MOV.L   R3,@R1                                  ;
 8018                             441     
 8019                             442             MOV.L   #_PVX_RNA_PLS_P,R4                      ;
 8020                             443             MOV.L   R2,@R4                                  ;
 8021                             444             .AENDI
 8022                             445     
 8023                             446             SUB_END
 8024                                 M   ;;;;;;; ADD     #4,R15                  ;[不要?]
 8025 00000240 4F26                   M           LDS.L   @R15+,PR                ;[必要]
 8026                             447             M_RTS
 8027 00000242 000B                   M           RTS                             ;RTSの後ろの
 8028 00000244 0009                   M           NOP                             ;@R15+,PRはﾀﾞﾒ
 8029                             448     
 8030                             449     
 8031                             450     ;       ***************************
 8032                             451     ;       ***                     ***
 8033                             452     ;       ***                     ***
 8034                             453     ;       ***                     ***
 8035                             454     ;       ***************************
 8036                             455             .EXPORT _NOW_INCPLS_CHG_MM_MAK
 8037                                     ***** BEGIN-POOL *****
 8038 00000246 0000                       ALIGNMENT CODE
 8039 00000248 00000000                   DATA FOR SOURCE-LINE 428
 8040 0000024C 00000000                   DATA FOR SOURCE-LINE 430
 8041 00000250 00000000                   DATA FOR SOURCE-LINE 432
 8042 00000254 00000000                   DATA FOR SOURCE-LINE 433
 8043 00000258 00000000                   DATA FOR SOURCE-LINE 435
 8044                                     ***** END-POOL *****
*** SuperH RISC engine ASSEMBLER V.7.01.02.000 ***    11/14/21 17:24:39                                                  PAGE    12
PROGRAM NAME =

 8045 0000025C                    456     _NOW_INCPLS_CHG_MM_MAK:
 8046                             457             SUB_START
 8047 0000025C 4F22                   M           STS.L   PR,@-R15                ;[必要]
 8048                                 M   ;;;;;;; ADD     #-4,R15                 ;[不要?]
 8049 0000025E D106               458             MOV.L   #_INC_ENC360,R1                         ;
 8050 00000260 6211               459             MOV.W   @R1,R2                                  ;0.1度
 8051 00000262 E464               460             MOV     #100,R4                                 ;
 8052 00000264 324D               461             DMULS.L R4,R2                                   ;
 8053 00000266 021A               462             STS.L   MACL,R2                                 ;
 8054                             463             FAR_JSR #_DIG36000_CHG_RENEA1,R0                ;
 8055 00000268 D004                   M           MOV.L   #_DIG36000_CHG_RENEA1,R0                ;ﾃｰﾌﾞﾙｱﾄﾞﾚｽの内容をREGへ
 8056 0000026A 400B                   M           JSR     @R0                     ;
 8057 0000026C 0009                   M           NOP                                     ;
 8058 0000026E D104               464             MOV.L   #_INC_ENC_MM_POS,R1                     ;
 8059 00000270 2122               465             MOV.L   R2,@R1                                  ;
 8060                             466             SUB_END
 8061                                 M   ;;;;;;; ADD     #4,R15                  ;[不要?]
 8062 00000272 4F26                   M           LDS.L   @R15+,PR                ;[必要]
 8063                             467             M_RTS
 8064 00000274 000B                   M           RTS                             ;RTSの後ろの
 8065 00000276 0009                   M           NOP                             ;@R15+,PRはﾀﾞﾒ
 8066                             468     
 8067                             469     
 8068                             470     
 8069                             471     
 8070                             472     ;       ***********************************
 8071                             473     ;       ***                             ***
 8072                             474     ;       ***                             ***
 8073                             475     ;       ***                             ***
 8074                             476     ;       ***********************************
 8075                             477     
 8076                             478     
 8077                             479             .AIF    1 EQ    0
 8078                             480                     .INCLUDE        "ssa_scl4.inc"          ; //
 8079                             481             .AELSE
 8080                             482 C                   .INCLUDE        "ssa_scl2.inc"          ; //
 8081                               1 I1  ;       ***************************
 8082                               2 I1  ;       ***                     ***
 8083                               3 I1  ;       ***                     ***
 8084                               4 I1  ;       ***                     ***
 8085                               5 I1  ;       ***************************
 8086                             483             .AENDI
 8087                             484     
 8088                             485     
 8089                             486     
 8090                             487     
 8091                                     ***** BEGIN-POOL *****
 8092 00000278 00000000                   DATA FOR SOURCE-LINE 458
 8093 0000027C 00000000                   DATA FOR SOURCE-LINE 463
 8094 00000280 00000000                   DATA FOR SOURCE-LINE 464
 8095                                     ***** END-POOL *****
 8096                             488             .END
  *****TOTAL ERRORS       0
  *****TOTAL WARNINGS     0
*** SuperH RISC engine ASSEMBLER V.7.01.02.000 ***    11/14/21 17:24:39                                                  PAGE    13

*** CROSS REFERENCE LIST

NAME                             SECTION  ATTR VALUE             SEQUENCE

BIT0                                      EQU  00000001     15* 2029  2333  2348 
BIT1                                      EQU  00000002     16* 2030  2334  2349 
BIT10                                     EQU  00000400     25* 2359 
BIT11                                     EQU  00000800     26* 2360 
BIT12                                     EQU  00001000     27* 2365 
BIT13                                     EQU  00002000     28* 2366 
BIT14                                     EQU  00004000     29* 2367 
BIT15                                     EQU  00008000     30* 2368 
BIT16                                     EQU  00010000     31*
BIT17                                     EQU  00020000     32*
BIT18                                     EQU  00040000     33*
BIT19                                     EQU  00080000     34*
BIT2                                      EQU  00000004     17* 2031  2335  2350  2370 
BIT20                                     EQU  00100000     35*
BIT21                                     EQU  00200000     36*
BIT22                                     EQU  00400000     37*
BIT23                                     EQU  00800000     38*
BIT24                                     EQU  01000000     39*
BIT25                                     EQU  02000000     40*
BIT26                                     EQU  04000000     41*
BIT27                                     EQU  08000000     42*
BIT28                                     EQU  10000000     43*
BIT29                                     EQU  20000000     44*
BIT3                                      EQU  00000008     18* 2032  2336  2351  2371 
BIT30                                     EQU  40000000     45*
BIT31                                     EQU  80000000     46*
BIT4                                      EQU  00000010     19* 2337  2352  2372 
BIT5                                      EQU  00000020     20* 2338  2353  2373 
BIT6                                      EQU  00000040     21* 2339  2354  2374 
BIT7                                      EQU  00000080     22* 2340  2355  2375 
BIT8                                      EQU  00000100     23* 2341  2356 
BIT9                                      EQU  00000200     24* 2342  2357 
DIG36000_CHG_INCPLS_050          P             00000210   7972  7974*
DIG36000_CHG_RNA1_050            P             000000AC   7628  7631*
DIG36000_CHG_RNA1_100            P             000000C4   7641  7644*
H_BYTE                                    EQU  00000000     82*
L_BYTE                                    EQU  00000001     81*
NBIT0                                     EQU  000000FE     49*
NBIT1                                     EQU  000000FD     50*
NBIT10                                    EQU  0000FBFF     60*
NBIT11                                    EQU  0000F7FF     61*
NBIT12                                    EQU  0000EFFF     62*
NBIT13                                    EQU  0000DFFF     63*
NBIT14                                    EQU  0000BFFF     64*
NBIT15                                    EQU  00007FFF     65*
NBIT2                                     EQU  000000FB     51*
NBIT3                                     EQU  000000F7     52*
NBIT4                                     EQU  000000EF     53*
NBIT5                                     EQU  000000DF     54*
NBIT6                                     EQU  000000BF     55*
NBIT7                                     EQU  0000007F     56*
NBIT8                                     EQU  0000FEFF     58*
NBIT9                                     EQU  0000FDFF     59*
P                                P        SCT  00000000   7440*
*** SuperH RISC engine ASSEMBLER V.7.01.02.000 ***    11/14/21 17:24:39                                                  PAGE    14

*** CROSS REFERENCE LIST

NAME                             SECTION  ATTR VALUE             SEQUENCE

RENEA_1ROT_PLSMK2_050            P             00000048   7518  7533*
RENEA_1ROT_PLSMK2_100            P             00000050   7525  7536  7539*
RENEA_1ROT_PLSMK2_200            P             00000056   7521  7523  7538  7545*
RENEA_1ROT_PLS_MAK_STR           P             00000058   7499  7542  7547*
RENEA_CHG1_DIG1_020              P             0000011E   7750  7752*
RENEA_CHG1_DIG1_040              P             0000012A   7758  7760*
RENEA_CHG1_DIG1_050              P             00000142   7779  7781*
RENEA_CHG1_DIG1_080              P             0000014E   7789  7791*
RENEA_CHG1_DIG1_100              P             00000162   7802  7805*
RENEA_CHG1_DIG1_220              P             00000194   7809  7839*
RENEA_CHG1_DIG1_240              P             000001A6   7828  7857*
RENEA_CHG1_DIG_COM1              P             00000114   7736  7746*
XBIT0                                     EQU  00000000     68*
XBIT1                                     EQU  00000001     69*
XBIT2                                     EQU  00000002     70*
XBIT3                                     EQU  00000003     71*
XBIT4                                     EQU  00000004     72*
XBIT5                                     EQU  00000005     73*
XBIT6                                     EQU  00000006     74*
XBIT7                                     EQU  00000007     75*
_ABS_ENC_PLS_SPD                          IMPT 00000000   3425 
_ABS_OUT_PLS_SPD                          IMPT 00000000   3435 
_ACCERR_ACC_HENSA                         IMPT 00000000   4442 
_ACCERR_ACC_OBJ                           IMPT 00000000   4441 
_ACCERR_ACC_PV                            IMPT 00000000   4440 
_ACCERR_DLY_PV_TIM                        IMPT 00000000   4451 
_ACCERR_ERR_CNT                           IMPT 00000000   4443 
_ACCESS_ERR1                              IMPT 00000000   3521 
_ACC_MONITOR_DAT1                         IMPT 00000000   4254 
_ACC_MONITOR_DAT2                         IMPT 00000000   4255 
_ACC_MONITOR_DAT3                         IMPT 00000000   4256 
_ACC_MONITOR_DAT4                         IMPT 00000000   4257 
_ACC_MONITOR_DAT5                         IMPT 00000000   4258 
_ACC_MONITOR_DAT6                         IMPT 00000000   4259 
_ACC_MONITOR_DAT7                         IMPT 00000000   4260 
_ACC_MONITOR_DAT8                         IMPT 00000000   4261 
_ACC_REST_ABS_PLS                         IMPT 00000000   4211 
_ACC_REST_FLG                             IMPT 00000000   4212 
_ANTI_OF                                  IMPT 00000000   7228 
_ANTI_ON                                  IMPT 00000000   7227 
_ATOB_KJYUALL_SMPCLR                      IMPT 00000000   5736 
_ATOB_KJYUALL_SMPSTART                    IMPT 00000000   5737 
_ATOB_KJYUTRD_SMPCLR                      IMPT 00000000   5740 
_ATOB_KJYUTRD_SMPSTART                    IMPT 00000000   5741 
_AUTO_OF                                  IMPT 00000000   7230 
_AUTO_ON                                  IMPT 00000000   7229 
_BANK1_CALC_ROT_NUM_ZR                    IMPT 00000000   3668 
_BANK1_LK_END_OBJ_ABSPLS                  IMPT 00000000   3661 
_BANK2_LINK_OBJROT_NUMPLS_ZR              IMPT 00000000   3666 
_BANK2_LINK_OBJROT_NUM_ZR                 IMPT 00000000   3665 
_BANK2_LK_END_OBJ_ABSPLS                  IMPT 00000000   3662 
_BASE_TIM010MS                            IMPT 00000000   2483 
_BASE_TIM100MS                            IMPT 00000000   2484 
_BBN_MESURE_DLY_POINT                     IMPT 00000000   4427 
*** SuperH RISC engine ASSEMBLER V.7.01.02.000 ***    11/14/21 17:24:39                                                  PAGE    15

*** CROSS REFERENCE LIST

NAME                             SECTION  ATTR VALUE             SEQUENCE

_BBN_MESURE_DLY_SSPD                      IMPT 00000000   4426 
_BBN_MESURE_POINT                         IMPT 00000000   4421 
_BBN_MESURE_PPOS_BUF                      IMPT 00000000   4411 
_BBN_MESURE_PSPD                          IMPT 00000000   4413 
_BBN_MESURE_PSPD_BUF                      IMPT 00000000   4412 
_BBN_MESURE_SPOS_BUF                      IMPT 00000000   4407 
_BBN_MESURE_SSPD                          IMPT 00000000   4409 
_BBN_MESURE_SSPD_BUF                      IMPT 00000000   4408 
_BBN_MESURE_SSPD_DLYBUF                   IMPT 00000000   4425 
_BBN_MEUSRE_PV_ACC                        IMPT 00000000   4419 
_BBN_MEUSRE_PV_ACC_SRC                    IMPT 00000000   4416 
_BBN_MEUSRE_SV_ACC                        IMPT 00000000   4418 
_BBN_MEUSRE_SV_ACC_SRC                    IMPT 00000000   4415 
_BBN_SET_TIME                             IMPT 00000000   4422 
_BKTMCL_ACCDAT                            IMPT 00000000   4613 
_BKTMCL_ACCDAT_UNIT                       IMPT 00000000   4614 
_BKTMCL_ACCPOINT                          IMPT 00000000   4616 
_BKTMCL_BBNFLT_TIMPV                      IMPT 00000000   4630 
_BKTMCL_BRKSTP_SPD                        IMPT 00000000   4638 
_BKTMCL_BRKSTR_SPD                        IMPT 00000000   4637 
_BKTMCL_BRKSTX_SPD                        IMPT 00000000   4643 
_BKTMCL_BRKSTX_TIMPV                      IMPT 00000000   4644 
_BKTMCL_BRKSTX_TIMSV                      IMPT 00000000   4645 
_BKTMCL_BRK_TIMPV                         IMPT 00000000   4640 
_BKTMCL_BRX_AREA_IN                       IMPT 00000000   4648 
_BKTMCL_BRX_AREA_INLT                     IMPT 00000000   4649 
_BKTMCL_ENC_DIR                           IMPT 00000000   4621 
_BKTMCL_OLD_PLSPOS                        IMPT 00000000   4620 
_BKTMCL_POINTMAX                          IMPT 00000000   4617 
_BKTMCL_SETX_TMDEF                        IMPT 00000000   4632 
_BKTMCL_SPDBUF                            IMPT 00000000   4612 
_BKTMCL_STOP_SPD                          IMPT 00000000   4636 
_BKTMCL_STOP_TIMPV                        IMPT 00000000   4629 
_BKTMCL_TMDEF_PV                          IMPT 00000000   4631 
_BKTMCL_TMSTEP_FLG                        IMPT 00000000   4625 
_BKTMCL_TMSTEP_STS                        IMPT 00000000   4626 
_BKTMCL_TOTAL_TIMPV                       IMPT 00000000   4628 
_BRK1_CAL_DN_ACC                          IMPT 00000000   3414 
_BRK1_CHKDLY_TM                           IMPT 00000000   3402 
_BRK1_GEN_PV_ACCTM                        IMPT 00000000   3410 
_BRK1_GEN_PV_DLYTM                        IMPT 00000000   3409 
_BRK1_GEN_SV_ACCTM                        IMPT 00000000   3408 
_BRK1_GEN_SV_DLYTM                        IMPT 00000000   3407 
_BRK1_GEN_SV_FRQ1                         IMPT 00000000   3405 
_BRK1_GEN_SV_FRQ2                         IMPT 00000000   3406 
_BRK1_SV_DN_ACC                           IMPT 00000000   3413 
_BRK2_CHKDLY_TM                           IMPT 00000000   3403 
_BRK2_SV_DN_ACC                           IMPT 00000000   3415 
_BRKTST_AREA_SIG                          IMPT 00000000   4152 
_BRKTST_BAKUP_FLG_PV1                     IMPT 00000000   4162 
_BRKTST_BAKUP_FLG_PV2                     IMPT 00000000   4163 
_BRKTST_BAKUP_FLG_SV1                     IMPT 00000000   4160 
_BRKTST_BAKUP_FLG_SV2                     IMPT 00000000   4161 
_BRKTST_CHKSPD_PLS                        IMPT 00000000   4142 
*** SuperH RISC engine ASSEMBLER V.7.01.02.000 ***    11/14/21 17:24:39                                                  PAGE    16

*** CROSS REFERENCE LIST

NAME                             SECTION  ATTR VALUE             SEQUENCE

_BRKTST_CLNK_UP_POS_DN                    IMPT 00000000   4155 
_BRKTST_CLNK_UP_POS_UP                    IMPT 00000000   4154 
_BRKTST_INPUT_CMD                         IMPT 00000000   4145 
_BRKTST_LINK_UP_POS_DN                    IMPT 00000000   4157 
_BRKTST_LINK_UP_POS_UP                    IMPT 00000000   4156 
_BRKTST_MOD_FLG                           IMPT 00000000   4140 
_BRKTST_OUTSPD_PLS                        IMPT 00000000   4141 
_BRKTST_STP_ABSPLS                        IMPT 00000000   4149 
_BRKTST_STR_FLG                           IMPT 00000000   4150 
_BRKTST_SW_IN                             IMPT 00000000   4151 
_BRK_CHK_COM                              IMPT 00000000   3399 
_BRK_CHK_FLG                              IMPT 00000000   3400 
_BTOA_LFT_HAB                             IMPT 00000000   5757 
_BTOA_LFT_MAX                             IMPT 00000000   5755 
_BTOA_LFT_MIN                             IMPT 00000000   5756 
_BTOA_LFT_TRDHAB                          IMPT 00000000   5770 
_BTOA_LFT_TRDMAX                          IMPT 00000000   5768 
_BTOA_LFT_TRDMIN                          IMPT 00000000   5769 
_BTOA_RIH_HAB                             IMPT 00000000   5761 
_BTOA_RIH_MAX                             IMPT 00000000   5759 
_BTOA_RIH_MIN                             IMPT 00000000   5760 
_BTOA_RIH_TRDHAB                          IMPT 00000000   5774 
_BTOA_RIH_TRDMAX                          IMPT 00000000   5772 
_BTOA_RIH_TRDMIN                          IMPT 00000000   5773 
_BTOA_TTL_HAB                             IMPT 00000000   5765 
_BTOA_TTL_MAX                             IMPT 00000000   5763 
_BTOA_TTL_MIN                             IMPT 00000000   5764 
_BTOA_TTL_TRDHAB                          IMPT 00000000   5778 
_BTOA_TTL_TRDMAX                          IMPT 00000000   5776 
_BTOA_TTL_TRDMIN                          IMPT 00000000   5777 
_BTTN_FLG                                 IMPT 00000000   2551 
_BTTN_ON_TIME                             IMPT 00000000   3691 
_BVLV_CTL_FLG                             IMPT 00000000   4799 
_BVLV_CTL_ON                              IMPT 00000000   4800 
_BVLV_START_IN                            IMPT 00000000   4803 
_CALC_FULCLS_MXPLS                        IMPT 00000000   3172 
_CALC_MEM_1REV_ML_NROT_ML36               IMPT 00000000   2897 
_CALC_MEM_1REV_MUL_NROT                   IMPT 00000000   2896  7564  7954 
_CALC_MISS_FLG1                           IMPT 00000000   3774 
_CALC_PLS_MMIN_H32                        EQU  C0000000   2078*
_CALC_PLS_MMIN_L32                        EQU  00000001   2079*
_CALC_PLS_PMAX_H32                        EQU  3FFFFFFF   2074*
_CALC_PLS_PMAX_L32                        EQU  FFFFFFFF   2075*
_CALC_ROT_MAX                             EQU  60000000   2070*
_CAM_CNT_CHG_FLG                          IMPT 00000000   3271 
_CAM_CTL_STEP                             IMPT 00000000   2627 
_CAM_DT_FLG                               EQU  0000000E   2188*
_CAM_INF_D1                               EQU  00000010   2189*
_CAM_INF_D2                               EQU  00000012   2190*
_CAM_NOW_DIG                              IMPT 00000000   3268 
_CAM_OF_DGT                               EQU  0000000C   2187*
_CAM_OF_DIG                               EQU  00000008   2184* 2185 
_CAM_OF_DIR                               EQU  0000000A   2186*
_CAM_OF_STP                               EQU  00000006   2183*
*** SuperH RISC engine ASSEMBLER V.7.01.02.000 ***    11/14/21 17:24:39                                                  PAGE    17

*** CROSS REFERENCE LIST

NAME                             SECTION  ATTR VALUE             SEQUENCE

_CAM_OF_TIM                               EQU  00000008   2185*
_CAM_OLD_DIG                              IMPT 00000000   3269 
_CAM_ON_DIG                               EQU  00000002   2181*
_CAM_ON_DIR                               EQU  00000004   2182*
_CAM_ON_STP                               EQU  00000000   2180*
_CAM_OUTPUT_DT                            IMPT 00000000   3262 
_CAM_OUTPUT_SW                            IMPT 00000000   3260 
_CAM_POS_CTL_STEP                         IMPT 00000000   3270 
_CAM_POS_STEP_END_FLG1                    IMPT 00000000   3027 
_CAM_POS_STEP_END_FLG2                    IMPT 00000000   3028 
_CAM_SELECT_SW                            IMPT 00000000   3261 
_CAM_START_FLG                            IMPT 00000000   3263 
_CAM_START_MODE                           IMPT 00000000   3264 
_CAM_STEP_MAX                             IMPT 00000000   3267 
_CAM_STEP_NO                              IMPT 00000000   3265 
_CAM_STEP_NO_OLD                          IMPT 00000000   3266 
_CAM_STRCUT                               EQU  00000014   2179*
_CBSTS_LOAD_FLG                           IMPT 00000000   4562 
_CBSTS_SAVE_CMDWK                         IMPT 00000000   4570 
_CBSTS_SAVE_DAT                           IMPT 00000000   4579 
_CB_BAKUP_CMD1                            EQU  00005678    114*
_CB_BAKUP_CMD2                            EQU  00001234    115*
_CB_BAK_SUM_COD1                          EQU  5AA51234    112*
_CB_BAK_SUM_COD2                          EQU  A55A4321    113*
_CB_ERR_INFO_MEM                          EQU  00000080    138*
_CB_ERR_INFO_PSIZE                        EQU  00000008    139*
_CB_INT_START_OK                          IMPT 00000000   2480 
_CB_IN_HANYO                              IMPT 00000000   4838 
_CB_SEQ_CB_COM340                         IMPT 00000000   3013 
_CB_SEQ_CB_COM345                         IMPT 00000000   3016 
_CB_SEQ_CB_COM345X                        IMPT 00000000   5433 
_CB_SEQ_CB_COM346                         IMPT 00000000   3017 
_CB_SEQ_CB_COM347                         IMPT 00000000   3018 
_CB_SEQ_CB_COM348                         IMPT 00000000   3019 
_CB_SEQ_CB_COM349                         IMPT 00000000   3020 
_CB_SEQ_CB_COM350                         IMPT 00000000   3022 
_CB_SEQ_CB_COM351                         IMPT 00000000   3023 
_CB_SEQ_CB_COM352                         IMPT 00000000   3024 
_CB_SEQ_CB_COM356                         IMPT 00000000   5285 
_CB_SEQ_CB_SEL341                         IMPT 00000000   3014 
_CB_SEQ_CB_SEL342                         IMPT 00000000   3015 
_CB_SEQ_SW_SEL022                         IMPT 00000000   3008 
_CB_SEQ_SW_SEL024                         IMPT 00000000   3009 
_CB_SEQ_SW_SEL028                         IMPT 00000000   3010 
_CB_SEQ_SW_SEL029                         IMPT 00000000   3011 
_CB_SEQ_SW_SEL058                         IMPT 00000000   4888 
_CB_STS_BUF_1BLK                          EQU  00000040    117*  119 
_CB_STS_BUF_BLKMAX                        EQU  00000008    118*  119 
_CB_STS_BUF_MAX                           EQU  00000200    119*
_CB_STS_SAVE_FLG                          IMPT 00000000   5903 
_CB_TIME                                  EQU  0000000A   1997* 2010  2011  2012  2017 
_CB_TRD_BEFORE                            EQU  00000060    127*
_CB_TRD_BUF_DP_MAX                        EQU  00000080    131*
_CB_TRD_BUF_MAX                           EQU  00000800    128*
*** SuperH RISC engine ASSEMBLER V.7.01.02.000 ***    11/14/21 17:24:39                                                  PAGE    18

*** CROSS REFERENCE LIST

NAME                             SECTION  ATTR VALUE             SEQUENCE

_CB_TRD_DP_1CNT                           EQU  00000008    130*
_CB_TRD_DP_CH                             EQU  00000004    123*
_CB_TRD_SAVE_FLG                          IMPT 00000000   5904 
_CB_TRD_SMP_CNT                           EQU  00000080    126*
_CCS_BTTN_OFF                             IMPT 00000000   3513 
_CHKPOSANSDIG                             IMPT 00000000   4733 
_CHKPOSWORK1                              IMPT 00000000   4720 
_CHKPOSWORK2                              IMPT 00000000   4721 
_CHKPOSWORKANS                            IMPT 00000000   4726 
_CHKSPDANSPER                             IMPT 00000000   4725 
_CHKSPDPERWORK1                           IMPT 00000000   4728 
_CHKSPDPERWORK2                           IMPT 00000000   4729 
_CHKSPDPOSINFO                            IMPT 00000000   4731 
_CHKSPDPOSOFS                             IMPT 00000000   4732 
_CHKSPDWORK1                              IMPT 00000000   4718 
_CHKSPDWORK2                              IMPT 00000000   4719 
_CHKSPDWORKANS                            IMPT 00000000   4722 
_CHKSPDWORKTMAX                           IMPT 00000000   4724 
_CHKSPDWORKVMAX                           IMPT 00000000   4723 
_CHK_ADD_DATA_LATCH                       IMPT 00000000   4251 
_CHK_CLK_SIG                              IMPT 00000000   4764 
_CHK_LSI_LOAD_OUT_CNT                     IMPT 00000000   4000 
_CHK_LSI_LOAD_POS_CNT                     IMPT 00000000   3999 
_CHK_OBJECT_TIM_TOP                       IMPT 00000000   3216 
_CLS_INC_MOST_DOWN_PLS                    IMPT 00000000   2763 
_CLS_RNA_MOST_DOWN_POS                    IMPT 00000000   2762 
_CMD_1CYCLE_DSP1                          IMPT 00000000   5907 
_CMD_DAIPOS_DSP1                          IMPT 00000000   5908 
_CMD_KJTECH_DSP1                          IMPT 00000000   5911 
_CMP2_ACC_NG_CNT                          IMPT 00000000   3580 
_CMP2_ACC_TOTAL_NG_CNT                    IMPT 00000000   3574 
_CMP2_BAS_NG_CNT                          IMPT 00000000   3577 
_CMP2_BAS_TOTAL_NG_CNT                    IMPT 00000000   3571 
_CMP2_LAT_NG_CNT                          IMPT 00000000   3579 
_CMP2_LAT_TOTAL_NG_CNT                    IMPT 00000000   3573 
_CMP2_NOW_NG_CNT                          IMPT 00000000   3581 
_CMP2_NOW_TOTAL_NG_CNT                    IMPT 00000000   3575 
_CMP2_TOP_NG_CNT                          IMPT 00000000   3578 
_CMP2_TOP_TOTAL_NG_CNT                    IMPT 00000000   3572 
_CMPSTEP_CNT_STOP                         IMPT 00000000   2671 
_CMPSTEP_CTRL_BUSY                        IMPT 00000000   2667 
_CMPSTEP_CTRL_REDY                        IMPT 00000000   2666 
_CMPSTEP_NEAR_ZERO                        IMPT 00000000   2670 
_CMPSTEP_POS_START                        IMPT 00000000   2668 
_CMPSTEP_SFTY_AUTO                        IMPT 00000000   2669 
_CMPSTEP_STEP_END                         IMPT 00000000   2672 
_CMP_ERR_CHK_STSA                         IMPT 00000000   2880 
_CMP_ERR_CHK_STSB                         IMPT 00000000   2881 
_CMP_ERR_STEP_A                           IMPT 00000000   2886 
_CMP_ERR_STEP_B                           IMPT 00000000   2887 
_CMP_ERR_STSA_INF1                        IMPT 00000000   2882 
_CMP_ERR_STSA_INF2                        IMPT 00000000   2883 
_CMP_ERR_STSA_INF3                        IMPT 00000000   2884 
_CMP_ERR_STSA_INF4                        IMPT 00000000   2885 
*** SuperH RISC engine ASSEMBLER V.7.01.02.000 ***    11/14/21 17:24:39                                                  PAGE    19

*** CROSS REFERENCE LIST

NAME                             SECTION  ATTR VALUE             SEQUENCE

_CMP_ERR_TIM1                             IMPT 00000000   2583 
_CMP_LNGTH_AD_ERR_CNT                     IMPT 00000000   3684 
_CMP_POS_LSI_ACCLT1                       IMPT 00000000   3889 
_CMP_RECOVER_FLG                          IMPT 00000000   3994 
_CMP_RESTP_SR_ERR_CNT                     IMPT 00000000   3685 
_CMP_STEP_ERR_TIM1                        IMPT 00000000   2585 
_CNT_BANK_CALC_ERR                        IMPT 00000000   3671 
_CNT_GRF_I_DATA                           IMPT 00000000   5426 
_CNT_GRF_POINT                            IMPT 00000000   5428 
_CNT_GRF_Y_DATA                           IMPT 00000000   5427 
_CNT_PLSOUT_STOP_CNT                      IMPT 00000000   3938 
_CNT_REST_SPD_HOSEI_DAT                   IMPT 00000000   3677 
_CNT_REST_SPD_HOSEI_FLG                   IMPT 00000000   3678 
_CNT_STOP_CMD                             IMPT 00000000   2506 
_CNT_STOP_CMD_BEF1                        IMPT 00000000   4388 
_CNT_STOP_CTRL_FLG                        IMPT 00000000   3658 
_CNT_STOP_DBG_CNT                         IMPT 00000000   5341 
_CNT_STOP_LNGTH                           IMPT 00000000   3664 
_CNT_STOP_WAIT_TIM                        IMPT 00000000   5340 
_CNT_SYNC_CHK_CNT1                        IMPT 00000000   3953 
_CNT_SYNC_CHK_CNT2                        IMPT 00000000   3954 
_CNT_SYNC_ERR_FLG                         IMPT 00000000   3936 
_CNT_SYNC_HOS_CNT1                        IMPT 00000000   3955 
_CNT_SYNC_HOS_DAT1                        IMPT 00000000   3950 
_CNT_SYNC_HOS_DAT2                        IMPT 00000000   3951 
_CNT_SYNC_HOS_FLAG                        IMPT 00000000   3952 
_CNT_SYNC_STS_FLG                         IMPT 00000000   3937 
_CONT_MOD_CNT_PV                          IMPT 00000000   3084 
_CONT_MOD_TIM_PV                          IMPT 00000000   3086 
_CONT_STOP_END_SUBPLS                     IMPT 00000000   3670 
_COP_CB_LD_MONI_SIG                       IMPT 00000000   3331 
_COP_DIG_SIG_FLG                          IMPT 00000000   3330 
_COP_OLD_ENC3600                          IMPT 00000000   3349 
_COP_SET_CLRF                             IMPT 00000000   7207 
_CPOS_BANK_USELFUL                        IMPT 00000000   3657 
_CPOS_CTL_MATH                            IMPT 00000000   2747 
_CPOS_DND_DIGTOP                          IMPT 00000000   3766 
_CPOS_DND_PLSTOP                          IMPT 00000000   3767 
_CPOS_DND_STOP_DIRECTOLD                  IMPT 00000000   3765 
_CPOS_DND_STOP_SW                         IMPT 00000000   3763 
_CPOS_DND_STOP_SWOLD                      IMPT 00000000   3764 
_CPOS_FULCLS_MATEHD_SW                    IMPT 00000000   4823 
_CPOS_KJYUCLS_OBJ                         IMPT 00000000   4825 
_CPOS_MOD_FLG1                            IMPT 00000000   2746 
_CPOS_SDAT1_CHGAPOS                       IMPT 00000000   2744 
_CPOS_SDAT1_CHGAPOS2                      IMPT 00000000   3659 
_CPOS_SDAT1_CNTSTEP                       IMPT 00000000   2741 
_CPOS_SDAT1_INF1                          IMPT 00000000   2742 
_CPOS_SDAT1_NUM                           IMPT 00000000   2743 
_CPOS_SDAT1_OFSPOS                        IMPT 00000000   2738 
_CPOS_SDAT1_SPD                           IMPT 00000000   2739 
_CPOS_SDAT1_STPAPOS                       IMPT 00000000   2745 
_CPOS_SDAT1_STPAPOS2                      IMPT 00000000   3660 
_CPOS_SDAT1_TIM                           IMPT 00000000   2740 
*** SuperH RISC engine ASSEMBLER V.7.01.02.000 ***    11/14/21 17:24:39                                                  PAGE    20

*** CROSS REFERENCE LIST

NAME                             SECTION  ATTR VALUE             SEQUENCE

_CPOS_SDAT1_UP_OFSPOS                     IMPT 00000000   2766 
_CPOS_SDAT1_UP_POS                        IMPT 00000000   2767 
_CPOS_STEP_MAX                            IMPT 00000000   2748 
_CPOS_UPAREA_PLS                          IMPT 00000000   2761 
_CPUABD_WDTOK_FLG                         IMPT 00000000   5064 
_CPUATOB_STS_SAVECMD                      IMPT 00000000   6969 
_CPUATOB_STS_SAVEDAT1                     IMPT 00000000   6970 
_CPUATOB_STS_SAVEDAT2                     IMPT 00000000   6971 
_CPUATOB_STS_SAVEDAT3                     IMPT 00000000   6972 
_CPUA_CONT_MOD_CNT_PV                     IMPT 00000000   5815 
_CPUA_DNM_DIR_NOW                         IMPT 00000000   5804 
_CPUA_DNM_DIR_SET                         IMPT 00000000   5803 
_CPUA_IRQ_ERR_INT_CNT1                    IMPT 00000000   5677 
_CPUA_IRQ_ERR_INT_CNT2                    IMPT 00000000   5678 
_CPUA_IRQ_ERR_INT_CNT3                    IMPT 00000000   5679 
_CPUA_IRQ_ERR_INT_CNT4                    IMPT 00000000   5680 
_CPUA_IRQ_ERR_INT_CNT5                    IMPT 00000000   5681 
_CPUA_IRQ_ERR_INT_CNT6                    IMPT 00000000   5682 
_CPUA_IRQ_ERR_INT_CNT7                    IMPT 00000000   5683 
_CPUA_IRQ_ERR_INT_CNT8                    IMPT 00000000   5684 
_CPUA_IRQ_ERR_INT_CNT9                    IMPT 00000000   5685 
_CPUA_LOT_CHK_FLG                         IMPT 00000000   5811 
_CPUA_LOT_CNT_FLG                         IMPT 00000000   5813 
_CPUA_OP_OUT1_PLS                         IMPT 00000000   5713 
_CPUA_OP_PG1_PLS                          IMPT 00000000   5712 
_CPUA_PLS_OUTF                            IMPT 00000000   5471 
_CPUA_SELF2_CD1                           IMPT 00000000   5699 
_CPUA_SELF2_CD2                           IMPT 00000000   5700 
_CPUA_SELF2_CD3                           IMPT 00000000   5701 
_CPUA_SELF2_CD4                           IMPT 00000000   5702 
_CPUA_SELF2_END                           IMPT 00000000   5698 
_CPUA_SELF2_STR                           IMPT 00000000   5697 
_CPUA_SELF_HAND_FLG                       IMPT 00000000   5558 
_CPUA_SV_STEP                             IMPT 00000000   5801 
_CPUBTOA_DAT1_ACKCOD                      IMPT 00000000   5836 
_CPUBTOA_DAT1_DATTOP                      IMPT 00000000   5837 
_CPUBTOA_DAT1_REQADR                      IMPT 00000000   5832 
_CPUBTOA_DAT1_REQCNT                      IMPT 00000000   5834 
_CPUBTOA_DAT1_REQCOD                      IMPT 00000000   5835 
_CPUBTOA_DAT1_REQKND                      IMPT 00000000   5833 
_CPUBTOA_STS_LOADDAT1                     IMPT 00000000   6975 
_CPUBTOA_STS_LOADDAT2                     IMPT 00000000   6976 
_CPUBTOA_STS_LOADDAT3                     IMPT 00000000   6977 
_CPUBTOA_STS_LOADSTS                      IMPT 00000000   6974 
_CPUBX_MEM1_BUF                           IMPT 00000000   5442 
_CPUBX_MEM1_ENDFLG                        IMPT 00000000   5441 
_CPUBX_MEM1_RCVFLG                        IMPT 00000000   5440 
_CPUBX_MEM1_SNDEVN                        IMPT 00000000   5451 
_CPUBX_MEM1_SNDFLG                        IMPT 00000000   5453 
_CPUBX_MEM1_SNDKND                        IMPT 00000000   5452 
_CPUBX_SEND_MAXCNT                        IMPT 00000000   5448 
_CPUBX_SEND_NOWCNT                        IMPT 00000000   5449 
_CPUBX_SEND_TOPADR                        IMPT 00000000   5447 
_CPUB_CONT_MOD_CNT_PV                     IMPT 00000000   5816 
*** SuperH RISC engine ASSEMBLER V.7.01.02.000 ***    11/14/21 17:24:39                                                  PAGE    21

*** CROSS REFERENCE LIST

NAME                             SECTION  ATTR VALUE             SEQUENCE

_CPUB_DBG_MONI_CNT                        IMPT 00000000   5818 
_CPUB_DBG_MONI_STP                        IMPT 00000000   5817 
_CPUB_DNM_DIR_NOW                         IMPT 00000000   5806 
_CPUB_DNM_DIR_SET                         IMPT 00000000   5805 
_CPUB_IRQ_ERR_INT_CNT1                    IMPT 00000000   5686 
_CPUB_IRQ_ERR_INT_CNT2                    IMPT 00000000   5687 
_CPUB_IRQ_ERR_INT_CNT3                    IMPT 00000000   5688 
_CPUB_IRQ_ERR_INT_CNT4                    IMPT 00000000   5689 
_CPUB_IRQ_ERR_INT_CNT5                    IMPT 00000000   5690 
_CPUB_IRQ_ERR_INT_CNT6                    IMPT 00000000   5691 
_CPUB_IRQ_ERR_INT_CNT7                    IMPT 00000000   5692 
_CPUB_IRQ_ERR_INT_CNT8                    IMPT 00000000   5693 
_CPUB_IRQ_ERR_INT_CNT9                    IMPT 00000000   5694 
_CPUB_LOT_CHK_FLG                         IMPT 00000000   5812 
_CPUB_LOT_CNT_FLG                         IMPT 00000000   5814 
_CPUB_PARAM_ERR_NO                        IMPT 00000000   5162 
_CPUB_PLS_OUTF                            IMPT 00000000   5472 
_CPUB_SELF2_CD1                           IMPT 00000000   5706 
_CPUB_SELF2_CD2                           IMPT 00000000   5707 
_CPUB_SELF2_CD3                           IMPT 00000000   5708 
_CPUB_SELF2_CD4                           IMPT 00000000   5709 
_CPUB_SELF2_END                           IMPT 00000000   5705 
_CPUB_SELF2_STR                           IMPT 00000000   5704 
_CPUB_SELF_HAND_FLG                       IMPT 00000000   5559 
_CPUB_START_COD                           IMPT 00000000   5458 
_CPUB_SV_STEP                             IMPT 00000000   5802 
_CPUC_PARAM_ERR_NO                        IMPT 00000000   5161 
_CPUDX_MEM1_ENDFLG                        IMPT 00000000   5444 
_CPUDX_MEM1_RCVFLG                        IMPT 00000000   5443 
_CPUD_CHK_OLDCNT                          IMPT 00000000   5055 
_CPUD_CHK_TIME                            IMPT 00000000   5056 
_CPUD_START_COD                           IMPT 00000000   5878 
_CPUX_PARAM_SEND_FLG                      IMPT 00000000   5151 
_CPUX_PARAM_SEND_NO                       IMPT 00000000   5152 
_CPU_AB_BSY_OF_JG                         IMPT 00000000   7275 
_CPU_AB_BSY_OF_OUT                        IMPT 00000000   7271 
_CPU_AB_BSY_ON_OUT                        IMPT 00000000   7273 
_CPU_AB_CED_OF_JG                         IMPT 00000000   7338 
_CPU_AB_CED_OF_OUT                        IMPT 00000000   7334 
_CPU_AB_CED_ON_OUT                        IMPT 00000000   7336 
_CPU_AB_CST_OF_JG                         IMPT 00000000   7327 
_CPU_AB_CST_OF_OUT1                       IMPT 00000000   7321 
_CPU_AB_CST_OF_OUT2                       IMPT 00000000   7322 
_CPU_AB_CST_ON_OUT1                       IMPT 00000000   7324 
_CPU_AB_CST_ON_OUT2                       IMPT 00000000   7325 
_CPU_AB_DRVHLDSTOP_OF_OUT                 IMPT 00000000   7353 
_CPU_AB_DRVHLDSTOP_ON_OUT                 IMPT 00000000   7352 
_CPU_AB_DRVSTOP_OF_OUT                    IMPT 00000000   7293 
_CPU_AB_DRVSTOP_ON_OUT                    IMPT 00000000   7294 
_CPU_AB_NZR_OF_JG                         IMPT 00000000   7313 
_CPU_AB_NZR_OF_OUT                        IMPT 00000000   7309 
_CPU_AB_NZR_ON_OUT                        IMPT 00000000   7311 
_CPU_AB_RDY_OF_JG                         IMPT 00000000   7264 
_CPU_AB_RDY_OF_OUT                        IMPT 00000000   7260 
*** SuperH RISC engine ASSEMBLER V.7.01.02.000 ***    11/14/21 17:24:39                                                  PAGE    22

*** CROSS REFERENCE LIST

NAME                             SECTION  ATTR VALUE             SEQUENCE

_CPU_AB_RDY_ON_OUT                        IMPT 00000000   7262 
_CPU_AB_STR_OF_JG                         IMPT 00000000   7286 
_CPU_AB_STR_OF_OUT                        IMPT 00000000   7282 
_CPU_AB_STR_ON_OUT                        IMPT 00000000   7284 
_CPU_BA_BSY_OF_OUT                        IMPT 00000000   7272 
_CPU_BA_BSY_ON_JG                         IMPT 00000000   7274 
_CPU_BA_CED_OF_OUT                        IMPT 00000000   7335 
_CPU_BA_CED_ON_JG                         IMPT 00000000   7337 
_CPU_BA_CST_OF_OUT                        IMPT 00000000   7323 
_CPU_BA_CST_ON_JG                         IMPT 00000000   7326 
_CPU_BA_DRVHLDSTOP_OF_JG                  IMPT 00000000   7355 
_CPU_BA_DRVHLDSTOP_ON_JG                  IMPT 00000000   7354 
_CPU_BA_DRVSTOP_OF_OUT                    IMPT 00000000   7296 
_CPU_BA_DRVSTOP_ON_JG                     IMPT 00000000   7295 
_CPU_BA_NZR_OF_OUT                        IMPT 00000000   7310 
_CPU_BA_NZR_ON_JG                         IMPT 00000000   7312 
_CPU_BA_RDY_OF_OUT                        IMPT 00000000   7261 
_CPU_BA_RDY_ON_JG                         IMPT 00000000   7263 
_CPU_BA_STEP_LOAD                         IMPT 00000000   7345 
_CPU_BA_STR_OF_OUT                        IMPT 00000000   7283 
_CPU_BA_STR_ON_JG                         IMPT 00000000   7285 
_CPU_CTRL_CLK                             IMPT 00000000   5562 
_CPU_SV_HAND_IN                           IMPT 00000000   2508 
_CPU_SV_HAND_IN_ON                        IMPT 00000000   2509 
_CPU_SV_HAND_OUT                          IMPT 00000000   2511 
_CPUy_RESTPLS_LTFLG                       IMPT 00000000   3956 
_CTL_ENC360                               IMPT 00000000   2520 
_CTL_ENC360_OLD                           IMPT 00000000   4040 
_CYCLE_SPD_CMP_FLG1                       IMPT 00000000   4298 
_CYCLE_SPD_CMP_PV_DAT                     IMPT 00000000   4299 
_CYCLE_TIME_DAT                           IMPT 00000000   3000 
_CYCLE_TIME_FLG                           IMPT 00000000   3002 
_CYCLE_TIME_PV                            IMPT 00000000   3001 
_CYCL_DSP_CNT_PV                          IMPT 00000000   3465 
_CYCL_DSP_DISENB                          IMPT 00000000   3464 
_CYCL_START_CNT                           IMPT 00000000   2764 
_DAIHAI_CALC_WORK1                        IMPT 00000000   4339 
_DAIHAI_CALC_WORK10                       IMPT 00000000   4348 
_DAIHAI_CALC_WORK11                       IMPT 00000000   4350 
_DAIHAI_CALC_WORK12                       IMPT 00000000   4351 
_DAIHAI_CALC_WORK13X                      IMPT 00000000   4352 
_DAIHAI_CALC_WORK2                        IMPT 00000000   4340 
_DAIHAI_CALC_WORK3                        IMPT 00000000   4341 
_DAIHAI_CALC_WORK4                        IMPT 00000000   4342 
_DAIHAI_CALC_WORK5                        IMPT 00000000   4343 
_DAIHAI_CALC_WORK6                        IMPT 00000000   4344 
_DAIHAI_CALC_WORK7X                       IMPT 00000000   4345 
_DAIHAI_CALC_WORK8                        IMPT 00000000   4346 
_DAIHAI_CALC_WORK9X                       IMPT 00000000   4347 
_DAI_CMP_SMPSTART                         IMPT 00000000   2944 
_DAI_HOSEI1_FLG                           IMPT 00000000   2934 
_DBG2_MONI_A00                            IMPT 00000000   6942 
_DBG2_MONI_A01                            IMPT 00000000   6943 
_DBG2_MONI_A02                            IMPT 00000000   6944 
*** SuperH RISC engine ASSEMBLER V.7.01.02.000 ***    11/14/21 17:24:39                                                  PAGE    23

*** CROSS REFERENCE LIST

NAME                             SECTION  ATTR VALUE             SEQUENCE

_DBG2_MONI_A03                            IMPT 00000000   6945 
_DBG2_MONI_A04                            IMPT 00000000   6946 
_DBG2_MONI_A05                            IMPT 00000000   6947 
_DBG2_MONI_A06                            IMPT 00000000   6948 
_DBG2_MONI_A07                            IMPT 00000000   6949 
_DBG2_MONI_B00                            IMPT 00000000   6959 
_DBG2_MONI_B01                            IMPT 00000000   6960 
_DBG2_MONI_B02                            IMPT 00000000   6961 
_DBG2_MONI_B03                            IMPT 00000000   6962 
_DBG2_MONI_B04                            IMPT 00000000   6963 
_DBG2_MONI_B05                            IMPT 00000000   6964 
_DBG2_MONI_B06                            IMPT 00000000   6965 
_DBG2_MONI_B07                            IMPT 00000000   6966 
_DBG4_MONI_A00                            IMPT 00000000   6934 
_DBG4_MONI_A01                            IMPT 00000000   6935 
_DBG4_MONI_A02                            IMPT 00000000   6936 
_DBG4_MONI_A03                            IMPT 00000000   6937 
_DBG4_MONI_A04                            IMPT 00000000   6938 
_DBG4_MONI_A05                            IMPT 00000000   6939 
_DBG4_MONI_A06                            IMPT 00000000   6940 
_DBG4_MONI_A07                            IMPT 00000000   6941 
_DBG4_MONI_B00                            IMPT 00000000   6951 
_DBG4_MONI_B01                            IMPT 00000000   6952 
_DBG4_MONI_B02                            IMPT 00000000   6953 
_DBG4_MONI_B03                            IMPT 00000000   6954 
_DBG4_MONI_B04                            IMPT 00000000   6955 
_DBG4_MONI_B05                            IMPT 00000000   6956 
_DBG4_MONI_B06                            IMPT 00000000   6957 
_DBG4_MONI_B07                            IMPT 00000000   6958 
_DBG_ATO_DRV_START_FLG                    IMPT 00000000   5085 
_DBG_ATO_DRV_TIME_PV                      IMPT 00000000   5086 
_DBG_ATO_DRV_TIME_PV2                     IMPT 00000000   5091 
_DBG_ATO_DRV_TIME_SV                      IMPT 00000000   5087 
_DBG_ATO_DRV_TIME_SV2                     IMPT 00000000   5092 
_DBG_CNT_GPOSINT                          IMPT 00000000   3595 
_DBG_CNT_STOP_CNT                         IMPT 00000000   3589 
_DBG_CNT_STOP_FLG                         IMPT 00000000   3588 
_DBG_CNT_STOP_SPC                         IMPT 00000000   3590 
_DBG_DNM_CLR_CNT                          IMPT 00000000   5324 
_DBG_DNM_END_CNT                          IMPT 00000000   5323 
_DBG_DNM_STR_CNT                          IMPT 00000000   5322 
_DBG_REVMOD_CTLPLS                        IMPT 00000000   3229 
_DBG_REVMOD_DNPLS                         IMPT 00000000   3231 
_DBG_REVMOD_OBJPLS                        IMPT 00000000   3228 
_DBG_REVMOD_UPPLS                         IMPT 00000000   3230 
_DBG_STEP12_CHG_DIG                       IMPT 00000000   3598 
_DBG_STEP12_CHG_POS                       IMPT 00000000   3602 
_DBG_STEP12_CHG_RSTP                      IMPT 00000000   3610 
_DBG_STEP12_CHG_SPD                       IMPT 00000000   3606 
_DBG_STEP12_CHG_TIM                       IMPT 00000000   3592 
_DBG_STEP23_CHG_DIG                       IMPT 00000000   3599 
_DBG_STEP23_CHG_POS                       IMPT 00000000   3603 
_DBG_STEP23_CHG_RSTP                      IMPT 00000000   3611 
_DBG_STEP23_CHG_SPD                       IMPT 00000000   3607 
*** SuperH RISC engine ASSEMBLER V.7.01.02.000 ***    11/14/21 17:24:39                                                  PAGE    24

*** CROSS REFERENCE LIST

NAME                             SECTION  ATTR VALUE             SEQUENCE

_DBG_STEP23_CHG_TIM                       IMPT 00000000   3593 
_DBG_STEPCD_CHG_DIG                       IMPT 00000000   3600 
_DBG_STEPCD_CHG_GPS                       IMPT 00000000   3614 
_DBG_STEPCD_CHG_POS                       IMPT 00000000   3604 
_DBG_STEPCD_CHG_RSTP                      IMPT 00000000   3612 
_DBG_STEPCD_CHG_SPD                       IMPT 00000000   3608 
_DBG_STEPCD_CHG_TIM                       IMPT 00000000   3594 
_DEBUG_ENC360_STS                         IMPT 00000000   4652 
_DEBUG_ENC360_STS2                        IMPT 00000000   4653 
_DEBUG_MOD_CODE                           IMPT 00000000   5083 
_DEBUG_MONI_ABS_POS                       IMPT 00000000   6760 
_DEBUG_MONI_C1                            IMPT 00000000   6763 
_DEBUG_MONI_C2                            IMPT 00000000   6764 
_DEBUG_MONI_MD_DT0                        IMPT 00000000   6761 
_DEBUG_MONI_MD_DT1                        IMPT 00000000   6762 
_DEBUG_MONI_WORK1                         IMPT 00000000   6765 
_DEBUG_MONI_WORK2                         IMPT 00000000   6766 
_DEBUG_MONI_WORK3                         IMPT 00000000   6767 
_DEBUG_MONI_WORK4                         IMPT 00000000   6768 
_DEBUG_MONI_WORK5                         IMPT 00000000   6769 
_DEBUG_MONI_WORK6                         IMPT 00000000   6770 
_DEF_DAI_POS_PV                           IMPT 00000000   2973 
_DG_PS_INF_CHK1                           EQU  00000000   2197*
_DG_PS_INF_CHK2                           EQU  0000003C   2202*
_DG_PS_INF_CONT                           EQU  00000004   2198* 7625 
_DG_PS_INF_LATE                           EQU  00000010   2201* 7642  7647 
_DG_PS_INF_STLK                           EQU  0000000C   2200*
_DG_PS_INF_UNIT                           EQU  00000008   2199* 7617 
_DIG36000_CHG_DIG360000          P             000001E4   7812  7821  7915*
_DIG36000_CHG_INC_PLS            P             000001F6   7842  7851  7950*
_DIG36000_CHG_RENEA1             P        EXPT 0000008C   7461  7611* 8055 
_DIG_AREA_CHK0                            IMPT 00000000   7377  7494 
_DIG_AREA_CHK1                            IMPT 00000000   7378 
_DIG_PLS_CHG_INF1_TOP                     IMPT 00000000   7450  7615 
_DIG_PLS_CHG_TBL1_TOP                     IMPT 00000000   7451  7633 
_DIR_FLG                                  IMPT 00000000   4052 
_DISP_ENC360                              IMPT 00000000   2524 
_DISP_RE_VIEW_FLG                         IMPT 00000000   3003 
_DISP_SV_DG_DAT                           IMPT 00000000   3315 
_DISP_SV_MM_DAT                           IMPT 00000000   3316 
_DIVS_32REG2_32REG1_R4_32REG2_R2          IMPT 00000000   7360 
_DIVS_64R1R2_32R4_32R2                    IMPT 00000000   7361 
_DIVS_64R1R2_32R4_64R1R2                  IMPT 00000000   7374 
_DIVU_64R1R2_32R4_32R2                    IMPT 00000000   7362 
_DIVU_64R1R2_32R4_64R1R2                  IMPT 00000000   7375 
_DMATH_CNTROT                             EQU  00000001   2029*
_DMATH_DNDRIV                             EQU  00000004   2031*
_DMATH_REVRSE                             EQU  00000002   2030*
_DMATH_UPDRIV                             EQU  00000008   2032*
_DNDINC_CTRL_STEP                         IMPT 00000000   3762 
_DND_CALC_WORK                            IMPT 00000000   2790 
_DND_OVERCHK_DIG                          IMPT 00000000   4252 
_DNM_ACC_CALFLG                           IMPT 00000000   4222 
_DNM_CTL_INC3600                          IMPT 00000000   4090 
*** SuperH RISC engine ASSEMBLER V.7.01.02.000 ***    11/14/21 17:24:39                                                  PAGE    25

*** CROSS REFERENCE LIST

NAME                             SECTION  ATTR VALUE             SEQUENCE

_DNM_DEBUG_CNT                            IMPT 00000000   4693 
_DNM_DEBUG_STS1                           IMPT 00000000   4692 
_DNM_DIR_CHG_FLG                          IMPT 00000000   4088 
_DNM_DIR_CHG_TIM                          IMPT 00000000   4089 
_DNM_DIR_FLG_INC_LATCH                    IMPT 00000000   5049 
_DNM_DIR_FLG_OLD                          IMPT 00000000   4128 
_DNM_DIR_NOW_FLG                          IMPT 00000000   4086 
_DNM_DIR_SAM_FLG                          IMPT 00000000   4087 
_DNM_DIR_SET_FLG                          IMPT 00000000   4085 
_DNM_MAX_GENSOK_LENGTH                    IMPT 00000000   4741 
_DNM_RESET_AREA                           IMPT 00000000   5004 
_DNM_RST_SPEC_AREASIG                     IMPT 00000000   5314 
_DNM_SET1_OBJECT_DIG_TOP                  IMPT 00000000   4084 
_DNM_SET1_OBJECT_PLS_TOP                  IMPT 00000000   4082 
_DNM_SET1_UPAREA_DIG0                     IMPT 00000000   4083 
_DNM_SET1_UPAREA_PLS0                     IMPT 00000000   4081 
_DNM_SETX_HOLD_CMP1_DEG                   IMPT 00000000   4457 
_DNM_SETX_LINK_UP_POS_DN                  IMPT 00000000   4098 
_DNM_SETX_LINK_UP_POS_UP                  IMPT 00000000   4097 
_DNM_SETX_MOTREP_DIR                      IMPT 00000000   5029 
_DNM_SETX_UPAREA_DIG                      IMPT 00000000   4093 
_DNM_SETX_UPAREA_PLS                      IMPT 00000000   4092 
_DNM_WSVX_CLNK_UP_POS                     IMPT 00000000   4094 
_DNM_WSVX_CLNK_UP_POS_DN                  IMPT 00000000   4096 
_DNM_WSVX_CLNK_UP_POS_UP                  IMPT 00000000   4095 
_DPCHK_CPU_ERR_TIM                        IMPT 00000000   5134 
_DPCHK_DI_ERR_TIM                         IMPT 00000000   5143 
_DPCHK_ERR_SIG                            IMPT 00000000   5133 
_DPCHK_WR_COD                             IMPT 00000000   5135 
_DPSQ022                                  EQU  0000002C   2084*
_DPSQ024                                  EQU  00000030   2085*
_DPSQ028                                  EQU  00000038   2086*
_DPSQ029                                  EQU  0000003A   2087*
_DPSQ058                                  EQU  00000074   2088*
_DPSQ287                                  EQU  0000023E   2099*
_DPSQ288                                  EQU  00000240   2100*
_DPSQ340                                  EQU  000002A8   2090*
_DPSQ341                                  EQU  000002AA   2091*
_DPSQ356                                  EQU  000002C8   2092*
_DPSQ358                                  EQU  000002CC   2093*
_DPSQ359                                  EQU  000002CE   2094*
_DPSQ367                                  EQU  000002DE   2095*
_DPSQ368                                  EQU  000002E0   2096*
_DPSQ369                                  EQU  000002E2   2097*
_DP_COP_CB_LD_MONI_SIG                    IMPT 00000000   5461 
_DP_DBG_CPUAB_DRV_START                   IMPT 00000000   5463 
_DRVHOS_CAL_RNA_POS                       IMPT 00000000   2966 
_DRVHOS_DEF_CNT_PV                        IMPT 00000000   2958 
_DRVHOS_DEF_RNA_POS                       IMPT 00000000   2965 
_DRVHOS_IDO_BUF                           IMPT 00000000   2970 
_DRVHOS_IDO_CNT                           IMPT 00000000   2961 
_DRVHOS_IDO_POINT                         IMPT 00000000   2959 
_DRVHOS_IDO_TOTAL                         IMPT 00000000   2969 
_DRVHOS_MOST_DN_RNAPOS                    IMPT 00000000   2967 
*** SuperH RISC engine ASSEMBLER V.7.01.02.000 ***    11/14/21 17:24:39                                                  PAGE    26

*** CROSS REFERENCE LIST

NAME                             SECTION  ATTR VALUE             SEQUENCE

_DRVHOS_USE_FLG                           IMPT 00000000   2956 
_DRVHOS_WAIT_CNT_PV                       IMPT 00000000   2957 
_DRVHOS_WORK_BUF                          IMPT 00000000   2971 
_DRV_ACT_FLG                              IMPT 00000000   2657 
_DRV_START_KEEP                           IMPT 00000000   3988 
_DSET_SW_CPUB                             IMPT 00000000   7200 
_DT_100PER_0                              EQU  00000064   2001*
_DT_100PER_1                              EQU  000003E8   2000*
_DUMMY_SUM_CODE                           EQU  5AA53CC3    105*
_DUM_MRTION_SEL1                          IMPT 00000000   3325 
_DUM_MTSTEP_MAXM                          IMPT 00000000   3324 
_DUM_SET1_DIG_TOP                         IMPT 00000000   3323 
_DUM_SET1_SPD_TOP                         IMPT 00000000   5110 
_DUM_SET2_SPD_TOP                         IMPT 00000000   5111 
_DUM_UPAREA_DIG0                          IMPT 00000000   3322 
_DURING_TIM_FX                            IMPT 00000000   4655 
_ELSE_ERR_FLG1                            IMPT 00000000   2579 
_ELSE_ERR_FLG2                            IMPT 00000000   2580 
_EMG_OUT                                  IMPT 00000000   7215 
_EMG_SCANCUT_FLG                          IMPT 00000000   4777 
_EMG_SH2_TO_SH4                           IMPT 00000000   5518 
_EMG_SH4_TO_SH2                           IMPT 00000000   5517 
_ENC360_BITERR_CNT                        IMPT 00000000   2544 
_ENC360_BITFLW_CNT                        IMPT 00000000   2543 
_ENC360_BITNML_CNT                        IMPT 00000000   2545 
_ENC360_HEX                               IMPT 00000000   2519 
_ENC360_INDT                              IMPT 00000000   2518 
_ENC360_INOLD                             IMPT 00000000   2517 
_ENC360_LINK_AREASIG                      IMPT 00000000   3637 
_ENC360_OVER_ENC                          IMPT 00000000   3529 
_ENC360_OVER_FLG                          IMPT 00000000   3528 
_ENCPLS_1000MSEC_LAT                      IMPT 00000000   3431 
_ENCPLS_DELT                              IMPT 00000000   3427 
_ENCPLS_POINT_SEL                         IMPT 00000000   3430 
_ENCPLS_SPD_AVL_TOP                       IMPT 00000000   3428 
_ENCPLS_SPD_POINT                         IMPT 00000000   3429 
_ENCPLS_SPD_TOTAL                         IMPT 00000000   3423 
_ENC_PLS_SPD                              IMPT 00000000   3424 
_ENC_PLS_SPD_DIR                          IMPT 00000000   3426 
_ENC_SYSRST_CMD                           IMPT 00000000   2535 
_ENC_TIMEXT_FLG                           IMPT 00000000   2536 
_ENDHAND_TIMOUT_PV                        IMPT 00000000   5101 
_END_CMD_LATCH                            IMPT 00000000   2630 
_EPCHK_COM                                IMPT 00000000   4923 
_EPCHK_DLY_TIM                            IMPT 00000000   4926 
_EPCHK_ERR_TIM                            IMPT 00000000   4927 
_EPCHK_FLG                                IMPT 00000000   4924 
_EPCHK_FORCE_VONCMD                       IMPT 00000000   4930 
_EPCHK_RETRY_CNT                          IMPT 00000000   4928 
_EPCHK_STEP                               IMPT 00000000   4925 
_EPCHK_STOP_DISENB                        IMPT 00000000   5247 
_EPCHK_STS                                IMPT 00000000   4929 
_EQ_DND_MAX                               EQU  00000002   2034*
_EQ_STEP_MAX                              EQU  00000005   2027*
*** SuperH RISC engine ASSEMBLER V.7.01.02.000 ***    11/14/21 17:24:39                                                  PAGE    27

*** CROSS REFERENCE LIST

NAME                             SECTION  ATTR VALUE             SEQUENCE

_EQ_STEP_MX2                              EQU  0000000A   2028*
_ERRCHK_ENC360                            IMPT 00000000   4604 
_ERR_FIRST_ST                             IMPT 00000000   4992 
_ERR_INFO_A01                             EQU  00000020   2253*
_ERR_INFO_A02                             EQU  00000022   2254*
_ERR_INFO_A03                             EQU  00000024   2255*
_ERR_INFO_A04                             EQU  00000026   2256*
_ERR_INFO_A05                             EQU  00000028   2257*
_ERR_INFO_A06                             EQU  0000002A   2258*
_ERR_INFO_A07                             EQU  0000002C   2259*
_ERR_INFO_A08                             EQU  0000002E   2260*
_ERR_INFO_B01                             EQU  00000030   2261*
_ERR_INFO_B02                             EQU  00000032   2262*
_ERR_INFO_B03                             EQU  00000034   2263*
_ERR_INFO_B04                             EQU  00000036   2264*
_ERR_INFO_B05                             EQU  00000038   2265*
_ERR_INFO_B06                             EQU  0000003A   2266*
_ERR_INFO_B07                             EQU  0000003C   2267*
_ERR_INFO_B08                             EQU  0000003E   2268*
_ERR_INFO_C01                             EQU  00000000   2245*
_ERR_INFO_C02                             EQU  00000004   2246*
_ERR_INFO_C03                             EQU  00000008   2247*
_ERR_INFO_C04                             EQU  0000000C   2248*
_ERR_INFO_C05                             EQU  00000010   2249*
_ERR_INFO_C06                             EQU  00000014   2250*
_ERR_INFO_C07                             EQU  00000018   2251*
_ERR_INFO_C08                             EQU  0000001C   2252*
_ERR_INFO_CPUA_FLG                        IMPT 00000000   7000 
_ERR_INFO_CPUA_TOP                        IMPT 00000000   7001 
_ERR_INFO_DLY_TIM                         IMPT 00000000   3523 
_ERR_INFO_SAVE_FLG                        IMPT 00000000   3524 
_ERR_INFO_SAVE_LATCH                      IMPT 00000000   3525 
_ERR_LEV_IN2                              IMPT 00000000   4277 
_ERR_LEV_IN3                              IMPT 00000000   4278 
_ERR_LEV_IN4                              IMPT 00000000   4279 
_ERR_LEV_IN5                              IMPT 00000000   4280 
_ERR_LEV_IN6                              IMPT 00000000   4281 
_ET2_WORD_SITM_ACK                        IMPT 00000000   7210 
_ET2_WORD_SITM_REQ                        IMPT 00000000   7209 
_EXQ_LT_CMPSTEP_STEP_END                  IMPT 00000000   5298 
_EXQ_LT_GET_FLG                           IMPT 00000000   5297 
_EXQ_LT_PROC_CNT1                         IMPT 00000000   5299 
_EXQ_LT_PROC_CNT2                         IMPT 00000000   5300 
_EXQ_LT_PROC_CNT3                         IMPT 00000000   5301 
_EXQ_LT_PROC_CNT4                         IMPT 00000000   5302 
_EXQ_OUT                                  IMPT 00000000   7216 
_EXQ_SH2_TO_SH4                           IMPT 00000000   5521 
_EXQ_SH4_TO_SH2                           IMPT 00000000   5520 
_EXTDRV_BTTN_ERR_TIM                      IMPT 00000000   4846 
_EXTDRV_BTTN_USE                          IMPT 00000000   4839 
_EXTDRV_UTINUKI_FLG                       IMPT 00000000   4840 
_EXT_BTTN_FLG                             IMPT 00000000   4843 
_FPU_DIVS_32REG2_32REG1_R4_32REG*         IMPT 00000000   7367 
_FPU_DIVS_32REG2_DIV_32REG4_R2_M*         IMPT 00000000   7368  7621 
*** SuperH RISC engine ASSEMBLER V.7.01.02.000 ***    11/14/21 17:24:39                                                  PAGE    28

*** CROSS REFERENCE LIST

NAME                             SECTION  ATTR VALUE             SEQUENCE

_FPU_POS_HOKAN1                           IMPT 00000000   7380  7892 
_FPU_R2_MUL_R1_DIV_R4                     IMPT 00000000   7365 
_FPU_R2_MUL_R1_R3_DIV_R4                  IMPT 00000000   7366 
_FPU_TIM_HOKAN1                           IMPT 00000000   7381  7673 
_FRCYCL_OF                                IMPT 00000000   7231 
_FRCYCL_ON                                IMPT 00000000   7232 
_FREQ_BAS_SV_SPD                          IMPT 00000000   3570 
_FREQ_PLSI_MAX_FRQ                        IMPT 00000000   3569 
_FREQ_SV_SPD                              IMPT 00000000   3502 
_FR_CYL_MASK_FLG                          IMPT 00000000   2629 
_FULCLS_ELSE_STS                          IMPT 00000000   4829 
_FULCLS_MATHED                            IMPT 00000000   4819 
_FULCLS_TIM_SETFLG                        IMPT 00000000   4827 
_FULL_CLS_OBJ_MM                          IMPT 00000000   3065 
_FUL_CLS_DLYTM_SV                         IMPT 00000000   4659 
_FUL_CLS_MAXOVER_F                        IMPT 00000000   4660 
_FUL_CLS_RNADIG                           EQU  00000320   2005*
_GMN_HANYO_DI1                            IMPT 00000000   5359 
_GMN_HANYO_OUT1_SQ                        IMPT 00000000   5360 
_GMN_OVER_LIDE_FLG                        IMPT 00000000   3868 
_HD_CMP_PLS_A1                            IMPT 00000000   5474 
_HD_CMP_PLS_B1                            IMPT 00000000   5475 
_HENSA_OVER_MOVE_CNT                      IMPT 00000000   3944 
_HENSA_OVER_STOP_CNT                      IMPT 00000000   3945 
_HENSA_OVR_ENCPOS                         IMPT 00000000   2865 
_HENSA_OVR_OUTPLS                         IMPT 00000000   2864 
_HIGH_DIVS_32REG2_16REG1_R4_16RE*         IMPT 00000000   7363 
_HIGH_S32R2_MUL_S32R1_DIV_S32R4_*         IMPT 00000000   7364 
_HIST_DAT_SEND_COM                        IMPT 00000000   5420 
_HIST_DAT_SEND_DIS                        IMPT 00000000   5419 
_HIST_EVENT_COD                           IMPT 00000000   5421 
_HIST_KEP_SEND_COM                        IMPT 00000000   5422 
_HS_PVP_LOTCNT_FLG                        IMPT 00000000   5898 
_HS_PVP_TAKIKI_FLG                        IMPT 00000000   5897 
_HS_SVCHG_A_TO_B                          IMPT 00000000   5896 
_HS_SVCHG_B_TO_A                          IMPT 00000000   5873 
_INCENC_ADD                               EQU  00000000   2056*
_INCENC_LINK_NOWROT_NUMPLS_ZR             IMPT 00000000   2686 
_INCENC_LINK_NOWROT_NUM_ZR                IMPT 00000000   2685 
_INCENC_LINK_NOWROT_OFSPLS                IMPT 00000000   2687 
_INCHEN_ADD                               EQU  00000000   2055*
_INCREV_ADD                               EQU  00000000   2060*
_INCRNA_ADD                               EQU  00000000   2057*
_INCSTP_ADD                               EQU  00000000   2058*
_INC_ABS_ORGWORK                          IMPT 00000000   2912 
_INC_ABS_ORGWORK2                         IMPT 00000000   4331 
_INC_ABS_ORGWORK2A                        IMPT 00000000   4332 
_INC_ENC360                               IMPT 00000000   2523  8049 
_INC_ENC_MM_POS                           IMPT 00000000   2707  8058 
_INC_LINK_NOWROT_OFSPLS_P                 IMPT 00000000   2688  8002 
_INC_OFS_ORGWORK2A                        IMPT 00000000   4333 
_INC_RESET_STEP                           IMPT 00000000   5044 
_INC_RESET_USE_F                          IMPT 00000000   5045 
_INC_STOP_CNT                             IMPT 00000000   3243 
*** SuperH RISC engine ASSEMBLER V.7.01.02.000 ***    11/14/21 17:24:39                                                  PAGE    29

*** CROSS REFERENCE LIST

NAME                             SECTION  ATTR VALUE             SEQUENCE

_INFO_CHK1_COD                            EQU  5AA51234   2195*
_INFO_CHK2_COD                            EQU  4321A55A   2196*
_INPUT_MODE_SW                            IMPT 00000000   2578 
_INP_ERR_FLG                              IMPT 00000000   4595 
_INP_MODE                                 IMPT 00000000   2610 
_INSERT_MOT_SV_CHGF                       IMPT 00000000   5109 
_INT1MS_SCAN_02MS                         IMPT 00000000   4270 
_INT1MS_SCAN_03MS                         IMPT 00000000   4271 
_INT1MS_SCAN_05MS1                        IMPT 00000000   4272 
_INT1MS_SCAN_05MS2                        IMPT 00000000   4273 
_INT1MS_SCAN_10MS                         IMPT 00000000   4274 
_INT_CLS_CTL_FLG                          IMPT 00000000   2831 
_INT_CLS_DYL_TIM                          IMPT 00000000   2832 
_INT_CYC_DRV_STS                          IMPT 00000000   2830 
_INT_DND_CTL_STEP                         IMPT 00000000   2826 
_INT_DND_NEG_STEP                         IMPT 00000000   2834 
_INT_DND_STEP_FLG                         IMPT 00000000   2829 
_INT_LINK_TOTAL_ABSPLS                    IMPT 00000000   2843 
_INT_POS_CTL_FLAG                         IMPT 00000000   2827 
_INT_POS_CTL_STEP                         IMPT 00000000   2824 
_INT_POS_STEP_FLG                         IMPT 00000000   2828 
_INT_SFY_INP_DAT                          IMPT 00000000   3630 
_INT_STP_INP_DAT                          IMPT 00000000   3631 
_INT_STP_INP_DAT1                         IMPT 00000000   3632 
_INT_STP_INP_DAT2                         IMPT 00000000   3633 
_INT_STP_INP_DAT3                         IMPT 00000000   3634 
_IN_PARAM_RNA_CHK                         IMPT 00000000   4027 
_IN_POS_GPOINT_POS                        IMPT 00000000   3929 
_IN_RDY_FLG                               IMPT 00000000   2618 
_IRQ_EMG_CNT                              IMPT 00000000   3624 
_IRQ_EMG_FLG                              IMPT 00000000   3623 
_IRQ_SFY_CNT                              IMPT 00000000   3626 
_IRQ_SFY_FLG                              IMPT 00000000   3625 
_IRQ_STP_CNT                              IMPT 00000000   3628 
_IRQ_STP_FLG                              IMPT 00000000   3627 
_KAJLIV_TTL_IDOBUF                        IMPT 00000000   4185 
_KAJLIV_TTL_POINT                         IMPT 00000000   4184 
_KAJLIV_TTL_TOTAL                         IMPT 00000000   4182 
_KEEPRY_BKUP_FLG                          IMPT 00000000   5900 
_KEY_DT_CPUB                              IMPT 00000000   7199 
_KEY_USE_SEL                              IMPT 00000000   7198 
_KJPHOS_CAL_PRS                           IMPT 00000000   2993 
_KJPHOS_DEF_CNT_PV                        IMPT 00000000   2985 
_KJPHOS_IDO_BUF                           IMPT 00000000   2988 
_KJPHOS_IDO_CNT                           IMPT 00000000   2982 
_KJPHOS_IDO_POINT                         IMPT 00000000   2981 
_KJPHOS_IDO_TOTAL                         IMPT 00000000   2987 
_KJPHOS_USE_FLG                           IMPT 00000000   2980 
_KJPHOS_WAIT_CNT_PV                       IMPT 00000000   2984 
_KJYUCLS_KN_HENSA                         IMPT 00000000   4816 
_KJYUCLS_KN_HENSA_PLS                     IMPT 00000000   4817 
_KJYUCLS_OBJ_KN                           IMPT 00000000   4815 
_KJYUU_DEF_DAT_PV                         IMPT 00000000   2991 
_KJYUU_IN_DAT_PV                          IMPT 00000000   2990 
*** SuperH RISC engine ASSEMBLER V.7.01.02.000 ***    11/14/21 17:24:39                                                  PAGE    30

*** CROSS REFERENCE LIST

NAME                             SECTION  ATTR VALUE             SEQUENCE

_KJYUU_NEW_DAT_PV                         IMPT 00000000   2992 
_KJYU_CHK_NEARSIG                         IMPT 00000000   4826 
_KJYU_CMP_CMD                             IMPT 00000000   4885 
_KJYU_CMP_SEQHABA                         IMPT 00000000   4891 
_KJYU_CMP_SEQMINS                         IMPT 00000000   4890 
_KJ_AREATRD_SIG                           IMPT 00000000   4867 
_KJ_AREATRD_SIG_OLD                       IMPT 00000000   4868 
_KJ_AREA_BT0_OLD                          IMPT 00000000   3748 
_KJ_AREA_SIG                              IMPT 00000000   3747 
_KOMA_ASM_RAM_TOP                         IMPT 00000000   2471 
_LINKX_SV_OBJ_ABSPLS                      IMPT 00000000   3663 
_LINK_1000ROT_PLS                         IMPT 00000000   4203 
_LINK_1ROT_PLS                            IMPT 00000000   2758  7967 
_LINK_2ROT_PLS                            IMPT 00000000   4200 
_LINK_3ROT_PLS                            IMPT 00000000   4201 
_LINK_4ROT_PLS                            IMPT 00000000   4202 
_LINK_CLANK_PV                            IMPT 00000000   3480 
_LINK_MAX_SPD_PLS                         IMPT 00000000   3033 
_LINK_NOWROT_NUMPLS_ZR                    IMPT 00000000   2681 
_LINK_NOWROT_NUM_ZR                       IMPT 00000000   2680 
_LINK_NOWROT_OFSPLS                       IMPT 00000000   2682 
_LINK_NOWROT_OFSPLS_P                     IMPT 00000000   2683 
_LINK_OBJROT_NUMPLS_ZR                    IMPT 00000000   2752 
_LINK_OBJROT_NUM_ZR                       IMPT 00000000   2751 
_LINK_POS_OFFSET1                         IMPT 00000000   2845 
_LINK_POS_OFFSET2                         IMPT 00000000   2846 
_LINK_PV_ABSPLS                           IMPT 00000000   2844 
_LINK_RL_OBJ_ABSPLS                       IMPT 00000000   2805 
_LINK_SV_OBJ_ABSPLS                       IMPT 00000000   2813 
_LINK_SV_OBJ_SPDPLS                       IMPT 00000000   2814 
_LNGTH_ADD_DATA                           IMPT 00000000   2839 
_LNGTH_TOTAL_OUTPLS                       IMPT 00000000   2840 
_LOT_CHK_DBG_CNT1                         IMPT 00000000   3467 
_LOT_CHK_DBG_CNT2                         IMPT 00000000   3468 
_LOT_CHK_FLG                              IMPT 00000000   2650 
_LOT_CNT_FLG                              IMPT 00000000   2648 
_LSA1_FILETR_TIM                          IMPT 00000000   3729 
_LSA2_FILETR_TIM                          IMPT 00000000   3730 
_LSA_CHK_DELAY_TM                         IMPT 00000000   3735 
_LSA_ENC_DIG                              IMPT 00000000   3722 
_LSA_ENC_MOV_LNG1A                        IMPT 00000000   3723 
_LSA_ENC_MOV_LNG1B                        IMPT 00000000   3724 
_LSA_ENC_MOV_LNG2                         IMPT 00000000   3725 
_LSA_ERR_SIG                              IMPT 00000000   3734 
_LSA_SIG_DT                               IMPT 00000000   3726 
_LSA_SIG_DT2                              IMPT 00000000   4051 
_LSA_SIG_OLD_DT                           IMPT 00000000   3727 
_LSA_SIG_OLD_WRK                          IMPT 00000000   3728 
_LSI_BUF_PLS_BitComdL                     IMPT 00000000   3586 
_LSI_CHK_DBG_CNT1                         IMPT 00000000   4459 
_LSI_CHK_DBG_CNT2                         IMPT 00000000   4460 
_LSI_CHK_DBG_CNT3                         IMPT 00000000   4461 
_LSI_CHK_DBG_CNT4                         IMPT 00000000   4462 
_LSI_CMPCPUAB_POSMAX                      IMPT 00000000   3565 
*** SuperH RISC engine ASSEMBLER V.7.01.02.000 ***    11/14/21 17:24:39                                                  PAGE    31

*** CROSS REFERENCE LIST

NAME                             SECTION  ATTR VALUE             SEQUENCE

_LSI_CMPCPUAB_POS_RL                      IMPT 00000000   3564 
_LSI_LOAD_PLS                             IMPT 00000000   5171 
_LSI_PLSCLR_AC_CNT1                       IMPT 00000000   3554 
_LSI_PLSCLR_NG_CNT1                       IMPT 00000000   3555 
_LSI_PLSCLR_NG_CNT2                       IMPT 00000000   3556 
_LSI_PLSCLR_RETRY_CNT1                    IMPT 00000000   3537 
_LSI_PLSCMP_AC_CNT1                       IMPT 00000000   3550 
_LSI_PLSCMP_NG_CNT1                       IMPT 00000000   3548 
_LSI_PLSCMP_RETRY_CNT1                    IMPT 00000000   3547 
_LSI_PLSRD_NG_CNT1                        IMPT 00000000   3551 
_LSI_PLSSET_AC_CNT1                       IMPT 00000000   3557 
_LSI_PLSSET_AC_CNT2                       IMPT 00000000   3558 
_LSI_PLSSET_NG_CNT1                       IMPT 00000000   3559 
_LSI_PLSSET_NG_CNT2                       IMPT 00000000   3560 
_LSI_PLSSET_NG_CNT3                       IMPT 00000000   3561 
_LSI_PLSSET_RETRY_CNT1                    IMPT 00000000   3538 
_LSI_SET_SPD_MAXLMT                       IMPT 00000000   3648 
_LSI_SET_SPD_MINLMT                       IMPT 00000000   3649 
_LSI_SET_SPD_SV                           IMPT 00000000   3647 
_LT_INT_LINK_RL_OBJ_ABSPLS                IMPT 00000000   3498 
_LT_LINK_SV_OBJ_ABSPLS                    IMPT 00000000   3497 
_LT_LNGTH_ADD_DATA                        IMPT 00000000   3499 
_LT_LNGTH_TOTAL_OUTPLS                    IMPT 00000000   3500 
_MAIN_CLK                                 IMPT 00000000   4763 
_MAIN_START_OK                            IMPT 00000000   2481 
_MCN_DBG_COD11                            EQU  00000063   2230*
_MCN_DBG_COD21                            EQU  00000059   2232*
_MCN_DBG_COD22                            EQU  00000058   2233*
_MCN_DBG_COD23                            EQU  00000058   2234*
_MCN_DBG_COD31                            EQU  0000004F   2236*
_MCN_DBG_COD32                            EQU  0000004E   2237*
_MCN_DBG_COD33                            EQU  0000004D   2238*
_MCN_FUJI_DBG1                            EQU  000004D2   2240*
_MISS_KEN_CAM_IN                          IMPT 00000000   5376 
_MISS_KEN_CAM_OF_EDG                      IMPT 00000000   5377 
_MISS_KEN_CNT_STOP_SQ                     IMPT 00000000   5379 
_MISS_KEN_DI                              IMPT 00000000   5372 
_MISS_KEN_DI_REC_ON                       IMPT 00000000   5373 
_MISS_KEN_EMG_STOP_SQ                     IMPT 00000000   5380 
_MISS_KEN_INIT_FLG                        IMPT 00000000   5369 
_MISS_KEN_INIT_TIM                        IMPT 00000000   5370 
_MNWR_POS_CMD                             IMPT 00000000   2774 
_MODE_SEL                                 IMPT 00000000   2611 
_MONI_CPUAB_PLSDELT                       IMPT 00000000   3904 
_MONI_DISP_MOD                            IMPT 00000000   5424 
_MONI_RDY_STEP                            IMPT 00000000   4985 
_MONI_RESET_STEP                          IMPT 00000000   4984 
_MONI_SELF_STS1                           IMPT 00000000   4986 
_MONI_SELF_STS2                           IMPT 00000000   4987 
_MOT_REP_CNT                              IMPT 00000000   5031 
_MOT_REP_F                                IMPT 00000000   5030 
_MOVE_MODE_MATH_LATCH                     IMPT 00000000   5048 
_MOV_DATA_ERR_FLG1                        IMPT 00000000   2584 
_MOV_ERR_FLG1                             IMPT 00000000   2581 
*** SuperH RISC engine ASSEMBLER V.7.01.02.000 ***    11/14/21 17:24:39                                                  PAGE    32

*** CROSS REFERENCE LIST

NAME                             SECTION  ATTR VALUE             SEQUENCE

_MRTION_SEL                               IMPT 00000000   2616 
_MULDIV_R1R2S64mR3S32dR4S32aR1R2*         IMPT 00000000   7371 
_MULDIV_R2S32mR1S32dR4S32aR1R2S6*         IMPT 00000000   7370 
_MUL_R1R2S64mR3S32aR1R2S64                IMPT 00000000   7372 
_MYUTING_MOD_STOPSEL                      IMPT 00000000   4712 
_M_LINK_AREASIG                           IMPT 00000000   2690 
_M_LINK_RL_OBJ_ABSPLS                     IMPT 00000000   2798 
_NEAR_IN_FLG                              IMPT 00000000   2673 
_NEG_CTL_OBJ_POS_PUSH                     IMPT 00000000   4311 
_NEG_CTRL_BEFOR_OBJ_PLS                   IMPT 00000000   4309 
_NEG_CTRL_BEFOR_SLW_PLS                   IMPT 00000000   4310 
_NEG_DND_STOP_POS_END_F                   IMPT 00000000   5388 
_NEG_DND_STOP_USE_F                       IMPT 00000000   5387 
_NEG_EXITTIM                              IMPT 00000000   4681 
_NEW_POSLSI_RESTPLS                       IMPT 00000000   3566 
_NEW_TEP_CNT                              IMPT 00000000   3794 
_NOW_INCPLS_CHG_MM_MAK           P        EXPT 0000025C   8036  8045*
_NOW_MOTREP_DIR                           IMPT 00000000   5032 
_NOW_RNA_DIG_MAK                 P        EXPT 00000228   7984  7997*
_NZ_TIM_OUT_PV1                           IMPT 00000000   3382 
_NZ_TIM_OUT_PV2                           IMPT 00000000   3383 
_NZ_TIM_OUT_SV1                           IMPT 00000000   3380 
_NZ_TIM_OUT_SV2                           IMPT 00000000   3381 
_OBJDIG_CLANK                             IMPT 00000000   4684 
_OBJ_ENC360                               IMPT 00000000   2525 
_OLD_RNAORG_POS1                          IMPT 00000000   2512 
_OPTION_COP_ARI                           IMPT 00000000   7204 
_OPTION_ET1_ARI                           IMPT 00000000   7205 
_ORGIN2_STEP_FLG                          IMPT 00000000   4320 
_ORGIN_END_FLG1                           IMPT 00000000   3055 
_ORGIN_MOD2_CHKTIM                        IMPT 00000000   3818 
_ORGIN_MOD2_SEL                           IMPT 00000000   3817 
_ORGIN_MOD2_START_FLG                     IMPT 00000000   3819 
_ORGPOS_LATCH1_INC_OFFSET_PLS             IMPT 00000000   4376 
_ORGPOS_LATCH1_RNA_ABS_DAT                IMPT 00000000   4377 
_ORGPOS_SERCH_RNA_ABS_DAT                 IMPT 00000000   4378 
_ORG_DND_NOMAL_FLG1                       IMPT 00000000   2588 
_ORG_DRV_CNT_PV                           IMPT 00000000   3454 
_ORG_ELSE_NOMAL_FLG1                      IMPT 00000000   2587 
_ORG_FIRST_OBJPLS                         IMPT 00000000   3046 
_ORG_PRESET_TIM                           IMPT 00000000   2596 
_ORG_RDY_CTL_FLG                          IMPT 00000000   3455 
_ORG_SECOND_OBJPLS                        IMPT 00000000   3047 
_ORIGN_180ARA_FLG                         IMPT 00000000   4012 
_ORIGN_OBJ_CTL_FLG                        IMPT 00000000   3650 
_OUTPLS_1000MSEC_LAT                      IMPT 00000000   3441 
_OUTPLS_DELT                              IMPT 00000000   3437 
_OUTPLS_DIV                               IMPT 00000000   2848 
_OUTPLS_MOD                               IMPT 00000000   2847 
_OUTPLS_POINT_SEL                         IMPT 00000000   3440 
_OUTPLS_SPD_AVL_TOP                       IMPT 00000000   3438 
_OUTPLS_SPD_POINT                         IMPT 00000000   3439 
_OUTPLS_SPD_TOTAL                         IMPT 00000000   3433 
_OUT_PLS_SPD                              IMPT 00000000   3434 
*** SuperH RISC engine ASSEMBLER V.7.01.02.000 ***    11/14/21 17:24:39                                                  PAGE    33

*** CROSS REFERENCE LIST

NAME                             SECTION  ATTR VALUE             SEQUENCE

_OUT_PLS_SPD_DIR                          IMPT 00000000   3436 
_OVER1_JGDIG                              EQU  00000032   2039*
_OVERH_CALC_USE                           IMPT 00000000   4678 
_OVERH_MODE_SEL                           IMPT 00000000   4676 
_OVERLIDE_DT_SEL                          IMPT 00000000   3866 
_OVER_LIDE_ANS_TIM                        IMPT 00000000   3893 
_OVER_RIDE_LATE_ANS                       IMPT 00000000   3856 
_OVER_RIDE_LATE_FLG                       IMPT 00000000   3854 
_OVER_RIDE_LATE_REQ                       IMPT 00000000   3855 
_OVER_RIDE_USEFUL                         IMPT 00000000   3888 
_OVER_UPDN_DBGCNT                         IMPT 00000000   3890 
_OVRLIDE_LATE_MAX                         EQU  00000064   2271*
_PANEL_FRQ_DAT                            IMPT 00000000   7202 
_PANEL_LED_DAT                            IMPT 00000000   7201 
_PLSOUTEND_FLG                            IMPT 00000000   5194 
_PLSOUTEND_PVPLS                          IMPT 00000000   5192 
_PLSOUTEND_SHIN                           IMPT 00000000   5193 
_PLS_DIG_CHG_INF1_TOP                     IMPT 00000000   7454  7747 
_PLS_DIG_CHG_TBL1_TOP                     IMPT 00000000   7455  7786 
_PLS_DIG_CHG_TBL2_TOP                     IMPT 00000000   7456  7790 
_PLS_OUTPUT_FLG                           IMPT 00000000   3373 
_PLS_OUT_END_STS                          IMPT 00000000   4746 
_PON_ERR_WAIT_TIM                         IMPT 00000000   5124 
_POSCANSEL_CMD                            IMPT 00000000   5313 
_POSCTL_CALC_ERR                          IMPT 00000000   3841 
_POSCTL_OVER_ACC_LAT                      IMPT 00000000   3897 
_POSCTL_OVER_SPD_LAT                      IMPT 00000000   3896 
_POSCTL_RL_PLS                            IMPT 00000000   3828 
_POSCTL_RL_SPD                            IMPT 00000000   3832 
_POSCTL_SET_SPD                           IMPT 00000000   3830 
_POSCTL_STEP_CMD                          IMPT 00000000   3839 
_POSCTL_STEP_FLG                          IMPT 00000000   3840 
_POSCTL_SV_DN_ACC                         IMPT 00000000   3835 
_POSCTL_SV_OFS_SPD                        IMPT 00000000   3837 
_POSCTL_SV_PLS                            IMPT 00000000   3827 
_POSCTL_SV_SPD                            IMPT 00000000   3831 
_POSCTL_SV_UP_ACC                         IMPT 00000000   3834 
_POSHLD1_CHKLST_FLG                       IMPT 00000000   4979 
_POSHLD1_GENSKPOSWK                       IMPT 00000000   4958 
_POSHLD1_GENSK_STEP                       IMPT 00000000   4959 
_POSHLD1_SDAT1_HOLDPOS                    IMPT 00000000   4961 
_POSHLD1_SDAT2_HOLDPOS                    IMPT 00000000   4962 
_POSHLD1_STOPLATCH                        IMPT 00000000   4967 
_POSHLD1_STOPSPDWK                        IMPT 00000000   4956 
_POSHLD1_STOP_STEP                        IMPT 00000000   4955 
_POSHLD1_STOP_STEPWK                      IMPT 00000000   4954 
_POSHLD_SET_DN_ACC                        IMPT 00000000   4966 
_POSINER_FLG                              IMPT 00000000   4907 
_POSINER_MOSTPV_POS                       IMPT 00000000   4903 
_POSINER_OLDPV_POS                        IMPT 00000000   4902 
_POSINER_PV_POS                           IMPT 00000000   4901 
_POSINER_RETRY_CNT                        IMPT 00000000   4909 
_POSINER_STOPCHK_TIM1                     IMPT 00000000   4910 
_POSINER_STOPCHK_TIM2                     IMPT 00000000   4911 
*** SuperH RISC engine ASSEMBLER V.7.01.02.000 ***    11/14/21 17:24:39                                                  PAGE    34

*** CROSS REFERENCE LIST

NAME                             SECTION  ATTR VALUE             SEQUENCE

_POSINER_STS                              IMPT 00000000   4908 
_POSINER_SV_OVRPOS                        IMPT 00000000   4905 
_POSINER_SV_POS                           IMPT 00000000   4904 
_POSINER_SV_STPPOS                        IMPT 00000000   4906 
_POSLSI_CHK_CNT                           IMPT 00000000   2857 
_POSLSI_CHK_DLT                           IMPT 00000000   2858 
_POSLSI_CHK_RESTPLS                       IMPT 00000000   2851 
_POSLSI_CHK_STS                           IMPT 00000000   2859 
_POSLSI_CMP_DATA                          IMPT 00000000   2841 
_POSLSI_DELT_POS                          IMPT 00000000   2842 
_POSLSI_DRIV_SHIN                         IMPT 00000000   2850 
_POSLSI_DRV_FRQ                           IMPT 00000000   3567 
_POSLSI_HENSA_LATCH                       IMPT 00000000   2855 
_POSLSI_OUTPUT_TOTAL_PLS                  IMPT 00000000   2853 
_POS_CALC_ERR_FLG1                        IMPT 00000000   3540 
_POS_CALC_ERR_FLG2                        IMPT 00000000   3541 
_POS_CALC_ERR_INF1                        IMPT 00000000   3544 
_POS_CALC_ERR_INF2                        IMPT 00000000   3545 
_POS_CTRL_SQ_STS                          IMPT 00000000   2821 
_POS_DRV_DIRECT                           IMPT 00000000   2815 
_POS_END_MYUTIG_KEEPTIM                   IMPT 00000000   5213 
_POS_END_MYUTIG_STOPTIM                   IMPT 00000000   5212 
_POS_END_WAIT_TIM                         IMPT 00000000   5203 
_POS_FRQ_SPDMAX                           IMPT 00000000   3039 
_POS_GPOINT_POS                           IMPT 00000000   3930 
_POS_HLDSTOP1_CHKTIM                      IMPT 00000000   4938 
_POS_HLDSTOP1_FLG                         IMPT 00000000   4939 
_POS_HLDSTOP1_SIG1TIM                     IMPT 00000000   4940 
_POS_HLDSTOP1_SIG2TIM                     IMPT 00000000   4941 
_POS_HOLDABS_CALCF                        IMPT 00000000   4978 
_POS_HOLD_CMD                             IMPT 00000000   4973 
_POS_HOLD_FLG                             IMPT 00000000   4974 
_POS_HOLD_RDY_EXITF                       IMPT 00000000   4975 
_POS_HOLD_RDY_EXITF2                      IMPT 00000000   4976 
_POS_HOLD_RESTARTCMD                      IMPT 00000000   4972 
_POS_LSI_ABSPLS                           IMPT 00000000   2903 
_POS_LSI_ACCLT1                           IMPT 00000000   3043 
_POS_LSI_ACCLT2                           IMPT 00000000   3044 
_POS_LSI_ACS_ERR_FLG1                     IMPT 00000000   3539 
_POS_LSI_ACS_ERR_INF1                     IMPT 00000000   3543 
_POS_LSI_CLSINC_SPDBAS                    IMPT 00000000   3061 
_POS_LSI_CLS_SPDBAS                       IMPT 00000000   3060 
_POS_LSI_CTL_NOWPLS                       IMPT 00000000   2907 
_POS_LSI_OFFSET1                          IMPT 00000000   2905 
_POS_LSI_OFFSET2                          IMPT 00000000   2906 
_POS_LSI_OLDCNT                           IMPT 00000000   2909 
_POS_LSI_SPDBAS                           IMPT 00000000   3042 
_POS_LSI_SPDLAT                           IMPT 00000000   3041 
_POS_LSI_SPDMAX                           IMPT 00000000   3040 
_POS_LSI_TOTAL_PLS                        IMPT 00000000   2902 
_PRD_DAI_CMP_ENB                          IMPT 00000000   3492 
_PRD_DAI_POS0                             IMPT 00000000   3490 
_PRD_DAI_POS1                             IMPT 00000000   3491 
_PRD_KJP_CMP_ENB                          IMPT 00000000   3978 
*** SuperH RISC engine ASSEMBLER V.7.01.02.000 ***    11/14/21 17:24:39                                                  PAGE    35

*** CROSS REFERENCE LIST

NAME                             SECTION  ATTR VALUE             SEQUENCE

_PS_DG_INF_CHK1                           EQU  00000000   2204*
_PS_DG_INF_CHK2                           EQU  0000003C   2209*
_PS_DG_INF_CONT                           EQU  00000004   2205* 7764 
_PS_DG_INF_LATE                           EQU  00000010   2208* 7803 
_PS_DG_INF_STLK                           EQU  0000000C   2207*
_PS_DG_INF_UNIT                           EQU  00000008   2206*
_PS_TIME                                  EQU  00000002   1998*
_PVCK_STOP_SMPTIM                         IMPT 00000000   3241 
_PVC_BRK_ENC_SPD                          IMPT 00000000   3445 
_PVC_BRK_OUT_SPD                          IMPT 00000000   3446 
_PVOP2_WAIT_CODA                          IMPT 00000000   5714 
_PVOP2_WAIT_CODB                          IMPT 00000000   5715 
_PVPAB_ARA1_KAJ_L                         IMPT 00000000   5750 
_PVPAB_ARA1_KAJ_R                         IMPT 00000000   5751 
_PVPAB_ARA1_KAJ_T                         IMPT 00000000   5752 
_PVPAB_DBG_KYUIN1                         IMPT 00000000   5725 
_PVPAB_DBG_KYUIN2                         IMPT 00000000   5726 
_PVPAB_DBG_KYUIN3                         IMPT 00000000   5727 
_PVPAB_KAJLIV_LFT                         IMPT 00000000   5745 
_PVPAB_KAJLIV_RIH                         IMPT 00000000   5746 
_PVPAB_KAJLIV_TTL                         IMPT 00000000   5747 
_PVPAB_SH2_AD_DAT2                        IMPT 00000000   5722 
_PVPAB_SH2_AD_DAT3                        IMPT 00000000   5723 
_PVPAB_SH2_AD_DAT4                        IMPT 00000000   5724 
_PVPAB_SH2_AD_DATA                        IMPT 00000000   5721 
_PVP_1ROT_CALSPM                          IMPT 00000000   6331 
_PVP_360_DEG                              IMPT 00000000   6342 
_PVP_ABS_ENC_SPD                          IMPT 00000000   6900 
_PVP_ABS_OUT_SPD                          IMPT 00000000   6901 
_PVP_ARA1_KAJ_L                           IMPT 00000000   6327 
_PVP_ARA1_KAJ_R                           IMPT 00000000   6326 
_PVP_ARA1_KAJ_T                           IMPT 00000000   6328 
_PVP_ARA1_KAJ_T2                          IMPT 00000000   6395 
_PVP_ATSLID_OBJ1                          IMPT 00000000   7188 
_PVP_A_LOT_CNT1                           IMPT 00000000   6909 
_PVP_A_LOT_CNT2                           IMPT 00000000   6911 
_PVP_A_LOT_CNT3                           IMPT 00000000   6913 
_PVP_A_LOT_CNT4                           IMPT 00000000   6915 
_PVP_A_LOT_CNT5                           IMPT 00000000   6917 
_PVP_BAKORG_PLS1                          IMPT 00000000   6338 
_PVP_BAKORG_PLS2                          IMPT 00000000   6339 
_PVP_BREAK_DIG                            IMPT 00000000   6865 
_PVP_BREAK_TIM1                           IMPT 00000000   6870 
_PVP_BRK_ENC_SPD                          IMPT 00000000   6904 
_PVP_BRK_OUT_SPD                          IMPT 00000000   6905 
_PVP_B_LOT_CNT1                           IMPT 00000000   6910 
_PVP_B_LOT_CNT2                           IMPT 00000000   6912 
_PVP_B_LOT_CNT3                           IMPT 00000000   6914 
_PVP_B_LOT_CNT4                           IMPT 00000000   6916 
_PVP_B_LOT_CNT5                           IMPT 00000000   6918 
_PVP_CB_A_VER                             IMPT 00000000   6984 
_PVP_CB_B_VER                             IMPT 00000000   6985 
_PVP_CB_C_VER                             IMPT 00000000   7004 
_PVP_CKAGL_OVBIT                          IMPT 00000000   7159 
*** SuperH RISC engine ASSEMBLER V.7.01.02.000 ***    11/14/21 17:24:39                                                  PAGE    36

*** CROSS REFERENCE LIST

NAME                             SECTION  ATTR VALUE             SEQUENCE

_PVP_CKLMT_AGL01                          IMPT 00000000   7161 
_PVP_CKLMT_AGL02                          IMPT 00000000   7162 
_PVP_CKLMT_AGL03                          IMPT 00000000   7163 
_PVP_CKLMT_AGL04                          IMPT 00000000   7164 
_PVP_CKLMT_AGL05                          IMPT 00000000   7165 
_PVP_CKLMT_AGL06                          IMPT 00000000   7166 
_PVP_CKLMT_AGL07                          IMPT 00000000   7167 
_PVP_CKLMT_AGL08                          IMPT 00000000   7168 
_PVP_CKLMT_AGL09                          IMPT 00000000   7169 
_PVP_CKLMT_AGL10                          IMPT 00000000   7170 
_PVP_CKLMT_AGLTOP                         IMPT 00000000   7160 
_PVP_CKLMT_MDSPD                          IMPT 00000000   6470 
_PVP_CKLMT_SPD01                          IMPT 00000000   6473 
_PVP_CKLMT_SPD02                          IMPT 00000000   6474 
_PVP_CKLMT_SPD03                          IMPT 00000000   6475 
_PVP_CKLMT_SPD04                          IMPT 00000000   6476 
_PVP_CKLMT_SPD05                          IMPT 00000000   6477 
_PVP_CKLMT_SPD06                          IMPT 00000000   6478 
_PVP_CKLMT_SPD07                          IMPT 00000000   6479 
_PVP_CKLMT_SPD08                          IMPT 00000000   6480 
_PVP_CKLMT_SPD09                          IMPT 00000000   6481 
_PVP_CKLMT_SPD10                          IMPT 00000000   6482 
_PVP_CKLMT_SPDTOP                         IMPT 00000000   6472 
_PVP_CKSPD_LMBIT                          IMPT 00000000   7183 
_PVP_CKSPD_OVBIT                          IMPT 00000000   6469 
_PVP_CKSPD_STPBT                          IMPT 00000000   7184 
_PVP_COM_ADR                              IMPT 00000000   6867 
_PVP_COM_ERR                              IMPT 00000000   6866 
_PVP_CPUA_ANAIN                           IMPT 00000000   6895 
_PVP_CPUA_TEPPLS                          IMPT 00000000   6893 
_PVP_CPUB_ANAIN                           IMPT 00000000   6896 
_PVP_CPUB_TEPPLS                          IMPT 00000000   6894 
_PVP_CYCLE_SPM1                           IMPT 00000000   6854 
_PVP_CYCLE_TIME0                          IMPT 00000000   6851 
_PVP_DEB_DAT0                             IMPT 00000000   6790 
_PVP_DEB_DAT1                             IMPT 00000000   6791 
_PVP_DEB_DAT2                             IMPT 00000000   6792 
_PVP_DEB_DAT3                             IMPT 00000000   6793 
_PVP_DEB_DAT4                             IMPT 00000000   6794 
_PVP_DEB_DAT5                             IMPT 00000000   6795 
_PVP_DEB_DAT6                             IMPT 00000000   6796 
_PVP_DEB_DAT7                             IMPT 00000000   6797 
_PVP_DEB_DAT8                             IMPT 00000000   6798 
_PVP_DEB_DAT9                             IMPT 00000000   6799 
_PVP_DISP_SPM2                            IMPT 00000000   6855 
_PVP_DYHITO_HOSLNG                        IMPT 00000000   6857 
_PVP_DYHITO_POS                           IMPT 00000000   6858 
_PVP_ECO_METER                            IMPT 00000000   6922 
_PVP_ENC_PLS_SPD                          IMPT 00000000   6898 
_PVP_ENC_SPD_DIR                          IMPT 00000000   6906 
_PVP_ENC_SPD_PER                          IMPT 00000000   6902 
_PVP_EPM_KAISE                            IMPT 00000000   6925 
_PVP_EPM_SYOHI                            IMPT 00000000   6924 
_PVP_GMNSEQ_CNT01                         IMPT 00000000   6872 
*** SuperH RISC engine ASSEMBLER V.7.01.02.000 ***    11/14/21 17:24:39                                                  PAGE    37

*** CROSS REFERENCE LIST

NAME                             SECTION  ATTR VALUE             SEQUENCE

_PVP_GMNSEQ_CNT02                         IMPT 00000000   6873 
_PVP_GMNSEQ_CNT03                         IMPT 00000000   6874 
_PVP_GMNSEQ_CNT04                         IMPT 00000000   6875 
_PVP_GMNSEQ_CNT05                         IMPT 00000000   6876 
_PVP_GMNSEQ_CNT06                         IMPT 00000000   6877 
_PVP_GMNSEQ_CNT07                         IMPT 00000000   6878 
_PVP_GMNSEQ_CNT08                         IMPT 00000000   6879 
_PVP_GMNSEQ_TIM01                         IMPT 00000000   6881 
_PVP_GMNSEQ_TIM02                         IMPT 00000000   6882 
_PVP_GMNSEQ_TIM03                         IMPT 00000000   6883 
_PVP_GMNSEQ_TIM04                         IMPT 00000000   6884 
_PVP_GMNSEQ_TIM05                         IMPT 00000000   6885 
_PVP_GMNSEQ_TIM06                         IMPT 00000000   6886 
_PVP_GMNSEQ_TIM07                         IMPT 00000000   6887 
_PVP_GMNSEQ_TIM08                         IMPT 00000000   6888 
_PVP_IVW_DOT                              IMPT 00000000   6927 
_PVP_KAJLIV_LFT                           IMPT 00000000   6311 
_PVP_KAJLIV_RIH                           IMPT 00000000   6313 
_PVP_KAJLIV_TTL                           IMPT 00000000   6312 
_PVP_MENTE_CNT                            IMPT 00000000   6397 
_PVP_MONALM1_TOP                          IMPT 00000000   6813 
_PVP_MONALM2_TOP                          IMPT 00000000   6933 
_PVP_MONALM_A01                           IMPT 00000000   6826 
_PVP_MONALM_A02                           IMPT 00000000   6827 
_PVP_MONALM_A03                           IMPT 00000000   6828 
_PVP_MONALM_A04                           IMPT 00000000   6829 
_PVP_MONALM_A05                           IMPT 00000000   6830 
_PVP_MONALM_A06                           IMPT 00000000   6831 
_PVP_MONALM_A07                           IMPT 00000000   6832 
_PVP_MONALM_A08                           IMPT 00000000   6833 
_PVP_MONALM_B01                           IMPT 00000000   6834 
_PVP_MONALM_B02                           IMPT 00000000   6835 
_PVP_MONALM_B03                           IMPT 00000000   6836 
_PVP_MONALM_B04                           IMPT 00000000   6837 
_PVP_MONALM_B05                           IMPT 00000000   6838 
_PVP_MONALM_B06                           IMPT 00000000   6839 
_PVP_MONALM_B07                           IMPT 00000000   6840 
_PVP_MONALM_B08                           IMPT 00000000   6841 
_PVP_MONALM_C01                           IMPT 00000000   6818 
_PVP_MONALM_C02                           IMPT 00000000   6819 
_PVP_MONALM_C03                           IMPT 00000000   6820 
_PVP_MONALM_C04                           IMPT 00000000   6821 
_PVP_MONALM_C05                           IMPT 00000000   6822 
_PVP_MONALM_C06                           IMPT 00000000   6823 
_PVP_MONALM_C07                           IMPT 00000000   6824 
_PVP_MONALM_C08                           IMPT 00000000   6825 
_PVP_MONALM_P01                           IMPT 00000000   6814 
_PVP_MONALM_P02                           IMPT 00000000   6815 
_PVP_MONALM_P03                           IMPT 00000000   6816 
_PVP_MONALM_P04                           IMPT 00000000   6817 
_PVP_MOTINS_AG2                           IMPT 00000000   6461 
_PVP_MOTINS_AG3                           IMPT 00000000   6464 
_PVP_MOTINS_AGL                           IMPT 00000000   6456 
_PVP_MOTINS_DAN                           IMPT 00000000   6455 
*** SuperH RISC engine ASSEMBLER V.7.01.02.000 ***    11/14/21 17:24:39                                                  PAGE    38

*** CROSS REFERENCE LIST

NAME                             SECTION  ATTR VALUE             SEQUENCE

_PVP_MOTINS_DANAFT                        IMPT 00000000   6485 
_PVP_MOTINS_DANBEF                        IMPT 00000000   6484 
_PVP_MOTINS_INF                           IMPT 00000000   6466 
_PVP_MOTINS_POS                           IMPT 00000000   6457 
_PVP_MOTINS_PS2                           IMPT 00000000   6460 
_PVP_MOTINS_PS3                           IMPT 00000000   6465 
_PVP_NOW_ANGLE00                          IMPT 00000000   6850 
_PVP_NOW_ANGLE_RNA                        IMPT 00000000   6856 
_PVP_NOW_POSI000                          IMPT 00000000   6848 
_PVP_ORGRNA_MOV1                          IMPT 00000000   6334 
_PVP_ORGRNA_MOV2                          IMPT 00000000   6335 
_PVP_ORGSTRK_LEG1                         IMPT 00000000   6336 
_PVP_ORGSTRK_LEG2                         IMPT 00000000   6337 
_PVP_OUT_PLS_SPD                          IMPT 00000000   6899 
_PVP_OUT_SPD_DIR                          IMPT 00000000   6907 
_PVP_OUT_SPD_PER                          IMPT 00000000   6903 
_PVP_PAR_A_CHAR                           IMPT 00000000   6994 
_PVP_PAR_A_VER                            IMPT 00000000   6988 
_PVP_PAR_B_CHAR                           IMPT 00000000   6995 
_PVP_PAR_B_VER                            IMPT 00000000   6989 
_PVP_PAR_C_CHAR                           IMPT 00000000   7006 
_PVP_PAR_C_VER                            IMPT 00000000   7005 
_PVP_PG12_DEG1                            IMPT 00000000   6404 
_PVP_PG_DEG1                              IMPT 00000000   6343 
_PVP_PG_DEG1X                             IMPT 00000000   6400 
_PVP_PG_DEG2                              IMPT 00000000   6344 
_PVP_PG_DEG2X                             IMPT 00000000   6401 
_PVP_PG_PLS1                              IMPT 00000000   6402 
_PVP_PG_PLS2                              IMPT 00000000   6403 
_PVP_POWER_KWH                            IMPT 00000000   6923 
_PVP_POWER_MONI                           IMPT 00000000   6891 
_PVP_RENIA_BUP1                           IMPT 00000000   6387 
_PVP_RENIA_BUP2                           IMPT 00000000   6388 
_PVP_RENIA_BUP3                           IMPT 00000000   6389 
_PVP_RENIA_BUP4                           IMPT 00000000   6390 
_PVP_RENIA_POS1                           IMPT 00000000   6340 
_PVP_RENIA_POS2                           IMPT 00000000   6341 
_PVP_RENIA_POSI0                          IMPT 00000000   6849 
_PVP_RNABUP_ENB                           IMPT 00000000   6391 
_PVP_RNAORG_PLS1                          IMPT 00000000   6847 
_PVP_RNA_STLORK                           IMPT 00000000   6863 
_PVP_SEQ_ERR                              IMPT 00000000   6868 
_PVP_SINKAKU_UPDN1                        IMPT 00000000   7178 
_PVP_SINKAKU_UPDN2                        IMPT 00000000   7179 
_PVP_SLIDE_POS                            IMPT 00000000   6859 
_PVP_STOP_TIM                             IMPT 00000000   6864 
_PVP_TAIKITEN_POS                         IMPT 00000000   6861 
_PVP_TAIKI_POS                            IMPT 00000000   6860 
_PVP_TBL_A_CHAR                           IMPT 00000000   6996 
_PVP_TBL_A_VER                            IMPT 00000000   6990 
_PVP_TBL_B_CHAR                           IMPT 00000000   6997 
_PVP_TBL_B_VER                            IMPT 00000000   6991 
_PVP_TBL_C_CHAR                           IMPT 00000000   7008 
_PVP_TBL_C_VER                            IMPT 00000000   7007 
*** SuperH RISC engine ASSEMBLER V.7.01.02.000 ***    11/14/21 17:24:39                                                  PAGE    39

*** CROSS REFERENCE LIST

NAME                             SECTION  ATTR VALUE             SEQUENCE

_PVP_WTJUD_AGL                            IMPT 00000000   7174 
_PVP_WTJUD_POS                            IMPT 00000000   7175 
_PVP_WTJUD_SNO                            IMPT 00000000   7173 
_PVP_ZURE_PLS                             IMPT 00000000   6345 
_PVP_ZURE_RNA                             IMPT 00000000   6346 
_PVX_AMPERR_TIM1                          IMPT 00000000   3179 
_PVX_AMPERR_TIM2                          IMPT 00000000   3180 
_PVX_AMPERR_TIM3                          IMPT 00000000   3181 
_PVX_CKAGL_OVBIT                          IMPT 00000000   4736 
_PVX_CKSPD_OVBIT                          IMPT 00000000   4717 
_PVX_DAI_POS0                             IMPT 00000000   2923 
_PVX_DAI_POS1                             IMPT 00000000   2924 
_PVX_DNMOD_DLYTIM                         IMPT 00000000   4701 
_PVX_DYHITO_POS                           IMPT 00000000   2931 
_PVX_IAMP_VLT                             IMPT 00000000   3182 
_PVX_INPPOS_TIM1                          IMPT 00000000   3155 
_PVX_MOTINS_AG2                           IMPT 00000000   4521 
_PVX_MOTINS_AG2X                          IMPT 00000000   4522 
_PVX_MOTINS_AG3                           IMPT 00000000   4527 
_PVX_MOTINS_AG3X                          IMPT 00000000   4528 
_PVX_MOTINS_AGL                           IMPT 00000000   4524 
_PVX_MOTINS_AGLX                          IMPT 00000000   4525 
_PVX_MOTINS_DAN                           IMPT 00000000   4532 
_PVX_MOTINS_DANAFT                        IMPT 00000000   4533 
_PVX_MOTINS_DANBEF                        IMPT 00000000   4531 
_PVX_MOTINS_INF                           IMPT 00000000   4535 
_PVX_MOTINS_POS                           IMPT 00000000   4518 
_PVX_MOTINS_PS2                           IMPT 00000000   4517 
_PVX_MOTINS_PS3                           IMPT 00000000   4519 
_PVX_RNA_DIGDT                            IMPT 00000000   5514 
_PVX_RNA_INDAT                            IMPT 00000000   5510 
_PVX_RNA_PLS_P                            IMPT 00000000   5516 
_PVX_RNA_POSD1                            IMPT 00000000   5511 
_PVX_RNA_POSD2                            IMPT 00000000   5512 
_PVX_RNA_POSDT                            IMPT 00000000   5513 
_PVX_RNA_STLORK                           IMPT 00000000   2925 
_PVX_SH4_OUTPLS                           IMPT 00000000   5523 
_PVX_SH4_SFTY_IN                          IMPT 00000000   5515 
_PV_CB_STS_DAT_TOP                        IMPT 00000000   6804 
_PV_CB_STS_POINT                          IMPT 00000000   6806 
_PV_CB_TRD_DAT_TOP                        IMPT 00000000   6805 
_PV_CB_TRD_POINT                          IMPT 00000000   6807 
_PV_ENC_SPD_PER                           IMPT 00000000   3443 
_PV_OUT_SPD_PER                           IMPT 00000000   3444 
_PV_POWER_ON_CNT                          IMPT 00000000   6808 
_RDY_OF                                   IMPT 00000000   7226 
_RDY_ON                                   IMPT 00000000   7225 
_RDY_SFTY_LOCK                            IMPT 00000000   3714 
_RDY_SFTY_WAIT_TIM                        IMPT 00000000   3715 
_RENEA_1ROT_PLS_AND_DIG_MAK1     P        EXPT 00000000   7462  7485*
_RENEA_1ROT_PLS_AND_DIG_MAK2     P        EXPT 00000024   7463  7509* 8007 
_RENEA_CHG1_DIG36000             P             00000110   7739*
_RENEA_CHG1_DIG_INCPLS           P             00000108   7552  7730*
_REP_CAMOBJ_DIG                           IMPT 00000000   5033 
*** SuperH RISC engine ASSEMBLER V.7.01.02.000 ***    11/14/21 17:24:39                                                  PAGE    40

*** CROSS REFERENCE LIST

NAME                             SECTION  ATTR VALUE             SEQUENCE

_RESET_END_OUT                            IMPT 00000000   7218 
_RESET_OUT                                IMPT 00000000   7217 
_RESET_ROTNUMPLS_ZR                       IMPT 00000000   2715 
_RESET_ROTNUM_ZR                          IMPT 00000000   2714 
_REVCHK_DRIV_SHIN                         IMPT 00000000   4602 
_REVCHK_MASK_PVTIM                        IMPT 00000000   4603 
_REVMOD_REVDN_DIG                         IMPT 00000000   4605 
_REV_CALC_WORK0                           IMPT 00000000   3232 
_REV_CALC_WORK1                           IMPT 00000000   3233 
_REV_CALC_WORK2                           IMPT 00000000   3234 
_REV_ERR_FLG                              IMPT 00000000   5234 
_REV_ERR_LT_PGPOS                         IMPT 00000000   5237 
_REV_ERR_LT_SVPOS                         IMPT 00000000   5238 
_REV_ERR_WAIT_TIMPV                       IMPT 00000000   4601 
_REV_LATCH_ENCPOS                         IMPT 00000000   2873 
_REV_LATCH_OUTPLS                         IMPT 00000000   2872 
_REV_LATCH_RNAPOS                         IMPT 00000000   2874 
_RM1_CHK_OLDSTS                           IMPT 00000000   5058 
_RM1_CHK_TIME                             IMPT 00000000   5059 
_RM2_CHK_OLDSTS                           IMPT 00000000   5061 
_RM2_CHK_TIME                             IMPT 00000000   5062 
_RNAREV_ADD                               EQU  00000000   2061*
_RNASTP_ADD                               EQU  00000000   2059*
_RNA_ABS_DRVHOS_DT                        IMPT 00000000   2964 
_RNA_ABS_MAXPOS                           IMPT 00000000   2943 
_RNA_ABS_MD2_C1                           IMPT 00000000   4335 
_RNA_ABS_MD2_C1A                          IMPT 00000000   4336 
_RNA_ABS_MD2_C2                           IMPT 00000000   4337 
_RNA_ABS_MD_DT0                           IMPT 00000000   2927 
_RNA_ABS_MD_DT1                           IMPT 00000000   2928 
_RNA_ABS_MEMORG                           IMPT 00000000   2920 
_RNA_ABS_MINPOS                           IMPT 00000000   2942 
_RNA_ABS_ORGWORK                          IMPT 00000000   2911 
_RNA_ABS_ORGWORK2                         IMPT 00000000   4329 
_RNA_ABS_ORGWORK2A                        IMPT 00000000   4330 
_RNA_ABS_POS                              IMPT 00000000   2919 
_RNA_ABS_WKMAXPOS                         IMPT 00000000   2941 
_RNA_ABS_WKMINPOS                         IMPT 00000000   2940 
_RNA_BBN_MESURE_POINT                     IMPT 00000000   4476 
_RNA_BBN_MESURE_SPOS_BUF                  IMPT 00000000   4469 
_RNA_BBN_MESURE_SSPD                      IMPT 00000000   4471 
_RNA_BBN_MESURE_SSPD_BUF                  IMPT 00000000   4470 
_RNA_BBN_MEUSRE_ACC                       IMPT 00000000   4473 
_RNA_BBN_MEUSRE_ACC_SRC                   IMPT 00000000   4472 
_RNA_BBN_SET_TIME                         IMPT 00000000   4475 
_RNA_CMD_RD_CNT                           IMPT 00000000   2538 
_RNA_CMD_SND_CNT                          IMPT 00000000   2537 
_RNA_COM_ERR_CNT                          IMPT 00000000   2530 
_RNA_COM_NML_CNT                          IMPT 00000000   2531 
_RNA_CTL_POS0                             IMPT 00000000   2929 
_RNA_CTL_POS1                             IMPT 00000000   2930  8004 
_RNA_ENC360                               IMPT 00000000   2522  8010 
_RNA_HOS_DELT                             IMPT 00000000   2932 
_RNA_INSERT_CHKFLG                        IMPT 00000000   4488 
*** SuperH RISC engine ASSEMBLER V.7.01.02.000 ***    11/14/21 17:24:39                                                  PAGE    41

*** CROSS REFERENCE LIST

NAME                             SECTION  ATTR VALUE             SEQUENCE

_RNA_LINK_NOWROT_OFSPLS_P                 IMPT 00000000   2706  8012 
_RNA_OLD_STEP                             IMPT 00000000   4491 
_RNA_POS_OFFSET1                          IMPT 00000000   2917 
_RNA_POS_OFFSET2                          IMPT 00000000   2918 
_RNA_PROTOCOL_SEL                         IMPT 00000000   4028 
_RNA_PROTOCOL_X                           IMPT 00000000   4031 
_RNA_RESET_FLG                            IMPT 00000000   2533 
_RNA_RESET_TIM                            IMPT 00000000   2534 
_RNA_STLORK                               IMPT 00000000   2922  7650  7753 
_RNA_STLORK_HALF                          IMPT 00000000   4327 
_RNA_STOP_CNT                             IMPT 00000000   3242 
_RNA_TECH_POINT                           IMPT 00000000   4487 
_RNA_TECH_POSBUF                          IMPT 00000000   4486 
_ROOT_MAIN_INP                            IMPT 00000000   5430 
_ROOT_MAIN_OUT                            IMPT 00000000   5431 
_RST_DLY_TM                               EQU  000000C8   2017*
_RST_ERR_CHK_ERR                          IMPT 00000000   2878 
_RST_ERR_CHK_FLG                          IMPT 00000000   2876 
_SAME_TIM                                 IMPT 00000000   2658 
_SCAN_DBG_CNT                             IMPT 00000000   4782 
_SCAN_SMP_SIG                             IMPT 00000000   4769 
_SCAN_TIM_IDOBUF                          IMPT 00000000   4760 
_SCAN_TIM_IN                              IMPT 00000000   4765 
_SCAN_TIM_POINT                           IMPT 00000000   4761 
_SCAN_TIM_TOTAL                           IMPT 00000000   4759 
_SDATCLS_OBJMM                            IMPT 00000000   3067 
_SDATCLS_OBJPLS                           IMPT 00000000   3066 
_SDATCLS_OBJ_NEAR_UPDNPLS                 IMPT 00000000   3068 
_SDATCLS_TRG_STEP                         IMPT 00000000   3070 
_SDATCLS_UPOBJ_PLS                        IMPT 00000000   3069 
_SDAT_WAIT_PVTIM                          IMPT 00000000   2760 
_SELF_AD_LATCH                            IMPT 00000000   3703 
_SELF_BRK_LOCK                            IMPT 00000000   3699 
_SELF_CHK_MATHED                          IMPT 00000000   3698 
_SELF_CHK_SEL                             IMPT 00000000   2605 
_SELF_COM                                 IMPT 00000000   2603 
_SELF_FIRST_END_FLG                       IMPT 00000000   3696 
_SELF_FLG                                 IMPT 00000000   2601 
_SELF_LOCK_FLG                            IMPT 00000000   3983 
_SELF_MOV_LENGTH                          IMPT 00000000   3706 
_SELF_MOV_SPEED                           IMPT 00000000   3707 
_SELF_SECOND_ACT_FLG                      IMPT 00000000   3701 
_SELF_SECOND_STEP                         IMPT 00000000   3702 
_SELF_START_POS_LATCH                     IMPT 00000000   3705 
_SELF_START_WAIT_TM                       IMPT 00000000   2604 
_SELF_TIMING_SIG                          IMPT 00000000   3697 
_SEQAB_DP_TOP                             IMPT 00000000   5824 
_SET1_ACCLAT_TIM1                         IMPT 00000000   3142 
_SET1_AMP100P_VLT                         IMPT 00000000   3176 
_SET1_ARACHK_LNG1                         IMPT 00000000   3157 
_SET1_ATDAT_DOTPOS                        IMPT 00000000   4919 
_SET1_ATSLID_BAKLNG                       IMPT 00000000   4914 
_SET1_ATSLID_COEF1                        IMPT 00000000   4917 
_SET1_ATSLID_COEF2                        IMPT 00000000   4918 
*** SuperH RISC engine ASSEMBLER V.7.01.02.000 ***    11/14/21 17:24:39                                                  PAGE    42

*** CROSS REFERENCE LIST

NAME                             SECTION  ATTR VALUE             SEQUENCE

_SET1_ATSLID_DNOBJ1                       IMPT 00000000   4915 
_SET1_ATSLID_UPOBJ1                       IMPT 00000000   4916 
_SET1_BREAK_DIG                           IMPT 00000000   3478 
_SET1_BREAK_TIM1                          IMPT 00000000   3476 
_SET1_CNT_CNT                             IMPT 00000000   3085 
_SET1_CNT_TIM                             IMPT 00000000   3083 
_SET1_DAIHAI_LNG1                         IMPT 00000000   3168 
_SET1_DAIHAI_LNG2                         IMPT 00000000   3169 
_SET1_DAIHAI_LNG3                         IMPT 00000000   3170 
_SET1_DAIHAI_ORG0                         IMPT 00000000   3187 
_SET1_DAIORG0_CMP1DN                      IMPT 00000000   3189 
_SET1_DAIORG0_CMP1UP                      IMPT 00000000   3188 
_SET1_DAIORG0_CMP2DN                      IMPT 00000000   3191 
_SET1_DAIORG0_CMP2UP                      IMPT 00000000   3190 
_SET1_DAIORG0_CMP3DN                      IMPT 00000000   3193 
_SET1_DAIORG0_CMP3UP                      IMPT 00000000   3192 
_SET1_DAIORG0_CMP4DN                      IMPT 00000000   3195 
_SET1_DAIORG0_CMP4UP                      IMPT 00000000   3194 
_SET1_DNAREA_INPX                         IMPT 00000000   3145 
_SET1_DNAREA_INPXPLS                      IMPT 00000000   3149 
_SET1_DNAREA_JUDG                         IMPT 00000000   3119 
_SET1_DNDINC_SPD1                         IMPT 00000000   3128 
_SET1_DND_DIGTOP                          IMPT 00000000   3757 
_SET1_DND_PLSTOP                          IMPT 00000000   3758 
_SET1_DND_STOPDIG_UP                      IMPT 00000000   3756 
_SET1_DND_STOP_SW                         IMPT 00000000   3755 
_SET1_DND_UPPLS                           IMPT 00000000   3759 
_SET1_EJECAM_OFR                          IMPT 00000000   5022 
_SET1_EJECAM_ONR                          IMPT 00000000   5021 
_SET1_ENC360_HOS1                         IMPT 00000000   3159 
_SET1_FULCLS_MXPLS                        IMPT 00000000   3171 
_SET1_INCDIR_SEL1                         IMPT 00000000   3100 
_SET1_INCENC_ELNG                         IMPT 00000000   3162 
_SET1_INCHEN_ELNG                         IMPT 00000000   3161 
_SET1_INCPLS_1REV                         IMPT 00000000   3097 
_SET1_INCPLS_HOSM                         IMPT 00000000   3102 
_SET1_INCPLS_HOSN                         IMPT 00000000   3101 
_SET1_INCPOS_KP01                         IMPT 00000000   3140 
_SET1_INCREV_ELNG                         IMPT 00000000   3166 
_SET1_INCRNA_ELNG                         IMPT 00000000   3163 
_SET1_INCSTP_ELNG                         IMPT 00000000   3164 
_SET1_INPPOS_TIM1                         IMPT 00000000   3154 
_SET1_INTLIM_AGL                          IMPT 00000000   4944 
_SET1_INTLIM_PLS                          IMPT 00000000   4946 
_SET1_KAJAREA_ENO                         IMPT 00000000   4855 
_SET1_KAJAREA_SEL                         IMPT 00000000   4869 
_SET1_KAJAREA_SNO                         IMPT 00000000   4854 
_SET1_KATTCH_EAG                          IMPT 00000000   4877 
_SET1_KATTCH_SAG                          IMPT 00000000   4876 
_SET1_KATTCH_SPD                          IMPT 00000000   4545 
_SET1_KJEND_DIG1                          IMPT 00000000   3746 
_SET1_KJEND_DIG2                          IMPT 00000000   4858 
_SET1_KJEND_STEP1                         IMPT 00000000   3745 
_SET1_KJSTR_DIG1                          IMPT 00000000   3744 
*** SuperH RISC engine ASSEMBLER V.7.01.02.000 ***    11/14/21 17:24:39                                                  PAGE    43

*** CROSS REFERENCE LIST

NAME                             SECTION  ATTR VALUE             SEQUENCE

_SET1_KJSTR_DIG2                          IMPT 00000000   4857 
_SET1_KJSTR_STEP1                         IMPT 00000000   3743 
_SET1_LSAABN_AGL1                         IMPT 00000000   3732 
_SET1_LSAABN_AGL2                         IMPT 00000000   3733 
_SET1_MAX_KJYU                            IMPT 00000000   4188 
_SET1_MISCAM_OFR                          IMPT 00000000   5024 
_SET1_MISCAM_ONR                          IMPT 00000000   5023 
_SET1_MOTMAX_FREQ                         IMPT 00000000   3114 
_SET1_MOTREP_CNT                          IMPT 00000000   5014 
_SET1_MOTREP_SPD                          IMPT 00000000   5013 
_SET1_MOTREP_STGE                         IMPT 00000000   5012 
_SET1_MOTREP_STGS                         IMPT 00000000   5011 
_SET1_MOTREP_USEFUL                       IMPT 00000000   5010 
_SET1_MOTRPM_MAXM                         IMPT 00000000   3104 
_SET1_MRTION_SEL1                         IMPT 00000000   3197 
_SET1_MTSTEP_MAXM                         IMPT 00000000   3198 
_SET1_NEG_OFS_LNG                         IMPT 00000000   3175 
_SET1_OBJARA_INPX                         IMPT 00000000   3146 
_SET1_OBJARA_INPXPLS                      IMPT 00000000   3150 
_SET1_OBJARA_INPXPSX                      IMPT 00000000   3152 
_SET1_OBJECT_DIG_TOP                      IMPT 00000000   3222 
_SET1_OBJECT_PLS_TOP                      IMPT 00000000   3208 
_SET1_OBJECT_POS_TOP                      IMPT 00000000   3203 
_SET1_OBJECT_SPD_TOP                      IMPT 00000000   3211 
_SET1_OBJECT_TIM_TOP                      IMPT 00000000   3215 
_SET1_OBJ_CAM_DIG_TOP                     IMPT 00000000   3256 
_SET1_OVERLIDE_COF                        IMPT 00000000   3867 
_SET1_PLSAHI_PLS                          IMPT 00000000   3783 
_SET1_PLSALO_PLS                          IMPT 00000000   3782 
_SET1_RCAMON_POS_TOP                      IMPT 00000000   3258 
_SET1_RCAMON_TIM_TOP                      IMPT 00000000   3259 
_SET1_REVDAT_SPD1                         IMPT 00000000   3131 
_SET1_REVDAT_SPD2                         IMPT 00000000   3134 
_SET1_REVDAT_SPD3                         IMPT 00000000   3135 
_SET1_RNADIR_SEL1                         IMPT 00000000   3099 
_SET1_RNAORG_POS1                         IMPT 00000000   3115 
_SET1_RNAPOS_KP01                         IMPT 00000000   3141 
_SET1_RNAPOS_MAXP                         IMPT 00000000   3116 
_SET1_RNAPOS_MINP                         IMPT 00000000   3117 
_SET1_RNAREV_ELNG                         IMPT 00000000   3167 
_SET1_RNASTP_ELNG                         IMPT 00000000   3165 
_SET1_ROTCAM_OFR                          IMPT 00000000   5020 
_SET1_ROTCAM_ONR                          IMPT 00000000   5019 
_SET1_RPARAM_TOP1                         IMPT 00000000   3093 
_SET1_SSCURV_TIM1                         IMPT 00000000   3143 
_SET1_STDINC_SPD1                         IMPT 00000000   3130 
_SET1_TEPCTL_SPD1                         IMPT 00000000   3790 
_SET1_TEPLAT_DAT1                         IMPT 00000000   3137 
_SET1_TEPLAT_DAT2                         IMPT 00000000   3138 
_SET1_UPAREA_DIG0                         IMPT 00000000   3221 
_SET1_UPAREA_DIG1                         IMPT 00000000   3158 
_SET1_UPAREA_INPX                         IMPT 00000000   3144 
_SET1_UPAREA_INPXPLS                      IMPT 00000000   3148 
_SET1_UPAREA_JUDG                         IMPT 00000000   3118 
*** SuperH RISC engine ASSEMBLER V.7.01.02.000 ***    11/14/21 17:24:39                                                  PAGE    44

*** CROSS REFERENCE LIST

NAME                             SECTION  ATTR VALUE             SEQUENCE

_SET1_UPAREA_PLS0                         IMPT 00000000   3206 
_SET1_UPAREA_PLS1                         IMPT 00000000   3207 
_SET1_UPAREA_POS0                         IMPT 00000000   3202 
_SET1_UPAREA_POS1                         IMPT 00000000   3038 
_SET1_UPAREA_SPD0                         IMPT 00000000   3210 
_SET1_UPAREA_SPD1                         IMPT 00000000   3129 
_SET1_UPAREA_TIM0                         IMPT 00000000   3214 
_SET1_UPCLEEP_SPD                         IMPT 00000000   3132 
_SET1_VIB_KJYU_TTL                        IMPT 00000000   4187 
_SET2_INTLIM_AGL                          IMPT 00000000   4945 
_SET2_INTLIM_PLS                          IMPT 00000000   4947 
_SET360_UPAREA_DIG1                       IMPT 00000000   4043 
_SET360_UPAREA_PLS1                       IMPT 00000000   4044 
_SETC_KJEND_DIG1                          IMPT 00000000   4126 
_SETC_KJEND_DIG2                          IMPT 00000000   4865 
_SETC_KJSTR_DIG1                          IMPT 00000000   4125 
_SETC_KJSTR_DIG2                          IMPT 00000000   4864 
_SETD_DEGSPD_MAX                          IMPT 00000000   3294 
_SETD_LINK_MAX_SPD_PLS                    IMPT 00000000   4236 
_SETD_MOTRPM_MAXM                         IMPT 00000000   4237 
_SETXY_LINK_UP_POS_DN                     IMPT 00000000   4107 
_SETXY_LINK_UP_POS_UP                     IMPT 00000000   4106 
_SETXY_UPAREA_DIG                         IMPT 00000000   4102 
_SETXY_UPAREA_PLS                         IMPT 00000000   4101 
_SETX_ACCERR_DLY1                         IMPT 00000000   4444 
_SETX_ACCERR_ERR3DAT                      IMPT 00000000   4439 
_SETX_ACCERR_SEL                          IMPT 00000000   4449 
_SETX_BANK_USELFUL                        IMPT 00000000   3656 
_SETX_BREAK_DIG2                          IMPT 00000000   4172 
_SETX_BREAK_TIM2                          IMPT 00000000   4173 
_SETX_DAIPOS_MAXP                         IMPT 00000000   3124 
_SETX_DAIPOS_MINP                         IMPT 00000000   3125 
_SETX_DNAREA_JG_LNK                       IMPT 00000000   3120 
_SETX_DNAREA_JG_PLS                       IMPT 00000000   3121 
_SETX_FULCLS_AREA_DIG                     IMPT 00000000   3063 
_SETX_FULCLS_AREA_PLS                     IMPT 00000000   3064 
_SETX_FULCLS_MATEHD_SW                    IMPT 00000000   4822 
_SETX_HOLD_CMP1_DEG                       IMPT 00000000   4456 
_SETX_INCPLS_HOSM                         IMPT 00000000   3103 
_SETX_KJEND_DIG1                          IMPT 00000000   4121 
_SETX_KJEND_DIG2                          IMPT 00000000   4861 
_SETX_KJSTR_DIG1                          IMPT 00000000   4120 
_SETX_KJSTR_DIG2                          IMPT 00000000   4860 
_SETX_KJYUCLS_OBJ                         IMPT 00000000   4824 
_SETX_KJYU_INCPOS_KP01                    IMPT 00000000   5114 
_SETX_LINK_UP_POS_DN                      IMPT 00000000   2701 
_SETX_LINK_UP_POS_UP                      IMPT 00000000   2700 
_SETX_MAX_ACC_LATE                        IMPT 00000000   4433 
_SETX_MOTREP_DIR                          IMPT 00000000   5028 
_SETX_OUTPLS_HOSA                         IMPT 00000000   3111 
_SETX_OUTPLS_HOSB                         IMPT 00000000   3112 
_SETX_OVERH_AMP                           IMPT 00000000   4675 
_SETX_OVERH_LNGTH                         IMPT 00000000   4674 
_SETX_POS_CTL_MATH                        IMPT 00000000   2734 
*** SuperH RISC engine ASSEMBLER V.7.01.02.000 ***    11/14/21 17:24:39                                                  PAGE    45

*** CROSS REFERENCE LIST

NAME                             SECTION  ATTR VALUE             SEQUENCE

_SETX_POS_MOD_FLG1                        IMPT 00000000   2733 
_SETX_POS_SDAT1_CNTSTEP                   IMPT 00000000   2725 
_SETX_POS_SDAT1_INF1                      IMPT 00000000   2726 
_SETX_POS_SDAT1_OFSPOS                    IMPT 00000000   2722 
_SETX_POS_SDAT1_SPD                       IMPT 00000000   2723 
_SETX_POS_SDAT1_TIM                       IMPT 00000000   2724 
_SETX_POS_SDAT2_INF1                      IMPT 00000000   2732 
_SETX_POS_SDAT2_OFSPOS                    IMPT 00000000   2728 
_SETX_POS_STEP_MAX                        IMPT 00000000   2735 
_SETX_RNA_ACC_BEFTIM                      IMPT 00000000   4489 
_SETX_RNA_ACC_CHKPOS                      IMPT 00000000   4490 
_SETX_SDAT1_INTLIMOFS                     IMPT 00000000   4948 
_SETX_SDAT2_INTLIMOFS                     IMPT 00000000   4949 
_SETX_UPAREA_DIG                          IMPT 00000000   3036 
_SETX_UPAREA_PLS                          IMPT 00000000   3034 
_SETX_UPAREA_RNA                          IMPT 00000000   3035 
_SETX_UPDN_CHK_DN_DIG                     IMPT 00000000   3051  7489 
_SETX_UPDN_CHK_DN_PLS                     IMPT 00000000   3053  7513 
_SETX_UPDN_CHK_UP_DIG                     IMPT 00000000   3050  7491 
_SETX_UPDN_CHK_UP_PLS                     IMPT 00000000   3052  7515 
_SETX_UPERR_ERRCMPDAT                     IMPT 00000000   4455 
_SETY_INCPLS_HOSM0001                     IMPT 00000000   3109 
_SETY_INCPLS_HOSM001                      IMPT 00000000   3108  7956 
_SETY_INCPLS_HOSM01X                      IMPT 00000000   3107  7561 
_SETY_INCPLS_HOSM1XX                      IMPT 00000000   3106 
_SETY_KJEND_DIG1                          IMPT 00000000   4123 
_SETY_KJEND_DIG2                          IMPT 00000000   4863 
_SETY_KJSTR_DIG1                          IMPT 00000000   4122 
_SETY_KJSTR_DIG2                          IMPT 00000000   4862 
_SETY_SDAT1_INTLIMOFS                     IMPT 00000000   4951 
_SETY_SDAT2_INTLIMOFS                     IMPT 00000000   4952 
_SET_ACC_OVRLIDE                          IMPT 00000000   3878 
_SET_CLSINC_SPDBAS_PLS                    IMPT 00000000   3846 
_SET_CLS_SPDBAS_PLS                       IMPT 00000000   3844 
_SET_DN_ACC_LATE                          IMPT 00000000   3895 
_SET_GMN_ACC_OVRLIDE                      IMPT 00000000   3870 
_SET_GMN_SPD_OVRLIDE                      IMPT 00000000   3869 
_SET_SEQ_ACC_OVRLIDE                      IMPT 00000000   3858 
_SET_SEQ_SPD_OVRLIDE                      IMPT 00000000   3857 
_SET_SPDBAS_PLS                           IMPT 00000000   3845 
_SET_SPD_OVRLIDE                          IMPT 00000000   3877 
_SET_UP_ACC_LATE                          IMPT 00000000   3894 
_SET_UP_TIM                               IMPT 00000000   2659 
_SFTYCHK_CLANK_DEG                        IMPT 00000000   5180 
_SFTYCHK_LINK_PLS                         IMPT 00000000   5181 
_SFTYCHK_RNA_POS                          IMPT 00000000   3374 
_SFTY_CTL_IN_DAT                          IMPT 00000000   2553 
_SFTY_IN_DAT                              IMPT 00000000   2552 
_SFTY_LOCK_DLYTM                          IMPT 00000000   3977 
_SH2_ADD_PLS                              IMPT 00000000   5663 
_SH2_AD_DATA                              IMPT 00000000   5875 
_SH2_BAS_FRQ_SV                           IMPT 00000000   5624 
_SH2_CMP_STS1                             IMPT 00000000   5534 
_SH2_CMP_STS2                             IMPT 00000000   5536 
*** SuperH RISC engine ASSEMBLER V.7.01.02.000 ***    11/14/21 17:24:39                                                  PAGE    46

*** CROSS REFERENCE LIST

NAME                             SECTION  ATTR VALUE             SEQUENCE

_SH2_CNT_REST_HF                          IMPT 00000000   5635 
_SH2_CNT_REST_PLS                         IMPT 00000000   5619 
_SH2_DBG_KAGEN                            IMPT 00000000   5877 
_SH2_DNM_CALC_INFO                        IMPT 00000000   5798 
_SH2_GPOINT_LNG                           IMPT 00000000   5479 
_SH2_GPOINT_LNGDSP                        IMPT 00000000   5481 
_SH2_GPOINT_SPDDSP                        IMPT 00000000   5483 
_SH2_HD_CNT_CNT                           IMPT 00000000   5554 
_SH2_HD_CNT_STOP                          IMPT 00000000   5550 
_SH2_HD_CTRL_BUSY                         IMPT 00000000   5542 
_SH2_HD_CTRL_REDY                         IMPT 00000000   5540 
_SH2_HD_HLDSTOP1                          IMPT 00000000   5782 
_SH2_HD_HLDSTOP2                          IMPT 00000000   5785 
_SH2_HD_NEAR_ZERO                         IMPT 00000000   5548 
_SH2_HD_POS_START                         IMPT 00000000   5544 
_SH2_HD_SFTY_AUTO                         IMPT 00000000   5546 
_SH2_HD_STEP_END                          IMPT 00000000   5552 
_SH2_LNGH_ADD_SR                          IMPT 00000000   5620 
_SH2_LOT_CNT_A                            IMPT 00000000   5631 
_SH2_LOT_STEP_A                           IMPT 00000000   5632 
_SH2_MAIN_CLK                             IMPT 00000000   5876 
_SH2_NOW_FRQ_PV                           IMPT 00000000   5626 
_SH2_NOW_STEP                             IMPT 00000000   5670 
_SH2_OBJ_ENC360                           IMPT 00000000   5792 
_SH2_PDOWN_FLG                            IMPT 00000000   5874 
_SH2_PLSI_ACCS                            IMPT 00000000   5628 
_SH2_PLSI_LATE                            IMPT 00000000   5629 
_SH2_POS_STS1                             IMPT 00000000   5532 
_SH2_PV_ENC_SPD_PER                       IMPT 00000000   5794 
_SH2_PV_OUT_SPD_PER                       IMPT 00000000   5793 
_SH2_REST_PLS_RL                          IMPT 00000000   5622 
_SH2_REST_PLS_SR                          IMPT 00000000   5621 
_SH2_REST_RL_HF                           IMPT 00000000   5634 
_SH2_REST_SR_HF                           IMPT 00000000   5633 
_SH2_SCAN_AVLMAX                          IMPT 00000000   5888 
_SH2_SCAN_AVLPV                           IMPT 00000000   5889 
_SH2_SCAN_REALMAX                         IMPT 00000000   5887 
_SH2_STEP1_FRQ                            IMPT 00000000   5652 
_SH2_STEP1_PV_PLS                         IMPT 00000000   5642 
_SH2_STEP1_REST_P                         IMPT 00000000   5647 
_SH2_STEP1_SV_PLS                         IMPT 00000000   5637 
_SH2_STEP1_TIM                            IMPT 00000000   5657 
_SH2_STEP2_FRQ                            IMPT 00000000   5653 
_SH2_STEP2_PV_PLS                         IMPT 00000000   5643 
_SH2_STEP2_REST_P                         IMPT 00000000   5648 
_SH2_STEP2_SV_PLS                         IMPT 00000000   5638 
_SH2_STEP2_TIM                            IMPT 00000000   5658 
_SH2_STEP3_FRQ                            IMPT 00000000   5654 
_SH2_STEP3_PV_PLS                         IMPT 00000000   5644 
_SH2_STEP3_REST_P                         IMPT 00000000   5649 
_SH2_STEP3_SV_PLS                         IMPT 00000000   5639 
_SH2_STEP3_TIM                            IMPT 00000000   5659 
_SH2_STEP4_FRQ                            IMPT 00000000   5655 
_SH2_STEP4_PV_PLS                         IMPT 00000000   5645 
*** SuperH RISC engine ASSEMBLER V.7.01.02.000 ***    11/14/21 17:24:39                                                  PAGE    47

*** CROSS REFERENCE LIST

NAME                             SECTION  ATTR VALUE             SEQUENCE

_SH2_STEP4_REST_P                         IMPT 00000000   5650 
_SH2_STEP4_SV_PLS                         IMPT 00000000   5640 
_SH2_STEP4_TIM                            IMPT 00000000   5660 
_SH2_STEP5_FRQ                            IMPT 00000000   5656 
_SH2_STEP5_PV_PLS                         IMPT 00000000   5646 
_SH2_STEP5_REST_P                         IMPT 00000000   5651 
_SH2_STEP5_SV_PLS                         IMPT 00000000   5641 
_SH2_STEP5_TIM                            IMPT 00000000   5661 
_SH2_STEP_FRQ                             IMPT 00000000   5668 
_SH2_STEP_NO                              IMPT 00000000   5525 
_SH2_STEP_PV_PLS                          IMPT 00000000   5666 
_SH2_STEP_REST_P                          IMPT 00000000   5667 
_SH2_STEP_SV_PLS                          IMPT 00000000   5665 
_SH2_STEP_TIM                             IMPT 00000000   5669 
_SH2_TOP_FRQ_SV                           IMPT 00000000   5625 
_SH2_TOTAL_PLS                            IMPT 00000000   5662 
_SH2_VLV_SIG                              IMPT 00000000   5789 
_SH2toSH4_TEPSIG                          IMPT 00000000   5486 
_SH4_ADD_PLS                              IMPT 00000000   5611 
_SH4_BAS_FRQ_SV                           IMPT 00000000   5572 
_SH4_CMP_STS1                             IMPT 00000000   5533 
_SH4_CMP_STS2                             IMPT 00000000   5535 
_SH4_CNT_REST_HF                          IMPT 00000000   5583 
_SH4_CNT_REST_PLS                         IMPT 00000000   5568 
_SH4_DNM_CALC_INFO                        IMPT 00000000   5797 
_SH4_GPOINT_LNG                           IMPT 00000000   5478 
_SH4_GPOINT_LNGDSP                        IMPT 00000000   5480 
_SH4_GPOINT_SPDDSP                        IMPT 00000000   5482 
_SH4_HD_CNT_CNT                           IMPT 00000000   5553 
_SH4_HD_CNT_STOP                          IMPT 00000000   5549 
_SH4_HD_CTRL_BUSY                         IMPT 00000000   5541 
_SH4_HD_CTRL_REDY                         IMPT 00000000   5539 
_SH4_HD_HLDSTOP1                          IMPT 00000000   5781 
_SH4_HD_HLDSTOP2                          IMPT 00000000   5784 
_SH4_HD_NEAR_ZERO                         IMPT 00000000   5547 
_SH4_HD_POS_START                         IMPT 00000000   5543 
_SH4_HD_SFTY_AUTO                         IMPT 00000000   5545 
_SH4_HD_STEP_END                          IMPT 00000000   5551 
_SH4_LNGH_ADD_SR                          IMPT 00000000   5569 
_SH4_LOT_CNT_A                            IMPT 00000000   5579 
_SH4_LOT_STEP_A                           IMPT 00000000   5580 
_SH4_NOW_FRQ_PV                           IMPT 00000000   5574 
_SH4_NOW_STEP                             IMPT 00000000   5617 
_SH4_ORG_DIR_REV                          IMPT 00000000   5462 
_SH4_PDOWN_FLG                            IMPT 00000000   5901 
_SH4_PLSI_ACCS                            IMPT 00000000   5576 
_SH4_PLSI_LATE                            IMPT 00000000   5577 
_SH4_POS_STS1                             IMPT 00000000   5531 
_SH4_REST_PLS_RL                          IMPT 00000000   5571 
_SH4_REST_PLS_SR                          IMPT 00000000   5570 
_SH4_REST_RL_HF                           IMPT 00000000   5582 
_SH4_REST_SR_HF                           IMPT 00000000   5581 
_SH4_STEP1_FRQ                            IMPT 00000000   5600 
_SH4_STEP1_PV_PLS                         IMPT 00000000   5590 
*** SuperH RISC engine ASSEMBLER V.7.01.02.000 ***    11/14/21 17:24:39                                                  PAGE    48

*** CROSS REFERENCE LIST

NAME                             SECTION  ATTR VALUE             SEQUENCE

_SH4_STEP1_REST_P                         IMPT 00000000   5595 
_SH4_STEP1_SV_PLS                         IMPT 00000000   5585 
_SH4_STEP1_TIM                            IMPT 00000000   5605 
_SH4_STEP2_FRQ                            IMPT 00000000   5601 
_SH4_STEP2_PV_PLS                         IMPT 00000000   5591 
_SH4_STEP2_REST_P                         IMPT 00000000   5596 
_SH4_STEP2_SV_PLS                         IMPT 00000000   5586 
_SH4_STEP2_TIM                            IMPT 00000000   5606 
_SH4_STEP3_FRQ                            IMPT 00000000   5602 
_SH4_STEP3_PV_PLS                         IMPT 00000000   5592 
_SH4_STEP3_REST_P                         IMPT 00000000   5597 
_SH4_STEP3_SV_PLS                         IMPT 00000000   5587 
_SH4_STEP3_TIM                            IMPT 00000000   5607 
_SH4_STEP4_FRQ                            IMPT 00000000   5603 
_SH4_STEP4_PV_PLS                         IMPT 00000000   5593 
_SH4_STEP4_REST_P                         IMPT 00000000   5598 
_SH4_STEP4_SV_PLS                         IMPT 00000000   5588 
_SH4_STEP4_TIM                            IMPT 00000000   5608 
_SH4_STEP5_FRQ                            IMPT 00000000   5604 
_SH4_STEP5_PV_PLS                         IMPT 00000000   5594 
_SH4_STEP5_REST_P                         IMPT 00000000   5599 
_SH4_STEP5_SV_PLS                         IMPT 00000000   5589 
_SH4_STEP5_TIM                            IMPT 00000000   5609 
_SH4_STEP_FRQ                             IMPT 00000000   5615 
_SH4_STEP_NO                              IMPT 00000000   5524 
_SH4_STEP_PV_PLS                          IMPT 00000000   5613 
_SH4_STEP_REST_P                          IMPT 00000000   5614 
_SH4_STEP_SV_PLS                          IMPT 00000000   5612 
_SH4_STEP_TIM                             IMPT 00000000   5616 
_SH4_TOP_FRQ_SV                           IMPT 00000000   5573 
_SH4_TOTAL_PLS                            IMPT 00000000   5610 
_SH4_VLV_SIG                              IMPT 00000000   5788 
_SH4toSH2_TEPSIG                          IMPT 00000000   5485 
_SHOT_MOST_DOWN_POS                       IMPT 00000000   4006 
_SHOT_MOST_DOWN_POSWK                     IMPT 00000000   4007 
_SH_CNTSTOP_FLG                           IMPT 00000000   5503 
_SH_OUTPLS_DELT                           IMPT 00000000   5504 
_SH_POSCTL_ACC                            IMPT 00000000   5491 
_SH_POSCTL_CAL_REST                       IMPT 00000000   5497 
_SH_POSCTL_HENSA                          IMPT 00000000   5498 
_SH_POSCTL_LSIFREQ                        IMPT 00000000   5499 
_SH_POSCTL_OFS                            IMPT 00000000   5492 
_SH_POSCTL_PV_ABSPLS                      IMPT 00000000   5495 
_SH_POSCTL_REST_PLS                       IMPT 00000000   5496 
_SH_POSCTL_RL_ABSPLS                      IMPT 00000000   5494 
_SH_POSCTL_RL_SPD                         IMPT 00000000   5490 
_SH_POSCTL_SV_ABSPLS                      IMPT 00000000   5493 
_SH_POSCTL_SV_SPD                         IMPT 00000000   5489 
_SH_SQ200_IN                              IMPT 00000000   5502 
_SINKAKU_INF                              IMPT 00000000   3275 
_SINKAKU_ROTCAM_ENBSEL                    IMPT 00000000   3277 
_SINKAKU_ROTCAM_ENBSEL_WK                 IMPT 00000000   3276 
_SINKAKU_USESEL_OF_INF                    IMPT 00000000   3279 
_SINKAKU_USESEL_ON_INF                    IMPT 00000000   3278 
*** SuperH RISC engine ASSEMBLER V.7.01.02.000 ***    11/14/21 17:24:39                                                  PAGE    49

*** CROSS REFERENCE LIST

NAME                             SECTION  ATTR VALUE             SEQUENCE

_SINWK_CALC_SCAN                          IMPT 00000000   3287 
_SIN_RCAMOF_SW1                           IMPT 00000000   3303 
_SIN_RCAMON_SW1                           IMPT 00000000   3302 
_SIN_RCAM_OF_DIG                          IMPT 00000000   3282 
_SIN_RCAM_OF_ERR1                         IMPT 00000000   3306 
_SIN_RCAM_ON_DIG                          IMPT 00000000   3281 
_SIN_RCAM_ON_ERR1                         IMPT 00000000   3305 
_SLIDALM_CHK_FLG                          IMPT 00000000   4364 
_SLIDALM_CHK_POS                          IMPT 00000000   4366 
_SLIDALM_CHK_TIM                          IMPT 00000000   4365 
_SLIDALM_POS_MINAS                        IMPT 00000000   4368 
_SLIDALM_POS_PULAS                        IMPT 00000000   4367 
_SPD_PER_MAX                              EQU  00002710   1999*
_SPLCHK_FLG                               IMPT 00000000   4998 
_SPLCHK_TIM                               IMPT 00000000   4999 
_SPL_ERR_INIT_WAIT_TIM                    IMPT 00000000   5071 
_SQ_OVERH_CMP                             IMPT 00000000   4677 
_SQ_RNA_ALMRST_OLD                        IMPT 00000000   4026 
_START_ACK_COD                            EQU  00004321    213*
_START_FLG_AFTER_EMG                      IMPT 00000000   3356 
_START_REQ_COD                            EQU  00009876    212*
_STEP_CMPERR_TIMX1                        IMPT 00000000   5333 
_STOPCHK_INC_POS                          IMPT 00000000   3240 
_STOPCHK_RNA_POS                          IMPT 00000000   3239 
_STOPPING_STOP_POS                        IMPT 00000000   2637 
_STOPPING_STOP_TIM                        IMPT 00000000   2639 
_STOPPING_TIM_FLG                         IMPT 00000000   2638 
_STOPPING_TIM_PV1                         IMPT 00000000   2640 
_STOPPING_TIM_PV2                         IMPT 00000000   2641 
_STOPPING_VLVOFF_POS                      IMPT 00000000   2636 
_STOP_360ENC_DIG                          IMPT 00000000   4059 
_STOP_ERR_LATCH                           IMPT 00000000   3477 
_STOP_LATCH                               IMPT 00000000   2619 
_STOP_LATCH_B                             IMPT 00000000   2620 
_STOP_LATCH_CHK_TIM                       IMPT 00000000   2870 
_STOP_LATCH_ENCPOS                        IMPT 00000000   2868 
_STOP_LATCH_OUTPLS                        IMPT 00000000   2867 
_STOP_LATCH_RNAPOS                        IMPT 00000000   2869 
_STR_ENC3600_DIG                          IMPT 00000000   2787 
_STR_ENC3600_DIG_LNG                      IMPT 00000000   2788 
_SVB_ARA1_KAJ_T2                          IMPT 00000000   5973 
_SVB_BAKORG_PLS1                          IMPT 00000000   5964 
_SVB_BAKORG_PLS2                          IMPT 00000000   5965 
_SVB_DYHITO_POS                           IMPT 00000000   5961 
_SVB_RENIA_BUP1                           IMPT 00000000   5967 
_SVB_RENIA_BUP2                           IMPT 00000000   5968 
_SVB_RENIA_BUP3                           IMPT 00000000   5969 
_SVB_RENIA_BUP4                           IMPT 00000000   5970 
_SVB_RNAORG_PLS1                          IMPT 00000000   5959 
_SVB_SLIDE_POS                            IMPT 00000000   5962 
_SVCHK_SCAN                               IMPT 00000000   4696 
_SVOP2_WAIT_ANSA                          IMPT 00000000   5716 
_SVOP2_WAIT_ANSB                          IMPT 00000000   5717 
_SVPX_UPAREA_DIG1                         IMPT 00000000   3225 
*** SuperH RISC engine ASSEMBLER V.7.01.02.000 ***    11/14/21 17:24:39                                                  PAGE    50

*** CROSS REFERENCE LIST

NAME                             SECTION  ATTR VALUE             SEQUENCE

_SVP_ACCLAT_TIM1                          IMPT 00000000   6011 
_SVP_ACCLAT_TIMP                          IMPT 00000000   6434 
_SVP_AMP100P_VLT                          IMPT 00000000   6058 
_SVP_AMPERR_TIM1                          IMPT 00000000   6032 
_SVP_AMPERR_TIM2                          IMPT 00000000   6034 
_SVP_AMPERR_TIM3                          IMPT 00000000   6036 
_SVP_AMPERR_VLT1                          IMPT 00000000   6031 
_SVP_AMPERR_VLT2                          IMPT 00000000   6033 
_SVP_AMPERR_VLT3                          IMPT 00000000   6035 
_SVP_ARACHK_LNG1                          IMPT 00000000   6017 
_SVP_ATCOL_CYC                            IMPT 00000000   6111 
_SVP_ATCOL_SPAG                           IMPT 00000000   6115 
_SVP_ATCOL_SPNO                           IMPT 00000000   6114 
_SVP_ATCOL_STAG                           IMPT 00000000   6113 
_SVP_ATCOL_STNO                           IMPT 00000000   6112 
_SVP_ATSLID_BAKLNG                        IMPT 00000000   6294 
_SVP_ATSLID_COEF1                         IMPT 00000000   6295 
_SVP_ATSLID_DNOBJ1                        IMPT 00000000   6292 
_SVP_ATSLID_OBJ1                          IMPT 00000000   6291 
_SVP_ATSLID_UPOBJ1                        IMPT 00000000   6293 
_SVP_BREAK_DIG                            IMPT 00000000   6041 
_SVP_BREAK_DIG_RAT                        IMPT 00000000   6136 
_SVP_BREAK_TIM1                           IMPT 00000000   6042 
_SVP_BREAK_TIM_RAT                        IMPT 00000000   6137 
_SVP_CAMFUN_SEL00                         IMPT 00000000   6273 
_SVP_CAMFUN_SEL01                         IMPT 00000000   6274 
_SVP_CAMFUN_SEL02                         IMPT 00000000   6275 
_SVP_CAMFUN_SEL03                         IMPT 00000000   6276 
_SVP_CAMFUN_SEL04                         IMPT 00000000   6277 
_SVP_CAMFUN_SEL05                         IMPT 00000000   6278 
_SVP_CAMFUN_SEL06                         IMPT 00000000   6279 
_SVP_CAMFUN_SEL07                         IMPT 00000000   6280 
_SVP_CAMFUN_SEL08                         IMPT 00000000   6281 
_SVP_CAMFUN_SEL09                         IMPT 00000000   6282 
_SVP_CAMFUN_SEL0A                         IMPT 00000000   6283 
_SVP_CAMFUN_SEL0B                         IMPT 00000000   6284 
_SVP_CAMFUN_SEL0C                         IMPT 00000000   6285 
_SVP_CAMFUN_SEL0D                         IMPT 00000000   6286 
_SVP_CAMFUN_SEL0E                         IMPT 00000000   6287 
_SVP_CAMFUN_SEL0F                         IMPT 00000000   6288 
_SVP_CAMFUN_SEL_TOP                       IMPT 00000000   6272 
_SVP_CNT_CNT                              IMPT 00000000   6040 
_SVP_CNT_TIM                              IMPT 00000000   6039 
_SVP_DAIHAI_LNG1                          IMPT 00000000   6027 
_SVP_DAIHAI_LNG2                          IMPT 00000000   6028 
_SVP_DAIHAI_LNG3                          IMPT 00000000   6029 
_SVP_DAIHAI_ORG0                          IMPT 00000000   6236 
_SVP_DAIHSA_LENG                          IMPT 00000000   6247 
_SVP_DANSAM_LEN                           IMPT 00000000   6377 
_SVP_DEB_ADR0                             IMPT 00000000   6778 
_SVP_DEB_ADR1                             IMPT 00000000   6779 
_SVP_DEB_ADR2                             IMPT 00000000   6780 
_SVP_DEB_ADR3                             IMPT 00000000   6781 
_SVP_DEB_ADR4                             IMPT 00000000   6782 
*** SuperH RISC engine ASSEMBLER V.7.01.02.000 ***    11/14/21 17:24:39                                                  PAGE    51

*** CROSS REFERENCE LIST

NAME                             SECTION  ATTR VALUE             SEQUENCE

_SVP_DEB_SEL0                             IMPT 00000000   6784 
_SVP_DEB_SEL1                             IMPT 00000000   6785 
_SVP_DEB_SEL2                             IMPT 00000000   6786 
_SVP_DEB_SEL3                             IMPT 00000000   6787 
_SVP_DEB_SEL4                             IMPT 00000000   6788 
_SVP_DNAREA_INP0                          IMPT 00000000   6245 
_SVP_DNAREA_INP1                          IMPT 00000000   6014 
_SVP_DNAREA_JUDG                          IMPT 00000000   5995 
_SVP_DNDATA_A21                           IMPT 00000000   7029 
_SVP_DNDINC_SPD1                          IMPT 00000000   5999 
_SVP_DND_STOPDIG1                         IMPT 00000000   6319 
_SVP_DNSTOP_A21                           IMPT 00000000   7032 
_SVP_ECOM_BASE                            IMPT 00000000   6431 
_SVP_ECOM_SCAL                            IMPT 00000000   6432 
_SVP_EJECAM_OFR                           IMPT 00000000   7147 
_SVP_EJECAM_ONR                           IMPT 00000000   7146 
_SVP_EP_ADJSIN                            IMPT 00000000   6429 
_SVP_EP_ADJVAL                            IMPT 00000000   6430 
_SVP_EP_K1                                IMPT 00000000   6427 
_SVP_EP_K2                                IMPT 00000000   6428 
_SVP_EP_LTM                               IMPT 00000000   6426 
_SVP_EP_TRQ                               IMPT 00000000   6425 
_SVP_EP_VMX                               IMPT 00000000   6424 
_SVP_EP_VOF                               IMPT 00000000   6423 
_SVP_FCLS_STR_DEG                         IMPT 00000000   6405 
_SVP_FCLS_STR_HENS                        IMPT 00000000   6406 
_SVP_FCLS_ZIKI_SPD1                       IMPT 00000000   6407 
_SVP_FCLS_ZIKI_SPD2                       IMPT 00000000   6408 
_SVP_GENITI_A21                           IMPT 00000000   7030 
_SVP_GMNSEQ_CNT01                         IMPT 00000000   6254 
_SVP_GMNSEQ_CNT02                         IMPT 00000000   6255 
_SVP_GMNSEQ_CNT03                         IMPT 00000000   6256 
_SVP_GMNSEQ_CNT04                         IMPT 00000000   6257 
_SVP_GMNSEQ_CNT05                         IMPT 00000000   6258 
_SVP_GMNSEQ_CNT06                         IMPT 00000000   6259 
_SVP_GMNSEQ_CNT07                         IMPT 00000000   6260 
_SVP_GMNSEQ_CNT08                         IMPT 00000000   6261 
_SVP_GMNSEQ_TIM01                         IMPT 00000000   6263 
_SVP_GMNSEQ_TIM02                         IMPT 00000000   6264 
_SVP_GMNSEQ_TIM03                         IMPT 00000000   6265 
_SVP_GMNSEQ_TIM04                         IMPT 00000000   6266 
_SVP_GMNSEQ_TIM05                         IMPT 00000000   6267 
_SVP_GMNSEQ_TIM06                         IMPT 00000000   6268 
_SVP_GMNSEQ_TIM07                         IMPT 00000000   6269 
_SVP_GMNSEQ_TIM08                         IMPT 00000000   6270 
_SVP_HOSEI_SPD                            IMPT 00000000   6375 
_SVP_HOSRAG_PLS1                          IMPT 00000000   6373 
_SVP_HOSRAG_PLS2                          IMPT 00000000   6374 
_SVP_INCDIR_SEL1                          IMPT 00000000   5984 
_SVP_INCENC_ELNG                          IMPT 00000000   6021 
_SVP_INCHEN_ELNG                          IMPT 00000000   6020 
_SVP_INCPLS_1REV                          IMPT 00000000   5985 
_SVP_INCPLS_HOSM                          IMPT 00000000   5987 
_SVP_INCPLS_HOSN                          IMPT 00000000   5986 
*** SuperH RISC engine ASSEMBLER V.7.01.02.000 ***    11/14/21 17:24:39                                                  PAGE    52

*** CROSS REFERENCE LIST

NAME                             SECTION  ATTR VALUE             SEQUENCE

_SVP_INCPOS_KP01                          IMPT 00000000   6009 
_SVP_INCREV_ELNG                          IMPT 00000000   6025 
_SVP_INCRNA_ELNG                          IMPT 00000000   6022 
_SVP_INCSTP_ELNG                          IMPT 00000000   6023 
_SVP_INPPOS_TIM1                          IMPT 00000000   6016 
_SVP_INTLIM_AGL                           IMPT 00000000   7066 
_SVP_INTLIM_POS                           IMPT 00000000   7067 
_SVP_INTLIM_SNO                           IMPT 00000000   7065 
_SVP_KAJAREA_EAG                          IMPT 00000000   7019 
_SVP_KAJAREA_ENO                          IMPT 00000000   7018 
_SVP_KAJAREA_SAG                          IMPT 00000000   7017 
_SVP_KAJAREA_SEL                          IMPT 00000000   7020 
_SVP_KAJAREA_SNO                          IMPT 00000000   7016 
_SVP_KAJOBJ_HAB                           IMPT 00000000   7062 
_SVP_KAJYUU_OBJP                          IMPT 00000000   6307 
_SVP_KAJYUU_PRS1                          IMPT 00000000   6306 
_SVP_KAJYUU_PV1                           IMPT 00000000   6308 
_SVP_KANDO_A21                            IMPT 00000000   7027 
_SVP_KATTCH_EAG                           IMPT 00000000   7024 
_SVP_KATTCH_SAG                           IMPT 00000000   7023 
_SVP_KATTCH_SPD                           IMPT 00000000   5917 
_SVP_KJEND_DIG1                           IMPT 00000000   6325 
_SVP_KJEND_STEP1                          IMPT 00000000   6324 
_SVP_KJSTR_DIG1                           IMPT 00000000   6323 
_SVP_KJSTR_STEP1                          IMPT 00000000   6322 
_SVP_LSAABN_AGL1                          IMPT 00000000   6061 
_SVP_LSAABN_AGL2                          IMPT 00000000   6062 
_SVP_MACINE_SEL1                          IMPT 00000000   6054 
_SVP_MANSAMER_PLS                         IMPT 00000000   6380 
_SVP_MANSAM_LEN                           IMPT 00000000   6376 
_SVP_MAX_KJYU                             IMPT 00000000   6138 
_SVP_MISCAM_OFR                           IMPT 00000000   7149 
_SVP_MISCAM_ONR                           IMPT 00000000   7148 
_SVP_MOADR0_SQH                           IMPT 00000000   6073 
_SVP_MOADR0_SQL                           IMPT 00000000   6074 
_SVP_MOADR1_SQH                           IMPT 00000000   6075 
_SVP_MOADR1_SQL                           IMPT 00000000   6076 
_SVP_MOADR2_SQH                           IMPT 00000000   6077 
_SVP_MOADR2_SQL                           IMPT 00000000   6078 
_SVP_MOADR3_SQH                           IMPT 00000000   6079 
_SVP_MOADR3_SQL                           IMPT 00000000   6080 
_SVP_MOADR4_SQH                           IMPT 00000000   6081 
_SVP_MOADR4_SQL                           IMPT 00000000   6082 
_SVP_MOADR5_SQH                           IMPT 00000000   6083 
_SVP_MOADR5_SQL                           IMPT 00000000   6084 
_SVP_MOADR6_SQH                           IMPT 00000000   6085 
_SVP_MOADR6_SQL                           IMPT 00000000   6086 
_SVP_MOADR7_SQH                           IMPT 00000000   6087 
_SVP_MOADR7_SQL                           IMPT 00000000   6088 
_SVP_MOADR8_SQH                           IMPT 00000000   6089 
_SVP_MOADR8_SQL                           IMPT 00000000   6090 
_SVP_MOADR9_SQH                           IMPT 00000000   6091 
_SVP_MOADR9_SQL                           IMPT 00000000   6092 
_SVP_MOADRA_SQH                           IMPT 00000000   6093 
*** SuperH RISC engine ASSEMBLER V.7.01.02.000 ***    11/14/21 17:24:39                                                  PAGE    53

*** CROSS REFERENCE LIST

NAME                             SECTION  ATTR VALUE             SEQUENCE

_SVP_MOADRA_SQL                           IMPT 00000000   6094 
_SVP_MOADRB_SQH                           IMPT 00000000   6095 
_SVP_MOADRB_SQL                           IMPT 00000000   6096 
_SVP_MOADRC_SQH                           IMPT 00000000   6097 
_SVP_MOADRC_SQL                           IMPT 00000000   6098 
_SVP_MOADRD_SQH                           IMPT 00000000   6099 
_SVP_MOADRD_SQL                           IMPT 00000000   6100 
_SVP_MOADRE_SQH                           IMPT 00000000   6101 
_SVP_MOADRE_SQL                           IMPT 00000000   6102 
_SVP_MOADRF_SQH                           IMPT 00000000   6103 
_SVP_MOADRF_SQL                           IMPT 00000000   6104 
_SVP_MODORI_A21                           IMPT 00000000   7031 
_SVP_MONALM_S01                           IMPT 00000000   6300 
_SVP_MONALM_S02                           IMPT 00000000   6301 
_SVP_MONALM_S03                           IMPT 00000000   6302 
_SVP_MONALM_S04                           IMPT 00000000   6303 
_SVP_MOTMAX_FREQ                          IMPT 00000000   5990 
_SVP_MOTREP_CNT                           IMPT 00000000   7142 
_SVP_MOTREP_SPD                           IMPT 00000000   7141 
_SVP_MOTREP_STGE                          IMPT 00000000   7140 
_SVP_MOTREP_STGS                          IMPT 00000000   7139 
_SVP_MOTRPM_MAXM                          IMPT 00000000   5988 
_SVP_MOTRPM_MAXP                          IMPT 00000000   6433 
_SVP_MOTWT_TIM                            IMPT 00000000   6046 
_SVP_MOT_FIX                              IMPT 00000000   7151 
_SVP_MRTION_SEL1                          IMPT 00000000   6237 
_SVP_MTSTEP_MAXM                          IMPT 00000000   6238 
_SVP_NEG_OFS_LNG                          IMPT 00000000   6057 
_SVP_OBJARA_INP0                          IMPT 00000000   6246 
_SVP_OBJARA_INP1                          IMPT 00000000   6015 
_SVP_OBJECT_DG01                          IMPT 00000000   6168 
_SVP_OBJECT_DG02                          IMPT 00000000   6169 
_SVP_OBJECT_DG03                          IMPT 00000000   6170 
_SVP_OBJECT_DG04                          IMPT 00000000   6171 
_SVP_OBJECT_DG05                          IMPT 00000000   6172 
_SVP_OBJECT_DG06                          IMPT 00000000   6173 
_SVP_OBJECT_DG07                          IMPT 00000000   6174 
_SVP_OBJECT_DG08                          IMPT 00000000   6175 
_SVP_OBJECT_DG09                          IMPT 00000000   6176 
_SVP_OBJECT_DG10                          IMPT 00000000   6177 
_SVP_OBJECT_DG11                          IMPT 00000000   6178 
_SVP_OBJECT_DG12                          IMPT 00000000   6179 
_SVP_OBJECT_DG13                          IMPT 00000000   6180 
_SVP_OBJECT_DG14                          IMPT 00000000   6181 
_SVP_OBJECT_DG15                          IMPT 00000000   6182 
_SVP_OBJECT_DG16                          IMPT 00000000   6183 
_SVP_OBJECT_DG17                          IMPT 00000000   6184 
_SVP_OBJECT_DG18                          IMPT 00000000   6185 
_SVP_OBJECT_DG19                          IMPT 00000000   6186 
_SVP_OBJECT_DG20                          IMPT 00000000   6187 
_SVP_OBJECT_DIG_TOP                       IMPT 00000000   6167 
_SVP_OBJECT_POS_TOP                       IMPT 00000000   6145 
_SVP_OBJECT_PRS01                         IMPT 00000000   6124 
_SVP_OBJECT_PRS02                         IMPT 00000000   6125 
*** SuperH RISC engine ASSEMBLER V.7.01.02.000 ***    11/14/21 17:24:39                                                  PAGE    54

*** CROSS REFERENCE LIST

NAME                             SECTION  ATTR VALUE             SEQUENCE

_SVP_OBJECT_PRS03                         IMPT 00000000   6126 
_SVP_OBJECT_PRS04                         IMPT 00000000   6127 
_SVP_OBJECT_PRS05                         IMPT 00000000   6128 
_SVP_OBJECT_PRS06                         IMPT 00000000   6129 
_SVP_OBJECT_PRS07                         IMPT 00000000   6130 
_SVP_OBJECT_PRS08                         IMPT 00000000   6131 
_SVP_OBJECT_PRS09                         IMPT 00000000   6132 
_SVP_OBJECT_PRS10                         IMPT 00000000   6133 
_SVP_OBJECT_PRS_TOP                       IMPT 00000000   6123 
_SVP_OBJECT_PS01                          IMPT 00000000   6146 
_SVP_OBJECT_PS02                          IMPT 00000000   6147 
_SVP_OBJECT_PS03                          IMPT 00000000   6148 
_SVP_OBJECT_PS04                          IMPT 00000000   6149 
_SVP_OBJECT_PS05                          IMPT 00000000   6150 
_SVP_OBJECT_PS06                          IMPT 00000000   6151 
_SVP_OBJECT_PS07                          IMPT 00000000   6152 
_SVP_OBJECT_PS08                          IMPT 00000000   6153 
_SVP_OBJECT_PS09                          IMPT 00000000   6154 
_SVP_OBJECT_PS10                          IMPT 00000000   6155 
_SVP_OBJECT_PS11                          IMPT 00000000   6156 
_SVP_OBJECT_PS12                          IMPT 00000000   6157 
_SVP_OBJECT_PS13                          IMPT 00000000   6158 
_SVP_OBJECT_PS14                          IMPT 00000000   6159 
_SVP_OBJECT_PS15                          IMPT 00000000   6160 
_SVP_OBJECT_PS16                          IMPT 00000000   6161 
_SVP_OBJECT_PS17                          IMPT 00000000   6162 
_SVP_OBJECT_PS18                          IMPT 00000000   6163 
_SVP_OBJECT_PS19                          IMPT 00000000   6164 
_SVP_OBJECT_PS20                          IMPT 00000000   6165 
_SVP_OBJECT_SP01                          IMPT 00000000   6190 
_SVP_OBJECT_SP02                          IMPT 00000000   6191 
_SVP_OBJECT_SP03                          IMPT 00000000   6192 
_SVP_OBJECT_SP04                          IMPT 00000000   6193 
_SVP_OBJECT_SP05                          IMPT 00000000   6194 
_SVP_OBJECT_SP06                          IMPT 00000000   6195 
_SVP_OBJECT_SP07                          IMPT 00000000   6196 
_SVP_OBJECT_SP08                          IMPT 00000000   6197 
_SVP_OBJECT_SP09                          IMPT 00000000   6198 
_SVP_OBJECT_SP10                          IMPT 00000000   6199 
_SVP_OBJECT_SP11                          IMPT 00000000   6200 
_SVP_OBJECT_SP12                          IMPT 00000000   6201 
_SVP_OBJECT_SP13                          IMPT 00000000   6202 
_SVP_OBJECT_SP14                          IMPT 00000000   6203 
_SVP_OBJECT_SP15                          IMPT 00000000   6204 
_SVP_OBJECT_SP16                          IMPT 00000000   6205 
_SVP_OBJECT_SP17                          IMPT 00000000   6206 
_SVP_OBJECT_SP18                          IMPT 00000000   6207 
_SVP_OBJECT_SP19                          IMPT 00000000   6208 
_SVP_OBJECT_SP20                          IMPT 00000000   6209 
_SVP_OBJECT_SPD_TOP                       IMPT 00000000   6189 
_SVP_OBJECT_TIM_TOP                       IMPT 00000000   6211 
_SVP_OBJECT_TM01                          IMPT 00000000   6212 
_SVP_OBJECT_TM02                          IMPT 00000000   6213 
_SVP_OBJECT_TM03                          IMPT 00000000   6214 
*** SuperH RISC engine ASSEMBLER V.7.01.02.000 ***    11/14/21 17:24:39                                                  PAGE    55

*** CROSS REFERENCE LIST

NAME                             SECTION  ATTR VALUE             SEQUENCE

_SVP_OBJECT_TM04                          IMPT 00000000   6215 
_SVP_OBJECT_TM05                          IMPT 00000000   6216 
_SVP_OBJECT_TM06                          IMPT 00000000   6217 
_SVP_OBJECT_TM07                          IMPT 00000000   6218 
_SVP_OBJECT_TM08                          IMPT 00000000   6219 
_SVP_OBJECT_TM09                          IMPT 00000000   6220 
_SVP_OBJECT_TM10                          IMPT 00000000   6221 
_SVP_OBJECT_TM11                          IMPT 00000000   6222 
_SVP_OBJECT_TM12                          IMPT 00000000   6223 
_SVP_OBJECT_TM13                          IMPT 00000000   6224 
_SVP_OBJECT_TM14                          IMPT 00000000   6225 
_SVP_OBJECT_TM15                          IMPT 00000000   6226 
_SVP_OBJECT_TM16                          IMPT 00000000   6227 
_SVP_OBJECT_TM17                          IMPT 00000000   6228 
_SVP_OBJECT_TM18                          IMPT 00000000   6229 
_SVP_OBJECT_TM19                          IMPT 00000000   6230 
_SVP_OBJECT_TM20                          IMPT 00000000   6231 
_SVP_ONESTR_SPD2                          IMPT 00000000   6437 
_SVP_ORGCAL_DAT1                          IMPT 00000000   6349 
_SVP_ORGCAL_DAT2                          IMPT 00000000   6350 
_SVP_ORGCAL_DAT3                          IMPT 00000000   6351 
_SVP_ORGCAL_DAT4                          IMPT 00000000   6352 
_SVP_ORGCAL_DAT5                          IMPT 00000000   6353 
_SVP_ORGCAL_DAT6                          IMPT 00000000   6354 
_SVP_ORGFWD_AGL                           IMPT 00000000   6444 
_SVP_ORGLDN_DEG                           IMPT 00000000   6366 
_SVP_ORGLUP_DEG                           IMPT 00000000   6365 
_SVP_ORGMEM_DEG1                          IMPT 00000000   6367 
_SVP_ORGMEM_DEG1A                         IMPT 00000000   6384 
_SVP_ORGMEM_DEG2                          IMPT 00000000   6369 
_SVP_ORGMEM_DEG2A                         IMPT 00000000   6385 
_SVP_ORGMEM_DEGS1                         IMPT 00000000   6368 
_SVP_ORGMEM_DEGS2                         IMPT 00000000   6370 
_SVP_ORGMPL_SEL1                          IMPT 00000000   6371 
_SVP_ORGMPL_SEL2                          IMPT 00000000   6372 
_SVP_ORGRDN_DEG                           IMPT 00000000   6364 
_SVP_ORGREV_AGL                           IMPT 00000000   6443 
_SVP_ORGRUP_DEG                           IMPT 00000000   6363 
_SVP_ORGSOK_PLS                           IMPT 00000000   6348 
_SVP_ORGSTRK_LEN1                         IMPT 00000000   6355 
_SVP_ORGSTRK_LEN2                         IMPT 00000000   6356 
_SVP_OUTPLS_HOSA                          IMPT 00000000   6051 
_SVP_OUTPLS_HOSB                          IMPT 00000000   6052 
_SVP_OVERE1_A26                           IMPT 00000000   7038 
_SVP_OVERE1_A27                           IMPT 00000000   7046 
_SVP_OVERE1_A28                           IMPT 00000000   7054 
_SVP_OVERE2_A26                           IMPT 00000000   7040 
_SVP_OVERE2_A27                           IMPT 00000000   7048 
_SVP_OVERE2_A28                           IMPT 00000000   7056 
_SVP_OVERE3_A26                           IMPT 00000000   7042 
_SVP_OVERE3_A27                           IMPT 00000000   7050 
_SVP_OVERE3_A28                           IMPT 00000000   7058 
_SVP_OVERLIDE_COF                         IMPT 00000000   6316 
_SVP_PLSAHI_PLS                           IMPT 00000000   6064 
*** SuperH RISC engine ASSEMBLER V.7.01.02.000 ***    11/14/21 17:24:39                                                  PAGE    56

*** CROSS REFERENCE LIST

NAME                             SECTION  ATTR VALUE             SEQUENCE

_SVP_PLSALO_PLS                           IMPT 00000000   6063 
_SVP_PSMOD_SEL                            IMPT 00000000   6047 
_SVP_RAD                                  IMPT 00000000   6442 
_SVP_RCAMOF_D000                          IMPT 00000000   6497 
_SVP_RCAMOF_D001                          IMPT 00000000   6501 
_SVP_RCAMOF_D002                          IMPT 00000000   6505 
_SVP_RCAMOF_D003                          IMPT 00000000   6509 
_SVP_RCAMOF_D004                          IMPT 00000000   6513 
_SVP_RCAMOF_D005                          IMPT 00000000   6517 
_SVP_RCAMOF_D006                          IMPT 00000000   6521 
_SVP_RCAMOF_D007                          IMPT 00000000   6525 
_SVP_RCAMOF_D008                          IMPT 00000000   6529 
_SVP_RCAMOF_D009                          IMPT 00000000   6533 
_SVP_RCAMOF_D00A                          IMPT 00000000   6537 
_SVP_RCAMOF_D00B                          IMPT 00000000   6541 
_SVP_RCAMOF_D00C                          IMPT 00000000   6545 
_SVP_RCAMOF_D00D                          IMPT 00000000   6549 
_SVP_RCAMOF_D00E                          IMPT 00000000   6553 
_SVP_RCAMOF_D00F                          IMPT 00000000   6557 
_SVP_RCAMOF_D010                          IMPT 00000000   6561 
_SVP_RCAMOF_D011                          IMPT 00000000   6565 
_SVP_RCAMOF_D012                          IMPT 00000000   6569 
_SVP_RCAMOF_D013                          IMPT 00000000   6573 
_SVP_RCAMOF_D014                          IMPT 00000000   6577 
_SVP_RCAMOF_D015                          IMPT 00000000   6581 
_SVP_RCAMOF_D016                          IMPT 00000000   6585 
_SVP_RCAMOF_D017                          IMPT 00000000   6589 
_SVP_RCAMOF_D018                          IMPT 00000000   6593 
_SVP_RCAMOF_D019                          IMPT 00000000   6597 
_SVP_RCAMOF_D01A                          IMPT 00000000   6601 
_SVP_RCAMOF_D01B                          IMPT 00000000   6605 
_SVP_RCAMOF_D01C                          IMPT 00000000   6609 
_SVP_RCAMOF_D01D                          IMPT 00000000   6613 
_SVP_RCAMOF_D01E                          IMPT 00000000   6617 
_SVP_RCAMOF_D01F                          IMPT 00000000   6621 
_SVP_RCAMOF_D020                          IMPT 00000000   6625 
_SVP_RCAMOF_D021                          IMPT 00000000   6629 
_SVP_RCAMOF_D022                          IMPT 00000000   6633 
_SVP_RCAMOF_D023                          IMPT 00000000   6637 
_SVP_RCAMOF_D024                          IMPT 00000000   6641 
_SVP_RCAMOF_D025                          IMPT 00000000   6645 
_SVP_RCAMOF_D026                          IMPT 00000000   6649 
_SVP_RCAMOF_D027                          IMPT 00000000   6653 
_SVP_RCAMOF_D028                          IMPT 00000000   6657 
_SVP_RCAMOF_D029                          IMPT 00000000   6661 
_SVP_RCAMOF_D02A                          IMPT 00000000   6665 
_SVP_RCAMOF_D02B                          IMPT 00000000   6669 
_SVP_RCAMOF_D02C                          IMPT 00000000   6673 
_SVP_RCAMOF_D02D                          IMPT 00000000   6677 
_SVP_RCAMOF_D02E                          IMPT 00000000   6681 
_SVP_RCAMOF_D02F                          IMPT 00000000   6685 
_SVP_RCAMOF_D100                          IMPT 00000000   6690 
_SVP_RCAMOF_D101                          IMPT 00000000   6694 
_SVP_RCAMOF_D102                          IMPT 00000000   6698 
*** SuperH RISC engine ASSEMBLER V.7.01.02.000 ***    11/14/21 17:24:39                                                  PAGE    57

*** CROSS REFERENCE LIST

NAME                             SECTION  ATTR VALUE             SEQUENCE

_SVP_RCAMOF_D103                          IMPT 00000000   6702 
_SVP_RCAMOF_D104                          IMPT 00000000   6706 
_SVP_RCAMOF_D105                          IMPT 00000000   6710 
_SVP_RCAMOF_D106                          IMPT 00000000   6714 
_SVP_RCAMOF_D107                          IMPT 00000000   6718 
_SVP_RCAMOF_D108                          IMPT 00000000   6722 
_SVP_RCAMOF_D109                          IMPT 00000000   6726 
_SVP_RCAMOF_D10A                          IMPT 00000000   6730 
_SVP_RCAMOF_D10B                          IMPT 00000000   6734 
_SVP_RCAMOF_D10C                          IMPT 00000000   6738 
_SVP_RCAMOF_D10D                          IMPT 00000000   6742 
_SVP_RCAMOF_D10E                          IMPT 00000000   6746 
_SVP_RCAMOF_D10F                          IMPT 00000000   6750 
_SVP_RCAMOF_P000                          IMPT 00000000   6496 
_SVP_RCAMOF_P001                          IMPT 00000000   6500 
_SVP_RCAMOF_P002                          IMPT 00000000   6504 
_SVP_RCAMOF_P003                          IMPT 00000000   6508 
_SVP_RCAMOF_P004                          IMPT 00000000   6512 
_SVP_RCAMOF_P005                          IMPT 00000000   6516 
_SVP_RCAMOF_P006                          IMPT 00000000   6520 
_SVP_RCAMOF_P007                          IMPT 00000000   6524 
_SVP_RCAMOF_P008                          IMPT 00000000   6528 
_SVP_RCAMOF_P009                          IMPT 00000000   6532 
_SVP_RCAMOF_P00A                          IMPT 00000000   6536 
_SVP_RCAMOF_P00B                          IMPT 00000000   6540 
_SVP_RCAMOF_P00C                          IMPT 00000000   6544 
_SVP_RCAMOF_P00D                          IMPT 00000000   6548 
_SVP_RCAMOF_P00E                          IMPT 00000000   6552 
_SVP_RCAMOF_P00F                          IMPT 00000000   6556 
_SVP_RCAMOF_P010                          IMPT 00000000   6560 
_SVP_RCAMOF_P011                          IMPT 00000000   6564 
_SVP_RCAMOF_P012                          IMPT 00000000   6568 
_SVP_RCAMOF_P013                          IMPT 00000000   6572 
_SVP_RCAMOF_P014                          IMPT 00000000   6576 
_SVP_RCAMOF_P015                          IMPT 00000000   6580 
_SVP_RCAMOF_P016                          IMPT 00000000   6584 
_SVP_RCAMOF_P017                          IMPT 00000000   6588 
_SVP_RCAMOF_P018                          IMPT 00000000   6592 
_SVP_RCAMOF_P019                          IMPT 00000000   6596 
_SVP_RCAMOF_P01A                          IMPT 00000000   6600 
_SVP_RCAMOF_P01B                          IMPT 00000000   6604 
_SVP_RCAMOF_P01C                          IMPT 00000000   6608 
_SVP_RCAMOF_P01D                          IMPT 00000000   6612 
_SVP_RCAMOF_P01E                          IMPT 00000000   6616 
_SVP_RCAMOF_P01F                          IMPT 00000000   6620 
_SVP_RCAMOF_P020                          IMPT 00000000   6624 
_SVP_RCAMOF_P021                          IMPT 00000000   6628 
_SVP_RCAMOF_P022                          IMPT 00000000   6632 
_SVP_RCAMOF_P023                          IMPT 00000000   6636 
_SVP_RCAMOF_P024                          IMPT 00000000   6640 
_SVP_RCAMOF_P025                          IMPT 00000000   6644 
_SVP_RCAMOF_P026                          IMPT 00000000   6648 
_SVP_RCAMOF_P027                          IMPT 00000000   6652 
_SVP_RCAMOF_P028                          IMPT 00000000   6656 
*** SuperH RISC engine ASSEMBLER V.7.01.02.000 ***    11/14/21 17:24:39                                                  PAGE    58

*** CROSS REFERENCE LIST

NAME                             SECTION  ATTR VALUE             SEQUENCE

_SVP_RCAMOF_P029                          IMPT 00000000   6660 
_SVP_RCAMOF_P02A                          IMPT 00000000   6664 
_SVP_RCAMOF_P02B                          IMPT 00000000   6668 
_SVP_RCAMOF_P02C                          IMPT 00000000   6672 
_SVP_RCAMOF_P02D                          IMPT 00000000   6676 
_SVP_RCAMOF_P02E                          IMPT 00000000   6680 
_SVP_RCAMOF_P02F                          IMPT 00000000   6684 
_SVP_RCAMOF_P100                          IMPT 00000000   6689 
_SVP_RCAMOF_P101                          IMPT 00000000   6693 
_SVP_RCAMOF_P102                          IMPT 00000000   6697 
_SVP_RCAMOF_P103                          IMPT 00000000   6701 
_SVP_RCAMOF_P104                          IMPT 00000000   6705 
_SVP_RCAMOF_P105                          IMPT 00000000   6709 
_SVP_RCAMOF_P106                          IMPT 00000000   6713 
_SVP_RCAMOF_P107                          IMPT 00000000   6717 
_SVP_RCAMOF_P108                          IMPT 00000000   6721 
_SVP_RCAMOF_P109                          IMPT 00000000   6725 
_SVP_RCAMOF_P10A                          IMPT 00000000   6729 
_SVP_RCAMOF_P10B                          IMPT 00000000   6733 
_SVP_RCAMOF_P10C                          IMPT 00000000   6737 
_SVP_RCAMOF_P10D                          IMPT 00000000   6741 
_SVP_RCAMOF_P10E                          IMPT 00000000   6745 
_SVP_RCAMOF_P10F                          IMPT 00000000   6749 
_SVP_RCAMOF_SA00                          IMPT 00000000   7073 
_SVP_RCAMOF_SA01                          IMPT 00000000   7077 
_SVP_RCAMOF_SA02                          IMPT 00000000   7081 
_SVP_RCAMOF_SA03                          IMPT 00000000   7085 
_SVP_RCAMOF_SA04                          IMPT 00000000   7089 
_SVP_RCAMOF_SA05                          IMPT 00000000   7093 
_SVP_RCAMOF_SA06                          IMPT 00000000   7097 
_SVP_RCAMOF_SA07                          IMPT 00000000   7101 
_SVP_RCAMOF_SA08                          IMPT 00000000   7105 
_SVP_RCAMOF_SA09                          IMPT 00000000   7109 
_SVP_RCAMOF_SA10                          IMPT 00000000   7113 
_SVP_RCAMOF_SA11                          IMPT 00000000   7117 
_SVP_RCAMOF_SA12                          IMPT 00000000   7121 
_SVP_RCAMOF_SA13                          IMPT 00000000   7125 
_SVP_RCAMOF_SA14                          IMPT 00000000   7129 
_SVP_RCAMOF_SA15                          IMPT 00000000   7133 
_SVP_RCAMOF_ST00                          IMPT 00000000   7074 
_SVP_RCAMOF_ST01                          IMPT 00000000   7078 
_SVP_RCAMOF_ST02                          IMPT 00000000   7082 
_SVP_RCAMOF_ST03                          IMPT 00000000   7086 
_SVP_RCAMOF_ST04                          IMPT 00000000   7090 
_SVP_RCAMOF_ST05                          IMPT 00000000   7094 
_SVP_RCAMOF_ST06                          IMPT 00000000   7098 
_SVP_RCAMOF_ST07                          IMPT 00000000   7102 
_SVP_RCAMOF_ST08                          IMPT 00000000   7106 
_SVP_RCAMOF_ST09                          IMPT 00000000   7110 
_SVP_RCAMOF_ST10                          IMPT 00000000   7114 
_SVP_RCAMOF_ST11                          IMPT 00000000   7118 
_SVP_RCAMOF_ST12                          IMPT 00000000   7122 
_SVP_RCAMOF_ST13                          IMPT 00000000   7126 
_SVP_RCAMOF_ST14                          IMPT 00000000   7130 
*** SuperH RISC engine ASSEMBLER V.7.01.02.000 ***    11/14/21 17:24:39                                                  PAGE    59

*** CROSS REFERENCE LIST

NAME                             SECTION  ATTR VALUE             SEQUENCE

_SVP_RCAMOF_ST15                          IMPT 00000000   7134 
_SVP_RCAMON_D000                          IMPT 00000000   6495 
_SVP_RCAMON_D001                          IMPT 00000000   6499 
_SVP_RCAMON_D002                          IMPT 00000000   6503 
_SVP_RCAMON_D003                          IMPT 00000000   6507 
_SVP_RCAMON_D004                          IMPT 00000000   6511 
_SVP_RCAMON_D005                          IMPT 00000000   6515 
_SVP_RCAMON_D006                          IMPT 00000000   6519 
_SVP_RCAMON_D007                          IMPT 00000000   6523 
_SVP_RCAMON_D008                          IMPT 00000000   6527 
_SVP_RCAMON_D009                          IMPT 00000000   6531 
_SVP_RCAMON_D00A                          IMPT 00000000   6535 
_SVP_RCAMON_D00B                          IMPT 00000000   6539 
_SVP_RCAMON_D00C                          IMPT 00000000   6543 
_SVP_RCAMON_D00D                          IMPT 00000000   6547 
_SVP_RCAMON_D00E                          IMPT 00000000   6551 
_SVP_RCAMON_D00F                          IMPT 00000000   6555 
_SVP_RCAMON_D010                          IMPT 00000000   6559 
_SVP_RCAMON_D011                          IMPT 00000000   6563 
_SVP_RCAMON_D012                          IMPT 00000000   6567 
_SVP_RCAMON_D013                          IMPT 00000000   6571 
_SVP_RCAMON_D014                          IMPT 00000000   6575 
_SVP_RCAMON_D015                          IMPT 00000000   6579 
_SVP_RCAMON_D016                          IMPT 00000000   6583 
_SVP_RCAMON_D017                          IMPT 00000000   6587 
_SVP_RCAMON_D018                          IMPT 00000000   6591 
_SVP_RCAMON_D019                          IMPT 00000000   6595 
_SVP_RCAMON_D01A                          IMPT 00000000   6599 
_SVP_RCAMON_D01B                          IMPT 00000000   6603 
_SVP_RCAMON_D01C                          IMPT 00000000   6607 
_SVP_RCAMON_D01D                          IMPT 00000000   6611 
_SVP_RCAMON_D01E                          IMPT 00000000   6615 
_SVP_RCAMON_D01F                          IMPT 00000000   6619 
_SVP_RCAMON_D020                          IMPT 00000000   6623 
_SVP_RCAMON_D021                          IMPT 00000000   6627 
_SVP_RCAMON_D022                          IMPT 00000000   6631 
_SVP_RCAMON_D023                          IMPT 00000000   6635 
_SVP_RCAMON_D024                          IMPT 00000000   6639 
_SVP_RCAMON_D025                          IMPT 00000000   6643 
_SVP_RCAMON_D026                          IMPT 00000000   6647 
_SVP_RCAMON_D027                          IMPT 00000000   6651 
_SVP_RCAMON_D028                          IMPT 00000000   6655 
_SVP_RCAMON_D029                          IMPT 00000000   6659 
_SVP_RCAMON_D02A                          IMPT 00000000   6663 
_SVP_RCAMON_D02B                          IMPT 00000000   6667 
_SVP_RCAMON_D02C                          IMPT 00000000   6671 
_SVP_RCAMON_D02D                          IMPT 00000000   6675 
_SVP_RCAMON_D02E                          IMPT 00000000   6679 
_SVP_RCAMON_D02F                          IMPT 00000000   6683 
_SVP_RCAMON_D100                          IMPT 00000000   6688 
_SVP_RCAMON_D101                          IMPT 00000000   6692 
_SVP_RCAMON_D102                          IMPT 00000000   6696 
_SVP_RCAMON_D103                          IMPT 00000000   6700 
_SVP_RCAMON_D104                          IMPT 00000000   6704 
*** SuperH RISC engine ASSEMBLER V.7.01.02.000 ***    11/14/21 17:24:39                                                  PAGE    60

*** CROSS REFERENCE LIST

NAME                             SECTION  ATTR VALUE             SEQUENCE

_SVP_RCAMON_D105                          IMPT 00000000   6708 
_SVP_RCAMON_D106                          IMPT 00000000   6712 
_SVP_RCAMON_D107                          IMPT 00000000   6716 
_SVP_RCAMON_D108                          IMPT 00000000   6720 
_SVP_RCAMON_D109                          IMPT 00000000   6724 
_SVP_RCAMON_D10A                          IMPT 00000000   6728 
_SVP_RCAMON_D10B                          IMPT 00000000   6732 
_SVP_RCAMON_D10C                          IMPT 00000000   6736 
_SVP_RCAMON_D10D                          IMPT 00000000   6740 
_SVP_RCAMON_D10E                          IMPT 00000000   6744 
_SVP_RCAMON_D10F                          IMPT 00000000   6748 
_SVP_RCAMON_P000                          IMPT 00000000   6494 
_SVP_RCAMON_P001                          IMPT 00000000   6498 
_SVP_RCAMON_P002                          IMPT 00000000   6502 
_SVP_RCAMON_P003                          IMPT 00000000   6506 
_SVP_RCAMON_P004                          IMPT 00000000   6510 
_SVP_RCAMON_P005                          IMPT 00000000   6514 
_SVP_RCAMON_P006                          IMPT 00000000   6518 
_SVP_RCAMON_P007                          IMPT 00000000   6522 
_SVP_RCAMON_P008                          IMPT 00000000   6526 
_SVP_RCAMON_P009                          IMPT 00000000   6530 
_SVP_RCAMON_P00A                          IMPT 00000000   6534 
_SVP_RCAMON_P00B                          IMPT 00000000   6538 
_SVP_RCAMON_P00C                          IMPT 00000000   6542 
_SVP_RCAMON_P00D                          IMPT 00000000   6546 
_SVP_RCAMON_P00E                          IMPT 00000000   6550 
_SVP_RCAMON_P00F                          IMPT 00000000   6554 
_SVP_RCAMON_P010                          IMPT 00000000   6558 
_SVP_RCAMON_P011                          IMPT 00000000   6562 
_SVP_RCAMON_P012                          IMPT 00000000   6566 
_SVP_RCAMON_P013                          IMPT 00000000   6570 
_SVP_RCAMON_P014                          IMPT 00000000   6574 
_SVP_RCAMON_P015                          IMPT 00000000   6578 
_SVP_RCAMON_P016                          IMPT 00000000   6582 
_SVP_RCAMON_P017                          IMPT 00000000   6586 
_SVP_RCAMON_P018                          IMPT 00000000   6590 
_SVP_RCAMON_P019                          IMPT 00000000   6594 
_SVP_RCAMON_P01A                          IMPT 00000000   6598 
_SVP_RCAMON_P01B                          IMPT 00000000   6602 
_SVP_RCAMON_P01C                          IMPT 00000000   6606 
_SVP_RCAMON_P01D                          IMPT 00000000   6610 
_SVP_RCAMON_P01E                          IMPT 00000000   6614 
_SVP_RCAMON_P01F                          IMPT 00000000   6618 
_SVP_RCAMON_P020                          IMPT 00000000   6622 
_SVP_RCAMON_P021                          IMPT 00000000   6626 
_SVP_RCAMON_P022                          IMPT 00000000   6630 
_SVP_RCAMON_P023                          IMPT 00000000   6634 
_SVP_RCAMON_P024                          IMPT 00000000   6638 
_SVP_RCAMON_P025                          IMPT 00000000   6642 
_SVP_RCAMON_P026                          IMPT 00000000   6646 
_SVP_RCAMON_P027                          IMPT 00000000   6650 
_SVP_RCAMON_P028                          IMPT 00000000   6654 
_SVP_RCAMON_P029                          IMPT 00000000   6658 
_SVP_RCAMON_P02A                          IMPT 00000000   6662 
*** SuperH RISC engine ASSEMBLER V.7.01.02.000 ***    11/14/21 17:24:39                                                  PAGE    61

*** CROSS REFERENCE LIST

NAME                             SECTION  ATTR VALUE             SEQUENCE

_SVP_RCAMON_P02B                          IMPT 00000000   6666 
_SVP_RCAMON_P02C                          IMPT 00000000   6670 
_SVP_RCAMON_P02D                          IMPT 00000000   6674 
_SVP_RCAMON_P02E                          IMPT 00000000   6678 
_SVP_RCAMON_P02F                          IMPT 00000000   6682 
_SVP_RCAMON_P100                          IMPT 00000000   6687 
_SVP_RCAMON_P101                          IMPT 00000000   6691 
_SVP_RCAMON_P102                          IMPT 00000000   6695 
_SVP_RCAMON_P103                          IMPT 00000000   6699 
_SVP_RCAMON_P104                          IMPT 00000000   6703 
_SVP_RCAMON_P105                          IMPT 00000000   6707 
_SVP_RCAMON_P106                          IMPT 00000000   6711 
_SVP_RCAMON_P107                          IMPT 00000000   6715 
_SVP_RCAMON_P108                          IMPT 00000000   6719 
_SVP_RCAMON_P109                          IMPT 00000000   6723 
_SVP_RCAMON_P10A                          IMPT 00000000   6727 
_SVP_RCAMON_P10B                          IMPT 00000000   6731 
_SVP_RCAMON_P10C                          IMPT 00000000   6735 
_SVP_RCAMON_P10D                          IMPT 00000000   6739 
_SVP_RCAMON_P10E                          IMPT 00000000   6743 
_SVP_RCAMON_P10F                          IMPT 00000000   6747 
_SVP_RCAMON_POS_TOP                       IMPT 00000000   6493 
_SVP_RCAMON_SA00                          IMPT 00000000   7071 
_SVP_RCAMON_SA01                          IMPT 00000000   7075 
_SVP_RCAMON_SA02                          IMPT 00000000   7079 
_SVP_RCAMON_SA03                          IMPT 00000000   7083 
_SVP_RCAMON_SA04                          IMPT 00000000   7087 
_SVP_RCAMON_SA05                          IMPT 00000000   7091 
_SVP_RCAMON_SA06                          IMPT 00000000   7095 
_SVP_RCAMON_SA07                          IMPT 00000000   7099 
_SVP_RCAMON_SA08                          IMPT 00000000   7103 
_SVP_RCAMON_SA09                          IMPT 00000000   7107 
_SVP_RCAMON_SA10                          IMPT 00000000   7111 
_SVP_RCAMON_SA11                          IMPT 00000000   7115 
_SVP_RCAMON_SA12                          IMPT 00000000   7119 
_SVP_RCAMON_SA13                          IMPT 00000000   7123 
_SVP_RCAMON_SA14                          IMPT 00000000   7127 
_SVP_RCAMON_SA15                          IMPT 00000000   7131 
_SVP_RCAMON_ST00                          IMPT 00000000   7072 
_SVP_RCAMON_ST01                          IMPT 00000000   7076 
_SVP_RCAMON_ST02                          IMPT 00000000   7080 
_SVP_RCAMON_ST03                          IMPT 00000000   7084 
_SVP_RCAMON_ST04                          IMPT 00000000   7088 
_SVP_RCAMON_ST05                          IMPT 00000000   7092 
_SVP_RCAMON_ST06                          IMPT 00000000   7096 
_SVP_RCAMON_ST07                          IMPT 00000000   7100 
_SVP_RCAMON_ST08                          IMPT 00000000   7104 
_SVP_RCAMON_ST09                          IMPT 00000000   7108 
_SVP_RCAMON_ST10                          IMPT 00000000   7112 
_SVP_RCAMON_ST11                          IMPT 00000000   7116 
_SVP_RCAMON_ST12                          IMPT 00000000   7120 
_SVP_RCAMON_ST13                          IMPT 00000000   7124 
_SVP_RCAMON_ST14                          IMPT 00000000   7128 
_SVP_RCAMON_ST15                          IMPT 00000000   7132 
*** SuperH RISC engine ASSEMBLER V.7.01.02.000 ***    11/14/21 17:24:39                                                  PAGE    62

*** CROSS REFERENCE LIST

NAME                             SECTION  ATTR VALUE             SEQUENCE

_SVP_RCAMON_TIM_TOP                       IMPT 00000000   6686 
_SVP_REVDAT_SPD1                          IMPT 00000000   6002 
_SVP_REVDAT_SPD2                          IMPT 00000000   6003 
_SVP_REVDAT_SPD3                          IMPT 00000000   6004 
_SVP_RISE_CMP1                            IMPT 00000000   6448 
_SVP_RISE_CMP2                            IMPT 00000000   6449 
_SVP_RISE_CMP3                            IMPT 00000000   6450 
_SVP_RISE_DLY1                            IMPT 00000000   6451 
_SVP_RISE_DLY2                            IMPT 00000000   6452 
_SVP_RISE_ZWID                            IMPT 00000000   6447 
_SVP_RNADIR_SEL1                          IMPT 00000000   5983 
_SVP_RNADIR_SEL2                          IMPT 00000000   6383 
_SVP_RNAORGMEM_LEG1                       IMPT 00000000   6357 
_SVP_RNAORGMEM_LEG2                       IMPT 00000000   6359 
_SVP_RNAORG_PLS1                          IMPT 00000000   6358 
_SVP_RNAORG_PLS2                          IMPT 00000000   6360 
_SVP_RNAORG_POS1                          IMPT 00000000   5991 
_SVP_RNAORG_SIN1                          IMPT 00000000   6361 
_SVP_RNAORG_SIN2                          IMPT 00000000   6362 
_SVP_RNAPOS_KP01                          IMPT 00000000   6010 
_SVP_RNAPOS_MAXP                          IMPT 00000000   5992 
_SVP_RNAPOS_MINP                          IMPT 00000000   5993 
_SVP_RNAREV_ELNG                          IMPT 00000000   6026 
_SVP_RNASTP_ELNG                          IMPT 00000000   6024 
_SVP_RNA_STLORK                           IMPT 00000000   6050 
_SVP_ROALM1_A26                           IMPT 00000000   7039 
_SVP_ROALM1_A27                           IMPT 00000000   7047 
_SVP_ROALM1_A28                           IMPT 00000000   7055 
_SVP_ROALM2_A26                           IMPT 00000000   7041 
_SVP_ROALM2_A27                           IMPT 00000000   7049 
_SVP_ROALM2_A28                           IMPT 00000000   7057 
_SVP_ROALM3_A26                           IMPT 00000000   7043 
_SVP_ROALM3_A27                           IMPT 00000000   7051 
_SVP_ROALM3_A28                           IMPT 00000000   7059 
_SVP_ROTCAM_OFR                           IMPT 00000000   7145 
_SVP_ROTCAM_ONR                           IMPT 00000000   7144 
_SVP_RPARAM_TOP1                          IMPT 00000000   5978 
_SVP_RUNSAMER_LEN1                        IMPT 00000000   6378 
_SVP_RUNSAMER_LEN2                        IMPT 00000000   6379 
_SVP_RUNSAMER_PLS                         IMPT 00000000   6381 
_SVP_SLIDE_S                              IMPT 00000000   6441 
_SVP_SLID_POS1                            IMPT 00000000   6250 
_SVP_SLID_POS2                            IMPT 00000000   6251 
_SVP_SLID_POS3                            IMPT 00000000   6252 
_SVP_SLPOS_DIR                            IMPT 00000000   7035 
_SVP_SL_TENPOS                            IMPT 00000000   7034 
_SVP_SMPCYC_TIM                           IMPT 00000000   6072 
_SVP_SMPCYC_TIM2                          IMPT 00000000   7137 
_SVP_SMPMAX_CNT                           IMPT 00000000   6070 
_SVP_SMPMAX_CNT2                          IMPT 00000000   7136 
_SVP_SMPSTR_AGL                           IMPT 00000000   6066 
_SVP_SMPSTR_FUK                           IMPT 00000000   6067 
_SVP_SMPSTR_KAJ                           IMPT 00000000   6065 
_SVP_SMPSTR_SEH                           IMPT 00000000   6068 
*** SuperH RISC engine ASSEMBLER V.7.01.02.000 ***    11/14/21 17:24:39                                                  PAGE    63

*** CROSS REFERENCE LIST

NAME                             SECTION  ATTR VALUE             SEQUENCE

_SVP_SMPSTR_SQL                           IMPT 00000000   6069 
_SVP_SMPTRG_CNT                           IMPT 00000000   6071 
_SVP_SMPTRG_CNT1                          IMPT 00000000   6120 
_SVP_SMP_CNT                              IMPT 00000000   6107 
_SVP_SSCURV_TIM1                          IMPT 00000000   6012 
_SVP_STDINC_SPD1                          IMPT 00000000   6001 
_SVP_SYNC_ERR_DEGA                        IMPT 00000000   6409 
_SVP_SYNC_ERR_DEGB                        IMPT 00000000   6410 
_SVP_SYNC_ERR_DEGC                        IMPT 00000000   6411 
_SVP_SYNC_ERR_DEGD                        IMPT 00000000   6412 
_SVP_SYNC_ERR_PGA                         IMPT 00000000   6417 
_SVP_SYNC_ERR_PGB                         IMPT 00000000   6418 
_SVP_SYNC_ERR_PGC                         IMPT 00000000   6419 
_SVP_SYNC_ERR_PGD                         IMPT 00000000   6420 
_SVP_SYNC_ERR_RNAA                        IMPT 00000000   6413 
_SVP_SYNC_ERR_RNAB                        IMPT 00000000   6414 
_SVP_SYNC_ERR_RNAC                        IMPT 00000000   6415 
_SVP_SYNC_ERR_RNAD                        IMPT 00000000   6416 
_SVP_TEPDAT_SPD1                          IMPT 00000000   6005 
_SVP_TEPLAT_DAT1                          IMPT 00000000   6006 
_SVP_TEPLAT_DAT2                          IMPT 00000000   6007 
_SVP_TRDCSR_RNAD                          IMPT 00000000   6119 
_SVP_TRDCSR_RNAU                          IMPT 00000000   6118 
_SVP_TRD_CNT                              IMPT 00000000   6108 
_SVP_UPAREA_DIG0                          IMPT 00000000   6241 
_SVP_UPAREA_DIG1                          IMPT 00000000   6018 
_SVP_UPAREA_INP1                          IMPT 00000000   6013 
_SVP_UPAREA_JUDG                          IMPT 00000000   5994 
_SVP_UPAREA_POS0                          IMPT 00000000   6240 
_SVP_UPAREA_SPD0                          IMPT 00000000   6242 
_SVP_UPAREA_SPD1                          IMPT 00000000   6000 
_SVP_UPAREA_TIM0                          IMPT 00000000   6243 
_SVP_UPDATA_A21                           IMPT 00000000   7028 
_SVP_UPHOLD_DIG                           IMPT 00000000   6053 
_SVP_UPSTOP_A21                           IMPT 00000000   7033 
_SVP_VIB_KJYU_TTL                         IMPT 00000000   6139 
_SVP_VOLST_L                              IMPT 00000000   6440 
_SVP_WTTIM_MAX                            IMPT 00000000   7068 
_SVP_WT_DIG1                              IMPT 00000000   6043 
_SVP_WT_DIG2                              IMPT 00000000   6044 
_SVP_WT_DIG3                              IMPT 00000000   6045 
_SVX_DNM_MAXSPM                           IMPT 00000000   4245 
_SVX_OVER_ERR_DIG                         IMPT 00000000   3531 
_SVX_OVER_JGSTR_DIG                       IMPT 00000000   3532 
_SV_CHG_FLG1                              IMPT 00000000   3318 
_SV_CHG_FLG2                              IMPT 00000000   3319 
_SV_CONST_SUB_PV                          IMPT 00000000   3946 
_SV_DAT_ERR1                              IMPT 00000000   3320 
_SV_OBJ360                                IMPT 00000000   3503 
_SV_POS_CTL_STEP                          IMPT 00000000   2820 
_SV_REAL_PLS                              IMPT 00000000   3947 
_SV_REAL_SUB_PV                           IMPT 00000000   3948 
_SW_DEV_MASK_FLG                          IMPT 00000000   2628 
_SYS_BSAME_TIM                            EQU  000001F4   2010*
*** SuperH RISC engine ASSEMBLER V.7.01.02.000 ***    11/14/21 17:24:39                                                  PAGE    64

*** CROSS REFERENCE LIST

NAME                             SECTION  ATTR VALUE             SEQUENCE

_SYS_SETUP_TIM                            EQU  000007D0   2011*
_SYS_STOPPING_TIM                         EQU  00000032   2012*
_TABLE_ERR_FLG                            IMPT 00000000   2485 
_TBL_ANS_ACCTIM                           IMPT 00000000   4241 
_TBL_ANS_ACC_SEL                          IMPT 00000000   4243 
_TBL_ANS_MAXSPM                           IMPT 00000000   4242 
_TBL_USE_POS0                             IMPT 00000000   4240 
_TECH2_KJYU_DIG                           IMPT 00000000   4508 
_TECH2_KJYU_LNG                           IMPT 00000000   4506 
_TECH2_KJYU_LT1KN                         IMPT 00000000   4499 
_TECH2_KJYU_LT1PLS                        IMPT 00000000   4500 
_TECH2_KJYU_LT1PLS_OFS                    IMPT 00000000   4501 
_TECH2_KJYU_LT2KN                         IMPT 00000000   4502 
_TECH2_KJYU_LT2PLS                        IMPT 00000000   4503 
_TECH2_KJYU_LT2PLS_OFS                    IMPT 00000000   4504 
_TECH2_KJYU_PLS                           IMPT 00000000   4507 
_TECH2_KJYU_PLSX                          IMPT 00000000   4505 
_TECH2_KN_FLG                             IMPT 00000000   4509 
_TECH_USED_F                              IMPT 00000000   4546 
_TECH_WK_DIG1                             IMPT 00000000   4539 
_TECH_WK_DIG2                             IMPT 00000000   4540 
_TECH_WK_DIG3                             IMPT 00000000   4541 
_TECH_WK_DIG4                             IMPT 00000000   4542 
_TECH_WK_PLS1                             IMPT 00000000   4538 
_TEPA_PLS_ZERO_TIM                        IMPT 00000000   4402 
_TEP_ADDCHK_SVPLS                         IMPT 00000000   3804 
_TEP_CHG_SPD1                             IMPT 00000000   3808 
_TEP_CHG_SPD2                             IMPT 00000000   3809 
_TEP_CNTSMP_TIM                           IMPT 00000000   4752 
_TEP_DND_SPD_PLS                          IMPT 00000000   4751 
_TEP_INPLS_FLG                            IMPT 00000000   3799 
_TEP_IN_ADD                               IMPT 00000000   3793 
_TEP_MIN_SPD_FRQ                          IMPT 00000000   3806 
_TEP_MIN_SPD_PLS                          IMPT 00000000   3805 
_TEP_MODE_DRV                             IMPT 00000000   3795 
_TEP_POS_ADD_CNT                          IMPT 00000000   3791 
_TEP_REVPLS_LT_FLG                        IMPT 00000000   4753 
_TEP_STEP_FLG                             IMPT 00000000   3796 
_TEP_STEP_SVSMPTM                         IMPT 00000000   3803 
_TEP_STEP_SVWTTM1                         IMPT 00000000   3802 
_TEP_STEP_WTTM                            IMPT 00000000   3797 
_TIM_1MSEC                                EQU  0000000A   1996* 2010  2011  2012  2017 
_TIM_CNT010MS_DT                          EQU  0000000A   2326*
_TIM_CNT100MS_DT                          EQU  00000064   2327*
_TIM_SEC                                  EQU  00002710   1995*
_TMP_SCI_DEBUG                            IMPT 00000000   5275 
_TRD_CLR_CMD                              IMPT 00000000   5407 
_TRD_DP_MOV_CNT                           IMPT 00000000   5413 
_TRD_DP_MOV_FLG                           IMPT 00000000   5412 
_TRD_EVENT_COD                            IMPT 00000000   5402 
_TRD_EVENT_LATCH                          IMPT 00000000   5404 
_TRD_LATE_PV                              IMPT 00000000   5409 
_TRD_LATE_SV                              IMPT 00000000   5408 
_TRD_POINT_END                            IMPT 00000000   5406 
*** SuperH RISC engine ASSEMBLER V.7.01.02.000 ***    11/14/21 17:24:39                                                  PAGE    65

*** CROSS REFERENCE LIST

NAME                             SECTION  ATTR VALUE             SEQUENCE

_TRD_POINT_EVENT                          IMPT 00000000   5405 
_TRD_SMP_DAT1                             IMPT 00000000   5393 
_TRD_SMP_DAT2                             IMPT 00000000   5394 
_TRD_SMP_DAT3                             IMPT 00000000   5395 
_TRD_SMP_DAT4                             IMPT 00000000   5396 
_TRD_SMP_DAT5                             IMPT 00000000   5397 
_TRD_SMP_DAT6                             IMPT 00000000   5398 
_TRD_SMP_DAT7                             IMPT 00000000   5399 
_TRD_SMP_DAT8                             IMPT 00000000   5400 
_TRD_SMP_FLG                              IMPT 00000000   5410 
_TRD_SMP_POINT                            IMPT 00000000   5401 
_UP360_CHK_LIST                           IMPT 00000000   4041 
_UP360_JGDIG                              EQU  00000028   2038*
_UPDN_DIRJG_DIG                           EQU  00000708   2004*
_UPHOLD_SPDERR_OK_FLG                     IMPT 00000000   5225 
_UPLIMIT_START_F                          IMPT 00000000   4707 
_UPLIMIT_SV_SPD                           IMPT 00000000   4706 
_UPMAK2_MOD_USE_SW                        IMPT 00000000   4667 
_UPMSK2_DRVSEL                            IMPT 00000000   4669 
_UPMSK2_MATH                              IMPT 00000000   4668 
_UPMSK2_MOD                               IMPT 00000000   4665 
_UPMSK2_MOD_IN_SW                         IMPT 00000000   4666 
_UPMSK2_MOD_IN_SWOLD                      IMPT 00000000   4670 
_UP_HOLD_DIG                              IMPT 00000000   2625 
_UP_HOLD_FLG                              IMPT 00000000   2626 
_UP_HOLD_STEP                             IMPT 00000000   2622 
_UP_HOLD_STEP1                            IMPT 00000000   2623 
_UP_HOLD_STEP2                            IMPT 00000000   2624 
_VALV_OFF_DIG_CLANK                       IMPT 00000000   3479 
_VALV_ON_FLG                              IMPT 00000000   4053 
_VIB_DLY_TIM                              IMPT 00000000   4195 
_VIB_GET_SET_TIM                          IMPT 00000000   4192 
_VIB_PV_UP_TIM                            IMPT 00000000   4194 
_VIB_STEP_COM                             IMPT 00000000   4191 
_VIB_STEP_FLG                             IMPT 00000000   4190 
_VIB_USE_SET_TIM                          IMPT 00000000   4193 
_VON1_OF                                  IMPT 00000000   7220 
_VON1_ON                                  IMPT 00000000   7219 
_VON2_OF                                  IMPT 00000000   7222 
_VON2_ON                                  IMPT 00000000   7221 
_VON3_OF                                  IMPT 00000000   7224 
_VON3_ON                                  IMPT 00000000   7223 
_VUPCHECK_EQU                             EQU  11AB3739     98*
_VUP_DATA_ADR_OP1                         IMPT 00000000   5955 
_VUP_HSAREA_A_TO_B                        IMPT 00000000   5934 
_VUP_HSAREA_B_TO_A                        IMPT 00000000   5927 
_W1CNT                                    EQU  00000008   2351*
_W1DIC                                    EQU  00000020   2353*
_W1DUP                                    EQU  00000040   2354*
_W1END                                    EQU  00000080   2355*
_W1INC                                    EQU  00000002   2349*
_W1LNC                                    EQU  00000400   2359*
_W1LNO                                    EQU  00000800   2360*
_W1OFF                                    EQU  00000001   2348*
*** SuperH RISC engine ASSEMBLER V.7.01.02.000 ***    11/14/21 17:24:39                                                  PAGE    66

*** CROSS REFERENCE LIST

NAME                             SECTION  ATTR VALUE             SEQUENCE

_W1OPT                                    EQU  00000010   2352*
_W1REV                                    EQU  00004000   2367*
_W1RNC                                    EQU  00000100   2356*
_W1RNO                                    EQU  00000200   2357*
_W1RST                                    EQU  00008000   2368*
_W1SGL                                    EQU  00000004   2350*
_W1SNC                                    EQU  00001000   2365*
_W1SNO                                    EQU  00002000   2366*
_W2LS1                                    EQU  00000004   2370*
_W2LS2                                    EQU  00000008   2371*
_W2SUP                                    EQU  00000080   2375*
_W2WT1                                    EQU  00000010   2372*
_W2WT2                                    EQU  00000020   2373*
_W2WT3                                    EQU  00000040   2374*
_W4_PVP_KAJLIV_TTL                        IMPT 00000000   5075 
_W4_PV_CTL_KJYU_TTL_P                     IMPT 00000000   4813 
_W4_PV_FLT_KJYU_TTL                       IMPT 00000000   4811 
_W4_PV_FLT_KJYU_TTL_P                     IMPT 00000000   4812 
_WDT_A_TO_B_ANS                           IMPT 00000000   5467 
_WDT_A_TO_B_REQ                           IMPT 00000000   5466 
_WDT_B_TO_A_ANS                           IMPT 00000000   5469 
_WDT_B_TO_A_REQ                           IMPT 00000000   5468 
_WFSYS_MAX_STEP_SEL                       IMPT 00000000   3511 
_WFSYS_OPT_CNT_SEL                        IMPT 00000000   3510 
_WKSQCB200                                EQU  00000000   2104*
_WKSQCB201                                EQU  00000002   2105*
_WKSQCB202                                EQU  00000004   2106*
_WKSQCB203                                EQU  00000006   2107*
_WKSQCB204                                EQU  00000008   2108*
_WKSQCB205                                EQU  0000000A   2109*
_WKSQCB206                                EQU  0000000C   2110*
_WKSQCB207                                EQU  0000000E   2111*
_WKSQCB208                                EQU  00000010   2112*
_WKSQCB209                                EQU  00000012   2113*
_WKSQCB210                                EQU  00000014   2114*
_WKSQCB211                                EQU  00000016   2115*
_WKSQCB212                                EQU  00000018   2116*
_WKSQCB213                                EQU  0000001A   2117*
_WKSQCB214                                EQU  0000001C   2118*
_WKSQCB215                                EQU  0000001E   2119*
_WKSQCB216                                EQU  00000020   2120*
_WKSQCB217                                EQU  00000022   2121*
_WKSQCB218                                EQU  00000024   2122*
_WKSQCB219                                EQU  00000026   2123*
_WKSQCB220                                EQU  00000028   2124*
_WKSQCB221                                EQU  0000002A   2125*
_WKSQCB222                                EQU  0000002C   2126*
_WKSQCB223                                EQU  0000002E   2127*
_WKSQCB224                                EQU  00000030   2128*
_WKSQCB225                                EQU  00000032   2129*
_WKSQCB226                                EQU  00000034   2130*
_WKSQCB227                                EQU  00000036   2131*
_WKSQCB228                                EQU  00000038   2132*
_WKSQCB229                                EQU  0000003A   2133*
*** SuperH RISC engine ASSEMBLER V.7.01.02.000 ***    11/14/21 17:24:39                                                  PAGE    67

*** CROSS REFERENCE LIST

NAME                             SECTION  ATTR VALUE             SEQUENCE

_WKSQCB230                                EQU  0000003C   2134*
_WKSQCB231                                EQU  0000003E   2135*
_WKSQCB232                                EQU  00000040   2136*
_WKSQCB233                                EQU  00000042   2137*
_WKSQCB234                                EQU  00000044   2138*
_WKSQCB235                                EQU  00000046   2139*
_WKSQCB236                                EQU  00000048   2140*
_WKSQCB237                                EQU  0000004A   2141*
_WKSQCB238                                EQU  0000004C   2142*
_WKSQCB239                                EQU  0000004E   2143*
_WKSQCB240                                EQU  00000050   2144*
_WKSQCB241                                EQU  00000052   2145*
_WKSQCB242                                EQU  00000054   2146*
_WKSQCB243                                EQU  00000056   2147*
_WKSQCB244                                EQU  00000058   2148*
_WKSQCB245                                EQU  0000005A   2149*
_WKSQCB246                                EQU  0000005C   2150*
_WKSQCB247                                EQU  0000005E   2151*
_WKSQCB248                                EQU  00000060   2152*
_WKSQCB249                                EQU  00000062   2153*
_WKSQCB250                                EQU  00000064   2154*
_WKSQCB251                                EQU  00000066   2155*
_WKSQCB252                                EQU  00000068   2156*
_WKSQCB253                                EQU  0000006A   2157*
_WKSQCB254                                EQU  0000006C   2158*
_WKSQCB255                                EQU  0000006E   2159*
_WKSQCB256                                EQU  00000070   2160*
_WKSQCB257                                EQU  00000072   2161*
_WKSQCB258                                EQU  00000074   2162*
_WKSQCB259                                EQU  00000076   2163*
_WKSQCB260                                EQU  00000078   2164*
_WKSQCB261                                EQU  0000007A   2165*
_WKSQCB262                                EQU  0000007C   2166*
_WKSQCB263                                EQU  0000007E   2167*
_WKSQCB264                                EQU  00000080   2168*
_WKSQCB265                                EQU  00000082   2169*
_WKSQCB266                                EQU  00000084   2170*
_WKSQCB267                                EQU  00000086   2171*
_WKSQCB268                                EQU  00000088   2172*
_WKSQCB269                                EQU  0000008A   2173*
_WK_ERR_INFO_CPU_TOP                      IMPT 00000000   3522 
_WK_SIN_RCAMOF_SW1                        IMPT 00000000   3300 
_WK_SIN_RCAMON_SW1                        IMPT 00000000   3299 
_WK_SIN_RCAM_OF_DIG                       IMPT 00000000   3285 
_WK_SIN_RCAM_OF_KOUTEI                    IMPT 00000000   3292 
_WK_SIN_RCAM_OF_SPD                       IMPT 00000000   3293 
_WK_SIN_RCAM_ON_DIG                       IMPT 00000000   3284 
_WK_SIN_RCAM_ON_KOUTEI                    IMPT 00000000   3290 
_WK_SIN_RCAM_ON_SPD                       IMPT 00000000   3291 
_WK_SIN_RCAM_SQOF1                        IMPT 00000000   3297 
_WK_SIN_RCAM_SQON1                        IMPT 00000000   3296 
_WOANT                                    EQU  00000010   2337*
_WOATO                                    EQU  00000040   2339*
_WOFCY                                    EQU  00000080   2340*
*** SuperH RISC engine ASSEMBLER V.7.01.02.000 ***    11/14/21 17:24:39                                                  PAGE    68

*** CROSS REFERENCE LIST

NAME                             SECTION  ATTR VALUE             SEQUENCE

_WOQST                                    EQU  00000001   2333*
_WORCY                                    EQU  00000100   2341*
_WORDY                                    EQU  00000020   2338*
_WORST                                    EQU  00000200   2342*
_WOVN1                                    EQU  00000002   2334*
_WOVN2                                    EQU  00000004   2335*
_WOVN3                                    EQU  00000008   2336*
_WPARX_BRKTST_DNDLMT                      IMPT 00000000   4588 
_WPARX_BRKTST_ORGDEGX                     IMPT 00000000   4396 
_WPARX_BRKTST_ORGPLS                      IMPT 00000000   4397 
_WPARX_BRKTST_STPDEGX                     IMPT 00000000   4146 
_WPARX_BRKTST_STPLNG                      IMPT 00000000   4148 
_WPARX_BRKTST_STPPLS                      IMPT 00000000   4147 
_WPARX_COP_DNDRV1_SDG1                    IMPT 00000000   4113 
_WPARX_COP_DNDRV1_SDG2                    IMPT 00000000   4114 
_WPARX_COP_DNDRV1_ZDG1                    IMPT 00000000   4111 
_WPARX_COP_DNDRV1_ZDG2                    IMPT 00000000   4112 
_WPARX_COP_DNDRV2_SDG1                    IMPT 00000000   4117 
_WPARX_COP_DNDRV2_SDG2                    IMPT 00000000   4118 
_WPARX_COP_DNDRV2_ZDG1                    IMPT 00000000   4115 
_WPARX_COP_DNDRV2_ZDG2                    IMPT 00000000   4116 
_WPARX_ELSE_ORGDEGX                       IMPT 00000000   4689 
_WPARX_ELSE_ORGPLS                        IMPT 00000000   4688 
_WPAR_360STP_HAB                          IMPT 00000000   4038 
_WPAR_ACCTYP_SEL                          IMPT 00000000   3964 
_WPAR_ACC_MATHED                          IMPT 00000000   4208 
_WPAR_ANAIN_SEL                           IMPT 00000000   3962 
_WPAR_BKTMCL_ACCCK                        IMPT 00000000   4635 
_WPAR_BRK1_ACCTM                          IMPT 00000000   3393 
_WPAR_BRK1_DLYTM                          IMPT 00000000   3392 
_WPAR_BRK2_ACCTM                          IMPT 00000000   3394 
_WPAR_BRKTCHK_SPD                         IMPT 00000000   4136 
_WPAR_BRKTOUT_SPD                         IMPT 00000000   4135 
_WPAR_BRKTST_ORGDEG                       IMPT 00000000   4395 
_WPAR_BRK_SEL_SPD                         IMPT 00000000   3391 
_WPAR_CMP_ERR_TIM1                        IMPT 00000000   4289 
_WPAR_CMP_ERR_TIM2                        IMPT 00000000   4290 
_WPAR_COP_CNTROT_SDG1                     IMPT 00000000   3335 
_WPAR_COP_CNTROT_SDG2                     IMPT 00000000   3336 
_WPAR_COP_CNTROT_ZDG1                     IMPT 00000000   3333 
_WPAR_COP_CNTROT_ZDG2                     IMPT 00000000   3334 
_WPAR_COP_DISP_SPM1                       IMPT 00000000   4300 
_WPAR_COP_REVRSE_SDG1                     IMPT 00000000   3340 
_WPAR_COP_REVRSE_SDG2                     IMPT 00000000   3341 
_WPAR_COP_REVRSE_ZDG1                     IMPT 00000000   3338 
_WPAR_COP_REVRSE_ZDG2                     IMPT 00000000   3339 
_WPAR_COP_SDG1                            IMPT 00000000   3345 
_WPAR_COP_SDG2                            IMPT 00000000   3346 
_WPAR_COP_ZDG1                            IMPT 00000000   3343 
_WPAR_COP_ZDG2                            IMPT 00000000   3344 
_WPAR_CUPCHK_SEL                          IMPT 00000000   4037 
_WPAR_DAIHAI_SEL                          IMPT 00000000   4354 
_WPAR_DRVHOS_AVLCNT                       IMPT 00000000   2953 
_WPAR_DRVHOS_DIG1                         IMPT 00000000   2950 
*** SuperH RISC engine ASSEMBLER V.7.01.02.000 ***    11/14/21 17:24:39                                                  PAGE    69

*** CROSS REFERENCE LIST

NAME                             SECTION  ATTR VALUE             SEQUENCE

_WPAR_DRVHOS_DIG2                         IMPT 00000000   2951 
_WPAR_DRVHOS_NO_USE                       IMPT 00000000   2954 
_WPAR_DRVHOS_SEL1                         IMPT 00000000   2949 
_WPAR_DRVHOS_WAITCNT                      IMPT 00000000   2952 
_WPAR_ILNGERR_DIG                         IMPT 00000000   3397 
_WPAR_ILNGERR_LNG                         IMPT 00000000   3396 
_WPAR_INCOVER_LNG                         IMPT 00000000   3362 
_WPAR_INCOVER_LNG1                        IMPT 00000000   3363 
_WPAR_INCOVER_LNG2                        IMPT 00000000   3364 
_WPAR_INCREV_EDYTM                        IMPT 00000000   3365 
_WPAR_INCSTP_EDYTM                        IMPT 00000000   3369 
_WPAR_INCSTP_EDYTM1                       IMPT 00000000   3367 
_WPAR_INCSTP_EDYTM2                       IMPT 00000000   3368 
_WPAR_KJYU_STOPTBL                        IMPT 00000000   4183 
_WPAR_LSA_FILTIM                          IMPT 00000000   3731 
_WPAR_MCNRNA_SEL                          IMPT 00000000   4036 
_WPAR_ORGDRV_MD2                          IMPT 00000000   4319 
_WPAR_ORGMOD2_TIM                         IMPT 00000000   3816 
_WPAR_ORGPOS_LNG1                         IMPT 00000000   4379 
_WPAR_OVRLIDE_GMN                         IMPT 00000000   3865 
_WPAR_RNA_SFTY_LNG1                       IMPT 00000000   3371 
_WPAR_SFYOPT_USEL                         IMPT 00000000   4137 
_WPAR_SLDALM_LNG                          IMPT 00000000   4361 
_WPAR_SLDALM_TIM                          IMPT 00000000   4362 
_WPAR_STOPING_TIM                         IMPT 00000000   4206 
_WPAR_ZERO_SPD                            IMPT 00000000   3390 
_WPVX_KAJLIV_TTL                          IMPT 00000000   4186 
_WPV_ABS_AD_DATA                          IMPT 00000000   3970 
_WPV_AD_DATA                              IMPT 00000000   3969 
_WPV_CB_STS_DAT_TOP                       IMPT 00000000   5390 
_WPV_CB_STS_POINT                         IMPT 00000000   5415 
_WPV_CB_TRD_DAT_TOP                       IMPT 00000000   5391 
_WPV_CB_TRD_POINT                         IMPT 00000000   5416 
_WPV_POWER_MONI                           IMPT 00000000   3971 
_WPV_POWER_ON_CNT                         IMPT 00000000   5417 
_WPV_SCAN_MAX01                           IMPT 00000000   4771 
_WPV_SCAN_MAX10                           IMPT 00000000   4770 
_WPV_SCAN_TIM_AVL                         IMPT 00000000   4767 
_WPV_SCAN_TIM_REAL                        IMPT 00000000   4766 
_WR_CB_SYS_CHKCOD1                        EQU  00001234   2215*
_WR_CB_SYS_CHKCOD2                        EQU  00004321   2216*
_WR_CB_SYS_CHKCOD3                        EQU  00005678   2217*
_WR_CB_SYS_CHKCOD4                        EQU  00008765   2218*
_WSVXY_CLNK_UP_POS                        IMPT 00000000   4103 
_WSVXY_CLNK_UP_POS_DN                     IMPT 00000000   4105 
_WSVXY_CLNK_UP_POS_UP                     IMPT 00000000   4104 
_WSVX_CLNK_UP_POS                         IMPT 00000000   2697 
_WSVX_CLNK_UP_POS_DN                      IMPT 00000000   2699 
_WSVX_CLNK_UP_POS_UP                      IMPT 00000000   2698 
_WXPV_ERR_DISP                            IMPT 00000000   3641 
_W_PARAM_TOP                              IMPT 00000000   4554 
_X_PROTCOL_TMP_ANS                        IMPT 00000000   5272 
_X_PROTCOL_TMP_EVENTCNT                   IMPT 00000000   5267 
_X_PROTCOL_TMP_FLG                        IMPT 00000000   5260 
*** SuperH RISC engine ASSEMBLER V.7.01.02.000 ***    11/14/21 17:24:39                                                  PAGE    70

*** CROSS REFERENCE LIST

NAME                             SECTION  ATTR VALUE             SEQUENCE

_X_PROTCOL_TMP_LNG_PVTM                   IMPT 00000000   5265 
_X_PROTCOL_TMP_LNG_SVTM                   IMPT 00000000   5264 
_X_PROTCOL_TMP_PV1                        IMPT 00000000   5273 
_X_PROTCOL_TMP_PV2                        IMPT 00000000   5261 
_X_PROTCOL_TMP_PVLNG                      IMPT 00000000   5263 
_X_PROTCOL_TMP_REQ                        IMPT 00000000   5271 
_X_PROTCOL_TMP_SVLNG                      IMPT 00000000   5262 
_X_PROTCOL_TMP_TIME_PV                    IMPT 00000000   5268 
_X_R2_MUL_R1_DIV_R4                       IMPT 00000000   7382  7568  7654  7661  7772  7866  7874  7962 
_ZERO_INCENC                              EQU  00000000   2047*
_ZERO_INCHEN                              EQU  00000000   2046*
_ZERO_INCREV                              EQU  00000000   2051*
_ZERO_INCRNA                              EQU  00000001   2048*
_ZERO_INCSTP                              EQU  00000000   2049*
_ZERO_RNAREV                              EQU  00000001   2052*
_ZERO_RNASTP                              EQU  00000001   2050*
_cbsys_tbl_err                            IMPT 00000000   4228 
_di1_cb_ctl1                              IMPT 00000000   2490 
_di1_cb_ctl1_dt                           IMPT 00000000   2498 
_di1_cb_ctl1_of                           IMPT 00000000   2500 
_di1_cb_ctl1_on                           IMPT 00000000   2499 
_di2_cb_ctl2                              IMPT 00000000   2491 
_di2_cb_ctl2_dt                           IMPT 00000000   2502 
_di2_cb_ctl2_of                           IMPT 00000000   2504 
_di2_cb_ctl2_on                           IMPT 00000000   2503 
_di3_cb_inp1                              IMPT 00000000   2492 
_di3_cb_inp1_dt                           IMPT 00000000   2496 
_di4_cb_inp2                              IMPT 00000000   2493 
_dq1_cb_out1                              IMPT 00000000   2494 
_emg_err_flg                              IMPT 00000000   2574 
_emg_lev_flg                              IMPT 00000000   2573 
_exq_err_flg                              IMPT 00000000   2577 
_exq_lev_flg                              IMPT 00000000   2575 
_pass_err_flg1                            IMPT 00000000   2571 
_pass_err_flg2                            IMPT 00000000   2572 
_reset_dly_tim                            IMPT 00000000   2595 
_reset_flg                                IMPT 00000000   2594 
*** SuperH RISC engine ASSEMBLER V.7.01.02.000 ***    11/14/21 17:24:39                                                  PAGE    71

*** SECTION DATA LIST

SECTION                          ATTRIBUTE    SIZE             START

P                                REL-CODE    000000284        
