*** SuperH RISC engine ASSEMBLER V.7.01.02.000 ***    11/14/21 17:24:11                                                  PAGE     1
PROGRAM NAME =

    1                               1     ;       **********************************************************************************
                                          ***
    2                               2     ;       *****                                                                           **
                                          ***
    3                               3     ;       *****   フラッシュＲＯＭインターフェース                                        **
                                          ***
    4                               4     ;       *****                                                                           **
                                          ***
    5                               5     ;       *****                                                                           **
                                          ***
    6                               6     ;       **********************************************************************************
                                          ***
 4776                              22     
 4777                              23     
 4778          0000045A            24     _EPROM_CODE     .EQU    1114
 4779          00000395            25     _NON_SUM_CODE   .EQU    0917
 4780                              26     
 4781                              27     
 4782 00000000                     28             .SECTION        PvupsciROM,CODE,ALIGN=4
 4783                              29     
 4784                              30             .export         _ASM_VUP_MAIN;
 4785 00000000                     31     _ASM_VUP_MAIN:
 4786                              32             SUB_START
 4787 00000000 4F22                   M           STS.L   PR,@-R15                ;[必要]
 4788                                 M   ;;;;;;; ADD     #-4,R15                 ;[不要?]
 4789                              33             PUSH_ALL
 4790                                 M           PUSH_REG1       R0      ;
 4791 00000002 2F06                   M           MOV.L   R0,@-R15                ;PUSH=SP-4
 4792                                 M                                           ;REG=>[SP]
 4793                                 M                                           ;"-4" FF,FF,FF,FC
 4794                                 M           PUSH_REG1       R1      ;
 4795 00000004 2F16                   M           MOV.L   R1,@-R15                ;PUSH=SP-4
 4796                                 M                                           ;REG=>[SP]
 4797                                 M                                           ;"-4" FF,FF,FF,FC
 4798                                 M           PUSH_REG1       R2      ;
 4799 00000006 2F26                   M           MOV.L   R2,@-R15                ;PUSH=SP-4
 4800                                 M                                           ;REG=>[SP]
 4801                                 M                                           ;"-4" FF,FF,FF,FC
 4802                                 M           PUSH_REG1       R3      ;
 4803 00000008 2F36                   M           MOV.L   R3,@-R15                ;PUSH=SP-4
 4804                                 M                                           ;REG=>[SP]
 4805                                 M                                           ;"-4" FF,FF,FF,FC
 4806                                 M           PUSH_REG1       R4      ;
 4807 0000000A 2F46                   M           MOV.L   R4,@-R15                ;PUSH=SP-4
 4808                                 M                                           ;REG=>[SP]
 4809                                 M                                           ;"-4" FF,FF,FF,FC
 4810                                 M           PUSH_REG1       R5      ;
 4811 0000000C 2F56                   M           MOV.L   R5,@-R15                ;PUSH=SP-4
 4812                                 M                                           ;REG=>[SP]
 4813                                 M                                           ;"-4" FF,FF,FF,FC
 4814                                 M           PUSH_REG1       R6      ;
 4815 0000000E 2F66                   M           MOV.L   R6,@-R15                ;PUSH=SP-4
 4816                                 M                                           ;REG=>[SP]
 4817                                 M                                           ;"-4" FF,FF,FF,FC
 4818                                 M           PUSH_REG1       R7      ;
 4819 00000010 2F76                   M           MOV.L   R7,@-R15                ;PUSH=SP-4
 4820                                 M                                           ;REG=>[SP]
*** SuperH RISC engine ASSEMBLER V.7.01.02.000 ***    11/14/21 17:24:11                                                  PAGE     2
PROGRAM NAME =

 4821                                 M                                           ;"-4" FF,FF,FF,FC
 4822                                 M           PUSH_REG1       R8      ;
 4823 00000012 2F86                   M           MOV.L   R8,@-R15                ;PUSH=SP-4
 4824                                 M                                           ;REG=>[SP]
 4825                                 M                                           ;"-4" FF,FF,FF,FC
 4826                                 M           PUSH_REG1       R9      ;
 4827 00000014 2F96                   M           MOV.L   R9,@-R15                ;PUSH=SP-4
 4828                                 M                                           ;REG=>[SP]
 4829                                 M                                           ;"-4" FF,FF,FF,FC
 4830                                 M           PUSH_REG1       R10     ;
 4831 00000016 2FA6                   M           MOV.L   R10,@-R15               ;PUSH=SP-4
 4832                                 M                                           ;REG=>[SP]
 4833                                 M                                           ;"-4" FF,FF,FF,FC
 4834                                 M           PUSH_REG1       R11     ;
 4835 00000018 2FB6                   M           MOV.L   R11,@-R15               ;PUSH=SP-4
 4836                                 M                                           ;REG=>[SP]
 4837                                 M                                           ;"-4" FF,FF,FF,FC
 4838                                 M           PUSH_REG1       R12     ;
 4839 0000001A 2FC6                   M           MOV.L   R12,@-R15               ;PUSH=SP-4
 4840                                 M                                           ;REG=>[SP]
 4841                                 M                                           ;"-4" FF,FF,FF,FC
 4842                                 M           PUSH_REG1       R13     ;
 4843 0000001C 2FD6                   M           MOV.L   R13,@-R15               ;PUSH=SP-4
 4844                                 M                                           ;REG=>[SP]
 4845                                 M                                           ;"-4" FF,FF,FF,FC
 4846                                 M           PUSH_REG1       R14     ;
 4847 0000001E 2FE6                   M           MOV.L   R14,@-R15               ;PUSH=SP-4
 4848                                 M                                           ;REG=>[SP]
 4849                                 M                                           ;"-4" FF,FF,FF,FC
 4850                                 M           PUSH_MACHL              ;
 4851 00000020 4F02                   M           STS.L   MACH,@-R15
 4852 00000022 4F12                   M           STS.L   MACL,@-R15
 4853                                 M           PUSH_SYS_REG    GBR     ;
 4854 00000024 4F13                   M           STC.L   GBR,@-R15
 4855                                 M           .AIF    3 EQ 3
 4856                                             .AELSE
 4857                                             PUSH_FPU_ALL            ;2001-07-08
 4858                                             .AENDI
 4859                              34     
 4860 00000026                     35     _ASM_VUP_M000:
 4861                              36             _WDT_CLR                                        ; R0,R10 USED
 4862                                 M           PUSH_REG1 R0
 4863 00000026 2F06                   M           MOV.L   R0,@-R15                ;PUSH=SP-4
 4864                                 M                                           ;REG=>[SP]
 4865                                 M                                           ;"-4" FF,FF,FF,FC
 4866                                 M           PUSH_REG1 R10
 4867 00000028 2FA6                   M           MOV.L   R10,@-R15               ;PUSH=SP-4
 4868                                 M                                           ;REG=>[SP]
 4869                                 M                                           ;"-4" FF,FF,FF,FC
 4870                                 M           PUSH_REG1 R14
 4871 0000002A 2FE6                   M           MOV.L   R14,@-R15               ;PUSH=SP-4
 4872                                 M                                           ;REG=>[SP]
 4873                                 M                                           ;"-4" FF,FF,FF,FC
 4874                                 M   
 4875 0000002C DA0E                   M           MOV.L   #_PJDR,R10                              ;?????????今は不要2015-01-05ｺﾒﾝﾄ
 4876 0000002E 60A0                   M           MOV.B   @R10,R0
 4877 00000030 CB10                   M           OR      #BIT4,R0
*** SuperH RISC engine ASSEMBLER V.7.01.02.000 ***    11/14/21 17:24:11                                                  PAGE     3
PROGRAM NAME =

 4878 00000032 2A00                   M           MOV.B   R0,@R10
 4879 00000034 C9EF                   M           AND     #NBIT4,R0
 4880 00000036 2A00                   M           MOV.B   R0,@R10
 4881                                 M   
 4882                                 M           ;====== 2006-10-19 SAITO 追加　WDTﾎﾟｰﾄ変更 ======
 4883 00000038 DA0C                   M           MOV.L   #_IOGA2_CTRL_DAT1+_IOGA_P5,R10          ;
 4884 0000003A 60A1                   M           MOV.W   @R10,R0                                 ;
 4885 0000003C 9E10                   M           MOV.W   #BIT0,R14                               ;
 4886 0000003E 20EB                   M           OR      R14,R0                                  ;
 4887 00000040 2A01                   M           MOV.W   R0,@R10                                 ; WORK
 4888                                 M   
 4889                                 M   ;;      MOV.L   #_IOGA2_CTRL_DAT1+_IOGA_P5,R10  ; WORK ADDRESS
 4890                                 M   ;;      MOV.W   @R10,R0                                 ;
 4891 00000042 9E0E                   M           MOV.W   #_IO2B_P5EX,R14                         ;
 4892 00000044 20EA                   M           XOR     R14,R0                                  ;
 4893 00000046 DA0A                   M           MOV.L   #_dio_top2+_IOGA_PDR5,R10               ; IOGA PF ADDRESS
 4894 00000048 2A01                   M           MOV.W   R0,@R10                                 ; 実出力SET
 4895                                 M   
 4896 0000004A DA08                   M           MOV.L   #_IOGA2_CTRL_DAT1+_IOGA_P5,R10          ;
 4897 0000004C 60A1                   M           MOV.W   @R10,R0                                 ;
 4898 0000004E 9E09                   M           MOV.W   #NBIT0,R14                              ;
 4899 00000050 20E9                   M           AND     R14,R0                                  ;
 4900 00000052 2A01                   M           MOV.W   R0,@R10                                 ; WORK
 4901                                 M   
 4902                                 M   ;;      MOV.L   #_IOGA2_CTRL_DAT1+_IOGA_P5,R10  ; WORK ADDRESS
 4903                                 M   ;;      MOV.W   @R10,R0                                 ;
 4904 00000054 9E05                   M           MOV.W   #_IO2B_P5EX,R14                         ;
 4905 00000056 20EA                   M           XOR     R14,R0                                  ;
 4906 00000058 DA05                   M           MOV.L   #_dio_top2+_IOGA_PDR5,R10               ; IOGA PF ADDRESS
 4907 0000005A 2A01                   M           MOV.W   R0,@R10                                 ; 実出力SET
 4908                                 M   
 4909                                 M           M_BRA   AAA00000
 4910 0000005C A00A                   M           BRA     AAA00000
 4911 0000005E 0009                   M           NOP
 4912                                 M   ***** BEGIN-POOL *****
 4913 00000060 0001                   M   DATA FOR SOURCE-LINE 36
 4914 00000062 0000                   M   DATA FOR SOURCE-LINE 36,36
 4915 00000064 00FE                   M   DATA FOR SOURCE-LINE 36
 4916 00000066 0000                   M   ALIGNMENT CODE
 4917 00000068 00000000               M   DATA FOR SOURCE-LINE 36
 4918 0000006C 00000000               M   DATA FOR SOURCE-LINE 36,36
 4919 00000070 00000000               M   DATA FOR SOURCE-LINE 36,36
 4920                                 M   ***** END-POOL *****
 4921 00000074                        M   AAA00000:
 4922                                 M           POP_REG1 R14
 4923                                 M                                   ; RE"+4" 00,00,00,04
 4924 00000074 6EF6                   M           MOV.L   @R15+,R14        ;
 4925                                 M           POP_REG1 R10
 4926                                 M                                   ; RE"+4" 00,00,00,04
 4927 00000076 6AF6                   M           MOV.L   @R15+,R10        ;
 4928                                 M           POP_REG1 R0
 4929                                 M                                   ; RE"+4" 00,00,00,04
 4930 00000078 60F6                   M           MOV.L   @R15+,R0        ;
 4931                              37     
 4932                              38             FAR_JSR #_VUP_MAIN,R0
 4933 0000007A D00E                   M           MOV.L   #_VUP_MAIN,R0           ;ﾃｰﾌﾞﾙｱﾄﾞﾚｽの内容をREGへ
 4934 0000007C 400B                   M           JSR     @R0                     ;
*** SuperH RISC engine ASSEMBLER V.7.01.02.000 ***    11/14/21 17:24:11                                                  PAGE     4
PROGRAM NAME =

 4935 0000007E 0009                   M           NOP                                     ;
 4936                              39     
 4937 00000080 D10D                40             MOV.L   #_VUP_WKRAM+VUP_START,R1
 4938 00000082 6011                41             MOV.W   @R1,R0                                  ;
 4939 00000084 2008                42             TST     R0,R0                                   ;
 4940 00000086 8BCE                43             BF      _ASM_VUP_M000                           ;
 4941                              44     
 4942                              45             POP_ALL
 4943                                 M           .AIF    3 EQ 3
 4944                                             .AELSE
 4945                                             POP_FPU_ALL             ;2001-07-08
 4946                                             .AENDI
 4947                                 M           POP_SYS_REG     GBR     ;
 4948 00000088 4F17                   M           LDC.L   @R15+,GBR
 4949                                 M           POP_MACHL               ;
 4950 0000008A 4F16                   M           LDS.L   @R15+,MACL
 4951 0000008C 4F06                   M           LDS.L   @R15+,MACH
 4952                                 M           POP_REG1        R14     ;
 4953                                 M                                   ; RE"+4" 00,00,00,04
 4954 0000008E 6EF6                   M           MOV.L   @R15+,R14        ;
 4955                                 M           POP_REG1        R13     ;
 4956                                 M                                   ; RE"+4" 00,00,00,04
 4957 00000090 6DF6                   M           MOV.L   @R15+,R13        ;
 4958                                 M           POP_REG1        R12     ;
 4959                                 M                                   ; RE"+4" 00,00,00,04
 4960 00000092 6CF6                   M           MOV.L   @R15+,R12        ;
 4961                                 M           POP_REG1        R11     ;
 4962                                 M                                   ; RE"+4" 00,00,00,04
 4963 00000094 6BF6                   M           MOV.L   @R15+,R11        ;
 4964                                 M           POP_REG1        R10     ;
 4965                                 M                                   ; RE"+4" 00,00,00,04
 4966 00000096 6AF6                   M           MOV.L   @R15+,R10        ;
 4967                                 M           POP_REG1        R9      ;
 4968                                 M                                   ; RE"+4" 00,00,00,04
 4969 00000098 69F6                   M           MOV.L   @R15+,R9        ;
 4970                                 M           POP_REG1        R8      ;
 4971                                 M                                   ; RE"+4" 00,00,00,04
 4972 0000009A 68F6                   M           MOV.L   @R15+,R8        ;
 4973                                 M           POP_REG1        R7      ;
 4974                                 M                                   ; RE"+4" 00,00,00,04
 4975 0000009C 67F6                   M           MOV.L   @R15+,R7        ;
 4976                                 M           POP_REG1        R6      ;
 4977                                 M                                   ; RE"+4" 00,00,00,04
 4978 0000009E 66F6                   M           MOV.L   @R15+,R6        ;
 4979                                 M           POP_REG1        R5      ;
 4980                                 M                                   ; RE"+4" 00,00,00,04
 4981 000000A0 65F6                   M           MOV.L   @R15+,R5        ;
 4982                                 M           POP_REG1        R4      ;
 4983                                 M                                   ; RE"+4" 00,00,00,04
 4984 000000A2 64F6                   M           MOV.L   @R15+,R4        ;
 4985                                 M           POP_REG1        R3      ;
 4986                                 M                                   ; RE"+4" 00,00,00,04
 4987 000000A4 63F6                   M           MOV.L   @R15+,R3        ;
 4988                                 M           POP_REG1        R2      ;
 4989                                 M                                   ; RE"+4" 00,00,00,04
 4990 000000A6 62F6                   M           MOV.L   @R15+,R2        ;
 4991                                 M           POP_REG1        R1      ;
*** SuperH RISC engine ASSEMBLER V.7.01.02.000 ***    11/14/21 17:24:11                                                  PAGE     5
PROGRAM NAME =

 4992                                 M                                   ; RE"+4" 00,00,00,04
 4993 000000A8 61F6                   M           MOV.L   @R15+,R1        ;
 4994                                 M           POP_REG1        R0      ;
 4995                                 M                                   ; RE"+4" 00,00,00,04
 4996 000000AA 60F6                   M           MOV.L   @R15+,R0        ;
 4997                              46             SUB_END
 4998                                 M   ;;;;;;; ADD     #4,R15                  ;[不要?]
 4999 000000AC 4F26                   M           LDS.L   @R15+,PR                ;[必要]
 5000                              47             M_RTS
 5001 000000AE 000B                   M           RTS                             ;RTSの後ろの
 5002 000000B0 0009                   M           NOP                             ;@R15+,PRはﾀﾞﾒ
 5003                              48     
 5004                              49     
 5005                                     ***** BEGIN-POOL *****
 5006 000000B2 0000                       ALIGNMENT CODE
 5007 000000B4 00000000                   DATA FOR SOURCE-LINE 38
 5008 000000B8 00000000                   DATA FOR SOURCE-LINE 40
 5009                                     ***** END-POOL *****
 5010 000000BC                     50     _VUP_MAIN:
 5011                              51             SUB_START
 5012 000000BC 4F22                   M           STS.L   PR,@-R15                ;[必要]
 5013                                 M   ;;;;;;; ADD     #-4,R15                 ;[不要?]
 5014                              52     
 5015 000000BE D806                53             MOV.L   #_VUP_HSAREA_B_TO_A,R8                  ; ﾊﾝﾄﾞｼｪｲｸ領域CPUB書込みｴﾘｱ先頭ｱﾄﾞ
                                          ﾚｽ
 5016 000000C0 D906                54             MOV.L   #_VUP_HSAREA_A_TO_B,R9                  ; ﾊﾝﾄﾞｼｪｲｸ領域CPUA書込みｴﾘｱ先頭ｱﾄﾞ
                                          ﾚｽ
 5017                              55     
 5018 000000C2 8581                56             MOV.W   @(VUP_STR_PC,R8),R0                     ;
 5019 000000C4 8801                57             CMP/EQ  #1,R0                                   ; ﾊﾞｰｼﾞｮﾝUPｽﾀｰﾄ？
 5020 000000C6 890D                58             BT      _FROM_CPUA_REWRITE                      ; はい
 5021                              59     
 5022 000000C8 8191                60             MOV.W   R0,@(VUP_STR_PC,R9)                     ;
 5023                              61     
 5024 000000CA 200A                62             XOR     R0,R0
 5025 000000CC DA04                63             MOV.L   #_FROM_REWR_STR_FLG,R10
 5026 000000CE 2A01                64             MOV.W   R0,@R10
 5027                              65     
 5028                              66             SUB_END
 5029                                 M   ;;;;;;; ADD     #4,R15                  ;[不要?]
 5030 000000D0 4F26                   M           LDS.L   @R15+,PR                ;[必要]
 5031                              67             M_RTS
 5032 000000D2 000B                   M           RTS                             ;RTSの後ろの
 5033 000000D4 0009                   M           NOP                             ;@R15+,PRはﾀﾞﾒ
 5034                              68     
 5035                              69     
 5036                                     ***** BEGIN-POOL *****
 5037 000000D6 0000                       ALIGNMENT CODE
 5038 000000D8 00000000                   DATA FOR SOURCE-LINE 53
 5039 000000DC 00000000                   DATA FOR SOURCE-LINE 54
 5040 000000E0 00000000                   DATA FOR SOURCE-LINE 63
 5041                                     ***** END-POOL *****
 5042 000000E4                     70     _FROM_CPUA_REWRITE:
 5043 000000E4 DA02                71             MOV.L   #_FROM_REWR_STR_FLG,R10
 5044 000000E6 60A1                72             MOV.W   @R10,R0
 5045 000000E8 C801                73             TST     #BIT0,R0                                ; ＶＵＰへスタート開始済み？
 5046 000000EA 8903                74             BT      _FROM_CPUA_REWR_05                      ; いいえ
*** SuperH RISC engine ASSEMBLER V.7.01.02.000 ***    11/14/21 17:24:11                                                  PAGE     6
PROGRAM NAME =

 5047                              75             M_BRA   _FROM_CPUA_REWR_150                     ; はい
 5048 000000EC A08E                   M           BRA     _FROM_CPUA_REWR_150
 5049 000000EE 0009                   M           NOP
 5050                              76     
 5051                                     ***** BEGIN-POOL *****
 5052 000000F0 00000000                   DATA FOR SOURCE-LINE 71
 5053                                     ***** END-POOL *****
 5054 000000F4                     77     _FROM_CPUA_REWR_05:
 5055 000000F4 D00C                78             mov.l   #SR_Init_DI,r0
 5056 000000F6 400E                79             ldc     r0,sr                                   ; SR set (全割込み禁止)
 5057                              80     
 5058 000000F8 D10C                81             MOV.L   #_VUP_WKRAM+VUP_START,R1
 5059 000000FA 9013                82             MOV.W   #H'FF,R0
 5060 000000FC 2101                83             MOV.W   R0,@R1
 5061                              84     
 5062 000000FE 8580                85             MOV.W   @(VUP_SEL_PC,R8),R0                     ; ﾊﾞｰｼﾞｮﾝUP種別CPUAへ
 5063                              86     
 5064                              87     ;///////        CMP/EQ  #2,R0                                   ; SEQ VUP?
 5065                              88     ;///////        BF      _FROM_CPUA_REWR_10                      ; いいえ
 5066                              89     ;///////
 5067                              90     ;///////;       --------------- SEQ VUP -------------------
 5068                              91     ;///////        MOV.L   #_FROM_SECT_TBL_SEQ,R0
 5069                              92     ;///////        MOV.L   #_SVP_MACINE_SEL1,R1
 5070                              93     ;///////        MOV.W   @R1,R2
 5071                              94     ;///////        EXTU.W  R2,R2
 5072                              95     ;///////        MOV.L   #_EPROM_CODE,R1
 5073                              96     ;///////        CMP/EQ  R1,R2
 5074                              97     ;///////        BF      _FROM_CPUA_REWR_07
 5075                              98     ;///////        MOV.L   #_FROM_SECT_TBLP_SEQ,R0
 5076                              99     ;///////_FROM_CPUA_REWR_07:
 5077                             100     ;///////        MOV.L   #_FROM_SCT_TOP_ADR,R11
 5078                             101     ;///////        MOV.L   R0,@R11
 5079                             102     ;///////
 5080                             103     ;///////        MOV.L   @R0,R1
 5081                             104     ;///////        MOV.L   #_FROM_REWR_TOP_ADR,R10
 5082                             105     ;///////        MOV.L   R1,@R10
 5083                             106     ;///////
 5084                             107     ;///////        MOV.L   #_SEQ_PRO_SIZE,R10
 5085                             108     ;///////        ADD     R10,R1
 5086                             109     ;///////        MOV.L   #_FROM_REWR_END_ADR,R10
 5087                             110     ;///////        MOV.L   R1,@R10
 5088                             111     ;///////
 5089                             112     ;///////        MOV.L   #_VUP_DATA_AREA_CPUA,R1
 5090                             113     ;///////        MOV.L   #_VUP_DATA_AREA_ADR,R10
 5091                             114     ;///////        MOV.L   R1,@R10
 5092                             115     ;///////
 5093                             116     ;///////        M_BRA   _FROM_CPUA_REWR_100
 5094                             117     ;///////
 5095                             118     ;///////_FROM_CPUA_REWR_10:
 5096                             119     ;///////        CMP/EQ  #3,R0                                   ; CPUA(BOOTなし)VUP?
 5097                             120     ;///////        BF      _FROM_CPUA_REWR_20                      ; いいえ
 5098                             121     ;///////
 5099                             122     ;///////;       --------------- CPUA VUP -------------------
 5100                             123     ;///////        MOV.L   #_FROM_SECT_TBL03,R0
 5101                             124     ;///////        MOV.L   #_SVP_MACINE_SEL1,R1
 5102                             125     ;///////        MOV.W   @R1,R2
 5103                             126     ;///////        EXTU.W  R2,R2
*** SuperH RISC engine ASSEMBLER V.7.01.02.000 ***    11/14/21 17:24:11                                                  PAGE     7
PROGRAM NAME =

 5104                             127     ;///////        MOV.L   #_EPROM_CODE,R1
 5105                             128     ;///////        CMP/EQ  R1,R2
 5106                             129     ;///////        BF      _FROM_CPUA_REWR_17
 5107                             130     ;///////        MOV.L   #_FROM_SECT_TBLP03,R0
 5108                             131     ;///////_FROM_CPUA_REWR_17:
 5109                             132     ;///////        MOV.L   #_FROM_SCT_TOP_ADR,R11
 5110                             133     ;///////        MOV.L   R0,@R11
 5111                             134     ;///////
 5112                             135     ;///////        MOV.L   @R0,R1
 5113                             136     ;///////        MOV.L   #_FROM_REWR_TOP_ADR,R10
 5114                             137     ;///////        MOV.L   R1,@R10
 5115                             138     ;///////
 5116                             139     ;///////        MOV.L   #_FROM_SECT_TBL00,R0
 5117                             140     ;///////        MOV.L   #_SVP_MACINE_SEL1,R1
 5118                             141     ;///////        MOV.W   @R1,R2
 5119                             142     ;///////        EXTU.W  R2,R2
 5120                             143     ;///////        MOV.L   #_EPROM_CODE,R1
 5121                             144     ;///////        CMP/EQ  R1,R2
 5122                             145     ;///////        BF      _FROM_CPUA_REWR_18
 5123                             146     ;///////        MOV.L   #_FROM_SECT_TBLP00,R0
 5124                             147     ;///////_FROM_CPUA_REWR_18:
 5125                             148     ;///////        MOV.L   @R0,R1
 5126                             149     ;///////        MOV.L   #_CPUA_PRO_SIZE,R10
 5127                             150     ;///////        ADD     R10,R1
 5128                             151     ;///////        MOV.L   #_FROM_REWR_END_ADR,R10
 5129                             152     ;///////        MOV.L   R1,@R10
 5130                             153     ;///////
 5131                             154     ;///////        MOV.L   #_FROM_SECT_TBL03,R0
 5132                             155     ;///////        MOV.L   #_SVP_MACINE_SEL1,R1
 5133                             156     ;///////        MOV.W   @R1,R2
 5134                             157     ;///////        EXTU.W  R2,R2
 5135                             158     ;///////        MOV.L   #_EPROM_CODE,R1
 5136                             159     ;///////        CMP/EQ  R1,R2
 5137                             160     ;///////        BF      _FROM_CPUA_REWR_19
 5138                             161     ;///////        MOV.L   #_FROM_SECT_TBLP03,R0
 5139                             162     ;///////_FROM_CPUA_REWR_19:
 5140                             163     ;///////        MOV.L   @R0,R1
 5141                             164     ;///////        MOV.L   #H'00FFFFFF,R0
 5142                             165     ;///////        AND     R0,R1
 5143                             166     ;///////        MOV.L   #_VUP_DATA_AREA_CPUA,R0
 5144                             167     ;///////        ADD     R0,R1
 5145                             168     ;///////        MOV.L   #_VUP_DATA_AREA_ADR,R10
 5146                             169     ;///////        MOV.L   R1,@R10
 5147                             170     ;///////
 5148                             171     ;///////        M_BRA   _FROM_CPUA_REWR_100
 5149                             172     
 5150 00000100                    173     _FROM_CPUA_REWR_20:
 5151 00000100 8806               174             CMP/EQ  #6,R0                                   ; SENB VUP?
 5152 00000102 8B25               175             BF      _FROM_CPUA_REWR_30                      ; いいえ
 5153                             176     
 5154                             177     ;       --------------- SENB VUP -------------------
 5155 00000104 D00A               178             MOV.L   #_FROM_SECT_TBL_SENB,R0
 5156                             179     ;///////        MOV.L   #_SVP_MACINE_SEL1,R1
 5157                             180     ;///////        MOV.W   @R1,R2
 5158                             181     ;///////        EXTU.W  R2,R2
 5159                             182     ;///////        MOV.L   #_EPROM_CODE,R1
 5160                             183     ;///////        CMP/EQ  R1,R2
*** SuperH RISC engine ASSEMBLER V.7.01.02.000 ***    11/14/21 17:24:11                                                  PAGE     8
PROGRAM NAME =

 5161                             184     ;///////        BF      _FROM_CPUA_REWR_27
 5162                             185     ;///////        MOV.L   #_FROM_SECT_TBLP_SENA,R0
 5163                             186     ;///////_FROM_CPUA_REWR_27:
 5164 00000106 DB0B               187             MOV.L   #_FROM_SCT_TOP_ADR,R11
 5165 00000108 2B02               188             MOV.L   R0,@R11
 5166                             189     
 5167 0000010A 6102               190             MOV.L   @R0,R1
 5168 0000010C DA0A               191             MOV.L   #_FROM_REWR_TOP_ADR,R10
 5169 0000010E 2A12               192             MOV.L   R1,@R10
 5170                             193     
 5171 00000110 DA0A               194             MOV.L   #_CB_TBL_SIZE,R10
 5172 00000112 31AC               195             ADD     R10,R1
 5173 00000114 DA0A               196             MOV.L   #_FROM_REWR_END_ADR,R10
 5174 00000116 2A12               197             MOV.L   R1,@R10
 5175                             198     
 5176 00000118 D10A               199             MOV.L   #_VUP_DATA_AREA_CPUB,R1
 5177 0000011A DA0B               200             MOV.L   #_VUP_DATA_AREA_ADR,R10
 5178 0000011C 2A12               201             MOV.L   R1,@R10
 5179                             202     
 5180 0000011E D00B               203             MOV.L   #_FROM16_SECT_TBL00,R0
 5181                             204             M_BRA   _FROM_CPUA_REWR_100
 5182 00000120 A064                   M           BRA     _FROM_CPUA_REWR_100
 5183 00000122 0009                   M           NOP
 5184                             205     
 5185                                     ***** BEGIN-POOL *****
 5186 00000124 00FF                       DATA FOR SOURCE-LINE 82
 5187 00000126 0000                       ALIGNMENT CODE
 5188 00000128 400000F0                   DATA FOR SOURCE-LINE 78
 5189 0000012C 00000000                   DATA FOR SOURCE-LINE 81
 5190 00000130 00000000                   DATA FOR SOURCE-LINE 178
 5191 00000134 00000000                   DATA FOR SOURCE-LINE 187
 5192 00000138 00000000                   DATA FOR SOURCE-LINE 191
 5193 0000013C 00040000                   DATA FOR SOURCE-LINE 194
 5194 00000140 00000000                   DATA FOR SOURCE-LINE 196
 5195 00000144 AC400000                   DATA FOR SOURCE-LINE 199
 5196 00000148 00000000                   DATA FOR SOURCE-LINE 200
 5197 0000014C 00000000                   DATA FOR SOURCE-LINE 203
 5198                                     ***** END-POOL *****
 5199 00000150                    206     _FROM_CPUA_REWR_30:
 5200 00000150 8808               207             CMP/EQ  #8,R0                                   ; CPUB(BOOTあり)VUP?
 5201 00000152 8B27               208             BF      _FROM_CPUA_REWR_40                      ; いいえ
 5202                             209     
 5203                             210     ;       --------------- CPUB VUP -------------------
 5204 00000154 D00A               211             MOV.L   #_FROM8_SECT_TBL00,R0
 5205 00000156 D10B               212             MOV.L   #_SVP_MACINE_SEL1,R1
 5206 00000158 6211               213             MOV.W   @R1,R2
 5207 0000015A 622D               214             EXTU.W  R2,R2
 5208                             215     ;       -------------------------------- 2006/12/26(INS) V05 {
 5209 0000015C D10A               216             MOV.L   #_VUP_PRG_NON_SUM_CODE,R1
 5210 0000015E 2121               217             MOV.W   R2,@R1
 5211                             218     ;       -------------------------------- }
 5212                             219     ;///////        MOV.L   #_EPROM_CODE,R1
 5213                             220     ;///////        CMP/EQ  R1,R2
 5214                             221     ;///////        BF      _FROM_CPUA_REWR_37
 5215                             222     ;///////        MOV.L   #_FROM_SECT_TBLP00,R0
 5216                             223     ;///////_FROM_CPUA_REWR_37:
 5217 00000160 DB0A               224             MOV.L   #_FROM_SCT_TOP_ADR,R11
*** SuperH RISC engine ASSEMBLER V.7.01.02.000 ***    11/14/21 17:24:11                                                  PAGE     9
PROGRAM NAME =

 5218 00000162 2B02               225             MOV.L   R0,@R11
 5219                             226     
 5220 00000164 6102               227             MOV.L   @R0,R1
 5221 00000166 DA0A               228             MOV.L   #_FROM_REWR_TOP_ADR,R10
 5222 00000168 2A12               229             MOV.L   R1,@R10
 5223                             230     
 5224 0000016A DA0A               231             MOV.L   #_CPUB_PRO_SIZE,R10
 5225 0000016C 31AC               232             ADD     R10,R1
 5226 0000016E DA0A               233             MOV.L   #_FROM_REWR_END_ADR,R10
 5227 00000170 2A12               234             MOV.L   R1,@R10
 5228                             235     
 5229 00000172 D10A               236             MOV.L   #_VUP_DATA_AREA_CPUB,R1
 5230 00000174 DA0A               237             MOV.L   #_VUP_DATA_AREA_ADR,R10
 5231 00000176 2A12               238             MOV.L   R1,@R10
 5232                             239     
 5233 00000178 D001               240             MOV.L   #_FROM8_SECT_TBL00,R0
 5234                             241             M_BRA   _FROM_CPUA_REWR_100
 5235 0000017A A037                   M           BRA     _FROM_CPUA_REWR_100
 5236 0000017C 0009                   M           NOP
 5237                             242     
 5238                                     ***** BEGIN-POOL *****
 5239 0000017E 0000                       ALIGNMENT CODE
 5240 00000180 00000000                   DATA FOR SOURCE-LINE 211,240
 5241 00000184 00000000                   DATA FOR SOURCE-LINE 212
 5242 00000188 00000000                   DATA FOR SOURCE-LINE 216
 5243 0000018C 00000000                   DATA FOR SOURCE-LINE 224
 5244 00000190 00000000                   DATA FOR SOURCE-LINE 228
 5245 00000194 000A0000                   DATA FOR SOURCE-LINE 231
 5246 00000198 00000000                   DATA FOR SOURCE-LINE 233
 5247 0000019C AC400000                   DATA FOR SOURCE-LINE 236
 5248 000001A0 00000000                   DATA FOR SOURCE-LINE 237
 5249                                     ***** END-POOL *****
 5250 000001A4                    243     _FROM_CPUA_REWR_40:
 5251 000001A4 880A               244             CMP/EQ  #10,R0                                  ; C/Bｼｽﾃﾑﾊﾟﾗﾒｰﾀ
 5252 000001A6 8B1F               245             BF      _FROM_CPUA_REWR_50                      ; いいえ
 5253                             246     
 5254                             247     ;       --------------- C/Bｼｽﾃﾑﾊﾟﾗﾒｰﾀ VUP -------------------
 5255 000001A8 D007               248             MOV.L   #_FROM_SECT_TBL_SYSB,R0
 5256                             249     ;///////        MOV.L   #_SVP_MACINE_SEL1,R1
 5257                             250     ;///////        MOV.W   @R1,R2
 5258                             251     ;///////        EXTU.W  R2,R2
 5259                             252     ;///////        MOV.L   #_EPROM_CODE,R1
 5260                             253     ;///////        CMP/EQ  R1,R2
 5261                             254     ;///////        BF      _FROM_CPUA_REWR_47
 5262                             255     ;///////        MOV.L   #_FROM_SECT_TBLP_SYSA,R0
 5263                             256     ;///////_FROM_CPUA_REWR_47:
 5264 000001AA DB08               257             MOV.L   #_FROM_SCT_TOP_ADR,R11
 5265 000001AC 2B02               258             MOV.L   R0,@R11
 5266                             259     
 5267 000001AE 6102               260             MOV.L   @R0,R1
 5268 000001B0 DA07               261             MOV.L   #_FROM_REWR_TOP_ADR,R10
 5269 000001B2 2A12               262             MOV.L   R1,@R10
 5270                             263     
 5271 000001B4 DA07               264             MOV.L   #_CB_SYS_SIZE,R10
 5272 000001B6 31AC               265             ADD     R10,R1
 5273 000001B8 DA07               266             MOV.L   #_FROM_REWR_END_ADR,R10
 5274 000001BA 2A12               267             MOV.L   R1,@R10
*** SuperH RISC engine ASSEMBLER V.7.01.02.000 ***    11/14/21 17:24:11                                                  PAGE    10
PROGRAM NAME =

 5275                             268     
 5276 000001BC D107               269             MOV.L   #_VUP_DATA_AREA_CPUB,R1
 5277 000001BE DA08               270             MOV.L   #_VUP_DATA_AREA_ADR,R10
 5278 000001C0 2A12               271             MOV.L   R1,@R10
 5279                             272     
 5280 000001C2 D008               273             MOV.L   #_FROM16_SECT_TBL00,R0
 5281                             274             M_BRA   _FROM_CPUA_REWR_100
 5282 000001C4 A012                   M           BRA     _FROM_CPUA_REWR_100
 5283 000001C6 0009                   M           NOP
 5284                             275     
 5285                                     ***** BEGIN-POOL *****
 5286 000001C8 00000000                   DATA FOR SOURCE-LINE 248
 5287 000001CC 00000000                   DATA FOR SOURCE-LINE 257
 5288 000001D0 00000000                   DATA FOR SOURCE-LINE 261
 5289 000001D4 00010000                   DATA FOR SOURCE-LINE 264
 5290 000001D8 00000000                   DATA FOR SOURCE-LINE 266
 5291 000001DC AC400000                   DATA FOR SOURCE-LINE 269
 5292 000001E0 00000000                   DATA FOR SOURCE-LINE 270
 5293 000001E4 00000000                   DATA FOR SOURCE-LINE 273
 5294                                     ***** END-POOL *****
 5295 000001E8                    276     _FROM_CPUA_REWR_50:
 5296                             277             M_BRA   _FROM_CPUA_REWR_END
 5297 000001E8 A128                   M           BRA     _FROM_CPUA_REWR_END
 5298 000001EA 0009                   M           NOP
 5299                             278     
 5300 000001EC                    279     _FROM_CPUA_REWR_100:
 5301                             280     ;///////        MOV.L   #_FROM_SECT_TBL00,R0
 5302                             281     ;///////        MOV.L   #_SVP_MACINE_SEL1,R1
 5303                             282     ;///////        MOV.W   @R1,R2
 5304                             283     ;///////        EXTU.W  R2,R2
 5305                             284     ;///////        MOV.L   #_EPROM_CODE,R1
 5306                             285     ;///////        CMP/EQ  R1,R2
 5307                             286     ;///////        BF      _FROM_CPUA_REWR_105
 5308                             287     ;///////        MOV.L   #_FROM_SECT_TBLP00,R0
 5309                             288     ;///////_FROM_CPUA_REWR_105:
 5310 000001EC 6102               289             MOV.L   @R0,R1
 5311 000001EE DB05               290             MOV.L   #_FROM_TOP_ADR,R11
 5312 000001F0 2B12               291             MOV.L   R1,@R11
 5313                             292     
 5314 000001F2 8581               293             MOV.W   @(VUP_STR_PC,R8),R0                     ;
 5315 000001F4 8191               294             MOV.W   R0,@(VUP_STR_PC,R9)                     ; ｽﾀｰﾄ応答
 5316                             295     
 5317 000001F6 DA04               296             MOV.L   #_FROM_REWR_STR_FLG,R10
 5318 000001F8 9003               297             MOV.W   #BIT0,R0                                ; ｽﾀｰﾄ応答済みＯＮ！
 5319 000001FA 2A01               298             MOV.W   R0,@R10
 5320                             299     
 5321 000001FC E101               300             MOV     #1,R1
 5322                             301             M_BRA   _FROM_CPUA_REWR_END
 5323 000001FE A11D                   M           BRA     _FROM_CPUA_REWR_END
 5324 00000200 0009                   M           NOP
 5325                             302     
 5326                                     ***** BEGIN-POOL *****
 5327 00000202 0001                       DATA FOR SOURCE-LINE 297
 5328 00000204 00000000                   DATA FOR SOURCE-LINE 290
 5329 00000208 00000000                   DATA FOR SOURCE-LINE 296
 5330                                     ***** END-POOL *****
 5331 0000020C                    303     _FROM_CPUA_REWR_150:
*** SuperH RISC engine ASSEMBLER V.7.01.02.000 ***    11/14/21 17:24:11                                                  PAGE    11
PROGRAM NAME =

 5332                             304     ;       -------------------------------- 2006/12/26(INS) V05 {
 5333 0000020C D103               305             MOV.L   #_VUP_PRG_NG_DAT,R1                     ;
 5334 0000020E 6011               306             MOV.W   @R1,R0
 5335 00000210 2008               307             TST     R0,R0                                   ; ﾊﾞｰｼﾞｮﾝUP時異常あった？
 5336 00000212 8905               308             BT      _FROM_CPUA_REWR_155                     ; いいえ
 5337 00000214 819C               309             MOV.W   R0,@(VUP_REV1_SH,R9)                    ;
 5338                             310             M_BRA   _FROM_CPUA_REWR_END
 5339 00000216 A111                   M           BRA     _FROM_CPUA_REWR_END
 5340 00000218 0009                   M           NOP
 5341                                     ***** BEGIN-POOL *****
 5342 0000021A 0000                       ALIGNMENT CODE
 5343 0000021C 00000000                   DATA FOR SOURCE-LINE 305
 5344                                     ***** END-POOL *****
 5345 00000220                    311     _FROM_CPUA_REWR_155:
 5346                             312     ;       -------------------------------- }
 5347                             313     
 5348                             314     ;       -------------------------------------------------
 5349                             315     ;               CPUAへ2000H受信待ち
 5350                             316     ;       -------------------------------------------------
 5351 00000220 DA02               317             MOV.L   #_FROM_REWR_STR_FLG,R10
 5352 00000222 60A1               318             MOV.W   @R10,R0
 5353 00000224 C802               319             TST     #BIT1,R0                                ; 2000Ｈ受信済み？
 5354 00000226 8903               320             BT      _FROM_CPUA_REWR_160                     ; いいえ
 5355                             321             M_BRA   _FROM_CPUA_REWR_250                     ; はい
 5356 00000228 A0EC                   M           BRA     _FROM_CPUA_REWR_250
 5357 0000022A 0009                   M           NOP
 5358                             322     
 5359                                     ***** BEGIN-POOL *****
 5360 0000022C 00000000                   DATA FOR SOURCE-LINE 317
 5361                                     ***** END-POOL *****
 5362 00000230                    323     _FROM_CPUA_REWR_160:
 5363 00000230 8584               324             MOV.W   @(VUP_REV1_PC,R8),R0
 5364 00000232 8801               325             CMP/EQ  #1,R0                                   ; 2000H受信完了？
 5365 00000234 8B20               326             BF      _FROM_CPUA_REWR_200                     ; いいえ
 5366                             327     
 5367 00000236 8585               328             MOV.W   @(VUP_REV2_PC,R8),R0                    ; データブロック番号
 5368 00000238 70FF               329             ADD     #-1,R0
 5369 0000023A D10B               330             MOV.L   #H'2000,R1
 5370 0000023C 201E               331             MULU.W  R1,R0
 5371 0000023E 001A               332             STS     MACL,R0
 5372 00000240 DC0A               333             MOV.L   #_VUP_DATA_AREA_CPUB,R12
 5373 00000242 3C0C               334             ADD     R0,R12
 5374 00000244 DB0A               335             MOV.L   #_VUP_DATA_ADR_OP1,R11
 5375 00000246 940E               336             MOV.W   #(H'2000/4),R4
 5376                             337     
 5377 00000248                    338     _FROM_CPUA_REWR_170:
 5378 00000248 60B6               339             MOV.L   @R11+,R0
 5379 0000024A 0009               340             NOP
 5380 0000024C 2C02               341             MOV.L   R0,@R12
 5381 0000024E 7C04               342             ADD     #4,R12
 5382 00000250 4410               343             DT      R4
 5383 00000252 8BF9               344             BF      _FROM_CPUA_REWR_170
 5384                             345     
 5385 00000254 8584               346             MOV.W   @(VUP_REV1_PC,R8),R0
 5386 00000256 8194               347             MOV.W   R0,@(VUP_REV1_PC,R9)                    ; 2000Ｈ受信応答
 5387                             348     
 5388                             349     ;       MOV.W   @(VUP_REV4_SH,R9),R0
*** SuperH RISC engine ASSEMBLER V.7.01.02.000 ***    11/14/21 17:24:11                                                  PAGE    12
PROGRAM NAME =

 5389                             350     ;       ADD     #H'20,R0
 5390                             351     ;       MOV.W   R0,@(VUP_REV4_SH,R9)
 5391                             352     
 5392 00000258 DA06               353             MOV.L   #_FROM_REWR_STR_FLG,R10
 5393 0000025A 60A1               354             MOV.W   @R10,R0
 5394 0000025C CB02               355             OR      #BIT1,R0                                ; 2000Ｈ受信完了ＯＮ！
 5395 0000025E 2A01               356             MOV.W   R0,@R10
 5396                             357     
 5397 00000260 E101               358             MOV     #1,R1
 5398                             359             M_BRA   _FROM_CPUA_REWR_END
 5399 00000262 A0EB                   M           BRA     _FROM_CPUA_REWR_END
 5400 00000264 0009                   M           NOP
 5401                             360     
 5402                             361     ;       -------------------------------------------------
 5403                             362     ;               CPUBから書込み指令待ち
 5404                             363     ;       -------------------------------------------------
 5405                                     ***** BEGIN-POOL *****
 5406 00000266 0800                       DATA FOR SOURCE-LINE 336
 5407 00000268 00002000                   DATA FOR SOURCE-LINE 330
 5408 0000026C AC400000                   DATA FOR SOURCE-LINE 333
 5409 00000270 00000000                   DATA FOR SOURCE-LINE 335
 5410 00000274 00000000                   DATA FOR SOURCE-LINE 353
 5411                                     ***** END-POOL *****
 5412 00000278                    364     _FROM_CPUA_REWR_200:
 5413 00000278 DA02               365             MOV.L   #_FROM_REWR_STR_FLG,R10
 5414 0000027A 60A1               366             MOV.W   @R10,R0
 5415 0000027C C804               367             TST     #BIT2,R0                                ; 書込み完了済み？
 5416 0000027E 8903               368             BT      _FROM_CPUA_REWR_202                     ; いいえ
 5417                             369             M_BRA   _FROM_CPUA_REWR_300                     ; はい
 5418 00000280 A0CE                   M           BRA     _FROM_CPUA_REWR_300
 5419 00000282 0009                   M           NOP
 5420                             370     
 5421                                     ***** BEGIN-POOL *****
 5422 00000284 00000000                   DATA FOR SOURCE-LINE 365
 5423                                     ***** END-POOL *****
 5424 00000288                    371     _FROM_CPUA_REWR_202:
 5425 00000288 8583               372             MOV.W   @(VUP_DATA_WR_PC,R8),R0                 ;
 5426 0000028A 8801               373             CMP/EQ  #1,R0                                   ; 書込み指令有り？
 5427 0000028C 8901               374             BT      _FROM_CPUA_REWR_202A                    ; はい
 5428                             375             M_BRA   _FROM_CPUA_REWR_240                     ; いいえ
 5429 0000028E A0B3                   M           BRA     _FROM_CPUA_REWR_240
 5430 00000290 0009                   M           NOP
 5431                             376     
 5432 00000292                    377     _FROM_CPUA_REWR_202A:
 5433                             378     ;       -------------------------------- 2006/12/26(INS) V05 {
 5434                             379     ;;2016-04-16 SUM削除    FAR_JSR #_VUP_PROG_SUM_CHK,R11                  ; ﾊﾞｰｼﾞｮﾝUPﾌﾟﾛｸﾞﾗﾑ
                                          のSUMﾁｪｯｸ
 5435 00000292 DB04               380             MOV.L   #_VUP_PRG_NG_DAT,R11
 5436 00000294 61B1               381             MOV.W   @R11,R1
 5437 00000296 2118               382             TST     R1,R1                                   ; ﾊﾞｰｼﾞｮﾝUPﾌﾟﾛｸﾞﾗﾑのSUM異常ある？
 5438 00000298 8906               383             BT      _FROM_CPUB4_RW140                       ; いいえ
 5439 0000029A 9101               384             MOV.W   #H'FF,R1                                ; エラー有り
 5440                             385             M_BRA   _FROM_CPUA_REWR_END
 5441 0000029C A0CE                   M           BRA     _FROM_CPUA_REWR_END
 5442 0000029E 0009                   M           NOP
 5443                                     ***** BEGIN-POOL *****
 5444 000002A0 00FF                       DATA FOR SOURCE-LINE 384
*** SuperH RISC engine ASSEMBLER V.7.01.02.000 ***    11/14/21 17:24:11                                                  PAGE    13
PROGRAM NAME =

 5445 000002A2 0000                       ALIGNMENT CODE
 5446 000002A4 00000000                   DATA FOR SOURCE-LINE 380
 5447                                     ***** END-POOL *****
 5448 000002A8                    386     _FROM_CPUB4_RW140:
 5449                             387     ;       -------------------------------- }
 5450                             388     
 5451                             389     ;       MOV     #100,R0
 5452                             390     ;       MOV.W   R0,@(VUP_REV4_SH,R9)
 5453                             391     
 5454                             392             PUSH_REG1 R8
 5455 000002A8 2F86                   M           MOV.L   R8,@-R15                ;PUSH=SP-4
 5456                                 M                                           ;REG=>[SP]
 5457                                 M                                           ;"-4" FF,FF,FF,FC
 5458                             393             PUSH_REG1 R9
 5459 000002AA 2F96                   M           MOV.L   R9,@-R15                ;PUSH=SP-4
 5460                                 M                                           ;REG=>[SP]
 5461                                 M                                           ;"-4" FF,FF,FF,FC
 5462                             394     ;       -------------------------------------
 5463                             395     ;       -----   ｾｸﾀnの消去              -----
 5464                             396     ;       -------------------------------------
 5465 000002AC                    397     _FROM_CPUA_REWR_203:
 5466 000002AC D621               398             MOV.L   #_FROM_REWR_TOP_ADR,R6
 5467 000002AE 6862               399             MOV.L   @R6,R8                                  ; 書込み／消去セクタ先頭アドレス格
                                          納
 5468                             400     
 5469 000002B0 D621               401             MOV.L   #_FROM_TOP_ADR,R6
 5470 000002B2 6D62               402             MOV.L   @R6,R13
 5471                             403     
 5472                             404             FAR_JSR #_FROM_ERASE_CMND,R10                   ; FROM消去ｺﾏﾝﾄﾞ発行
 5473 000002B4 DA21                   M           MOV.L   #_FROM_ERASE_CMND,R10           ;ﾃｰﾌﾞﾙｱﾄﾞﾚｽの内容をREGへ
 5474 000002B6 4A0B                   M           JSR     @R10                    ;
 5475 000002B8 0009                   M           NOP                                     ;
 5476                             405                                                             ; In : R13<-_from_top  R0:KEEP
 5477                             406                                                             ; In : R8 <- 消去するｾｸﾀの先頭ｱﾄﾞﾚ
                                          ｽ
 5478                             407             FAR_JSR #_FROM_ERASE_POLLINKG,R10               ; 消去時のﾎﾟｰﾘﾝｸﾞ
 5479 000002BA DA21                   M           MOV.L   #_FROM_ERASE_POLLINKG,R10               ;ﾃｰﾌﾞﾙｱﾄﾞﾚｽの内容をREGへ
 5480 000002BC 4A0B                   M           JSR     @R10                    ;
 5481 000002BE 0009                   M           NOP                                     ;
 5482                             408                                                             ; In : R8 <- 消去するｾｸﾀの先頭ｱﾄﾞﾚ
                                          ｽ
 5483                             409                                                             ; Out: R2 <- 異常情報（0以外で異常
                                          ）
 5484                             410     ;       -------------------------------------
 5485                             411     ;       -----   ｾｸﾀnの書込み            -----
 5486                             412     ;       -------------------------------------
 5487 000002C0 D620               413             MOV.L   #_VUP_DATA_AREA_ADR,R6
 5488 000002C2 6962               414             MOV.L   @R6,R9                                  ; 転送元先頭ｱﾄﾞﾚｽ
 5489 000002C4 D61B               415             MOV.L   #_FROM_REWR_TOP_ADR,R6
 5490 000002C6 6862               416             MOV.L   @R6,R8                                  ; 書込み／消去セクタ先頭アドレス格
                                          納
 5491 000002C8 D61B               417             MOV.L   #_FROM_TOP_ADR,R6
 5492 000002CA 6D62               418             MOV.L   @R6,R13
 5493                             419     
 5494 000002CC                    420     _FROM_CPUA_REWR_205:
 5495                             421             FAR_JSR #_FROM_WRITE_CMND,R10                   ; FROM書込みｺﾏﾝﾄﾞ発行
 5496 000002CC DA1E                   M           MOV.L   #_FROM_WRITE_CMND,R10           ;ﾃｰﾌﾞﾙｱﾄﾞﾚｽの内容をREGへ
*** SuperH RISC engine ASSEMBLER V.7.01.02.000 ***    11/14/21 17:24:11                                                  PAGE    14
PROGRAM NAME =

 5497 000002CE 4A0B                   M           JSR     @R10                    ;
 5498 000002D0 0009                   M           NOP                                     ;
 5499                             422                                                             ; In:R13<-_from_top  R0:KEEP
 5500 000002D2 6095               423             MOV.W   @R9+,R0
 5501 000002D4 2801               424             MOV.W   R0,@R8
 5502                             425     
 5503                             426             FAR_JSR #_FROM_WRITE_POLLINKG,R10
 5504 000002D6 DA1D                   M           MOV.L   #_FROM_WRITE_POLLINKG,R10               ;ﾃｰﾌﾞﾙｱﾄﾞﾚｽの内容をREGへ
 5505 000002D8 4A0B                   M           JSR     @R10                    ;
 5506 000002DA 0009                   M           NOP                                     ;
 5507                             427     
 5508 000002DC 7802               428             ADD     #2,R8
 5509                             429     
 5510 000002DE D61C               430             MOV.L   #_FROM_SCT_TOP_ADR,R6
 5511 000002E0 6662               431             MOV.L   @R6,R6                                  ; 書込み中の先頭のセクタテーブルア
                                          ドレス
 5512 000002E2 7604               432             ADD     #4,R6
 5513 000002E4 6162               433             MOV.L   @R6,R1                                  ; 次のﾌﾗｯｼｭROMｾｸﾀの先頭ｱﾄﾞﾚｽ
 5514 000002E6 3812               434             CMP/HS  R1,R8                                   ; 次のｾｸﾀになった？
 5515 000002E8 8BF0               435             BF      _FROM_CPUA_REWR_205                     ; いいえ
 5516                             436     
 5517                             437     ;       -------------------------------------
 5518                             438     ;       -----   ｾｸﾀnのﾍﾞﾘﾌｧｲ            -----
 5519                             439     ;       -------------------------------------
 5520 000002EA D616               440             MOV.L   #_VUP_DATA_AREA_ADR,R6
 5521 000002EC 6962               441             MOV.L   @R6,R9                                  ; 転送元先頭ｱﾄﾞﾚｽ
 5522 000002EE D611               442             MOV.L   #_FROM_REWR_TOP_ADR,R6
 5523 000002F0 6862               443             MOV.L   @R6,R8                                  ; 書込み／消去セクタ先頭アドレス格
                                          納
 5524 000002F2                    444     _FROM_CPUA_REWR_210:
 5525                             445             _WDT_CLR                                        ; R0,R10 USED
 5526                                 M           PUSH_REG1 R0
 5527 000002F2 2F06                   M           MOV.L   R0,@-R15                ;PUSH=SP-4
 5528                                 M                                           ;REG=>[SP]
 5529                                 M                                           ;"-4" FF,FF,FF,FC
 5530                                 M           PUSH_REG1 R10
 5531 000002F4 2FA6                   M           MOV.L   R10,@-R15               ;PUSH=SP-4
 5532                                 M                                           ;REG=>[SP]
 5533                                 M                                           ;"-4" FF,FF,FF,FC
 5534                                 M           PUSH_REG1 R14
 5535 000002F6 2FE6                   M           MOV.L   R14,@-R15               ;PUSH=SP-4
 5536                                 M                                           ;REG=>[SP]
 5537                                 M                                           ;"-4" FF,FF,FF,FC
 5538                                 M   
 5539 000002F8 DA16                   M           MOV.L   #_PJDR,R10                              ;?????????今は不要2015-01-05ｺﾒﾝﾄ
 5540 000002FA 60A0                   M           MOV.B   @R10,R0
 5541 000002FC CB10                   M           OR      #BIT4,R0
 5542 000002FE 2A00                   M           MOV.B   R0,@R10
 5543 00000300 C9EF                   M           AND     #NBIT4,R0
 5544 00000302 2A00                   M           MOV.B   R0,@R10
 5545                                 M   
 5546                                 M           ;====== 2006-10-19 SAITO 追加　WDTﾎﾟｰﾄ変更 ======
 5547 00000304 DA14                   M           MOV.L   #_IOGA2_CTRL_DAT1+_IOGA_P5,R10          ;
 5548 00000306 60A1                   M           MOV.W   @R10,R0                                 ;
 5549 00000308 9E10                   M           MOV.W   #BIT0,R14                               ;
 5550 0000030A 20EB                   M           OR      R14,R0                                  ;
 5551 0000030C 2A01                   M           MOV.W   R0,@R10                                 ; WORK
*** SuperH RISC engine ASSEMBLER V.7.01.02.000 ***    11/14/21 17:24:11                                                  PAGE    15
PROGRAM NAME =

 5552                                 M   
 5553                                 M   ;;      MOV.L   #_IOGA2_CTRL_DAT1+_IOGA_P5,R10  ; WORK ADDRESS
 5554                                 M   ;;      MOV.W   @R10,R0                                 ;
 5555 0000030E 9E0E                   M           MOV.W   #_IO2B_P5EX,R14                         ;
 5556 00000310 20EA                   M           XOR     R14,R0                                  ;
 5557 00000312 DA12                   M           MOV.L   #_dio_top2+_IOGA_PDR5,R10               ; IOGA PF ADDRESS
 5558 00000314 2A01                   M           MOV.W   R0,@R10                                 ; 実出力SET
 5559                                 M   
 5560 00000316 DA10                   M           MOV.L   #_IOGA2_CTRL_DAT1+_IOGA_P5,R10          ;
 5561 00000318 60A1                   M           MOV.W   @R10,R0                                 ;
 5562 0000031A 9E09                   M           MOV.W   #NBIT0,R14                              ;
 5563 0000031C 20E9                   M           AND     R14,R0                                  ;
 5564 0000031E 2A01                   M           MOV.W   R0,@R10                                 ; WORK
 5565                                 M   
 5566                                 M   ;;      MOV.L   #_IOGA2_CTRL_DAT1+_IOGA_P5,R10  ; WORK ADDRESS
 5567                                 M   ;;      MOV.W   @R10,R0                                 ;
 5568 00000320 9E05                   M           MOV.W   #_IO2B_P5EX,R14                         ;
 5569 00000322 20EA                   M           XOR     R14,R0                                  ;
 5570 00000324 DA0D                   M           MOV.L   #_dio_top2+_IOGA_PDR5,R10               ; IOGA PF ADDRESS
 5571 00000326 2A01                   M           MOV.W   R0,@R10                                 ; 実出力SET
 5572                                 M   
 5573                                 M           M_BRA   AAA00001
 5574 00000328 A01A                   M           BRA     AAA00001
 5575 0000032A 0009                   M           NOP
 5576                                 M   ***** BEGIN-POOL *****
 5577 0000032C 0001                   M   DATA FOR SOURCE-LINE 445
 5578 0000032E 0000                   M   DATA FOR SOURCE-LINE 445,445
 5579 00000330 00FE                   M   DATA FOR SOURCE-LINE 445
 5580 00000332 0000                   M   ALIGNMENT CODE
 5581 00000334 00000000               M   DATA FOR SOURCE-LINE 398,415,442
 5582 00000338 00000000               M   DATA FOR SOURCE-LINE 401,417
 5583 0000033C 00000000               M   DATA FOR SOURCE-LINE 404
 5584 00000340 00000000               M   DATA FOR SOURCE-LINE 407
 5585 00000344 00000000               M   DATA FOR SOURCE-LINE 413,440
 5586 00000348 00000000               M   DATA FOR SOURCE-LINE 421
 5587 0000034C 00000000               M   DATA FOR SOURCE-LINE 426
 5588 00000350 00000000               M   DATA FOR SOURCE-LINE 430
 5589 00000354 00000000               M   DATA FOR SOURCE-LINE 445
 5590 00000358 00000000               M   DATA FOR SOURCE-LINE 445,445
 5591 0000035C 00000000               M   DATA FOR SOURCE-LINE 445,445
 5592                                 M   ***** END-POOL *****
 5593 00000360                        M   AAA00001:
 5594                                 M           POP_REG1 R14
 5595                                 M                                   ; RE"+4" 00,00,00,04
 5596 00000360 6EF6                   M           MOV.L   @R15+,R14        ;
 5597                                 M           POP_REG1 R10
 5598                                 M                                   ; RE"+4" 00,00,00,04
 5599 00000362 6AF6                   M           MOV.L   @R15+,R10        ;
 5600                                 M           POP_REG1 R0
 5601                                 M                                   ; RE"+4" 00,00,00,04
 5602 00000364 60F6                   M           MOV.L   @R15+,R0        ;
 5603 00000366 0009               446             NOP
 5604 00000368 0009               447             NOP
 5605 0000036A 0009               448             NOP
 5606 0000036C 0009               449             NOP
 5607 0000036E 0009               450             NOP
 5608 00000370 6095               451             MOV.W   @R9+,R0
*** SuperH RISC engine ASSEMBLER V.7.01.02.000 ***    11/14/21 17:24:11                                                  PAGE    16
PROGRAM NAME =

 5609 00000372 600D               452             EXTU.W  R0,R0
 5610 00000374 0009               453             NOP
 5611 00000376 0009               454             NOP
 5612 00000378 0009               455             NOP
 5613 0000037A 0009               456             NOP
 5614 0000037C 0009               457             NOP
 5615 0000037E 6185               458             MOV.W   @R8+,R1
 5616 00000380 611D               459             EXTU.W  R1,R1
 5617                             460     
 5618 00000382 3010               461             CMP/EQ  R1,R0
 5619 00000384 8914               462             BT      _FROM_REWR_VEROK
 5620                             463     
 5621                             464             POP_REG1 R9
 5622                                 M                                   ; RE"+4" 00,00,00,04
 5623 00000386 69F6                   M           MOV.L   @R15+,R9        ;
 5624                             465             POP_REG1 R8
 5625                                 M                                   ; RE"+4" 00,00,00,04
 5626 00000388 68F6                   M           MOV.L   @R15+,R8        ;
 5627                             466     
 5628                             467     ;       -------------------------------- 2006/12/26(INS) V05 {
 5629 0000038A D607               468             MOV.L   #_VUP_PRG_RETRY_CNT,R6
 5630 0000038C 6061               469             MOV.W   @R6,R0
 5631 0000038E 7001               470             ADD     #1,R0
 5632 00000390 2601               471             MOV.W   R0,@R6
 5633 00000392 8803               472             CMP/EQ  #3,R0
 5634 00000394 8B02               473             BF      _FROM_REWR_450
 5635 00000396 9004               474             MOV.W   #H'0092,R0                              ; 書き込みリトライオーバー
 5636 00000398 D104               475             MOV.L   #_VUP_PRG_NG_DAT,R1
 5637 0000039A 2101               476             MOV.W   R0,@R1
 5638 0000039C                    477     _FROM_REWR_450:
 5639                             478     ;       -------------------------------- }
 5640                             479     
 5641 0000039C 9102               480             MOV.W   #H'FF,R1                                ; エラー有り
 5642                             481             M_BRA   _FROM_CPUA_REWR_END
 5643 0000039E A04D                   M           BRA     _FROM_CPUA_REWR_END
 5644 000003A0 0009                   M           NOP
 5645                             482     
 5646                             483     
 5647                                     ***** BEGIN-POOL *****
 5648 000003A2 0092                       DATA FOR SOURCE-LINE 474
 5649 000003A4 00FF                       DATA FOR SOURCE-LINE 480
 5650 000003A6 0000                       ALIGNMENT CODE
 5651 000003A8 00000000                   DATA FOR SOURCE-LINE 468
 5652 000003AC 00000000                   DATA FOR SOURCE-LINE 475
 5653                                     ***** END-POOL *****
 5654 000003B0                    484     _FROM_REWR_VEROK:
 5655 000003B0 D609               485             MOV.L   #_FROM_SCT_TOP_ADR,R6
 5656 000003B2 6662               486             MOV.L   @R6,R6                                  ; 書込み中の先頭のセクタテーブルア
                                          ドレス
 5657 000003B4 7604               487             ADD     #4,R6
 5658 000003B6 6162               488             MOV.L   @R6,R1                                  ; 次のﾌﾗｯｼｭROMｾｸﾀの先頭ｱﾄﾞﾚｽ
 5659 000003B8 3812               489             CMP/HS  R1,R8                                   ; 次のｾｸﾀになった？
 5660 000003BA 8B9A               490             BF      _FROM_CPUA_REWR_210                     ; いいえ
 5661                             491     
 5662 000003BC D706               492             MOV.L   #_FROM_SCT_TOP_ADR,R7
 5663 000003BE 2762               493             MOV.L   R6,@R7                                  ; 書込み中の先頭のセクタテーブルア
                                          ドレス
*** SuperH RISC engine ASSEMBLER V.7.01.02.000 ***    11/14/21 17:24:11                                                  PAGE    17
PROGRAM NAME =

 5664 000003C0 D706               494             MOV.L   #_VUP_DATA_AREA_ADR,R7
 5665 000003C2 2792               495             MOV.L   R9,@R7                                  ; 転送元先頭ｱﾄﾞﾚｽ
 5666 000003C4 D706               496             MOV.L   #_FROM_REWR_TOP_ADR,R7
 5667 000003C6 2782               497             MOV.L   R8,@R7                                  ; 書込み／消去セクタ先頭アドレス格
                                          納
 5668                             498     
 5669 000003C8 6162               499             MOV.L   @R6,R1                                  ; 次のﾌﾗｯｼｭROMｾｸﾀの先頭ｱﾄﾞﾚｽ
 5670 000003CA D606               500             MOV.L   #_FROM_REWR_END_ADR,R6
 5671 000003CC 6B62               501             MOV.L   @R6,R11                                 ; 書込み最終ｱﾄﾞﾚｽ
 5672 000003CE 31B2               502             CMP/HS  R11,R1                                  ; このセクタは最後？
 5673 000003D0 890A               503             BT      _FROM_CPUA_REWR_220                     ; はい
 5674                             504             M_BRA   _FROM_CPUA_REWR_203                     ; いいえ
 5675 000003D2 AF6B                   M           BRA     _FROM_CPUA_REWR_203
 5676 000003D4 0009                   M           NOP
 5677                             505     
 5678                                     ***** BEGIN-POOL *****
 5679 000003D6 0000                       ALIGNMENT CODE
 5680 000003D8 00000000                   DATA FOR SOURCE-LINE 485,492
 5681 000003DC 00000000                   DATA FOR SOURCE-LINE 494
 5682 000003E0 00000000                   DATA FOR SOURCE-LINE 496
 5683 000003E4 00000000                   DATA FOR SOURCE-LINE 500
 5684                                     ***** END-POOL *****
 5685 000003E8                    506     _FROM_CPUA_REWR_220:
 5686                             507             POP_REG1 R9
 5687                                 M                                   ; RE"+4" 00,00,00,04
 5688 000003E8 69F6                   M           MOV.L   @R15+,R9        ;
 5689                             508             POP_REG1 R8
 5690                                 M                                   ; RE"+4" 00,00,00,04
 5691 000003EA 68F6                   M           MOV.L   @R15+,R8        ;
 5692                             509     
 5693 000003EC 8583               510             MOV.W   @(VUP_DATA_WR_PC,R8),R0                 ;
 5694 000003EE 8193               511             MOV.W   R0,@(VUP_DATA_WR_PC,R9)                 ; 書込み完了応答
 5695                             512     
 5696 000003F0 DA03               513             MOV.L   #_FROM_REWR_STR_FLG,R10
 5697 000003F2 60A1               514             MOV.W   @R10,R0
 5698 000003F4 CB04               515             OR      #BIT2,R0                                ; 書込み完了ＯＮ！
 5699 000003F6 2A01               516             MOV.W   R0,@R10
 5700                             517     
 5701 000003F8                    518     _FROM_CPUA_REWR_240:
 5702 000003F8 E101               519             MOV     #1,R1
 5703                             520             M_BRA   _FROM_CPUA_REWR_END
 5704 000003FA A01F                   M           BRA     _FROM_CPUA_REWR_END
 5705 000003FC 0009                   M           NOP
 5706                             521     
 5707                             522     ;       -------------------------------------------------
 5708                             523     ;               CPUBから2000H転送完了信号OFF待ち
 5709                             524     ;       -------------------------------------------------
 5710                                     ***** BEGIN-POOL *****
 5711 000003FE 0000                       ALIGNMENT CODE
 5712 00000400 00000000                   DATA FOR SOURCE-LINE 513
 5713                                     ***** END-POOL *****
 5714 00000404                    525     _FROM_CPUA_REWR_250:
 5715 00000404 8584               526             MOV.W   @(VUP_REV1_PC,R8),R0                    ;
 5716 00000406 8800               527             CMP/EQ  #0,R0
 5717 00000408 8B04               528             BF      _FROM_CPUA_REWR_290                     ; いいえ
 5718                             529     
 5719 0000040A 8194               530             MOV.W   R0,@(VUP_REV1_PC,R9)                    ; 2000Ｈ受信応答
*** SuperH RISC engine ASSEMBLER V.7.01.02.000 ***    11/14/21 17:24:11                                                  PAGE    18
PROGRAM NAME =

 5720                             531     
 5721 0000040C DA03               532             MOV.L   #_FROM_REWR_STR_FLG,R10
 5722 0000040E 60A1               533             MOV.W   @R10,R0
 5723 00000410 C9FD               534             AND     #NBIT1,R0
 5724 00000412 2A01               535             MOV.W   R0,@R10
 5725                             536     
 5726 00000414                    537     _FROM_CPUA_REWR_290:
 5727 00000414 E101               538             MOV     #1,R1
 5728                             539             M_BRA   _FROM_CPUA_REWR_END
 5729 00000416 A011                   M           BRA     _FROM_CPUA_REWR_END
 5730 00000418 0009                   M           NOP
 5731                             540     
 5732                             541     ;       -------------------------------------------------
 5733                             542     ;               CPUBから書込み指令OFF待ち
 5734                             543     ;       -------------------------------------------------
 5735                                     ***** BEGIN-POOL *****
 5736 0000041A 0000                       ALIGNMENT CODE
 5737 0000041C 00000000                   DATA FOR SOURCE-LINE 532
 5738                                     ***** END-POOL *****
 5739 00000420                    544     _FROM_CPUA_REWR_300:
 5740 00000420 8583               545             MOV.W   @(VUP_DATA_WR_PC,R8),R0                 ;
 5741 00000422 8800               546             CMP/EQ  #0,R0                                   ; 書込み指令有り？
 5742 00000424 8B04               547             BF      _FROM_CPUA_REWR_340                     ; いいえ
 5743                             548     
 5744 00000426 8193               549             MOV.W   R0,@(VUP_DATA_WR_PC,R9)                 ; 書込み完了OFF応答
 5745                             550     
 5746 00000428 DA03               551             MOV.L   #_FROM_REWR_STR_FLG,R10
 5747 0000042A 60A1               552             MOV.W   @R10,R0
 5748 0000042C C9FB               553             AND     #NBIT2,R0
 5749 0000042E 2A01               554             MOV.W   R0,@R10
 5750                             555     
 5751 00000430                    556     _FROM_CPUA_REWR_340:
 5752 00000430 E101               557             MOV     #1,R1
 5753                             558             M_BRA   _FROM_CPUA_REWR_END
 5754 00000432 A003                   M           BRA     _FROM_CPUA_REWR_END
 5755 00000434 0009                   M           NOP
 5756                             559     
 5757                                     ***** BEGIN-POOL *****
 5758 00000436 0000                       ALIGNMENT CODE
 5759 00000438 00000000                   DATA FOR SOURCE-LINE 551
 5760                                     ***** END-POOL *****
 5761 0000043C                    560     _FROM_CPUA_REWR_END:
 5762                             561             SUB_END
 5763                                 M   ;;;;;;; ADD     #4,R15                  ;[不要?]
 5764 0000043C 4F26                   M           LDS.L   @R15+,PR                ;[必要]
 5765                             562             M_RTS
 5766 0000043E 000B                   M           RTS                             ;RTSの後ろの
 5767 00000440 0009                   M           NOP                             ;@R15+,PRはﾀﾞﾒ
 5768                             563     
 5769                             564     
 5770                             565     ;       **********************************************************************************
                                          ***
 5771                             566     ;       *****                                                                           **
                                          ***
 5772                             567     ;       *****                                                                           **
                                          ***
 5773                             568     ;       *****   受信データのSUMチェック                                                 **
*** SuperH RISC engine ASSEMBLER V.7.01.02.000 ***    11/14/21 17:24:11                                                  PAGE    19
PROGRAM NAME =

                                          ***
 5774                             569     ;       *****                                                                           **
                                          ***
 5775                             570     ;       *****   V05 (MAKE) 2006/12/26                                                   **
                                          ***
 5776                             571     ;       *****                                                                           **
                                          ***
 5777                             572     ;       **********************************************************************************
                                          ***
 5778          5AA53CC3           573     _FROMCHK_NASI_CODE      .EQU    H'5AA53CC3
 5779                             574             .IMPORT         _ROM_SUM_CODE;
 5780 00000442                    575     _VUP_PROG_SUM_CHK:
 5781                             576             SUB_START
 5782 00000442 4F22                   M           STS.L   PR,@-R15                ;[必要]
 5783                                 M   ;;;;;;; ADD     #-4,R15                 ;[不要?]
 5784                             577             PUSH_ALL
 5785                                 M           PUSH_REG1       R0      ;
 5786 00000444 2F06                   M           MOV.L   R0,@-R15                ;PUSH=SP-4
 5787                                 M                                           ;REG=>[SP]
 5788                                 M                                           ;"-4" FF,FF,FF,FC
 5789                                 M           PUSH_REG1       R1      ;
 5790 00000446 2F16                   M           MOV.L   R1,@-R15                ;PUSH=SP-4
 5791                                 M                                           ;REG=>[SP]
 5792                                 M                                           ;"-4" FF,FF,FF,FC
 5793                                 M           PUSH_REG1       R2      ;
 5794 00000448 2F26                   M           MOV.L   R2,@-R15                ;PUSH=SP-4
 5795                                 M                                           ;REG=>[SP]
 5796                                 M                                           ;"-4" FF,FF,FF,FC
 5797                                 M           PUSH_REG1       R3      ;
 5798 0000044A 2F36                   M           MOV.L   R3,@-R15                ;PUSH=SP-4
 5799                                 M                                           ;REG=>[SP]
 5800                                 M                                           ;"-4" FF,FF,FF,FC
 5801                                 M           PUSH_REG1       R4      ;
 5802 0000044C 2F46                   M           MOV.L   R4,@-R15                ;PUSH=SP-4
 5803                                 M                                           ;REG=>[SP]
 5804                                 M                                           ;"-4" FF,FF,FF,FC
 5805                                 M           PUSH_REG1       R5      ;
 5806 0000044E 2F56                   M           MOV.L   R5,@-R15                ;PUSH=SP-4
 5807                                 M                                           ;REG=>[SP]
 5808                                 M                                           ;"-4" FF,FF,FF,FC
 5809                                 M           PUSH_REG1       R6      ;
 5810 00000450 2F66                   M           MOV.L   R6,@-R15                ;PUSH=SP-4
 5811                                 M                                           ;REG=>[SP]
 5812                                 M                                           ;"-4" FF,FF,FF,FC
 5813                                 M           PUSH_REG1       R7      ;
 5814 00000452 2F76                   M           MOV.L   R7,@-R15                ;PUSH=SP-4
 5815                                 M                                           ;REG=>[SP]
 5816                                 M                                           ;"-4" FF,FF,FF,FC
 5817                                 M           PUSH_REG1       R8      ;
 5818 00000454 2F86                   M           MOV.L   R8,@-R15                ;PUSH=SP-4
 5819                                 M                                           ;REG=>[SP]
 5820                                 M                                           ;"-4" FF,FF,FF,FC
 5821                                 M           PUSH_REG1       R9      ;
 5822 00000456 2F96                   M           MOV.L   R9,@-R15                ;PUSH=SP-4
 5823                                 M                                           ;REG=>[SP]
 5824                                 M                                           ;"-4" FF,FF,FF,FC
 5825                                 M           PUSH_REG1       R10     ;
*** SuperH RISC engine ASSEMBLER V.7.01.02.000 ***    11/14/21 17:24:11                                                  PAGE    20
PROGRAM NAME =

 5826 00000458 2FA6                   M           MOV.L   R10,@-R15               ;PUSH=SP-4
 5827                                 M                                           ;REG=>[SP]
 5828                                 M                                           ;"-4" FF,FF,FF,FC
 5829                                 M           PUSH_REG1       R11     ;
 5830 0000045A 2FB6                   M           MOV.L   R11,@-R15               ;PUSH=SP-4
 5831                                 M                                           ;REG=>[SP]
 5832                                 M                                           ;"-4" FF,FF,FF,FC
 5833                                 M           PUSH_REG1       R12     ;
 5834 0000045C 2FC6                   M           MOV.L   R12,@-R15               ;PUSH=SP-4
 5835                                 M                                           ;REG=>[SP]
 5836                                 M                                           ;"-4" FF,FF,FF,FC
 5837                                 M           PUSH_REG1       R13     ;
 5838 0000045E 2FD6                   M           MOV.L   R13,@-R15               ;PUSH=SP-4
 5839                                 M                                           ;REG=>[SP]
 5840                                 M                                           ;"-4" FF,FF,FF,FC
 5841                                 M           PUSH_REG1       R14     ;
 5842 00000460 2FE6                   M           MOV.L   R14,@-R15               ;PUSH=SP-4
 5843                                 M                                           ;REG=>[SP]
 5844                                 M                                           ;"-4" FF,FF,FF,FC
 5845                                 M           PUSH_MACHL              ;
 5846 00000462 4F02                   M           STS.L   MACH,@-R15
 5847 00000464 4F12                   M           STS.L   MACL,@-R15
 5848                                 M           PUSH_SYS_REG    GBR     ;
 5849 00000466 4F13                   M           STC.L   GBR,@-R15
 5850                                 M           .AIF    3 EQ 3
 5851                                             .AELSE
 5852                                             PUSH_FPU_ALL            ;2001-07-08
 5853                                             .AENDI
 5854                             578     
 5855 00000468 8580               579             MOV.W   @(VUP_SEL_PC,R8),R0                     ; ﾊﾞｰｼﾞｮﾝUP種別CPUDから
 5856 0000046A 8808               580             CMP/EQ  #8,R0                                   ; CPUBﾌﾟﾛｸﾞﾗﾑ？
 5857 0000046C 8901               581             BT      _VUP_PROG_SUMCHK_020
 5858                             582             M_BRA   _VUP_PROG_SUMCHK_EXT
 5859 0000046E A055                   M           BRA     _VUP_PROG_SUMCHK_EXT
 5860 00000470 0009                   M           NOP
 5861                             583     
 5862 00000472                    584     _VUP_PROG_SUMCHK_020:
 5863 00000472 D104               585             MOV.L   #_VUP_PRG_NON_SUM_CODE,R1
 5864 00000474 6011               586             MOV.W   @R1,R0
 5865 00000476 9203               587             MOV.W   #_NON_SUM_CODE,R2
 5866 00000478 3020               588             CMP/EQ  R2,R0                                   ; SUM CHECK無しｺｰﾄﾞ？
 5867 0000047A 8B05               589             BF      _VUP_PROG_SUMCHK_030                    ; いいえ
 5868                             590             M_BRA   _VUP_PROG_SUMCHK_EXT                    ; はい
 5869 0000047C A04E                   M           BRA     _VUP_PROG_SUMCHK_EXT
 5870 0000047E 0009                   M           NOP
 5871                             591     
 5872                                     ***** BEGIN-POOL *****
 5873 00000480 0395                       DATA FOR SOURCE-LINE 587
 5874 00000482 0000                       ALIGNMENT CODE
 5875 00000484 00000000                   DATA FOR SOURCE-LINE 585
 5876                                     ***** END-POOL *****
 5877 00000488                    592     _VUP_PROG_SUMCHK_030:
 5878 00000488 D917               593             MOV.L   #_VUP_DATA_AREA_CPUB,R9                 ; ﾊﾞｰｼﾞｮﾝUPﾌﾟﾛｸﾞﾗﾑ格納領域先頭
 5879 0000048A D818               594             MOV.L   #_ROM_SUM_CODE,R8                       ;
 5880                             595     ;//SIT4-MC      MOV.L   #H'A0000000,R7
 5881 0000048C D718               596             MOV.L   #_ResetHandler,R7
 5882 0000048E 3878               597             SUB     R7,R8
*** SuperH RISC engine ASSEMBLER V.7.01.02.000 ***    11/14/21 17:24:11                                                  PAGE    21
PROGRAM NAME =

 5883 00000490 389C               598             ADD     R9,R8                                   ; ﾊﾞｰｼﾞｮﾝUPﾌﾟﾛｸﾞﾗﾑ格納領域最終
 5884 00000492 222A               599             XOR     R2,R2                                   ; SUM作成用
 5885 00000494 9624               600             MOV.W   #H'7FFF,R6
 5886                             601     
 5887 00000496                    602     _VUP_PROG_SUMCHK_050:
 5888 00000496 3982               603             CMP/HS  R8,R9                                   ; 最終ｱﾄﾞﾚｽまできた？
 5889 00000498 8937               604             BT      _VUP_PROG_SUMCHK_100                    ; はい
 5890 0000049A 6096               605             MOV.L   @R9+,R0
 5891 0000049C 320C               606             ADD     R0,R2
 5892 0000049E 6793               607             MOV     R9,R7
 5893 000004A0 2769               608             AND     R6,R7
 5894 000004A2 2778               609             TST     R7,R7
 5895 000004A4 8BF7               610             BF      _VUP_PROG_SUMCHK_050
 5896                             611             _WDT_CLR                                        ; R0,R10 USED
 5897                                 M           PUSH_REG1 R0
 5898 000004A6 2F06                   M           MOV.L   R0,@-R15                ;PUSH=SP-4
 5899                                 M                                           ;REG=>[SP]
 5900                                 M                                           ;"-4" FF,FF,FF,FC
 5901                                 M           PUSH_REG1 R10
 5902 000004A8 2FA6                   M           MOV.L   R10,@-R15               ;PUSH=SP-4
 5903                                 M                                           ;REG=>[SP]
 5904                                 M                                           ;"-4" FF,FF,FF,FC
 5905                                 M           PUSH_REG1 R14
 5906 000004AA 2FE6                   M           MOV.L   R14,@-R15               ;PUSH=SP-4
 5907                                 M                                           ;REG=>[SP]
 5908                                 M                                           ;"-4" FF,FF,FF,FC
 5909                                 M   
 5910 000004AC DA11                   M           MOV.L   #_PJDR,R10                              ;?????????今は不要2015-01-05ｺﾒﾝﾄ
 5911 000004AE 60A0                   M           MOV.B   @R10,R0
 5912 000004B0 CB10                   M           OR      #BIT4,R0
 5913 000004B2 2A00                   M           MOV.B   R0,@R10
 5914 000004B4 C9EF                   M           AND     #NBIT4,R0
 5915 000004B6 2A00                   M           MOV.B   R0,@R10
 5916                                 M   
 5917                                 M           ;====== 2006-10-19 SAITO 追加　WDTﾎﾟｰﾄ変更 ======
 5918 000004B8 DA0F                   M           MOV.L   #_IOGA2_CTRL_DAT1+_IOGA_P5,R10          ;
 5919 000004BA 60A1                   M           MOV.W   @R10,R0                                 ;
 5920 000004BC 9E11                   M           MOV.W   #BIT0,R14                               ;
 5921 000004BE 20EB                   M           OR      R14,R0                                  ;
 5922 000004C0 2A01                   M           MOV.W   R0,@R10                                 ; WORK
 5923                                 M   
 5924                                 M   ;;      MOV.L   #_IOGA2_CTRL_DAT1+_IOGA_P5,R10  ; WORK ADDRESS
 5925                                 M   ;;      MOV.W   @R10,R0                                 ;
 5926 000004C2 9E0F                   M           MOV.W   #_IO2B_P5EX,R14                         ;
 5927 000004C4 20EA                   M           XOR     R14,R0                                  ;
 5928 000004C6 DA0D                   M           MOV.L   #_dio_top2+_IOGA_PDR5,R10               ; IOGA PF ADDRESS
 5929 000004C8 2A01                   M           MOV.W   R0,@R10                                 ; 実出力SET
 5930                                 M   
 5931 000004CA DA0B                   M           MOV.L   #_IOGA2_CTRL_DAT1+_IOGA_P5,R10          ;
 5932 000004CC 60A1                   M           MOV.W   @R10,R0                                 ;
 5933 000004CE 9E0A                   M           MOV.W   #NBIT0,R14                              ;
 5934 000004D0 20E9                   M           AND     R14,R0                                  ;
 5935 000004D2 2A01                   M           MOV.W   R0,@R10                                 ; WORK
 5936                                 M   
 5937                                 M   ;;      MOV.L   #_IOGA2_CTRL_DAT1+_IOGA_P5,R10  ; WORK ADDRESS
 5938                                 M   ;;      MOV.W   @R10,R0                                 ;
 5939 000004D4 9E06                   M           MOV.W   #_IO2B_P5EX,R14                         ;
*** SuperH RISC engine ASSEMBLER V.7.01.02.000 ***    11/14/21 17:24:11                                                  PAGE    22
PROGRAM NAME =

 5940 000004D6 20EA                   M           XOR     R14,R0                                  ;
 5941 000004D8 DA08                   M           MOV.L   #_dio_top2+_IOGA_PDR5,R10               ; IOGA PF ADDRESS
 5942 000004DA 2A01                   M           MOV.W   R0,@R10                                 ; 実出力SET
 5943                                 M   
 5944                                 M           M_BRA   AAA00002
 5945 000004DC A010                   M           BRA     AAA00002
 5946 000004DE 0009                   M           NOP
 5947                                 M   ***** BEGIN-POOL *****
 5948 000004E0 7FFF                   M   DATA FOR SOURCE-LINE 600
 5949 000004E2 0001                   M   DATA FOR SOURCE-LINE 611
 5950 000004E4 0000                   M   DATA FOR SOURCE-LINE 611,611
 5951 000004E6 00FE                   M   DATA FOR SOURCE-LINE 611
 5952 000004E8 AC400000               M   DATA FOR SOURCE-LINE 593
 5953 000004EC 00000000               M   DATA FOR SOURCE-LINE 594
 5954 000004F0 00000000               M   DATA FOR SOURCE-LINE 596
 5955 000004F4 00000000               M   DATA FOR SOURCE-LINE 611
 5956 000004F8 00000000               M   DATA FOR SOURCE-LINE 611,611
 5957 000004FC 00000000               M   DATA FOR SOURCE-LINE 611,611
 5958                                 M   ***** END-POOL *****
 5959 00000500                        M   AAA00002:
 5960                                 M           POP_REG1 R14
 5961                                 M                                   ; RE"+4" 00,00,00,04
 5962 00000500 6EF6                   M           MOV.L   @R15+,R14        ;
 5963                                 M           POP_REG1 R10
 5964                                 M                                   ; RE"+4" 00,00,00,04
 5965 00000502 6AF6                   M           MOV.L   @R15+,R10        ;
 5966                                 M           POP_REG1 R0
 5967                                 M                                   ; RE"+4" 00,00,00,04
 5968 00000504 60F6                   M           MOV.L   @R15+,R0        ;
 5969                             612             M_BRA   _VUP_PROG_SUMCHK_050
 5970 00000506 AFC6                   M           BRA     _VUP_PROG_SUMCHK_050
 5971 00000508 0009                   M           NOP
 5972                             613     
 5973 0000050A                    614     _VUP_PROG_SUMCHK_100:
 5974 0000050A 6092               615             MOV.L   @R9,R0                                  ; 送られてきたSUM
 5975 0000050C D10E               616             MOV.L   #_FROMCHK_NASI_CODE,R1
 5976 0000050E 3010               617             CMP/EQ  R1,R0                                   ; SUM CHECK無し？
 5977 00000510 8904               618             BT      _VUP_PROG_SUMCHK_150                    ; はい
 5978 00000512 3020               619             CMP/EQ  R2,R0                                   ; SUM CHECK!!
 5979 00000514 8902               620             BT      _VUP_PROG_SUMCHK_150                    ; OK
 5980 00000516                    621     _VUP_PROG_SUMCHK_NG:
 5981 00000516 9016               622             MOV.W   #H'0091,R0                              ; 受信したﾌﾟﾛｸﾞﾗﾑのSUM異常
 5982 00000518 D10C               623             MOV.L   #_VUP_PRG_NG_DAT,R1
 5983 0000051A 2101               624             MOV.W   R0,@R1
 5984                             625     
 5985 0000051C                    626     _VUP_PROG_SUMCHK_150:
 5986 0000051C                    627     _VUP_PROG_SUMCHK_EXT:
 5987                             628             POP_ALL
 5988                                 M           .AIF    3 EQ 3
 5989                                             .AELSE
 5990                                             POP_FPU_ALL             ;2001-07-08
 5991                                             .AENDI
 5992                                 M           POP_SYS_REG     GBR     ;
 5993 0000051C 4F17                   M           LDC.L   @R15+,GBR
 5994                                 M           POP_MACHL               ;
 5995 0000051E 4F16                   M           LDS.L   @R15+,MACL
 5996 00000520 4F06                   M           LDS.L   @R15+,MACH
*** SuperH RISC engine ASSEMBLER V.7.01.02.000 ***    11/14/21 17:24:11                                                  PAGE    23
PROGRAM NAME =

 5997                                 M           POP_REG1        R14     ;
 5998                                 M                                   ; RE"+4" 00,00,00,04
 5999 00000522 6EF6                   M           MOV.L   @R15+,R14        ;
 6000                                 M           POP_REG1        R13     ;
 6001                                 M                                   ; RE"+4" 00,00,00,04
 6002 00000524 6DF6                   M           MOV.L   @R15+,R13        ;
 6003                                 M           POP_REG1        R12     ;
 6004                                 M                                   ; RE"+4" 00,00,00,04
 6005 00000526 6CF6                   M           MOV.L   @R15+,R12        ;
 6006                                 M           POP_REG1        R11     ;
 6007                                 M                                   ; RE"+4" 00,00,00,04
 6008 00000528 6BF6                   M           MOV.L   @R15+,R11        ;
 6009                                 M           POP_REG1        R10     ;
 6010                                 M                                   ; RE"+4" 00,00,00,04
 6011 0000052A 6AF6                   M           MOV.L   @R15+,R10        ;
 6012                                 M           POP_REG1        R9      ;
 6013                                 M                                   ; RE"+4" 00,00,00,04
 6014 0000052C 69F6                   M           MOV.L   @R15+,R9        ;
 6015                                 M           POP_REG1        R8      ;
 6016                                 M                                   ; RE"+4" 00,00,00,04
 6017 0000052E 68F6                   M           MOV.L   @R15+,R8        ;
 6018                                 M           POP_REG1        R7      ;
 6019                                 M                                   ; RE"+4" 00,00,00,04
 6020 00000530 67F6                   M           MOV.L   @R15+,R7        ;
 6021                                 M           POP_REG1        R6      ;
 6022                                 M                                   ; RE"+4" 00,00,00,04
 6023 00000532 66F6                   M           MOV.L   @R15+,R6        ;
 6024                                 M           POP_REG1        R5      ;
 6025                                 M                                   ; RE"+4" 00,00,00,04
 6026 00000534 65F6                   M           MOV.L   @R15+,R5        ;
 6027                                 M           POP_REG1        R4      ;
 6028                                 M                                   ; RE"+4" 00,00,00,04
 6029 00000536 64F6                   M           MOV.L   @R15+,R4        ;
 6030                                 M           POP_REG1        R3      ;
 6031                                 M                                   ; RE"+4" 00,00,00,04
 6032 00000538 63F6                   M           MOV.L   @R15+,R3        ;
 6033                                 M           POP_REG1        R2      ;
 6034                                 M                                   ; RE"+4" 00,00,00,04
 6035 0000053A 62F6                   M           MOV.L   @R15+,R2        ;
 6036                                 M           POP_REG1        R1      ;
 6037                                 M                                   ; RE"+4" 00,00,00,04
 6038 0000053C 61F6                   M           MOV.L   @R15+,R1        ;
 6039                                 M           POP_REG1        R0      ;
 6040                                 M                                   ; RE"+4" 00,00,00,04
 6041 0000053E 60F6                   M           MOV.L   @R15+,R0        ;
 6042                             629             SUB_END
 6043                                 M   ;;;;;;; ADD     #4,R15                  ;[不要?]
 6044 00000540 4F26                   M           LDS.L   @R15+,PR                ;[必要]
 6045                             630             M_RTS
 6046 00000542 000B                   M           RTS                             ;RTSの後ろの
 6047 00000544 0009                   M           NOP                             ;@R15+,PRはﾀﾞﾒ
 6048                             631     
 6049                             632     
 6050                             633     ;       **********************************************************************************
                                          ***
 6051                             634     ;       *****                                                                           **
                                          ***
*** SuperH RISC engine ASSEMBLER V.7.01.02.000 ***    11/14/21 17:24:11                                                  PAGE    24
PROGRAM NAME =

 6052                             635     ;       *****           WORK RAM                                                        **
                                          ***
 6053                             636     ;       *****                                                                           **
                                          ***
 6054                             637     ;       *****                                                                           **
                                          ***
 6055                             638     ;       **********************************************************************************
                                          ***
 6056                                     ***** BEGIN-POOL *****
 6057 00000546 0091                       DATA FOR SOURCE-LINE 622
 6058 00000548 5AA53CC3                   DATA FOR SOURCE-LINE 616
 6059 0000054C 00000000                   DATA FOR SOURCE-LINE 623
 6060                                     ***** END-POOL *****
 6061 00000000                    639             .SECTION        Bvupwkram,CODE,ALIGN=4
 6062 00000000 00000004           640     _FROM_TOP_ADR           .SRES           4               ;
 6063 00000004 00000004           641     _FROM_SCT_TOP_ADR       .SRES           4               ;
 6064 00000008 00000004           642     _FROM_REWR_TOP_ADR      .SRES           4               ;
 6065 0000000C 00000004           643     _FROM_REWR_END_ADR      .SRES           4               ;
 6066 00000010 00000004           644     _VUP_DATA_AREA_ADR      .SRES           4               ;
 6067 00000014 00000002           645     _FROM_REWR_STR_FLG      .SRES           2               ;
 6068 00000018                    646             .ALIGN 4
 6069 00000018 00000020           647     _VUP_WKRAM              .SRES           2*16            ;
 6070 00000038 00000002           648     _VUP_PRG_NG_DAT         .SRES           2               ; 2006/12/26 V05
 6071 0000003A 00000002           649     _VUP_PRG_RETRY_CNT      .SRES           2               ; 2006/12/26 V05
 6072 0000003C 00000002           650     _VUP_PRG_NON_SUM_CODE   .SRES           2               ; 2006/12/26 V05
 6073                             651     
 6074                             652     
 6075 00000550                    653             .SECTION        PvupsciROM,CODE,ALIGN=4
 6076                             654     ;       ----------------------------------------------------------------------------------
                                          ---
 6077                             655     ;       -----                                                                           --
                                          ---
 6078                             656     ;       -----   ＦＲＯＭへ消去コマンド発行                                              --
                                          ---
 6079                             657     ;       -----                                                                           --
                                          ---
 6080                             658     ;       -----   Input   : R13 <- _from_top                                              --
                                          ---
 6081                             659     ;       -----   Input   : R8 <- 消去するｾｸﾀの先頭ｱﾄﾞﾚｽ                                  --
                                          ---
 6082                             660     ;       -----                                                                           --
                                          ---
 6083                             661     ;       ----------------------------------------------------------------------------------
                                          ---
 6084                             662             .EXPORT _FROM_ERASE_CMND
 6085 00000550                    663     _FROM_ERASE_CMND:
 6086                             664             SUB_START
 6087 00000550 4F22                   M           STS.L   PR,@-R15                ;[必要]
 6088                                 M   ;;;;;;; ADD     #-4,R15                 ;[不要?]
 6089                             665     
 6090 00000552 9122               666             MOV.W   #FROM_ERS_CMND_DAT0,R1
 6091 00000554 D213               667             MOV.L   #FROM_ERS_CMND_ADR0,R2
 6092 00000556 4200               668             SHLL    R2
 6093 00000558 32DC               669             ADD     R13,R2
 6094 0000055A 2211               670             MOV.W   R1,@R2                                  ; 消去ｺﾏﾝﾄﾞ1(AAH)
 6095 0000055C 0009               671             NOP
 6096                             672     
*** SuperH RISC engine ASSEMBLER V.7.01.02.000 ***    11/14/21 17:24:11                                                  PAGE    25
PROGRAM NAME =

 6097 0000055E 911D               673             MOV.W   #FROM_ERS_CMND_DAT1,R1
 6098 00000560 D211               674             MOV.L   #FROM_ERS_CMND_ADR1,R2
 6099 00000562 4200               675             SHLL    R2
 6100 00000564 32DC               676             ADD     R13,R2
 6101 00000566 2211               677             MOV.W   R1,@R2                                  ; 消去ｺﾏﾝﾄﾞ2(55H)
 6102 00000568 0009               678             NOP
 6103                             679     
 6104 0000056A 9118               680             MOV.W   #FROM_ERS_CMND_DAT2,R1
 6105 0000056C D20D               681             MOV.L   #FROM_ERS_CMND_ADR2,R2
 6106 0000056E 4200               682             SHLL    R2
 6107 00000570 32DC               683             ADD     R13,R2
 6108 00000572 2211               684             MOV.W   R1,@R2                                  ; 消去ｺﾏﾝﾄﾞ3(80H)
 6109 00000574 0009               685             NOP
 6110                             686     
 6111 00000576 9110               687             MOV.W   #FROM_ERS_CMND_DAT3,R1
 6112 00000578 D20A               688             MOV.L   #FROM_ERS_CMND_ADR3,R2
 6113 0000057A 4200               689             SHLL    R2
 6114 0000057C 32DC               690             ADD     R13,R2
 6115 0000057E 2211               691             MOV.W   R1,@R2                                  ; 消去ｺﾏﾝﾄﾞ4(AAH)
 6116 00000580 0009               692             NOP
 6117                             693     
 6118 00000582 910B               694             MOV.W   #FROM_ERS_CMND_DAT4,R1
 6119 00000584 D208               695             MOV.L   #FROM_ERS_CMND_ADR4,R2
 6120 00000586 4200               696             SHLL    R2
 6121 00000588 32DC               697             ADD     R13,R2
 6122 0000058A 2211               698             MOV.W   R1,@R2                                  ; 消去ｺﾏﾝﾄﾞ5(55H)
 6123 0000058C 0009               699             NOP
 6124                             700     
 6125 0000058E 9107               701             MOV.W   #FROM_ERS_DAT11,R1                      ;
 6126 00000590 2811               702             MOV.W   R1,@R8                                  ; 消すｾｸﾀの先頭ｱﾄﾞﾚｽに消去ｺﾏﾝﾄﾞﾗｲﾄ
 6127 00000592 0009               703             NOP
 6128                             704     
 6129                             705             SUB_END
 6130                                 M   ;;;;;;; ADD     #4,R15                  ;[不要?]
 6131 00000594 4F26                   M           LDS.L   @R15+,PR                ;[必要]
 6132                             706             M_RTS
 6133 00000596 000B                   M           RTS                             ;RTSの後ろの
 6134 00000598 0009                   M           NOP                             ;@R15+,PRはﾀﾞﾒ
 6135                             707     
 6136                             708     
 6137                             709     ;       ----------------------------------------------------------------------------------
                                          ---
 6138                             710     ;       -----                                                                           --
                                          ---
 6139                             711     ;       -----   ＦＲＯＭ消去時のポーリング                                              --
                                          ---
 6140                             712     ;       -----                                                                           --
                                          ---
 6141                             713     ;       -----   Input   : R8 <- 消去先頭ｱﾄﾞﾚｽ                                           --
                                          ---
 6142                             714     ;       -----                                                                           --
                                          ---
 6143                             715     ;       ----------------------------------------------------------------------------------
                                          ---
 6144                             716             .EXPORT _FROM_ERASE_POLLINKG
 6145                                     ***** BEGIN-POOL *****
 6146 0000059A 00AA                       DATA FOR SOURCE-LINE 666,687
*** SuperH RISC engine ASSEMBLER V.7.01.02.000 ***    11/14/21 17:24:11                                                  PAGE    26
PROGRAM NAME =

 6147 0000059C 0055                       DATA FOR SOURCE-LINE 673,694
 6148 0000059E 0080                       DATA FOR SOURCE-LINE 680
 6149 000005A0 0030                       DATA FOR SOURCE-LINE 701
 6150 000005A2 0000                       ALIGNMENT CODE
 6151 000005A4 00000555                   DATA FOR SOURCE-LINE 667,681,688
 6152 000005A8 000002AA                   DATA FOR SOURCE-LINE 674,695
 6153                                     ***** END-POOL *****
 6154 000005AC                    717     _FROM_ERASE_POLLINKG:
 6155                             718             SUB_START
 6156 000005AC 4F22                   M           STS.L   PR,@-R15                ;[必要]
 6157                                 M   ;;;;;;; ADD     #-4,R15                 ;[不要?]
 6158                             719     
 6159 000005AE 222A               720             XOR     R2,R2
 6160                             721     
 6161 000005B0                    722     _FEP_050:
 6162                             723             _WDT_CLR                                        ; R0,R10 USED
 6163                                 M           PUSH_REG1 R0
 6164 000005B0 2F06                   M           MOV.L   R0,@-R15                ;PUSH=SP-4
 6165                                 M                                           ;REG=>[SP]
 6166                                 M                                           ;"-4" FF,FF,FF,FC
 6167                                 M           PUSH_REG1 R10
 6168 000005B2 2FA6                   M           MOV.L   R10,@-R15               ;PUSH=SP-4
 6169                                 M                                           ;REG=>[SP]
 6170                                 M                                           ;"-4" FF,FF,FF,FC
 6171                                 M           PUSH_REG1 R14
 6172 000005B4 2FE6                   M           MOV.L   R14,@-R15               ;PUSH=SP-4
 6173                                 M                                           ;REG=>[SP]
 6174                                 M                                           ;"-4" FF,FF,FF,FC
 6175                                 M   
 6176 000005B6 DA0E                   M           MOV.L   #_PJDR,R10                              ;?????????今は不要2015-01-05ｺﾒﾝﾄ
 6177 000005B8 60A0                   M           MOV.B   @R10,R0
 6178 000005BA CB10                   M           OR      #BIT4,R0
 6179 000005BC 2A00                   M           MOV.B   R0,@R10
 6180 000005BE C9EF                   M           AND     #NBIT4,R0
 6181 000005C0 2A00                   M           MOV.B   R0,@R10
 6182                                 M   
 6183                                 M           ;====== 2006-10-19 SAITO 追加　WDTﾎﾟｰﾄ変更 ======
 6184 000005C2 DA0C                   M           MOV.L   #_IOGA2_CTRL_DAT1+_IOGA_P5,R10          ;
 6185 000005C4 60A1                   M           MOV.W   @R10,R0                                 ;
 6186 000005C6 9E10                   M           MOV.W   #BIT0,R14                               ;
 6187 000005C8 20EB                   M           OR      R14,R0                                  ;
 6188 000005CA 2A01                   M           MOV.W   R0,@R10                                 ; WORK
 6189                                 M   
 6190                                 M   ;;      MOV.L   #_IOGA2_CTRL_DAT1+_IOGA_P5,R10  ; WORK ADDRESS
 6191                                 M   ;;      MOV.W   @R10,R0                                 ;
 6192 000005CC 9E0E                   M           MOV.W   #_IO2B_P5EX,R14                         ;
 6193 000005CE 20EA                   M           XOR     R14,R0                                  ;
 6194 000005D0 DA09                   M           MOV.L   #_dio_top2+_IOGA_PDR5,R10               ; IOGA PF ADDRESS
 6195 000005D2 2A01                   M           MOV.W   R0,@R10                                 ; 実出力SET
 6196                                 M   
 6197 000005D4 DA07                   M           MOV.L   #_IOGA2_CTRL_DAT1+_IOGA_P5,R10          ;
 6198 000005D6 60A1                   M           MOV.W   @R10,R0                                 ;
 6199 000005D8 9E09                   M           MOV.W   #NBIT0,R14                              ;
 6200 000005DA 20E9                   M           AND     R14,R0                                  ;
 6201 000005DC 2A01                   M           MOV.W   R0,@R10                                 ; WORK
 6202                                 M   
 6203                                 M   ;;      MOV.L   #_IOGA2_CTRL_DAT1+_IOGA_P5,R10  ; WORK ADDRESS
*** SuperH RISC engine ASSEMBLER V.7.01.02.000 ***    11/14/21 17:24:11                                                  PAGE    27
PROGRAM NAME =

 6204                                 M   ;;      MOV.W   @R10,R0                                 ;
 6205 000005DE 9E05                   M           MOV.W   #_IO2B_P5EX,R14                         ;
 6206 000005E0 20EA                   M           XOR     R14,R0                                  ;
 6207 000005E2 DA05                   M           MOV.L   #_dio_top2+_IOGA_PDR5,R10               ; IOGA PF ADDRESS
 6208 000005E4 2A01                   M           MOV.W   R0,@R10                                 ; 実出力SET
 6209                                 M   
 6210                                 M           M_BRA   AAA00003
 6211 000005E6 A009                   M           BRA     AAA00003
 6212 000005E8 0009                   M           NOP
 6213                                 M   ***** BEGIN-POOL *****
 6214 000005EA 0001                   M   DATA FOR SOURCE-LINE 723
 6215 000005EC 0000                   M   DATA FOR SOURCE-LINE 723,723
 6216 000005EE 00FE                   M   DATA FOR SOURCE-LINE 723
 6217 000005F0 00000000               M   DATA FOR SOURCE-LINE 723
 6218 000005F4 00000000               M   DATA FOR SOURCE-LINE 723,723
 6219 000005F8 00000000               M   DATA FOR SOURCE-LINE 723,723
 6220                                 M   ***** END-POOL *****
 6221 000005FC                        M   AAA00003:
 6222                                 M           POP_REG1 R14
 6223                                 M                                   ; RE"+4" 00,00,00,04
 6224 000005FC 6EF6                   M           MOV.L   @R15+,R14        ;
 6225                                 M           POP_REG1 R10
 6226                                 M                                   ; RE"+4" 00,00,00,04
 6227 000005FE 6AF6                   M           MOV.L   @R15+,R10        ;
 6228                                 M           POP_REG1 R0
 6229                                 M                                   ; RE"+4" 00,00,00,04
 6230 00000600 60F6                   M           MOV.L   @R15+,R0        ;
 6231                             724     
 6232 00000602 6081               725             MOV.W   @R8,R0
 6233 00000604 6103               726             MOV     R0,R1
 6234 00000606 C980               727             AND     #BIT7,R0
 6235 00000608 2008               728             TST     R0,R0
 6236 0000060A 8B0C               729             BF      _FEP_END
 6237                             730     
 6238 0000060C 6013               731             MOV     R1,R0
 6239 0000060E C920               732             AND     #BIT5,R0
 6240 00000610 2008               733             TST     R0,R0
 6241                             734     ;///////        BT      _FEP_050
 6242 00000612 8B01               735             BF      _FEP_100
 6243                             736     
 6244                             737     ;//SHIMA02/09/26        PUSH_ALL
 6245                             738     ;//SHIMA02/09/26        FAR_JSR #_SCI0_MAIN,R0                          ; 常時通信ができる
                                          ように！！
 6246                             739     ;//SHIMA02/09/26        POP_ALL
 6247                             740             M_BRA   _FEP_050
 6248 00000614 AFCC                   M           BRA     _FEP_050
 6249 00000616 0009                   M           NOP
 6250                             741     
 6251 00000618                    742     _FEP_100:
 6252 00000618 6081               743             MOV.W   @R8,R0
 6253 0000061A C980               744             AND     #BIT7,R0
 6254 0000061C 2008               745             TST     R0,R0
 6255 0000061E 8B02               746             BF      _FEP_END
 6256                             747     
 6257 00000620                    748     _FEP_ERR:                                               ; FROM消去ｴﾗｰ
 6258                             749     ;//SIT4-MC      _WDT_CLR                                        ; R0,R10 USED
 6259                             750     ;//SIT4-MC      M_BRA   _FEP_ERR
*** SuperH RISC engine ASSEMBLER V.7.01.02.000 ***    11/14/21 17:24:11                                                  PAGE    28
PROGRAM NAME =

 6260 00000620 D002               751             MOV.L   #1,R0
 6261 00000622 DA03               752             MOV.L   #_VUP_PRG_NG_DAT,R10
 6262 00000624 2A01               753             MOV.W   R0,@R10
 6263                             754     
 6264 00000626                    755     _FEP_END:
 6265                             756             SUB_END
 6266                                 M   ;;;;;;; ADD     #4,R15                  ;[不要?]
 6267 00000626 4F26                   M           LDS.L   @R15+,PR                ;[必要]
 6268                             757             M_RTS
 6269 00000628 000B                   M           RTS                             ;RTSの後ろの
 6270 0000062A 0009                   M           NOP                             ;@R15+,PRはﾀﾞﾒ
 6271                             758     
 6272                             759     
 6273                             760     ;       ----------------------------------------------------------------------------------
                                          ---
 6274                             761     ;       -----                                                                           --
                                          ---
 6275                             762     ;       -----   ＦＲＯＭへ書込みコマンド発行                                            --
                                          ---
 6276                             763     ;       -----                                                                           --
                                          ---
 6277                             764     ;       -----   Input   : R13 <- _from_top                                              --
                                          ---
 6278                             765     ;       -----                                                                           --
                                          ---
 6279                             766     ;       ----------------------------------------------------------------------------------
                                          ---
 6280                             767             .EXPORT _FROM_WRITE_CMND
 6281                                     ***** BEGIN-POOL *****
 6282 0000062C 00000001                   DATA FOR SOURCE-LINE 751
 6283 00000630 00000000                   DATA FOR SOURCE-LINE 752
 6284                                     ***** END-POOL *****
 6285 00000634                    768     _FROM_WRITE_CMND:
 6286                             769             SUB_START
 6287 00000634 4F22                   M           STS.L   PR,@-R15                ;[必要]
 6288                                 M   ;;;;;;; ADD     #-4,R15                 ;[不要?]
 6289                             770     
 6290 00000636 9113               771             MOV.W   #FROM_WR_CMND_DAT0,R1
 6291 00000638 D20B               772             MOV.L   #FROM_WR_CMND_ADR0,R2
 6292 0000063A 4200               773             SHLL    R2
 6293 0000063C 32DC               774             ADD     R13,R2
 6294 0000063E 2211               775             MOV.W   R1,@R2
 6295 00000640 0009               776             NOP
 6296                             777     
 6297 00000642 910E               778             MOV.W   #FROM_WR_CMND_DAT1,R1
 6298 00000644 D209               779             MOV.L   #FROM_WR_CMND_ADR1,R2
 6299 00000646 4200               780             SHLL    R2
 6300 00000648 32DC               781             ADD     R13,R2
 6301 0000064A 2211               782             MOV.W   R1,@R2
 6302 0000064C 0009               783             NOP
 6303                             784     
 6304 0000064E 9109               785             MOV.W   #FROM_WR_CMND_DAT2,R1
 6305 00000650 D205               786             MOV.L   #FROM_WR_CMND_ADR2,R2
 6306 00000652 4200               787             SHLL    R2
 6307 00000654 32DC               788             ADD     R13,R2
 6308 00000656 2211               789             MOV.W   R1,@R2
 6309 00000658 0009               790             NOP
*** SuperH RISC engine ASSEMBLER V.7.01.02.000 ***    11/14/21 17:24:11                                                  PAGE    29
PROGRAM NAME =

 6310                             791     
 6311                             792             SUB_END
 6312                                 M   ;;;;;;; ADD     #4,R15                  ;[不要?]
 6313 0000065A 4F26                   M           LDS.L   @R15+,PR                ;[必要]
 6314                             793             M_RTS
 6315 0000065C 000B                   M           RTS                             ;RTSの後ろの
 6316 0000065E 0009                   M           NOP                             ;@R15+,PRはﾀﾞﾒ
 6317                             794     
 6318                             795     
 6319                             796     ;       ----------------------------------------------------------------------------------
                                          ---
 6320                             797     ;       -----                                                                           --
                                          ---
 6321                             798     ;       -----                                                                           --
                                          ---
 6322                             799     ;       -----   ＦＲＯＭ書込み時のポーリング                                            --
                                          ---
 6323                             800     ;       -----                                                                           --
                                          ---
 6324                             801     ;       -----                                                                           --
                                          ---
 6325                             802     ;       ----------------------------------------------------------------------------------
                                          ---
 6326                             803             .EXPORT _FROM_WRITE_POLLINKG
 6327                                     ***** BEGIN-POOL *****
 6328 00000660 00AA                       DATA FOR SOURCE-LINE 771
 6329 00000662 0055                       DATA FOR SOURCE-LINE 778
 6330 00000664 00A0                       DATA FOR SOURCE-LINE 785
 6331 00000666 0000                       ALIGNMENT CODE
 6332 00000668 00000555                   DATA FOR SOURCE-LINE 772,786
 6333 0000066C 000002AA                   DATA FOR SOURCE-LINE 779
 6334                                     ***** END-POOL *****
 6335 00000670                    804     _FROM_WRITE_POLLINKG:
 6336                             805             SUB_START
 6337 00000670 4F22                   M           STS.L   PR,@-R15                ;[必要]
 6338                                 M   ;;;;;;; ADD     #-4,R15                 ;[不要?]
 6339                             806     
 6340 00000672                    807     _FWP_050:
 6341                             808             _WDT_CLR                                        ; R0,R10 USED
 6342                                 M           PUSH_REG1 R0
 6343 00000672 2F06                   M           MOV.L   R0,@-R15                ;PUSH=SP-4
 6344                                 M                                           ;REG=>[SP]
 6345                                 M                                           ;"-4" FF,FF,FF,FC
 6346                                 M           PUSH_REG1 R10
 6347 00000674 2FA6                   M           MOV.L   R10,@-R15               ;PUSH=SP-4
 6348                                 M                                           ;REG=>[SP]
 6349                                 M                                           ;"-4" FF,FF,FF,FC
 6350                                 M           PUSH_REG1 R14
 6351 00000676 2FE6                   M           MOV.L   R14,@-R15               ;PUSH=SP-4
 6352                                 M                                           ;REG=>[SP]
 6353                                 M                                           ;"-4" FF,FF,FF,FC
 6354                                 M   
 6355 00000678 DA0E                   M           MOV.L   #_PJDR,R10                              ;?????????今は不要2015-01-05ｺﾒﾝﾄ
 6356 0000067A 60A0                   M           MOV.B   @R10,R0
 6357 0000067C CB10                   M           OR      #BIT4,R0
 6358 0000067E 2A00                   M           MOV.B   R0,@R10
 6359 00000680 C9EF                   M           AND     #NBIT4,R0
*** SuperH RISC engine ASSEMBLER V.7.01.02.000 ***    11/14/21 17:24:11                                                  PAGE    30
PROGRAM NAME =

 6360 00000682 2A00                   M           MOV.B   R0,@R10
 6361                                 M   
 6362                                 M           ;====== 2006-10-19 SAITO 追加　WDTﾎﾟｰﾄ変更 ======
 6363 00000684 DA0C                   M           MOV.L   #_IOGA2_CTRL_DAT1+_IOGA_P5,R10          ;
 6364 00000686 60A1                   M           MOV.W   @R10,R0                                 ;
 6365 00000688 9E10                   M           MOV.W   #BIT0,R14                               ;
 6366 0000068A 20EB                   M           OR      R14,R0                                  ;
 6367 0000068C 2A01                   M           MOV.W   R0,@R10                                 ; WORK
 6368                                 M   
 6369                                 M   ;;      MOV.L   #_IOGA2_CTRL_DAT1+_IOGA_P5,R10  ; WORK ADDRESS
 6370                                 M   ;;      MOV.W   @R10,R0                                 ;
 6371 0000068E 9E0E                   M           MOV.W   #_IO2B_P5EX,R14                         ;
 6372 00000690 20EA                   M           XOR     R14,R0                                  ;
 6373 00000692 DA0A                   M           MOV.L   #_dio_top2+_IOGA_PDR5,R10               ; IOGA PF ADDRESS
 6374 00000694 2A01                   M           MOV.W   R0,@R10                                 ; 実出力SET
 6375                                 M   
 6376 00000696 DA08                   M           MOV.L   #_IOGA2_CTRL_DAT1+_IOGA_P5,R10          ;
 6377 00000698 60A1                   M           MOV.W   @R10,R0                                 ;
 6378 0000069A 9E09                   M           MOV.W   #NBIT0,R14                              ;
 6379 0000069C 20E9                   M           AND     R14,R0                                  ;
 6380 0000069E 2A01                   M           MOV.W   R0,@R10                                 ; WORK
 6381                                 M   
 6382                                 M   ;;      MOV.L   #_IOGA2_CTRL_DAT1+_IOGA_P5,R10  ; WORK ADDRESS
 6383                                 M   ;;      MOV.W   @R10,R0                                 ;
 6384 000006A0 9E05                   M           MOV.W   #_IO2B_P5EX,R14                         ;
 6385 000006A2 20EA                   M           XOR     R14,R0                                  ;
 6386 000006A4 DA05                   M           MOV.L   #_dio_top2+_IOGA_PDR5,R10               ; IOGA PF ADDRESS
 6387 000006A6 2A01                   M           MOV.W   R0,@R10                                 ; 実出力SET
 6388                                 M   
 6389                                 M           M_BRA   AAA00004
 6390 000006A8 A00A                   M           BRA     AAA00004
 6391 000006AA 0009                   M           NOP
 6392                                 M   ***** BEGIN-POOL *****
 6393 000006AC 0001                   M   DATA FOR SOURCE-LINE 808
 6394 000006AE 0000                   M   DATA FOR SOURCE-LINE 808,808
 6395 000006B0 00FE                   M   DATA FOR SOURCE-LINE 808
 6396 000006B2 0000                   M   ALIGNMENT CODE
 6397 000006B4 00000000               M   DATA FOR SOURCE-LINE 808
 6398 000006B8 00000000               M   DATA FOR SOURCE-LINE 808,808
 6399 000006BC 00000000               M   DATA FOR SOURCE-LINE 808,808
 6400                                 M   ***** END-POOL *****
 6401 000006C0                        M   AAA00004:
 6402                                 M           POP_REG1 R14
 6403                                 M                                   ; RE"+4" 00,00,00,04
 6404 000006C0 6EF6                   M           MOV.L   @R15+,R14        ;
 6405                                 M           POP_REG1 R10
 6406                                 M                                   ; RE"+4" 00,00,00,04
 6407 000006C2 6AF6                   M           MOV.L   @R15+,R10        ;
 6408                                 M           POP_REG1 R0
 6409                                 M                                   ; RE"+4" 00,00,00,04
 6410 000006C4 60F6                   M           MOV.L   @R15+,R0        ;
 6411                             809     
 6412 000006C6 D407               810             MOV.L   #H'80,R4
 6413                             811     ;///////        MOV.W   @R7,R1
 6414 000006C8 6181               812             MOV.W   @R8,R1
 6415 000006CA 6313               813             MOV     R1,R3
 6416 000006CC 2349               814             AND     R4,R3                                   ; 読んだD7
*** SuperH RISC engine ASSEMBLER V.7.01.02.000 ***    11/14/21 17:24:11                                                  PAGE    31
PROGRAM NAME =

 6417                             815     
 6418 000006CE 6203               816             MOV     R0,R2
 6419 000006D0 2249               817             AND     R4,R2                                   ; 書込んだD7
 6420                             818     
 6421 000006D2 3320               819             CMP/EQ  R2,R3                                   ; 書込んだD7と読んだD7同じ？
 6422 000006D4 8913               820             BT      _FWP_END                                ; はい
 6423                             821     
 6424 000006D6 D404               822             MOV.L   #H'20,R4
 6425 000006D8 6313               823             MOV     R1,R3
 6426 000006DA 2349               824             AND     R4,R3                                   ; 読んだD5
 6427 000006DC 2338               825             TST     R3,R3                                   ; 読んだD5が１？
 6428 000006DE 8B05               826             BF      _FWP_100                                ; はい
 6429                             827     
 6430                             828     ;//SHIMA02/09/26        PUSH_ALL
 6431                             829     ;//SHIMA02/09/26        FAR_JSR #_SCI0_MAIN,R0                          ; 常時通信ができる
                                          ように！！
 6432                             830     ;//SHIMA02/09/26        POP_ALL
 6433                             831             M_BRA   _FWP_050                                ; いいえ
 6434 000006E0 AFC7                   M           BRA     _FWP_050
 6435 000006E2 0009                   M           NOP
 6436                             832     
 6437                                     ***** BEGIN-POOL *****
 6438 000006E4 00000080                   DATA FOR SOURCE-LINE 810
 6439 000006E8 00000020                   DATA FOR SOURCE-LINE 822
 6440                                     ***** END-POOL *****
 6441 000006EC                    833     _FWP_100:
 6442 000006EC D405               834             MOV.L   #H'80,R4
 6443                             835     ;///////        MOV.W   @R7,R1
 6444 000006EE 6181               836             MOV.W   @R8,R1
 6445 000006F0 6313               837             MOV     R1,R3
 6446 000006F2 2349               838             AND     R4,R3                                   ; 読んだD7
 6447                             839     
 6448 000006F4 3320               840             CMP/EQ  R2,R3                                   ; 書込んだD7と読んだD7同じ？（再チ
                                          ェック）
 6449 000006F6 8902               841             BT      _FWP_END                                ; はい
 6450                             842     
 6451 000006F8                    843     _FWP_ERR:                                               ; WRITEｴﾗｰ
 6452                             844     ;//SIT4-MC      _WDT_CLR                                        ; R0,R10 USED
 6453                             845     ;//SIT4-MC      M_BRA   _FWP_ERR
 6454 000006F8 D003               846             MOV.L   #2,R0
 6455 000006FA DA04               847             MOV.L   #_VUP_PRG_NG_DAT,R10
 6456 000006FC 2A01               848             MOV.W   R0,@R10
 6457                             849     
 6458 000006FE                    850     _FWP_END:
 6459                             851             SUB_END
 6460                                 M   ;;;;;;; ADD     #4,R15                  ;[不要?]
 6461 000006FE 4F26                   M           LDS.L   @R15+,PR                ;[必要]
 6462                             852             M_RTS
 6463 00000700 000B                   M           RTS                             ;RTSの後ろの
 6464 00000702 0009                   M           NOP                             ;@R15+,PRはﾀﾞﾒ
 6465                             853     
 6466                             854     
 6467                             855     ;       ----------------------------------------------------------------------------------
                                          ---
 6468                             856     ;       -----                                                                           --
                                          ---
 6469                             857     ;       -----                                                                           --
*** SuperH RISC engine ASSEMBLER V.7.01.02.000 ***    11/14/21 17:24:11                                                  PAGE    32
PROGRAM NAME =

                                          ---
 6470                             858     ;       -----   ＦＲＯＭセクタテーブル                                                  --
                                          ---
 6471                             859     ;       -----                                                                           --
                                          ---
 6472                             860     ;       -----                                                                           --
                                          ---
 6473                             861     ;       ----------------------------------------------------------------------------------
                                          ---
 6474                                     ***** BEGIN-POOL *****
 6475 00000704 00000080                   DATA FOR SOURCE-LINE 834
 6476 00000708 00000002                   DATA FOR SOURCE-LINE 846
 6477 0000070C 00000000                   DATA FOR SOURCE-LINE 847
 6478                                     ***** END-POOL *****
 6479 00000710                    862             .ALIGN  4
 6480                             863             .EXPORT _FROM_SECT_TBL_SIZE
 6481 00000710                    864     _FROM_SECT_TBL_SIZE:
 6482 00000710 00000004           865             .DATA.L         H'4
 6483                             866     
 6484 00000714                    867             .ALIGN  4
 6485                             868             .EXPORT _FROM8_SECT_TBL00
 6486                             869             .EXPORT _FROM16_SECT_TBL00
 6487                             870             .EXPORT _FROM_SECT_TBL_KATA
 6488                             871             .EXPORT _FROM_SECT_TBL_SYSB
 6489                             872             .EXPORT _FROM_SECT_TBL_SENB
 6490                             873             .EXPORT _FROM_SECT_TBL_CHAR
 6491                             874             .EXPORT _FROM_SECT_TBL_GAIZ
 6492                             875             .EXPORT _FROM_SECT_TBL_GAM2     ; V06
 6493                             876     
 6494                             877     
 6495 00000714                    878             .ALIGN  4
 6496 00000714                    879     _FROM8_SECT_TBL00:
 6497 00000714 A0000000           880             .DATA.L         H'A0000000                      ; ｾｸﾀ0  16kb
 6498 00000718 A0004000           881             .DATA.L         H'A0004000                      ; ｾｸﾀ1  8kb
 6499 0000071C A0006000           882             .DATA.L         H'A0006000                      ; ｾｸﾀ2  8kb
 6500 00000720 A0008000           883             .DATA.L         H'A0008000                      ; ｾｸﾀ3  32kb
 6501 00000724 A0010000           884             .DATA.L         H'A0010000                      ; ｾｸﾀ4  64kb
 6502 00000728 A0020000           885             .DATA.L         H'A0020000                      ; ｾｸﾀ5  64kb
 6503 0000072C A0030000           886             .DATA.L         H'A0030000                      ; ｾｸﾀ6  64kb
 6504 00000730 A0040000           887             .DATA.L         H'A0040000                      ; ｾｸﾀ7  64kb
 6505 00000734 A0050000           888             .DATA.L         H'A0050000                      ; ｾｸﾀ8  64kb
 6506 00000738 A0060000           889             .DATA.L         H'A0060000                      ; ｾｸﾀ9  64kb
 6507 0000073C A0070000           890             .DATA.L         H'A0070000                      ; ｾｸﾀ10 64kb
 6508 00000740 A0080000           891             .DATA.L         H'A0080000                      ; ｾｸﾀ11 64kb
 6509 00000744 A0090000           892             .DATA.L         H'A0090000                      ; ｾｸﾀ12 64kb
 6510 00000748 A00A0000           893             .DATA.L         H'A00a0000                      ; ｾｸﾀ13 64kb
 6511 0000074C A00B0000           894             .DATA.L         H'A00b0000                      ; ｾｸﾀ14 64kb
 6512 00000750 A00C0000           895             .DATA.L         H'A00c0000                      ; ｾｸﾀ15 64kb
 6513 00000754 A00D0000           896             .DATA.L         H'A00d0000                      ; ｾｸﾀ16 64kb
 6514 00000758 A00E0000           897             .DATA.L         H'A00e0000                      ; ｾｸﾀ17 64kb
 6515 0000075C A00F0000           898             .DATA.L         H'A00f0000                      ; ｾｸﾀ18 64kb
 6516 00000760 A0100000           899             .DATA.L         H'A0100000                      ; DUMMY
 6517                             900     
 6518                             901     
 6519 00000764                    902     _FROM16_SECT_TBL00:
 6520 00000764 B9000000           903             .DATA.L         H'B9000000                      ; ｾｸﾀ0  16kb
 6521 00000768 B9004000           904             .DATA.L         H'B9004000                      ; ｾｸﾀ1  8kb
*** SuperH RISC engine ASSEMBLER V.7.01.02.000 ***    11/14/21 17:24:11                                                  PAGE    33
PROGRAM NAME =

 6522 0000076C B9006000           905             .DATA.L         H'B9006000                      ; ｾｸﾀ2  8kb
 6523 00000770 B9008000           906             .DATA.L         H'B9008000                      ; ｾｸﾀ3  32kb
 6524 00000774 B9010000           907             .DATA.L         H'B9010000                      ; ｾｸﾀ4  64kb
 6525 00000778 B9020000           908             .DATA.L         H'B9020000                      ; ｾｸﾀ5  64kb
 6526 0000077C B9030000           909             .DATA.L         H'B9030000                      ; ｾｸﾀ6  64kb
 6527 00000780                    910     _FROM_SECT_TBL_KATA:
 6528 00000780 B9040000           911             .DATA.L         H'B9040000                      ; ｾｸﾀ7  64kb
 6529 00000784 B9050000           912             .DATA.L         H'B9050000                      ; ｾｸﾀ8  64kb
 6530 00000788 B9060000           913             .DATA.L         H'B9060000                      ; ｾｸﾀ9  64kb
 6531 0000078C B9070000           914             .DATA.L         H'B9070000                      ; ｾｸﾀ10 64kb
 6532 00000790                    915     _FROM_SECT_TBL_GAIZ:
 6533 00000790 B9080000           916             .DATA.L         H'B9080000                      ; ｾｸﾀ11 64kb
 6534                             917     ;;;_FROM_SECT_TBL_CHAR:
 6535 00000794 B9090000           918             .DATA.L         H'B9090000                      ; ｾｸﾀ12 64kb
 6536 00000798 B90A0000           919             .DATA.L         H'B90a0000                      ; ｾｸﾀ13 64kb
 6537 0000079C                    920     _FROM_SECT_TBL_SYSB:
 6538 0000079C B90B0000           921             .DATA.L         H'B90b0000                      ; ｾｸﾀ14 64kb
 6539 000007A0                    922     _FROM_SECT_TBL_SENB:
 6540 000007A0 B90C0000           923             .DATA.L         H'B90c0000                      ; ｾｸﾀ15 64kb
 6541 000007A4 B90D0000           924             .DATA.L         H'B90d0000                      ; ｾｸﾀ16 64kb
 6542 000007A8 B90E0000           925             .DATA.L         H'B90e0000                      ; ｾｸﾀ17 64kb
 6543 000007AC B90F0000           926             .DATA.L         H'B90f0000                      ; ｾｸﾀ18 64kb
 6544                             927     ;------- 以降V05で拡張 -------
 6545 000007B0                    928     _FROM_SECT_TBL_CHAR:
 6546 000007B0 B9100000           929             .DATA.L         H'B9100000                      ;
 6547 000007B4 B9110000           930             .DATA.L         H'B9110000                      ;
 6548 000007B8 B9120000           931             .DATA.L         H'B9120000                      ;
 6549 000007BC B9130000           932             .DATA.L         H'B9130000                      ;
 6550 000007C0                    933     _FROM_SECT_TBL_GAM2:                    ; V06
 6551 000007C0 B9140000           934             .DATA.L         H'B9140000                      ;
 6552 000007C4 B9150000           935             .DATA.L         H'B9150000                      ;
 6553 000007C8 B9160000           936             .DATA.L         H'B9160000                      ;
 6554 000007CC B9170000           937             .DATA.L         H'B9170000                      ;
 6555 000007D0 B9180000           938             .DATA.L         H'B9180000                      ;
 6556 000007D4 B9190000           939             .DATA.L         H'B9190000                      ;
 6557 000007D8 B91A0000           940             .DATA.L         H'B91A0000                      ;
 6558 000007DC B91B0000           941             .DATA.L         H'B91B0000                      ;
 6559 000007E0 B91C0000           942             .DATA.L         H'B91C0000                      ;
 6560 000007E4 B91D0000           943             .DATA.L         H'B91D0000                      ;
 6561 000007E8 B91E0000           944             .DATA.L         H'B91E0000                      ;
 6562 000007EC B91F0000           945             .DATA.L         H'B91F0000                      ;
 6563                             946     
 6564                             947     
 6565                             948     
 6566                             949             .END
  *****TOTAL ERRORS       0
  *****TOTAL WARNINGS     0
*** SuperH RISC engine ASSEMBLER V.7.01.02.000 ***    11/14/21 17:24:11                                                  PAGE    34

*** CROSS REFERENCE LIST

NAME                             SECTION  ATTR VALUE             SEQUENCE

AAA00000                         PvupsciR      00000074   4910  4921*
AAA00001                         PvupsciR      00000360   5574  5593*
AAA00002                         PvupsciR      00000500   5945  5959*
AAA00003                         PvupsciR      000005FC   6211  6221*
AAA00004                         PvupsciR      000006C0   6390  6401*
BIT0                                      EQU  00000001     14* 4885  5045  5318  5549  5920  6186  6365 
BIT1                                      EQU  00000002     15* 5353  5394 
BIT10                                     EQU  00000400     24*
BIT11                                     EQU  00000800     25*
BIT12                                     EQU  00001000     26*
BIT13                                     EQU  00002000     27*
BIT14                                     EQU  00004000     28*
BIT15                                     EQU  00008000     29*
BIT16                                     EQU  00010000     30*
BIT17                                     EQU  00020000     31*
BIT18                                     EQU  00040000     32*
BIT19                                     EQU  00080000     33*
BIT2                                      EQU  00000004     16* 5415  5698 
BIT20                                     EQU  00100000     34*
BIT21                                     EQU  00200000     35*
BIT22                                     EQU  00400000     36*
BIT23                                     EQU  00800000     37*
BIT24                                     EQU  01000000     38*
BIT25                                     EQU  02000000     39*
BIT26                                     EQU  04000000     40*
BIT27                                     EQU  08000000     41*
BIT28                                     EQU  10000000     42*
BIT29                                     EQU  20000000     43*
BIT3                                      EQU  00000008     17*
BIT30                                     EQU  40000000     44*
BIT31                                     EQU  80000000     45*
BIT4                                      EQU  00000010     18* 4877  5541  5912  6178  6357 
BIT5                                      EQU  00000020     19* 6239 
BIT6                                      EQU  00000040     20*
BIT7                                      EQU  00000080     21* 6234  6253 
BIT8                                      EQU  00000100     22*
BIT9                                      EQU  00000200     23*
Bvupwkram                        Bvupwkra SCT  00000000   6061*
ET1_LDCMND_REQ                            EQU  00000016   4115*
ET1_LDCMND_RES                            EQU  00000018   4116*
FROM_DUMMY_ADR0                           EQU  00000000   4160*
FROM_ERS_ADR_BL0_0                        EQU  00000000   4176*
FROM_ERS_ADR_BL0_1                        EQU  00004000   4177*
FROM_ERS_ADR_BL0_2                        EQU  00006000   4178*
FROM_ERS_ADR_BL0_3                        EQU  00008000   4179*
FROM_ERS_ADR_BL1                          EQU  00010000   4180*
FROM_ERS_ADR_BL2                          EQU  00020000   4181*
FROM_ERS_ADR_BL3                          EQU  00030000   4182*
FROM_ERS_ADR_BL4                          EQU  00040000   4183*
FROM_ERS_ADR_BL5                          EQU  00050000   4184*
FROM_ERS_ADR_BL6                          EQU  00060000   4185*
FROM_ERS_ADR_BL7                          EQU  00070000   4186*
FROM_ERS_ADR_BL8                          EQU  00080000   4187*
FROM_ERS_ADR_BL9                          EQU  00090000   4188*
*** SuperH RISC engine ASSEMBLER V.7.01.02.000 ***    11/14/21 17:24:11                                                  PAGE    35

*** CROSS REFERENCE LIST

NAME                             SECTION  ATTR VALUE             SEQUENCE

FROM_ERS_ADR_BLA                          EQU  000A0000   4189*
FROM_ERS_ADR_BLB                          EQU  000B0000   4190*
FROM_ERS_ADR_BLC                          EQU  000C0000   4191*
FROM_ERS_ADR_BLD                          EQU  000D0000   4192*
FROM_ERS_ADR_BLE                          EQU  000E0000   4193*
FROM_ERS_ADR_BLF                          EQU  000F0000   4194*
FROM_ERS_CMND_ADR0                        EQU  00000555   4162* 6091 
FROM_ERS_CMND_ADR1                        EQU  000002AA   4163* 6098 
FROM_ERS_CMND_ADR2                        EQU  00000555   4164* 6105 
FROM_ERS_CMND_ADR3                        EQU  00000555   4165* 6112 
FROM_ERS_CMND_ADR4                        EQU  000002AA   4166* 6119 
FROM_ERS_CMND_ADR5                        EQU  00000555   4167*
FROM_ERS_CMND_DAT0                        EQU  000000AA   4168* 6090 
FROM_ERS_CMND_DAT1                        EQU  00000055   4169* 6097 
FROM_ERS_CMND_DAT2                        EQU  00000080   4170* 6104 
FROM_ERS_CMND_DAT3                        EQU  000000AA   4171* 6111 
FROM_ERS_CMND_DAT4                        EQU  00000055   4172* 6118 
FROM_ERS_CMND_DAT5                        EQU  00000010   4173*
FROM_ERS_DAT11                            EQU  00000030   4175* 6125 
FROM_WR_CMND_ADR0                         EQU  00000555   4196* 6291 
FROM_WR_CMND_ADR1                         EQU  000002AA   4197* 6298 
FROM_WR_CMND_ADR2                         EQU  00000555   4198* 6305 
FROM_WR_CMND_DAT0                         EQU  000000AA   4199* 6290 
FROM_WR_CMND_DAT1                         EQU  00000055   4200* 6297 
FROM_WR_CMND_DAT2                         EQU  000000A0   4201* 6304 
HEAD_END                                  EQU  0000000A   4109*
H_BYTE                                    EQU  00000000     81*
L_BYTE                                    EQU  00000001     80*
NBIT0                                     EQU  000000FE     48* 4898  5562  5933  6199  6378 
NBIT1                                     EQU  000000FD     49* 5723 
NBIT10                                    EQU  0000FBFF     59*
NBIT11                                    EQU  0000F7FF     60*
NBIT12                                    EQU  0000EFFF     61*
NBIT13                                    EQU  0000DFFF     62*
NBIT14                                    EQU  0000BFFF     63*
NBIT15                                    EQU  00007FFF     64*
NBIT2                                     EQU  000000FB     50* 5748 
NBIT3                                     EQU  000000F7     51*
NBIT4                                     EQU  000000EF     52* 4879  5543  5914  6180  6359 
NBIT5                                     EQU  000000DF     53*
NBIT6                                     EQU  000000BF     54*
NBIT7                                     EQU  0000007F     55*
NBIT8                                     EQU  0000FEFF     57*
NBIT9                                     EQU  0000FDFF     58*
PvupsciROM                       PvupsciR SCT  00000000   4782* 6075*
RTS_FLG                                   EQU  00000014   4114*
RXD_BUF_POI                               EQU  00000004   4106*
RXD_CNT                                   EQU  00000002   4105*
RX_END                                    EQU  0000000C   4110*
RX_ERR                                    EQU  0000000E   4111*
RX_TIMER                                  EQU  00000012   4113*
RX_TIMOUT_FLG                             EQU  00000010   4112*
SCI0_WKRAM_RE13                           EQU  0000001A   4117*
SCI0_WKRAM_RE14                           EQU  0000001C   4118*
*** SuperH RISC engine ASSEMBLER V.7.01.02.000 ***    11/14/21 17:24:11                                                  PAGE    36

*** CROSS REFERENCE LIST

NAME                             SECTION  ATTR VALUE             SEQUENCE

SCI0_WKRAM_RE15                           EQU  0000001E   4119*
SR_Init                                   EQU  40000010    290*
SR_Init_DI                                EQU  400000F0    291* 5055 
SR_Init_SCIEI                             EQU  400000D0    292*
TXD_BUF_POI                               EQU  00000008   4108*
TXD_CNT                                   EQU  00000006   4107*
VUP_DATA_WR_PC                            EQU  00000006   4068* 5425  5693  5694  5740  5744 
VUP_DATA_WR_SH                            EQU  00000016   4076*
VUP_END_PC                                EQU  00000004   4067*
VUP_END_SH                                EQU  00000014   4075*
VUP_REV10_SH                              EQU  0000002A   4086*
VUP_REV11_SH                              EQU  0000002C   4087*
VUP_REV12_SH                              EQU  0000002E   4088*
VUP_REV13_SH                              EQU  00000030   4089*
VUP_REV14_SH                              EQU  00000032   4090*
VUP_REV15_SH                              EQU  00000034   4091*
VUP_REV16_SH                              EQU  00000036   4092*
VUP_REV17_SH                              EQU  00000038   4093*
VUP_REV18_SH                              EQU  0000003A   4094*
VUP_REV19_SH                              EQU  0000003C   4095*
VUP_REV1_PC                               EQU  00000008   4069* 5363  5385  5386  5715  5719 
VUP_REV1_SH                               EQU  00000018   4077* 5337 
VUP_REV20_SH                              EQU  0000003E   4096*
VUP_REV2_PC                               EQU  0000000A   4070* 5367 
VUP_REV2_SH                               EQU  0000001A   4078*
VUP_REV3_PC                               EQU  0000000C   4071*
VUP_REV3_SH                               EQU  0000001C   4079*
VUP_REV4_PC                               EQU  0000000E   4072*
VUP_REV4_SH                               EQU  0000001E   4080*
VUP_REV5_SH                               EQU  00000020   4081*
VUP_REV6_SH                               EQU  00000022   4082*
VUP_REV7_SH                               EQU  00000024   4083*
VUP_REV8_SH                               EQU  00000026   4084*
VUP_REV9_SH                               EQU  00000028   4085*
VUP_SEL_PC                                EQU  00000000   4065* 5062  5855 
VUP_SEL_SH                                EQU  00000010   4073*
VUP_START                                 EQU  00000000   4104* 4937  5058 
VUP_STR_PC                                EQU  00000002   4066* 5018  5022  5314  5315 
VUP_STR_SH                                EQU  00000012   4074*
XBIT0                                     EQU  00000000     67*
XBIT1                                     EQU  00000001     68*
XBIT2                                     EQU  00000002     69*
XBIT3                                     EQU  00000003     70*
XBIT4                                     EQU  00000004     71*
XBIT5                                     EQU  00000005     72*
XBIT6                                     EQU  00000006     73*
XBIT7                                     EQU  00000007     74*
_100_KATA_SIZE                            EQU  00040000   4150*
_100_KATA_TOP                             EQU  B9040000   4149*
_ACDR                                     IMPT 00000000    605 
_ACTR1                                    IMPT 00000000    597 
_ACTR2                                    IMPT 00000000    598 
_ADCR                                     IMPT 00000000    539 
_ADCSR                                    IMPT 00000000    538 
*** SuperH RISC engine ASSEMBLER V.7.01.02.000 ***    11/14/21 17:24:11                                                  PAGE    37

*** CROSS REFERENCE LIST

NAME                             SECTION  ATTR VALUE             SEQUENCE

_ADDRAH                                   IMPT 00000000    530 
_ADDRAL                                   IMPT 00000000    531 
_ADDRBH                                   IMPT 00000000    532 
_ADDRBL                                   IMPT 00000000    533 
_ADDRCH                                   IMPT 00000000    534 
_ADDRCL                                   IMPT 00000000    535 
_ADDRDH                                   IMPT 00000000    536 
_ADDRDL                                   IMPT 00000000    537 
_ADRH                                     EQU  00000016   4054*
_ADRL                                     EQU  00000014   4052*
_ADRM                                     EQU  00000015   4053*
_AD_AVG_BUF                               IMPT 00000000   4516 
_AD_AVG_TOTAL                             IMPT 00000000   4517 
_AD_BUFCNT                                IMPT 00000000   4515 
_AD_CNV_DT0                               IMPT 00000000   4513 
_AREA_SEL                                 EQU  00000013   4051*
_ASDR                                     IMPT 00000000    606 
_ASM_VUP_M000                    PvupsciR      00000026   4860* 4940 
_ASM_VUP_MAIN                    PvupsciR EXPT 00000000   4784  4785*
_ASTR1                                    IMPT 00000000    599 
_ASTR2                                    IMPT 00000000    600 
_ATOB_KJYUALL_SMPCLR                      IMPT 00000000   3908 
_ATOB_KJYUALL_SMPSTART                    IMPT 00000000   3909 
_ATOB_KJYUTRD_SMPCLR                      IMPT 00000000   3912 
_ATOB_KJYUTRD_SMPSTART                    IMPT 00000000   3913 
_BAMRA                                    IMPT 00000000    744 
_BAMRB                                    IMPT 00000000    740 
_BARA                                     IMPT 00000000    743 
_BARB                                     IMPT 00000000    739 
_BASRA                                    IMPT 00000000    751 
_BASRB                                    IMPT 00000000    752 
_BBRA                                     IMPT 00000000    745 
_BBRB                                     IMPT 00000000    741 
_BCR1                                     IMPT 00000000    720 
_BCR2                                     IMPT 00000000    721 
_BDMRB                                    IMPT 00000000    736 
_BDRB                                     IMPT 00000000    735 
_BETR                                     IMPT 00000000    738 
_BRCR                                     IMPT 00000000    737 
_BRDR                                     IMPT 00000000    746 
_BRR0                                     IMPT 00000000    685 
_BRSR                                     IMPT 00000000    742 
_BTNER_ERR_TM                             IMPT 00000000   4462 
_BTOA_LFT_HAB                             IMPT 00000000   3929 
_BTOA_LFT_MAX                             IMPT 00000000   3927 
_BTOA_LFT_MIN                             IMPT 00000000   3928 
_BTOA_LFT_TRDHAB                          IMPT 00000000   3942 
_BTOA_LFT_TRDMAX                          IMPT 00000000   3940 
_BTOA_LFT_TRDMIN                          IMPT 00000000   3941 
_BTOA_RIH_HAB                             IMPT 00000000   3933 
_BTOA_RIH_MAX                             IMPT 00000000   3931 
_BTOA_RIH_MIN                             IMPT 00000000   3932 
_BTOA_RIH_TRDHAB                          IMPT 00000000   3946 
_BTOA_RIH_TRDMAX                          IMPT 00000000   3944 
*** SuperH RISC engine ASSEMBLER V.7.01.02.000 ***    11/14/21 17:24:11                                                  PAGE    38

*** CROSS REFERENCE LIST

NAME                             SECTION  ATTR VALUE             SEQUENCE

_BTOA_RIH_TRDMIN                          IMPT 00000000   3945 
_BTOA_TTL_HAB                             IMPT 00000000   3937 
_BTOA_TTL_MAX                             IMPT 00000000   3935 
_BTOA_TTL_MIN                             IMPT 00000000   3936 
_BTOA_TTL_TRDHAB                          IMPT 00000000   3950 
_BTOA_TTL_TRDMAX                          IMPT 00000000   3948 
_BTOA_TTL_TRDMIN                          IMPT 00000000   3949 
_BYTENH                                   EQU  00000012   4050*
_BYTENL                                   EQU  00000011   4049*
_Bwkram1_top                              EQU  AC090000   4147*
_CB_BAKUP_CMD1                            EQU  00005678    113*
_CB_BAKUP_CMD2                            EQU  00001234    114*
_CB_BAK_SUM_COD1                          EQU  5AA51234    111*
_CB_BAK_SUM_COD2                          EQU  A55A4321    112*
_CB_ERR_INFO_MEM                          EQU  00000080    137*
_CB_ERR_INFO_PSIZE                        EQU  00000008    138*
_CB_STS_BUF_1BLK                          EQU  00000040    116*  118 
_CB_STS_BUF_BLKMAX                        EQU  00000008    117*  118 
_CB_STS_BUF_MAX                           EQU  00000200    118*
_CB_STS_SAVE_FLG                          IMPT 00000000   2319 
_CB_SYS_SIZE                              EQU  00010000   4138* 5271 
_CB_TBL_SIZE                              EQU  00040000   4134* 5171 
_CB_TRD_BEFORE                            EQU  00000060    126*
_CB_TRD_BUF_DP_MAX                        EQU  00000080    130*
_CB_TRD_BUF_MAX                           EQU  00000800    127*
_CB_TRD_DP_1CNT                           EQU  00000008    129*
_CB_TRD_DP_CH                             EQU  00000004    122*
_CB_TRD_SAVE_FLG                          IMPT 00000000   2320 
_CB_TRD_SMP_CNT                           EQU  00000080    125*
_CCR                                      IMPT 00000000    753 
_CCR2                                     IMPT 00000000    543 
_CHAR_ROM_SIZE                            EQU  00040000   4145*
_CHAR_ROM_TOP                             EQU  B9100000   4144*
_CHCR0                                    IMPT 00000000    512 
_CHCR1                                    IMPT 00000000    516 
_CHCR2                                    IMPT 00000000    520 
_CHCR3                                    IMPT 00000000    524 
_CHRAR                                    IMPT 00000000    617 
_CKIO2CR                                  IMPT 00000000    622 
_CMCNT                                    IMPT 00000000    528 
_CMCOR                                    IMPT 00000000    529 
_CMCSR                                    IMPT 00000000    527 
_CMD_1CYCLE_DSP1                          IMPT 00000000   2323 
_CMD_DAIPOS_DSP1                          IMPT 00000000   2324 
_CMD_KJTECH_DSP1                          IMPT 00000000   2327 
_CMND                                     EQU  0000000D   4045*
_CMP2_ERR_FIRST                           IMPT 00000000   4527 
_CMP2_ERR_TM2                             IMPT 00000000   4471 
_CMSTR                                    IMPT 00000000    526 
_COP_SET_CLRF                             IMPT 00000000   3623 
_CPUAB_HS_VUP_64KE                        EQU  00000014   4265*
_CPUAB_HS_VUP_64KE_CODE                   EQU  A55A6789   4274*
_CPUAB_HS_VUP_8KE                         EQU  00000010   4264*
_CPUAB_HS_VUP_8KE_CODE                    EQU  9876A55A   4273*
*** SuperH RISC engine ASSEMBLER V.7.01.02.000 ***    11/14/21 17:24:11                                                  PAGE    39

*** CROSS REFERENCE LIST

NAME                             SECTION  ATTR VALUE             SEQUENCE

_CPUAB_HS_VUP_BLK0                        EQU  00000008   4262*
_CPUAB_HS_VUP_BLK1                        EQU  0000000C   4263*
_CPUAB_HS_VUP_SEL                         EQU  00000000   4260*
_CPUAB_HS_VUP_STR                         EQU  00000004   4261*
_CPUAB_HS_VUP_STR_CODE                    EQU  12345AA5   4272*
_CPUATOB_STS_SAVECMD                      IMPT 00000000   3385 
_CPUATOB_STS_SAVEDAT1                     IMPT 00000000   3386 
_CPUATOB_STS_SAVEDAT2                     IMPT 00000000   3387 
_CPUATOB_STS_SAVEDAT3                     IMPT 00000000   3388 
_CPUA_CONT_MOD_CNT_PV                     IMPT 00000000   3987 
_CPUA_DNM_DIR_NOW                         IMPT 00000000   3976 
_CPUA_DNM_DIR_SET                         IMPT 00000000   3975 
_CPUA_EMG_IN_FLG                          IMPT 00000000   4608 
_CPUA_IRQ_ERR_INT_CNT1                    IMPT 00000000   3849 
_CPUA_IRQ_ERR_INT_CNT2                    IMPT 00000000   3850 
_CPUA_IRQ_ERR_INT_CNT3                    IMPT 00000000   3851 
_CPUA_IRQ_ERR_INT_CNT4                    IMPT 00000000   3852 
_CPUA_IRQ_ERR_INT_CNT5                    IMPT 00000000   3853 
_CPUA_IRQ_ERR_INT_CNT6                    IMPT 00000000   3854 
_CPUA_IRQ_ERR_INT_CNT7                    IMPT 00000000   3855 
_CPUA_IRQ_ERR_INT_CNT8                    IMPT 00000000   3856 
_CPUA_IRQ_ERR_INT_CNT9                    IMPT 00000000   3857 
_CPUA_LOT_CHK_FLG                         IMPT 00000000   3983 
_CPUA_LOT_CNT_FLG                         IMPT 00000000   3985 
_CPUA_OP_OUT1_PLS                         IMPT 00000000   3885 
_CPUA_OP_PG1_PLS                          IMPT 00000000   3884 
_CPUA_PLS_OUTF                            IMPT 00000000   3643 
_CPUA_PRO_SIZE                            EQU  00060000   4135*
_CPUA_SELF2_CD1                           IMPT 00000000   3871 
_CPUA_SELF2_CD2                           IMPT 00000000   3872 
_CPUA_SELF2_CD3                           IMPT 00000000   3873 
_CPUA_SELF2_CD4                           IMPT 00000000   3874 
_CPUA_SELF2_END                           IMPT 00000000   3870 
_CPUA_SELF2_STR                           IMPT 00000000   3869 
_CPUA_SELF_HAND_FLG                       IMPT 00000000   3730 
_CPUA_SV_STEP                             IMPT 00000000   3973 
_CPUBTOA_DAT1_ACKCOD                      IMPT 00000000   4008 
_CPUBTOA_DAT1_DATTOP                      IMPT 00000000   4009 
_CPUBTOA_DAT1_REQADR                      IMPT 00000000   4004 
_CPUBTOA_DAT1_REQCNT                      IMPT 00000000   4006 
_CPUBTOA_DAT1_REQCOD                      IMPT 00000000   4007 
_CPUBTOA_DAT1_REQKND                      IMPT 00000000   4005 
_CPUBTOA_STS_LOADDAT1                     IMPT 00000000   3391 
_CPUBTOA_STS_LOADDAT2                     IMPT 00000000   3392 
_CPUBTOA_STS_LOADDAT3                     IMPT 00000000   3393 
_CPUBTOA_STS_LOADSTS                      IMPT 00000000   3390 
_CPUB_CONT_MOD_CNT_PV                     IMPT 00000000   3988 
_CPUB_DBG_MONI_CNT                        IMPT 00000000   3990 
_CPUB_DBG_MONI_STP                        IMPT 00000000   3989 
_CPUB_DNM_DIR_NOW                         IMPT 00000000   3978 
_CPUB_DNM_DIR_SET                         IMPT 00000000   3977 
_CPUB_IRQ_ERR_INT_CNT1                    IMPT 00000000   3858 
_CPUB_IRQ_ERR_INT_CNT2                    IMPT 00000000   3859 
_CPUB_IRQ_ERR_INT_CNT3                    IMPT 00000000   3860 
*** SuperH RISC engine ASSEMBLER V.7.01.02.000 ***    11/14/21 17:24:11                                                  PAGE    40

*** CROSS REFERENCE LIST

NAME                             SECTION  ATTR VALUE             SEQUENCE

_CPUB_IRQ_ERR_INT_CNT4                    IMPT 00000000   3861 
_CPUB_IRQ_ERR_INT_CNT5                    IMPT 00000000   3862 
_CPUB_IRQ_ERR_INT_CNT6                    IMPT 00000000   3863 
_CPUB_IRQ_ERR_INT_CNT7                    IMPT 00000000   3864 
_CPUB_IRQ_ERR_INT_CNT8                    IMPT 00000000   3865 
_CPUB_IRQ_ERR_INT_CNT9                    IMPT 00000000   3866 
_CPUB_LOT_CHK_FLG                         IMPT 00000000   3984 
_CPUB_LOT_CNT_FLG                         IMPT 00000000   3986 
_CPUB_PLS_OUTF                            IMPT 00000000   3644 
_CPUB_PRO_SIZE                            EQU  000A0000   4137* 5224 
_CPUB_SELF2_CD1                           IMPT 00000000   3878 
_CPUB_SELF2_CD2                           IMPT 00000000   3879 
_CPUB_SELF2_CD3                           IMPT 00000000   3880 
_CPUB_SELF2_CD4                           IMPT 00000000   3881 
_CPUB_SELF2_END                           IMPT 00000000   3877 
_CPUB_SELF2_STR                           IMPT 00000000   3876 
_CPUB_SELF_HAND_FLG                       IMPT 00000000   3731 
_CPUB_START_COD                           IMPT 00000000   3630 
_CPUB_SV_STEP                             IMPT 00000000   3974 
_CPUD_START_COD                           IMPT 00000000   2294 
_CPUN_2CMP_DATA                           IMPT 00000000   4526 
_CPUN_2CMP_LATCH1                         IMPT 00000000   4530 
_CPUN_2CMP_LATCH2                         IMPT 00000000   4529 
_CPU_CTRL_CLK                             IMPT 00000000   3734 
_DACR1                                    IMPT 00000000    542 
_DADR0                                    IMPT 00000000    540 
_DADR1                                    IMPT 00000000    541 
_DAR0                                     IMPT 00000000    510 
_DAR1                                     IMPT 00000000    514 
_DAR2                                     IMPT 00000000    518 
_DAR3                                     IMPT 00000000    522 
_DATA                                     EQU  00000019   4057*
_DATA_CNTH                                EQU  00000002   4034*
_DATA_CNTL                                EQU  00000001   4033*
_DBG2_MONI_A00                            IMPT 00000000   3358 
_DBG2_MONI_A01                            IMPT 00000000   3359 
_DBG2_MONI_A02                            IMPT 00000000   3360 
_DBG2_MONI_A03                            IMPT 00000000   3361 
_DBG2_MONI_A04                            IMPT 00000000   3362 
_DBG2_MONI_A05                            IMPT 00000000   3363 
_DBG2_MONI_A06                            IMPT 00000000   3364 
_DBG2_MONI_A07                            IMPT 00000000   3365 
_DBG2_MONI_B00                            IMPT 00000000   3375 
_DBG2_MONI_B01                            IMPT 00000000   3376 
_DBG2_MONI_B02                            IMPT 00000000   3377 
_DBG2_MONI_B03                            IMPT 00000000   3378 
_DBG2_MONI_B04                            IMPT 00000000   3379 
_DBG2_MONI_B05                            IMPT 00000000   3380 
_DBG2_MONI_B06                            IMPT 00000000   3381 
_DBG2_MONI_B07                            IMPT 00000000   3382 
_DBG4_MONI_A00                            IMPT 00000000   3350 
_DBG4_MONI_A01                            IMPT 00000000   3351 
_DBG4_MONI_A02                            IMPT 00000000   3352 
_DBG4_MONI_A03                            IMPT 00000000   3353 
*** SuperH RISC engine ASSEMBLER V.7.01.02.000 ***    11/14/21 17:24:11                                                  PAGE    41

*** CROSS REFERENCE LIST

NAME                             SECTION  ATTR VALUE             SEQUENCE

_DBG4_MONI_A04                            IMPT 00000000   3354 
_DBG4_MONI_A05                            IMPT 00000000   3355 
_DBG4_MONI_A06                            IMPT 00000000   3356 
_DBG4_MONI_A07                            IMPT 00000000   3357 
_DBG4_MONI_B00                            IMPT 00000000   3367 
_DBG4_MONI_B01                            IMPT 00000000   3368 
_DBG4_MONI_B02                            IMPT 00000000   3369 
_DBG4_MONI_B03                            IMPT 00000000   3370 
_DBG4_MONI_B04                            IMPT 00000000   3371 
_DBG4_MONI_B05                            IMPT 00000000   3372 
_DBG4_MONI_B06                            IMPT 00000000   3373 
_DBG4_MONI_B07                            IMPT 00000000   3374 
_DBG_ERRCHK_NASI                          IMPT 00000000   4455 
_DEBUG_MONI_ABS_POS                       IMPT 00000000   3176 
_DEBUG_MONI_C1                            IMPT 00000000   3179 
_DEBUG_MONI_C2                            IMPT 00000000   3180 
_DEBUG_MONI_MD_DT0                        IMPT 00000000   3177 
_DEBUG_MONI_MD_DT1                        IMPT 00000000   3178 
_DEBUG_MONI_WORK1                         IMPT 00000000   3181 
_DEBUG_MONI_WORK2                         IMPT 00000000   3182 
_DEBUG_MONI_WORK3                         IMPT 00000000   3183 
_DEBUG_MONI_WORK4                         IMPT 00000000   3184 
_DEBUG_MONI_WORK5                         IMPT 00000000   3185 
_DEBUG_MONI_WORK6                         IMPT 00000000   3186 
_DENSOU_LOCK_CD                           EQU  00000008   4040*
_DMAOR                                    IMPT 00000000    525 
_DMATCR0                                  IMPT 00000000    511 
_DMATCR1                                  IMPT 00000000    515 
_DMATCR2                                  IMPT 00000000    519 
_DMATCR3                                  IMPT 00000000    523 
_DPNQ                                     IMPT 00000000    603 
_DPRAM_SIZE                               EQU  00003FFF   4295*
_DP_COP_CB_LD_MONI_SIG                    IMPT 00000000   3633 
_DP_DBG_CPUAB_DRV_START                   IMPT 00000000   3635 
_DSET_SW_CPUB                             IMPT 00000000   3616 
_DSET_SW_FLG                              IMPT 00000000   4582 
_DUMMY                                    IMPT 00000000    488 
_DUMMY_SUM_CODE                           EQU  5AA53CC3    104*
_EBR1_FE800                               EQU  00000002   4212*
_EBR2_FE800                               EQU  00000003   4213*
_ECLEAR                                   EQU  000000FD   4248*
_EMG_SH2_TO_SH4                           IMPT 00000000   3690 
_EMG_SH4_TO_SH2                           IMPT 00000000   3689 
_END_STS                                  EQU  0000000F   4047*
_EPROM_CODE                               EQU  0000045A   4778*
_ERR_CHK_OK_FLG                           IMPT 00000000   4450 
_ERR_INFO_CPUA_FLG                        IMPT 00000000   3416 
_ERR_INFO_CPUA_TOP                        IMPT 00000000   3417 
_ER_SFTSW_CHG_OLD                         IMPT 00000000   4457 
_ER_SQRAM_WK1                             IMPT 00000000   4452 
_ER_SQRAM_WK2                             IMPT 00000000   4453 
_ESET                                     EQU  00000002   4247*
_ESUCLEAR                                 EQU  000000DF   4246*
_ESUSET                                   EQU  00000020   4245*
*** SuperH RISC engine ASSEMBLER V.7.01.02.000 ***    11/14/21 17:24:11                                                  PAGE    42

*** CROSS REFERENCE LIST

NAME                             SECTION  ATTR VALUE             SEQUENCE

_ET2_WORD_SITM_ACK                        IMPT 00000000   3626 
_ET2_WORD_SITM_REQ                        IMPT 00000000   3625 
_EVCLEAR                                  EQU  000000F7   4250*
_EVSET                                    EQU  00000008   4249*
_EXCPGCR                                  IMPT 00000000    621 
_EXPEVT                                   IMPT 00000000    748 
_EXPFC                                    IMPT 00000000    620 
_EXQ_SH2_TO_SH4                           IMPT 00000000   3693 
_EXQ_SH4_TO_SH2                           IMPT 00000000   3692 
_FACT_IN_DATA                             IMPT 00000000   4535 
_FDEV_IN_DATA                             IMPT 00000000   4537 
_FEP_050                         PvupsciR      000005B0   6161* 6248 
_FEP_100                         PvupsciR      00000618   6242  6251*
_FEP_END                         PvupsciR      00000626   6236  6255  6264*
_FEP_ERR                         PvupsciR      00000620   6257*
_FLASH_REG_TOP                            EQU  FFFFE800   4209*
_FLMCR1_FE800                             EQU  00000000   4210*
_FLMCR2_FE800                             EQU  00000001   4211*
_FROM16_SECT_TBL00               PvupsciR EXPT 00000764   5180  5280  6486  6519*
_FROM8_SECT_TBL00                PvupsciR EXPT 00000714   5204  5233  6485  6496*
_FROMCHK_NASI_CODE                        EQU  5AA53CC3   5778* 5975 
_FROM_CPUA_REWRITE               PvupsciR      000000E4   5020  5042*
_FROM_CPUA_REWR_05               PvupsciR      000000F4   5046  5054*
_FROM_CPUA_REWR_100              PvupsciR      000001EC   5182  5235  5282  5300*
_FROM_CPUA_REWR_150              PvupsciR      0000020C   5048  5331*
_FROM_CPUA_REWR_155              PvupsciR      00000220   5336  5345*
_FROM_CPUA_REWR_160              PvupsciR      00000230   5354  5362*
_FROM_CPUA_REWR_170              PvupsciR      00000248   5377* 5383 
_FROM_CPUA_REWR_20               PvupsciR      00000100   5150*
_FROM_CPUA_REWR_200              PvupsciR      00000278   5365  5412*
_FROM_CPUA_REWR_202              PvupsciR      00000288   5416  5424*
_FROM_CPUA_REWR_202A             PvupsciR      00000292   5427  5432*
_FROM_CPUA_REWR_203              PvupsciR      000002AC   5465* 5675 
_FROM_CPUA_REWR_205              PvupsciR      000002CC   5494* 5515 
_FROM_CPUA_REWR_210              PvupsciR      000002F2   5524* 5660 
_FROM_CPUA_REWR_220              PvupsciR      000003E8   5673  5685*
_FROM_CPUA_REWR_240              PvupsciR      000003F8   5429  5701*
_FROM_CPUA_REWR_250              PvupsciR      00000404   5356  5714*
_FROM_CPUA_REWR_290              PvupsciR      00000414   5717  5726*
_FROM_CPUA_REWR_30               PvupsciR      00000150   5152  5199*
_FROM_CPUA_REWR_300              PvupsciR      00000420   5418  5739*
_FROM_CPUA_REWR_340              PvupsciR      00000430   5742  5751*
_FROM_CPUA_REWR_40               PvupsciR      000001A4   5201  5250*
_FROM_CPUA_REWR_50               PvupsciR      000001E8   5252  5295*
_FROM_CPUA_REWR_END              PvupsciR      0000043C   5297  5323  5339  5399  5441  5643  5704  5729  5754  5761*
_FROM_CPUB4_RW140                PvupsciR      000002A8   5438  5448*
_FROM_ERASE_CMND                 PvupsciR EXPT 00000550   5473  6084  6085*
_FROM_ERASE_POLLINKG             PvupsciR EXPT 000005AC   5479  6144  6154*
_FROM_REWR_450                   PvupsciR      0000039C   5634  5638*
_FROM_REWR_END_ADR               Bvupwkra      0000000C   5173  5226  5273  5670  6065*
_FROM_REWR_STR_FLG               Bvupwkra      00000014   5025  5043  5317  5351  5392  5413  5696  5721  5746  6067*
_FROM_REWR_TOP_ADR               Bvupwkra      00000008   5168  5221  5268  5466  5489  5522  5666  6064*
_FROM_REWR_VEROK                 PvupsciR      000003B0   5619  5654*
_FROM_SCT_TOP_ADR                Bvupwkra      00000004   5164  5217  5264  5510  5655  5662  6063*
*** SuperH RISC engine ASSEMBLER V.7.01.02.000 ***    11/14/21 17:24:11                                                  PAGE    43

*** CROSS REFERENCE LIST

NAME                             SECTION  ATTR VALUE             SEQUENCE

_FROM_SECT_TBL_CHAR              PvupsciR EXPT 000007B0   6490  6545*
_FROM_SECT_TBL_GAIZ              PvupsciR EXPT 00000790   6491  6532*
_FROM_SECT_TBL_GAM2              PvupsciR EXPT 000007C0   6492  6550*
_FROM_SECT_TBL_KATA              PvupsciR EXPT 00000780   6487  6527*
_FROM_SECT_TBL_SENB              PvupsciR EXPT 000007A0   5155  6489  6539*
_FROM_SECT_TBL_SIZE              PvupsciR EXPT 00000710   6480  6481*
_FROM_SECT_TBL_SYSB              PvupsciR EXPT 0000079C   5255  6488  6537*
_FROM_SUMCHK_CODE                         IMPT 00000000   4459 
_FROM_TOP_ADR                    Bvupwkra      00000000   5311  5469  5491  6062*
_FROM_WRITE_CMND                 PvupsciR EXPT 00000634   5496  6280  6285*
_FROM_WRITE_POLLINKG             PvupsciR EXPT 00000670   5504  6326  6335*
_FRQCR                                    IMPT 00000000    730 
_FSFT_TRERR_TM                            IMPT 00000000   4472 
_FWESET                                   EQU  00000080   4242*
_FWP_050                         PvupsciR      00000672   6340* 6434 
_FWP_100                         PvupsciR      000006EC   6428  6441*
_FWP_END                         PvupsciR      000006FE   6422  6449  6458*
_FWP_ERR                         PvupsciR      000006F8   6451*
_GAIZI_FROM_SIZE                          EQU  00030000   4141*
_GAIZI_FROM_TOP                           EQU  B9080000   4140*
_GAM_TBL_SIZE                             EQU  00040000   4130*
_GAM_TBL_SIZE2                            EQU  00060000   4131*
_GAM_TBL_SIZE3                            EQU  00080000   4132*
_HANYO2_DI_DAT                            IMPT 00000000   4765 
_HANYO2_DI_OLD                            IMPT 00000000   4766 
_HD_CMP_PLS_A1                            IMPT 00000000   3646 
_HD_CMP_PLS_B1                            IMPT 00000000   3647 
_HS_PVP_LOTCNT_FLG                        IMPT 00000000   2314 
_HS_PVP_TAKIKI_FLG                        IMPT 00000000   2313 
_HS_SVCHG_A_TO_B                          IMPT 00000000   2312 
_HS_SVCHG_B_TO_A                          IMPT 00000000   2289 
_ICR0                                     IMPT 00000000    717 
_ICR1                                     IMPT 00000000    503 
_ICR2                                     IMPT 00000000    504 
_ICR3                                     IMPT 00000000    616 
_INTEVT                                   IMPT 00000000    749 
_INTEVT2                                  IMPT 00000000    499 
_INT_ADC_ADI                              IMPT 00000000    456 
_INT_AFEIF_AFEIFI                         IMPT 00000000    470 
_INT_Address_load                         IMPT 00000000    318 
_INT_Address_store                        IMPT 00000000    320 
_INT_BSC_RCMI                             IMPT 00000000    392 
_INT_BSC_ROVI                             IMPT 00000000    394 
_INT_CPG_ITI                              IMPT 00000000    390 
_INT_DMAC_DEI0                            IMPT 00000000    432 
_INT_DMAC_DEI1                            IMPT 00000000    434 
_INT_DMAC_DEI2                            IMPT 00000000    436 
_INT_DMAC_DEI3                            IMPT 00000000    438 
_INT_Extern_0000                          IMPT 00000000    336 
_INT_Extern_0001                          IMPT 00000000    338 
_INT_Extern_0010                          IMPT 00000000    340 
_INT_Extern_0011                          IMPT 00000000    342 
_INT_Extern_0100                          IMPT 00000000    344 
_INT_Extern_0101                          IMPT 00000000    346 
*** SuperH RISC engine ASSEMBLER V.7.01.02.000 ***    11/14/21 17:24:11                                                  PAGE    44

*** CROSS REFERENCE LIST

NAME                             SECTION  ATTR VALUE             SEQUENCE

_INT_Extern_0110                          IMPT 00000000    348 
_INT_Extern_0111                          IMPT 00000000    350 
_INT_Extern_1000                          IMPT 00000000    352 
_INT_Extern_1001                          IMPT 00000000    354 
_INT_Extern_1010                          IMPT 00000000    356 
_INT_Extern_1011                          IMPT 00000000    358 
_INT_Extern_1100                          IMPT 00000000    360 
_INT_Extern_1101                          IMPT 00000000    362 
_INT_Extern_1110                          IMPT 00000000    364 
_INT_H_UDI                                IMPT 00000000    398 
_INT_IRQ0                                 IMPT 00000000    400 
_INT_IRQ1                                 IMPT 00000000    402 
_INT_IRQ2                                 IMPT 00000000    404 
_INT_IRQ3                                 IMPT 00000000    406 
_INT_IRQ4                                 IMPT 00000000    408 
_INT_IRQ5                                 IMPT 00000000    410 
_INT_Illegal_code                         IMPT 00000000    328 
_INT_Illegal_slot                         IMPT 00000000    330 
_INT_LCDC_LCDCI                           IMPT 00000000    458 
_INT_NMI                                  IMPT 00000000    332 
_INT_PCC0                                 IMPT 00000000    460 
_INT_PINT0_7                              IMPT 00000000    416 
_INT_PINT8_15                             IMPT 00000000    418 
_INT_RTC_ATI                              IMPT 00000000    376 
_INT_RTC_CUI                              IMPT 00000000    380 
_INT_RTC_PRI                              IMPT 00000000    378 
_INT_Reserved1                            IMPT 00000000    322 
_INT_Reserved2                            IMPT 00000000    324 
_INT_Reserved3E0                          IMPT 00000000    366 
_INT_Reserved5C0                          IMPT 00000000    396 
_INT_Reserved6C0                          IMPT 00000000    412 
_INT_Reserved6E0                          IMPT 00000000    414 
_INT_Reserved740                          IMPT 00000000    420 
_INT_Reserved760                          IMPT 00000000    422 
_INT_Reserved780                          IMPT 00000000    424 
_INT_Reserved7A0                          IMPT 00000000    426 
_INT_Reserved7C0                          IMPT 00000000    428 
_INT_Reserved7E0                          IMPT 00000000    430 
_INT_Reserved880                          IMPT 00000000    440 
_INT_Reserved8A0                          IMPT 00000000    442 
_INT_Reserved8C0                          IMPT 00000000    444 
_INT_Reserved8E0                          IMPT 00000000    446 
_INT_Reserved9E0                          IMPT 00000000    462 
_INT_ReservedA80                          IMPT 00000000    472 
_INT_ReservedAA0                          IMPT 00000000    474 
_INT_ReservedAC0                          IMPT 00000000    476 
_INT_ReservedAE0                          IMPT 00000000    478 
_INT_SCIF_BRI2                            IMPT 00000000    452 
_INT_SCIF_ERI2                            IMPT 00000000    448 
_INT_SCIF_RXI2                            IMPT 00000000    450 
_INT_SCIF_TXI2                            IMPT 00000000    454 
_INT_SCI_ERI                              IMPT 00000000    382 
_INT_SCI_RXI                              IMPT 00000000    384 
_INT_SCI_TEI                              IMPT 00000000    388 
*** SuperH RISC engine ASSEMBLER V.7.01.02.000 ***    11/14/21 17:24:11                                                  PAGE    45

*** CROSS REFERENCE LIST

NAME                             SECTION  ATTR VALUE             SEQUENCE

_INT_SCI_TXI                              IMPT 00000000    386 
_INT_SIOF_SIFCCI                          IMPT 00000000    486 
_INT_SIOF_SIFERI                          IMPT 00000000    480 
_INT_SIOF_SIFRXI                          IMPT 00000000    484 
_INT_SIOF_SIFTXI                          IMPT 00000000    482 
_INT_TLBCPU_ADERR                         IMPT 00000000    308 
_INT_TLBInitial_Page                      IMPT 00000000    310 
_INT_TLBMiss_Load                         IMPT 00000000    304 
_INT_TLBMiss_Store                        IMPT 00000000    306 
_INT_TLBProtect_Load                      IMPT 00000000    312 
_INT_TLBProtect_Loop                      IMPT 00000000    316 
_INT_TLBProtect_Store                     IMPT 00000000    314 
_INT_TMU_TICPI2                           IMPT 00000000    374 
_INT_TMU_TUNI0                            IMPT 00000000    368 
_INT_TMU_TUNI1                            IMPT 00000000    370 
_INT_TMU_TUNI2                            IMPT 00000000    372 
_INT_TRAPA                                IMPT 00000000    326 
_INT_USBF_USBFI0                          IMPT 00000000    466 
_INT_USBF_USBFI1                          IMPT 00000000    468 
_INT_USBH_USBHI                           IMPT 00000000    464 
_INT_User_Break                           IMPT 00000000    334 
_IN_RNA_REF_ERR_FLG1                      IMPT 00000000   4557 
_IN_RNA_REF_ERR_FLG2                      IMPT 00000000   4558 
_IO1A_P4EX                                EQU  00000000   4353*
_IO1A_P5EX                                EQU  0000007B   4354*
_IO1A_P6EX                                EQU  00000000   4355*
_IO1A_P7EX                                EQU  00000000   4356*
_IO1B_P4EX                                EQU  000000FF   4363*
_IO1B_P5EX                                EQU  00000070   4364*
_IO1B_P6EX                                EQU  00000000   4365*
_IO1B_P7EX                                EQU  00000000   4366*
_IO2A_P5EX                                EQU  0000002F   4358*
_IO2A_P6EX                                EQU  0000009C   4359*
_IO2A_P7EX                                EQU  00000000   4360*
_IO2B_P5EX                                EQU  00000000   4369* 4891  4904  5555  5568  5926  5939  6192  6205  6371  6384 
_IO2B_P6EX                                EQU  0000009C   4370*
_IO2B_P7EX                                EQU  00000000   4371*
_IOGA1_CTRL_DAT1                          IMPT 00000000   4729 
_IOGA1_PA_DT_OLD1                         IMPT 00000000   4734 
_IOGA1_PA_DT_OLD2                         IMPT 00000000   4740 
_IOGA1_PB_DT_OLD1                         IMPT 00000000   4735 
_IOGA1_PB_DT_OLD2                         IMPT 00000000   4741 
_IOGA1_PC_DT_OLD1                         IMPT 00000000   4736 
_IOGA1_PC_DT_OLD2                         IMPT 00000000   4742 
_IOGA1_PD_DT_OLD1                         IMPT 00000000   4737 
_IOGA1_PD_DT_OLD2                         IMPT 00000000   4743 
_IOGA1_PE_DT_OLD1                         IMPT 00000000   4738 
_IOGA1_PE_DT_OLD2                         IMPT 00000000   4744 
_IOGA2_CTRL_DAT1                          IMPT 00000000   4731  4883  4896  5547  5560  5918  5931  6184  6197  6363  6376 
_IOGA2_PA_DT_OLD1                         IMPT 00000000   4746 
_IOGA2_PA_DT_OLD2                         IMPT 00000000   4752 
_IOGA2_PB_DT_OLD1                         IMPT 00000000   4747 
_IOGA2_PB_DT_OLD2                         IMPT 00000000   4753 
_IOGA2_PC_DT_OLD1                         IMPT 00000000   4748 
*** SuperH RISC engine ASSEMBLER V.7.01.02.000 ***    11/14/21 17:24:11                                                  PAGE    46

*** CROSS REFERENCE LIST

NAME                             SECTION  ATTR VALUE             SEQUENCE

_IOGA2_PC_DT_OLD2                         IMPT 00000000   4754 
_IOGA2_PD_DT_OLD1                         IMPT 00000000   4749 
_IOGA2_PD_DT_OLD2                         IMPT 00000000   4755 
_IOGA2_PE_DT_OLD1                         IMPT 00000000   4750 
_IOGA2_PE_DT_OLD2                         IMPT 00000000   4756 
_IOGA_P0                                  EQU  00000000   4312*
_IOGA_P1                                  EQU  00000002   4313*
_IOGA_P2                                  EQU  00000004   4314*
_IOGA_P3                                  EQU  00000006   4315*
_IOGA_P4                                  EQU  00000008   4316*
_IOGA_P5                                  EQU  0000000A   4317* 4883  4896  5547  5560  5918  5931  6184  6197  6363  6376 
_IOGA_P6                                  EQU  0000000C   4318*
_IOGA_P7                                  EQU  0000000E   4319*
_IOGA_PDIR0                               EQU  00000002   4337*
_IOGA_PDIR1                               EQU  00000006   4338*
_IOGA_PDIR2                               EQU  0000000A   4339*
_IOGA_PDIR3                               EQU  0000000E   4340*
_IOGA_PDIR4                               EQU  00000012   4341*
_IOGA_PDIR5                               EQU  00000016   4342*
_IOGA_PDIR6                               EQU  0000001A   4343*
_IOGA_PDIR7                               EQU  0000001C   4344*
_IOGA_PDR0                                EQU  00000000   4327*
_IOGA_PDR1                                EQU  00000004   4328*
_IOGA_PDR2                                EQU  00000008   4329*
_IOGA_PDR3                                EQU  0000000C   4330*
_IOGA_PDR4                                EQU  00000010   4331*
_IOGA_PDR5                                EQU  00000014   4332* 4893  4906  5557  5570  5928  5941  6194  6207  6373  6386 
_IOGA_PDR6                                EQU  00000018   4333*
_IOGA_PDR7                                EQU  0000001C   4334*
_IOGAi_PA                                 EQU  00000000   4303*
_IOGAi_PB                                 EQU  00000002   4304*
_IOGAi_PC                                 EQU  00000004   4305*
_IOGAi_PD                                 EQU  00000006   4306*
_IOGAo_PE                                 EQU  00000008   4307*
_IOGAo_PF                                 EQU  0000000A   4308*
_IOGAo_PG                                 EQU  0000000C   4309*
_IOGAo_PH                                 EQU  0000000E   4310*
_IPR3                                     IMPT 00000000    614 
_IPR4                                     IMPT 00000000    615 
_IPRA                                     IMPT 00000000    718 
_IPRB                                     IMPT 00000000    719 
_IPRC                                     IMPT 00000000    506 
_IPRD                                     IMPT 00000000    507 
_IPRE                                     IMPT 00000000    508 
_IPRF                                     IMPT 00000000    612 
_IPRG                                     IMPT 00000000    613 
_IRAM_SIZE                                EQU  00007FFF   4294*
_IRAM_TOP                                 EQU  FFFF6000   4293*
_IRR0                                     IMPT 00000000    500 
_IRR1                                     IMPT 00000000    501 
_IRR2                                     IMPT 00000000    502 
_KEEPRY_BKUP_ERR                          IMPT 00000000   4678 
_KEEPRY_BKUP_FLG                          IMPT 00000000   2316 
_KEY_DT_CPUB                              IMPT 00000000   3615 
*** SuperH RISC engine ASSEMBLER V.7.01.02.000 ***    11/14/21 17:24:11                                                  PAGE    47

*** CROSS REFERENCE LIST

NAME                             SECTION  ATTR VALUE             SEQUENCE

_KEY_USE_SEL                              IMPT 00000000   3614 
_KISYU_GOKAN_CD                           EQU  00000007   4039*
_LDACLNR                                  IMPT 00000000    679 
_LDCNTR                                   IMPT 00000000    683 
_LDDFR                                    IMPT 00000000    668 
_LDHCNR                                   IMPT 00000000    674 
_LDHSYNR                                  IMPT 00000000    675 
_LDICKR                                   IMPT 00000000    666 
_LDINTR                                   IMPT 00000000    680 
_LDLAOR                                   IMPT 00000000    672 
_LDMTR                                    IMPT 00000000    667 
_LDPALCR                                  IMPT 00000000    673 
_LDPMMR                                   IMPT 00000000    681 
_LDPR00                                   IMPT 00000000    665 
_LDPSPR                                   IMPT 00000000    682 
_LDSARL                                   IMPT 00000000    671 
_LDSARU                                   IMPT 00000000    670 
_LDSMR                                    IMPT 00000000    669 
_LDVDLNR                                  IMPT 00000000    676 
_LDVSYNR                                  IMPT 00000000    678 
_LDVTLNR                                  IMPT 00000000    677 
_LOD_AREA0                                EQU  00000000   4018*
_LOD_AREA1                                EQU  00000001   4019*
_LOD_AREA_DPRAM                           EQU  00000004   4022*
_LOD_AREA_FRAM                            EQU  00000003   4021*
_LOD_AREA_FRAMX                           EQU  00000013   4024*
_LOD_AREA_FROM                            EQU  00000002   4020*
_LOD_AREA_SAMP                            EQU  00000015   4025*
_LOD_AREA_SRAM                            EQU  00000005   4023*
_LOD_CMND_RD                              EQU  00000000   4017*
_LOD_CMND_WR                              EQU  00000001   4016*
_LT_RNA_REF_ERR_FLG1                      IMPT 00000000   4561 
_LT_RNA_REF_ERR_FLG2                      IMPT 00000000   4562 
_MAXErase                                 EQU  00000064   4251*
_MAXVerify                                EQU  000003E8   4252*
_MCR                                      IMPT 00000000    724 
_MMUCR                                    IMPT 00000000    750 
_MODE                                     EQU  0000000E   4046*
_MPCR                                     IMPT 00000000    602 
_MRCR                                     IMPT 00000000    601 
_Manual_Reset                             IMPT 00000000    301 
_NCHSW_ERR_TM1                            IMPT 00000000   4463 
_NCHSW_ERR_TM2                            IMPT 00000000   4464 
_NON_SUM_CODE                             EQU  00000395   4779* 5865 
_OPTION_COP_ARI                           IMPT 00000000   3620 
_OPTION_ET1_ARI                           IMPT 00000000   3621 
_PACR                                     IMPT 00000000    559 
_PADR                                     IMPT 00000000    572 
_PANEL_FRQ_DAT                            IMPT 00000000   3618 
_PANEL_LED_DAT                            IMPT 00000000   3617 
_PASSWARD_HH                              EQU  0000000C   4044*
_PASSWARD_HL                              EQU  0000000B   4043*
_PASSWARD_LH                              EQU  0000000A   4042*
_PASSWARD_LL                              EQU  00000009   4041*
*** SuperH RISC engine ASSEMBLER V.7.01.02.000 ***    11/14/21 17:24:11                                                  PAGE    48

*** CROSS REFERENCE LIST

NAME                             SECTION  ATTR VALUE             SEQUENCE

_PBCR                                     IMPT 00000000    560 
_PBDR                                     IMPT 00000000    573 
_PB_INDT_OLD1                             IMPT 00000000   4618 
_PB_INDT_OLD2                             IMPT 00000000   4619 
_PB_PORT_CTL_DATA                         IMPT 00000000   4617 
_PCC0CSCIER                               IMPT 00000000    596 
_PCC0CSCR                                 IMPT 00000000    595 
_PCC0GCR                                  IMPT 00000000    594 
_PCC0ISR                                  IMPT 00000000    593 
_PCCR                                     IMPT 00000000    561 
_PCDR                                     IMPT 00000000    574 
_PCLEAR                                   EQU  000000FE   4239*
_PCR                                      IMPT 00000000    725 
_PDCR                                     IMPT 00000000    562 
_PDDR                                     IMPT 00000000    575 
_PECR                                     IMPT 00000000    563 
_PEDR                                     IMPT 00000000    576 
_PFCR                                     IMPT 00000000    564 
_PFDR                                     IMPT 00000000    577 
_PGCR                                     IMPT 00000000    565 
_PGDR                                     IMPT 00000000    578 
_PHCR                                     IMPT 00000000    566 
_PHDR                                     IMPT 00000000    579 
_PINTER                                   IMPT 00000000    505 
_PJCR                                     IMPT 00000000    567 
_PJDR                                     IMPT 00000000    580  4875  5539  5910  6176  6355 
_PJ_INDT_OLD1                             IMPT 00000000   4623 
_PJ_INDT_OLD2                             IMPT 00000000   4624 
_PJ_PORT_CTL_DATA                         IMPT 00000000   4622 
_PKCR                                     IMPT 00000000    568 
_PKDR                                     IMPT 00000000    581 
_PK_INDT_OLD1                             IMPT 00000000   4628 
_PK_INDT_OLD2                             IMPT 00000000   4629 
_PK_PORT_CTL_DATA                         IMPT 00000000   4627 
_PLCR                                     IMPT 00000000    569 
_PLDR                                     IMPT 00000000    582 
_PLSiCH1                                  EQU  00000000   4379*
_PLSiCH2                                  EQU  00000030   4380*
_PL_BitComdH                              EQU  00000002   4383*
_PL_BitComdL                              EQU  00000000   4382*
_PL_BitInfoH                              EQU  00000006   4385*
_PL_BitInfoL                              EQU  00000004   4384*
_PL_CtrlReg                               EQU  0000002A   4389*
_PL_INDT_OLD1                             IMPT 00000000   4633 
_PL_INDT_OLD2                             IMPT 00000000   4634 
_PL_NowPos1H                              EQU  00000026   4387*
_PL_NowPos1L                              EQU  00000024   4386*
_PL_NowPos2                               EQU  00000028   4388*
_PL_PORT_CTL_DATA                         IMPT 00000000   4632 
_PMCR                                     IMPT 00000000    571 
_PMDR                                     IMPT 00000000    584 
_PSET                                     EQU  00000001   4238*
_PSUCLEAR                                 EQU  000000EF   4237*
_PSUSET                                   EQU  00000010   4236*
*** SuperH RISC engine ASSEMBLER V.7.01.02.000 ***    11/14/21 17:24:11                                                  PAGE    49

*** CROSS REFERENCE LIST

NAME                             SECTION  ATTR VALUE             SEQUENCE

_PTEH                                     IMPT 00000000    754 
_PTEL                                     IMPT 00000000    755 
_PV0_SCRW_POS                             IMPT 00000000   4443 
_PV1_SCRW_POS                             IMPT 00000000   4441 
_PVCLEAR                                  EQU  000000FB   4241*
_PVOP2_WAIT_CODA                          IMPT 00000000   3886 
_PVOP2_WAIT_CODB                          IMPT 00000000   3887 
_PVPAB_ARA1_KAJ_L                         IMPT 00000000   3922 
_PVPAB_ARA1_KAJ_R                         IMPT 00000000   3923 
_PVPAB_ARA1_KAJ_T                         IMPT 00000000   3924 
_PVPAB_DBG_KYUIN1                         IMPT 00000000   3897 
_PVPAB_DBG_KYUIN2                         IMPT 00000000   3898 
_PVPAB_DBG_KYUIN3                         IMPT 00000000   3899 
_PVPAB_KAJLIV_LFT                         IMPT 00000000   3917 
_PVPAB_KAJLIV_RIH                         IMPT 00000000   3918 
_PVPAB_KAJLIV_TTL                         IMPT 00000000   3919 
_PVPAB_SH2_AD_DAT2                        IMPT 00000000   3894 
_PVPAB_SH2_AD_DAT3                        IMPT 00000000   3895 
_PVPAB_SH2_AD_DAT4                        IMPT 00000000   3896 
_PVPAB_SH2_AD_DATA                        IMPT 00000000   3893 
_PVP_1ROT_CALSPM                          IMPT 00000000   2747 
_PVP_360_DEG                              IMPT 00000000   2758 
_PVP_ABS_ENC_SPD                          IMPT 00000000   3316 
_PVP_ABS_OUT_SPD                          IMPT 00000000   3317 
_PVP_ARA1_KAJ_L                           IMPT 00000000   2743 
_PVP_ARA1_KAJ_R                           IMPT 00000000   2742 
_PVP_ARA1_KAJ_T                           IMPT 00000000   2744 
_PVP_ARA1_KAJ_T2                          IMPT 00000000   2811 
_PVP_ATSLID_OBJ1                          IMPT 00000000   3604 
_PVP_A_LOT_CNT1                           IMPT 00000000   3325 
_PVP_A_LOT_CNT2                           IMPT 00000000   3327 
_PVP_A_LOT_CNT3                           IMPT 00000000   3329 
_PVP_A_LOT_CNT4                           IMPT 00000000   3331 
_PVP_A_LOT_CNT5                           IMPT 00000000   3333 
_PVP_BAKORG_PLS1                          IMPT 00000000   2754 
_PVP_BAKORG_PLS2                          IMPT 00000000   2755 
_PVP_BREAK_DIG                            IMPT 00000000   3281 
_PVP_BREAK_TIM1                           IMPT 00000000   3286 
_PVP_BRK_ENC_SPD                          IMPT 00000000   3320 
_PVP_BRK_OUT_SPD                          IMPT 00000000   3321 
_PVP_B_LOT_CNT1                           IMPT 00000000   3326 
_PVP_B_LOT_CNT2                           IMPT 00000000   3328 
_PVP_B_LOT_CNT3                           IMPT 00000000   3330 
_PVP_B_LOT_CNT4                           IMPT 00000000   3332 
_PVP_B_LOT_CNT5                           IMPT 00000000   3334 
_PVP_CB_A_VER                             IMPT 00000000   3400 
_PVP_CB_B_VER                             IMPT 00000000   3401 
_PVP_CB_C_VER                             IMPT 00000000   3420 
_PVP_CKAGL_OVBIT                          IMPT 00000000   3575 
_PVP_CKLMT_AGL01                          IMPT 00000000   3577 
_PVP_CKLMT_AGL02                          IMPT 00000000   3578 
_PVP_CKLMT_AGL03                          IMPT 00000000   3579 
_PVP_CKLMT_AGL04                          IMPT 00000000   3580 
_PVP_CKLMT_AGL05                          IMPT 00000000   3581 
*** SuperH RISC engine ASSEMBLER V.7.01.02.000 ***    11/14/21 17:24:11                                                  PAGE    50

*** CROSS REFERENCE LIST

NAME                             SECTION  ATTR VALUE             SEQUENCE

_PVP_CKLMT_AGL06                          IMPT 00000000   3582 
_PVP_CKLMT_AGL07                          IMPT 00000000   3583 
_PVP_CKLMT_AGL08                          IMPT 00000000   3584 
_PVP_CKLMT_AGL09                          IMPT 00000000   3585 
_PVP_CKLMT_AGL10                          IMPT 00000000   3586 
_PVP_CKLMT_AGLTOP                         IMPT 00000000   3576 
_PVP_CKLMT_MDSPD                          IMPT 00000000   2886 
_PVP_CKLMT_SPD01                          IMPT 00000000   2889 
_PVP_CKLMT_SPD02                          IMPT 00000000   2890 
_PVP_CKLMT_SPD03                          IMPT 00000000   2891 
_PVP_CKLMT_SPD04                          IMPT 00000000   2892 
_PVP_CKLMT_SPD05                          IMPT 00000000   2893 
_PVP_CKLMT_SPD06                          IMPT 00000000   2894 
_PVP_CKLMT_SPD07                          IMPT 00000000   2895 
_PVP_CKLMT_SPD08                          IMPT 00000000   2896 
_PVP_CKLMT_SPD09                          IMPT 00000000   2897 
_PVP_CKLMT_SPD10                          IMPT 00000000   2898 
_PVP_CKLMT_SPDTOP                         IMPT 00000000   2888 
_PVP_CKSPD_LMBIT                          IMPT 00000000   3599 
_PVP_CKSPD_OVBIT                          IMPT 00000000   2885 
_PVP_CKSPD_STPBT                          IMPT 00000000   3600 
_PVP_COM_ADR                              IMPT 00000000   3283 
_PVP_COM_ERR                              IMPT 00000000   3282 
_PVP_CPUA_ANAIN                           IMPT 00000000   3311 
_PVP_CPUA_TEPPLS                          IMPT 00000000   3309 
_PVP_CPUB_ANAIN                           IMPT 00000000   3312 
_PVP_CPUB_TEPPLS                          IMPT 00000000   3310 
_PVP_CYCLE_SPM1                           IMPT 00000000   3270 
_PVP_CYCLE_TIME0                          IMPT 00000000   3267 
_PVP_DEB_DAT0                             IMPT 00000000   3206 
_PVP_DEB_DAT1                             IMPT 00000000   3207 
_PVP_DEB_DAT2                             IMPT 00000000   3208 
_PVP_DEB_DAT3                             IMPT 00000000   3209 
_PVP_DEB_DAT4                             IMPT 00000000   3210 
_PVP_DEB_DAT5                             IMPT 00000000   3211 
_PVP_DEB_DAT6                             IMPT 00000000   3212 
_PVP_DEB_DAT7                             IMPT 00000000   3213 
_PVP_DEB_DAT8                             IMPT 00000000   3214 
_PVP_DEB_DAT9                             IMPT 00000000   3215 
_PVP_DISP_SPM2                            IMPT 00000000   3271 
_PVP_DYHITO_HOSLNG                        IMPT 00000000   3273 
_PVP_DYHITO_POS                           IMPT 00000000   3274 
_PVP_ECO_METER                            IMPT 00000000   3338 
_PVP_ENC_PLS_SPD                          IMPT 00000000   3314 
_PVP_ENC_SPD_DIR                          IMPT 00000000   3322 
_PVP_ENC_SPD_PER                          IMPT 00000000   3318 
_PVP_EPM_KAISE                            IMPT 00000000   3341 
_PVP_EPM_SYOHI                            IMPT 00000000   3340 
_PVP_GMNSEQ_CNT01                         IMPT 00000000   3288 
_PVP_GMNSEQ_CNT02                         IMPT 00000000   3289 
_PVP_GMNSEQ_CNT03                         IMPT 00000000   3290 
_PVP_GMNSEQ_CNT04                         IMPT 00000000   3291 
_PVP_GMNSEQ_CNT05                         IMPT 00000000   3292 
_PVP_GMNSEQ_CNT06                         IMPT 00000000   3293 
*** SuperH RISC engine ASSEMBLER V.7.01.02.000 ***    11/14/21 17:24:11                                                  PAGE    51

*** CROSS REFERENCE LIST

NAME                             SECTION  ATTR VALUE             SEQUENCE

_PVP_GMNSEQ_CNT07                         IMPT 00000000   3294 
_PVP_GMNSEQ_CNT08                         IMPT 00000000   3295 
_PVP_GMNSEQ_TIM01                         IMPT 00000000   3297 
_PVP_GMNSEQ_TIM02                         IMPT 00000000   3298 
_PVP_GMNSEQ_TIM03                         IMPT 00000000   3299 
_PVP_GMNSEQ_TIM04                         IMPT 00000000   3300 
_PVP_GMNSEQ_TIM05                         IMPT 00000000   3301 
_PVP_GMNSEQ_TIM06                         IMPT 00000000   3302 
_PVP_GMNSEQ_TIM07                         IMPT 00000000   3303 
_PVP_GMNSEQ_TIM08                         IMPT 00000000   3304 
_PVP_IVW_DOT                              IMPT 00000000   3343 
_PVP_KAJLIV_LFT                           IMPT 00000000   2727 
_PVP_KAJLIV_RIH                           IMPT 00000000   2729 
_PVP_KAJLIV_TTL                           IMPT 00000000   2728 
_PVP_MENTE_CNT                            IMPT 00000000   2813 
_PVP_MONALM1_TOP                          IMPT 00000000   3229 
_PVP_MONALM2_TOP                          IMPT 00000000   3349 
_PVP_MONALM_A01                           IMPT 00000000   3242 
_PVP_MONALM_A02                           IMPT 00000000   3243 
_PVP_MONALM_A03                           IMPT 00000000   3244 
_PVP_MONALM_A04                           IMPT 00000000   3245 
_PVP_MONALM_A05                           IMPT 00000000   3246 
_PVP_MONALM_A06                           IMPT 00000000   3247 
_PVP_MONALM_A07                           IMPT 00000000   3248 
_PVP_MONALM_A08                           IMPT 00000000   3249 
_PVP_MONALM_B01                           IMPT 00000000   3250 
_PVP_MONALM_B02                           IMPT 00000000   3251 
_PVP_MONALM_B03                           IMPT 00000000   3252 
_PVP_MONALM_B04                           IMPT 00000000   3253 
_PVP_MONALM_B05                           IMPT 00000000   3254 
_PVP_MONALM_B06                           IMPT 00000000   3255 
_PVP_MONALM_B07                           IMPT 00000000   3256 
_PVP_MONALM_B08                           IMPT 00000000   3257 
_PVP_MONALM_C01                           IMPT 00000000   3234 
_PVP_MONALM_C02                           IMPT 00000000   3235 
_PVP_MONALM_C03                           IMPT 00000000   3236 
_PVP_MONALM_C04                           IMPT 00000000   3237 
_PVP_MONALM_C05                           IMPT 00000000   3238 
_PVP_MONALM_C06                           IMPT 00000000   3239 
_PVP_MONALM_C07                           IMPT 00000000   3240 
_PVP_MONALM_C08                           IMPT 00000000   3241 
_PVP_MONALM_P01                           IMPT 00000000   3230 
_PVP_MONALM_P02                           IMPT 00000000   3231 
_PVP_MONALM_P03                           IMPT 00000000   3232 
_PVP_MONALM_P04                           IMPT 00000000   3233 
_PVP_MOTINS_AG2                           IMPT 00000000   2877 
_PVP_MOTINS_AG3                           IMPT 00000000   2880 
_PVP_MOTINS_AGL                           IMPT 00000000   2872 
_PVP_MOTINS_DAN                           IMPT 00000000   2871 
_PVP_MOTINS_DANAFT                        IMPT 00000000   2901 
_PVP_MOTINS_DANBEF                        IMPT 00000000   2900 
_PVP_MOTINS_INF                           IMPT 00000000   2882 
_PVP_MOTINS_POS                           IMPT 00000000   2873 
_PVP_MOTINS_PS2                           IMPT 00000000   2876 
*** SuperH RISC engine ASSEMBLER V.7.01.02.000 ***    11/14/21 17:24:11                                                  PAGE    52

*** CROSS REFERENCE LIST

NAME                             SECTION  ATTR VALUE             SEQUENCE

_PVP_MOTINS_PS3                           IMPT 00000000   2881 
_PVP_NOW_ANGLE00                          IMPT 00000000   3266 
_PVP_NOW_ANGLE_RNA                        IMPT 00000000   3272 
_PVP_NOW_POSI000                          IMPT 00000000   3264 
_PVP_ORGRNA_MOV1                          IMPT 00000000   2750 
_PVP_ORGRNA_MOV2                          IMPT 00000000   2751 
_PVP_ORGSTRK_LEG1                         IMPT 00000000   2752 
_PVP_ORGSTRK_LEG2                         IMPT 00000000   2753 
_PVP_OUT_PLS_SPD                          IMPT 00000000   3315 
_PVP_OUT_SPD_DIR                          IMPT 00000000   3323 
_PVP_OUT_SPD_PER                          IMPT 00000000   3319 
_PVP_PAR_A_CHAR                           IMPT 00000000   3410 
_PVP_PAR_A_VER                            IMPT 00000000   3404 
_PVP_PAR_B_CHAR                           IMPT 00000000   3411 
_PVP_PAR_B_VER                            IMPT 00000000   3405 
_PVP_PAR_C_CHAR                           IMPT 00000000   3422 
_PVP_PAR_C_VER                            IMPT 00000000   3421 
_PVP_PG12_DEG1                            IMPT 00000000   2820 
_PVP_PG_DEG1                              IMPT 00000000   2759 
_PVP_PG_DEG1X                             IMPT 00000000   2816 
_PVP_PG_DEG2                              IMPT 00000000   2760 
_PVP_PG_DEG2X                             IMPT 00000000   2817 
_PVP_PG_PLS1                              IMPT 00000000   2818 
_PVP_PG_PLS2                              IMPT 00000000   2819 
_PVP_POWER_KWH                            IMPT 00000000   3339 
_PVP_POWER_MONI                           IMPT 00000000   3307 
_PVP_RENIA_BUP1                           IMPT 00000000   2803 
_PVP_RENIA_BUP2                           IMPT 00000000   2804 
_PVP_RENIA_BUP3                           IMPT 00000000   2805 
_PVP_RENIA_BUP4                           IMPT 00000000   2806 
_PVP_RENIA_POS1                           IMPT 00000000   2756 
_PVP_RENIA_POS2                           IMPT 00000000   2757 
_PVP_RENIA_POSI0                          IMPT 00000000   3265 
_PVP_RNABUP_ENB                           IMPT 00000000   2807 
_PVP_RNAORG_PLS1                          IMPT 00000000   3263 
_PVP_RNA_STLORK                           IMPT 00000000   3279 
_PVP_SEQ_ERR                              IMPT 00000000   3284 
_PVP_SINKAKU_UPDN1                        IMPT 00000000   3594 
_PVP_SINKAKU_UPDN2                        IMPT 00000000   3595 
_PVP_SLIDE_POS                            IMPT 00000000   3275 
_PVP_STOP_TIM                             IMPT 00000000   3280 
_PVP_TAIKITEN_POS                         IMPT 00000000   3277 
_PVP_TAIKI_POS                            IMPT 00000000   3276 
_PVP_TBL_A_CHAR                           IMPT 00000000   3412 
_PVP_TBL_A_VER                            IMPT 00000000   3406 
_PVP_TBL_B_CHAR                           IMPT 00000000   3413 
_PVP_TBL_B_VER                            IMPT 00000000   3407 
_PVP_TBL_C_CHAR                           IMPT 00000000   3424 
_PVP_TBL_C_VER                            IMPT 00000000   3423 
_PVP_WTJUD_AGL                            IMPT 00000000   3590 
_PVP_WTJUD_POS                            IMPT 00000000   3591 
_PVP_WTJUD_SNO                            IMPT 00000000   3589 
_PVP_ZURE_PLS                             IMPT 00000000   2761 
_PVP_ZURE_RNA                             IMPT 00000000   2762 
*** SuperH RISC engine ASSEMBLER V.7.01.02.000 ***    11/14/21 17:24:11                                                  PAGE    53

*** CROSS REFERENCE LIST

NAME                             SECTION  ATTR VALUE             SEQUENCE

_PVSET                                    EQU  00000004   4240*
_PVX_RNA_DIGDT                            IMPT 00000000   3686 
_PVX_RNA_INDAT                            IMPT 00000000   3682 
_PVX_RNA_PLS_P                            IMPT 00000000   3688 
_PVX_RNA_POSD1                            IMPT 00000000   3683 
_PVX_RNA_POSD2                            IMPT 00000000   3684 
_PVX_RNA_POSDT                            IMPT 00000000   3685 
_PVX_SH4_OUTPLS                           IMPT 00000000   3695 
_PVX_SH4_SFTY_IN                          IMPT 00000000   3687 
_PV_AD_DATA                               IMPT 00000000   4518 
_PV_CB_STS_DAT_TOP                        IMPT 00000000   3220 
_PV_CB_STS_POINT                          IMPT 00000000   3222 
_PV_CB_TRD_DAT_TOP                        IMPT 00000000   3221 
_PV_CB_TRD_POINT                          IMPT 00000000   3223 
_PV_POWER_ON_CNT                          IMPT 00000000   3224 
_PowerON_Reset                            IMPT 00000000    297 
_R64CNT                                   IMPT 00000000    701 
_RACT_IN_DATA                             IMPT 00000000   4536 
_RCNT                                     IMPT 00000000    604 
_RCR1                                     IMPT 00000000    715 
_RCR2                                     IMPT 00000000    716 
_RDAYAR                                   IMPT 00000000    713 
_RDAYCNT                                  IMPT 00000000    706 
_RDEV_IN_DATA                             IMPT 00000000   4538 
_RDFP                                     IMPT 00000000    608 
_RDR0                                     IMPT 00000000    689 
_REAL_INP1_DATA                           IMPT 00000000   4612 
_REAL_INP1_DT_OLD1                        IMPT 00000000   4613 
_REAL_INP1_DT_OLD2                        IMPT 00000000   4614 
_REMOTE_ERR_CHKTM                         IMPT 00000000   4491 
_RFCR                                     IMPT 00000000    729 
_RHRAR                                    IMPT 00000000    711 
_RHRCNT                                   IMPT 00000000    704 
_RMINAR                                   IMPT 00000000    710 
_RMINCNT                                  IMPT 00000000    703 
_RMONAR                                   IMPT 00000000    714 
_RMONCNT                                  IMPT 00000000    707 
_RNA_ALM_BIT0_CNT                         IMPT 00000000   4569 
_RNA_ALM_BIT1_CNT                         IMPT 00000000   4570 
_RNA_ALM_BIT2_CNT                         IMPT 00000000   4571 
_RNA_ALM_BIT3_CNT                         IMPT 00000000   4572 
_RNA_ALM_BIT4_CNT                         IMPT 00000000   4573 
_RNA_ALM_BIT5_CNT                         IMPT 00000000   4574 
_RNA_ALM_BIT6_CNT                         IMPT 00000000   4575 
_RNA_ALM_BIT7_CNT                         IMPT 00000000   4576 
_RNA_ALM_CNT                              IMPT 00000000   4577 
_RNA_ALM_DAT                              IMPT 00000000   4578 
_RNA_CMD_VERIFY_CNT                       IMPT 00000000   4564 
_RNA_CMD_VERIFY_DAT                       IMPT 00000000   4565 
_RNA_REF1_CNT                             IMPT 00000000   4579 
_RNA_REF2_CNT                             IMPT 00000000   4580 
_RNA_REF_ERR_FLG1                         IMPT 00000000   4559 
_RNA_REF_ERR_FLG2                         IMPT 00000000   4560 
_RNA_STS_ERR_DAT                          IMPT 00000000   4568 
*** SuperH RISC engine ASSEMBLER V.7.01.02.000 ***    11/14/21 17:24:11                                                  PAGE    54

*** CROSS REFERENCE LIST

NAME                             SECTION  ATTR VALUE             SEQUENCE

_RNA_STS_REQERR_CNT                       IMPT 00000000   4567 
_RNA_STS_SYSERR_CNT                       IMPT 00000000   4566 
_ROM_SUM_CODE                             IMPT 00000000   5779  5879 
_ROM_SYSPAR_ERRADR                        IMPT 00000000   4493 
_RSECAR                                   IMPT 00000000    709 
_RSECCNT                                  IMPT 00000000    702 
_RSFT_TRERR_TM                            IMPT 00000000   4473 
_RTCNT                                    IMPT 00000000    727 
_RTCOR                                    IMPT 00000000    728 
_RTCSR                                    IMPT 00000000    726 
_RWKAR                                    IMPT 00000000    712 
_RWKCNT                                   IMPT 00000000    705 
_RYRCNT                                   IMPT 00000000    708 
_ResetHandler                             IMPT 00000000   4774  5881 
_SAITO_ASM_RAM_TOP                        IMPT 00000000   4407 
_SAR0                                     IMPT 00000000    509 
_SAR1                                     IMPT 00000000    513 
_SAR2                                     IMPT 00000000    517 
_SAR3                                     IMPT 00000000    521 
_SCBRR2                                   IMPT 00000000    586 
_SCFCR2                                   IMPT 00000000    591 
_SCFDR2                                   IMPT 00000000    592 
_SCFRDR2                                  IMPT 00000000    590 
_SCFTDR2                                  IMPT 00000000    588 
_SCPCR                                    IMPT 00000000    570 
_SCPDR                                    IMPT 00000000    583 
_SCR0                                     IMPT 00000000    686 
_SCSCMR                                   IMPT 00000000    690 
_SCSCR2                                   IMPT 00000000    587 
_SCSMR2                                   IMPT 00000000    585 
_SCSSR2                                   IMPT 00000000    589 
_SDDRL                                    IMPT 00000000    611 
_SDDR_SDDRH                               IMPT 00000000    610 
_SDIR                                     IMPT 00000000    609 
_SELF_ACT_FLG                             IMPT 00000000   4501 
_SELF_CHK_FLG                             IMPT 00000000   4500 
_SELF_CHK_TIMER                           IMPT 00000000   4510 
_SELF_FSTY_USE                            IMPT 00000000   4507 
_SELF_HAND_FLG1                           IMPT 00000000   4504 
_SELF_HAND_FLG2                           IMPT 00000000   4505 
_SELF_RSTY_USE                            IMPT 00000000   4508 
_SEQAB_DP_TOP                             IMPT 00000000   3996 
_SEQ_NO                                   EQU  00000010   4048*
_SEQ_PRO_SIZE                             EQU  00010000   4133*
_SETUZOKU_IDH                             EQU  00000006   4038*
_SETUZOKU_IDL                             EQU  00000005   4037*
_SETUZOKU_PRO                             EQU  00000004   4036*
_SFTSW_ERR_TM                             IMPT 00000000   4461 
_SH2_1STS                                 EQU  00000019   4215* 4216 
_SH2_ADD_PLS                              IMPT 00000000   3835 
_SH2_AD_DATA                              IMPT 00000000   2291 
_SH2_BAS_FRQ_SV                           IMPT 00000000   3796 
_SH2_CMP_STS1                             IMPT 00000000   3706 
_SH2_CMP_STS2                             IMPT 00000000   3708 
*** SuperH RISC engine ASSEMBLER V.7.01.02.000 ***    11/14/21 17:24:11                                                  PAGE    55

*** CROSS REFERENCE LIST

NAME                             SECTION  ATTR VALUE             SEQUENCE

_SH2_CNT_REST_HF                          IMPT 00000000   3807 
_SH2_CNT_REST_PLS                         IMPT 00000000   3791 
_SH2_DBG_KAGEN                            IMPT 00000000   2293 
_SH2_DNM_CALC_INFO                        IMPT 00000000   3970 
_SH2_GPOINT_LNG                           IMPT 00000000   3651 
_SH2_GPOINT_LNGDSP                        IMPT 00000000   3653 
_SH2_GPOINT_SPDDSP                        IMPT 00000000   3655 
_SH2_HD_CNT_CNT                           IMPT 00000000   3726 
_SH2_HD_CNT_STOP                          IMPT 00000000   3722 
_SH2_HD_CTRL_BUSY                         IMPT 00000000   3714 
_SH2_HD_CTRL_REDY                         IMPT 00000000   3712 
_SH2_HD_HLDSTOP1                          IMPT 00000000   3954 
_SH2_HD_HLDSTOP2                          IMPT 00000000   3957 
_SH2_HD_NEAR_ZERO                         IMPT 00000000   3720 
_SH2_HD_POS_START                         IMPT 00000000   3716 
_SH2_HD_SFTY_AUTO                         IMPT 00000000   3718 
_SH2_HD_STEP_END                          IMPT 00000000   3724 
_SH2_LNGH_ADD_SR                          IMPT 00000000   3792 
_SH2_LOT_CNT_A                            IMPT 00000000   3803 
_SH2_LOT_STEP_A                           IMPT 00000000   3804 
_SH2_MAIN_CLK                             IMPT 00000000   2292 
_SH2_NOW_FRQ_PV                           IMPT 00000000   3798 
_SH2_NOW_STEP                             IMPT 00000000   3842 
_SH2_OBJ_ENC360                           IMPT 00000000   3964 
_SH2_PDOWN_FLG                            IMPT 00000000   2290 
_SH2_PLSI_ACCS                            IMPT 00000000   3800 
_SH2_PLSI_LATE                            IMPT 00000000   3801 
_SH2_POS_STS1                             IMPT 00000000   3704 
_SH2_PV_ENC_SPD_PER                       IMPT 00000000   3966 
_SH2_PV_OUT_SPD_PER                       IMPT 00000000   3965 
_SH2_REST_PLS_RL                          IMPT 00000000   3794 
_SH2_REST_PLS_SR                          IMPT 00000000   3793 
_SH2_REST_RL_HF                           IMPT 00000000   3806 
_SH2_REST_SR_HF                           IMPT 00000000   3805 
_SH2_SCAN_AVLMAX                          IMPT 00000000   2304 
_SH2_SCAN_AVLPV                           IMPT 00000000   2305 
_SH2_SCAN_REALMAX                         IMPT 00000000   2303 
_SH2_STEP1_FRQ                            IMPT 00000000   3824 
_SH2_STEP1_PV_PLS                         IMPT 00000000   3814 
_SH2_STEP1_REST_P                         IMPT 00000000   3819 
_SH2_STEP1_SV_PLS                         IMPT 00000000   3809 
_SH2_STEP1_TIM                            IMPT 00000000   3829 
_SH2_STEP2_FRQ                            IMPT 00000000   3825 
_SH2_STEP2_PV_PLS                         IMPT 00000000   3815 
_SH2_STEP2_REST_P                         IMPT 00000000   3820 
_SH2_STEP2_SV_PLS                         IMPT 00000000   3810 
_SH2_STEP2_TIM                            IMPT 00000000   3830 
_SH2_STEP3_FRQ                            IMPT 00000000   3826 
_SH2_STEP3_PV_PLS                         IMPT 00000000   3816 
_SH2_STEP3_REST_P                         IMPT 00000000   3821 
_SH2_STEP3_SV_PLS                         IMPT 00000000   3811 
_SH2_STEP3_TIM                            IMPT 00000000   3831 
_SH2_STEP4_FRQ                            IMPT 00000000   3827 
_SH2_STEP4_PV_PLS                         IMPT 00000000   3817 
*** SuperH RISC engine ASSEMBLER V.7.01.02.000 ***    11/14/21 17:24:11                                                  PAGE    56

*** CROSS REFERENCE LIST

NAME                             SECTION  ATTR VALUE             SEQUENCE

_SH2_STEP4_REST_P                         IMPT 00000000   3822 
_SH2_STEP4_SV_PLS                         IMPT 00000000   3812 
_SH2_STEP4_TIM                            IMPT 00000000   3832 
_SH2_STEP5_FRQ                            IMPT 00000000   3828 
_SH2_STEP5_PV_PLS                         IMPT 00000000   3818 
_SH2_STEP5_REST_P                         IMPT 00000000   3823 
_SH2_STEP5_SV_PLS                         IMPT 00000000   3813 
_SH2_STEP5_TIM                            IMPT 00000000   3833 
_SH2_STEP_FRQ                             IMPT 00000000   3840 
_SH2_STEP_NO                              IMPT 00000000   3697 
_SH2_STEP_PV_PLS                          IMPT 00000000   3838 
_SH2_STEP_REST_P                          IMPT 00000000   3839 
_SH2_STEP_SV_PLS                          IMPT 00000000   3837 
_SH2_STEP_TIM                             IMPT 00000000   3841 
_SH2_TOP_FRQ_SV                           IMPT 00000000   3797 
_SH2_TOTAL_PLS                            IMPT 00000000   3834 
_SH2_VLV_SIG                              IMPT 00000000   3961 
_SH2toSH4_TEPSIG                          IMPT 00000000   3658 
_SH4_ADD_PLS                              IMPT 00000000   3783 
_SH4_BAS_FRQ_SV                           IMPT 00000000   3744 
_SH4_CMP_STS1                             IMPT 00000000   3705 
_SH4_CMP_STS2                             IMPT 00000000   3707 
_SH4_CNT_REST_HF                          IMPT 00000000   3755 
_SH4_CNT_REST_PLS                         IMPT 00000000   3740 
_SH4_DNM_CALC_INFO                        IMPT 00000000   3969 
_SH4_GPOINT_LNG                           IMPT 00000000   3650 
_SH4_GPOINT_LNGDSP                        IMPT 00000000   3652 
_SH4_GPOINT_SPDDSP                        IMPT 00000000   3654 
_SH4_HD_CNT_CNT                           IMPT 00000000   3725 
_SH4_HD_CNT_STOP                          IMPT 00000000   3721 
_SH4_HD_CTRL_BUSY                         IMPT 00000000   3713 
_SH4_HD_CTRL_REDY                         IMPT 00000000   3711 
_SH4_HD_HLDSTOP1                          IMPT 00000000   3953 
_SH4_HD_HLDSTOP2                          IMPT 00000000   3956 
_SH4_HD_NEAR_ZERO                         IMPT 00000000   3719 
_SH4_HD_POS_START                         IMPT 00000000   3715 
_SH4_HD_SFTY_AUTO                         IMPT 00000000   3717 
_SH4_HD_STEP_END                          IMPT 00000000   3723 
_SH4_LNGH_ADD_SR                          IMPT 00000000   3741 
_SH4_LOT_CNT_A                            IMPT 00000000   3751 
_SH4_LOT_STEP_A                           IMPT 00000000   3752 
_SH4_NOW_FRQ_PV                           IMPT 00000000   3746 
_SH4_NOW_STEP                             IMPT 00000000   3789 
_SH4_ORG_DIR_REV                          IMPT 00000000   3634 
_SH4_PDOWN_FLG                            IMPT 00000000   2317 
_SH4_PLSI_ACCS                            IMPT 00000000   3748 
_SH4_PLSI_LATE                            IMPT 00000000   3749 
_SH4_POS_STS1                             IMPT 00000000   3703 
_SH4_REST_PLS_RL                          IMPT 00000000   3743 
_SH4_REST_PLS_SR                          IMPT 00000000   3742 
_SH4_REST_RL_HF                           IMPT 00000000   3754 
_SH4_REST_SR_HF                           IMPT 00000000   3753 
_SH4_SQERRAM                              IMPT 00000000   4454 
_SH4_STEP1_FRQ                            IMPT 00000000   3772 
*** SuperH RISC engine ASSEMBLER V.7.01.02.000 ***    11/14/21 17:24:11                                                  PAGE    57

*** CROSS REFERENCE LIST

NAME                             SECTION  ATTR VALUE             SEQUENCE

_SH4_STEP1_PV_PLS                         IMPT 00000000   3762 
_SH4_STEP1_REST_P                         IMPT 00000000   3767 
_SH4_STEP1_SV_PLS                         IMPT 00000000   3757 
_SH4_STEP1_TIM                            IMPT 00000000   3777 
_SH4_STEP2_FRQ                            IMPT 00000000   3773 
_SH4_STEP2_PV_PLS                         IMPT 00000000   3763 
_SH4_STEP2_REST_P                         IMPT 00000000   3768 
_SH4_STEP2_SV_PLS                         IMPT 00000000   3758 
_SH4_STEP2_TIM                            IMPT 00000000   3778 
_SH4_STEP3_FRQ                            IMPT 00000000   3774 
_SH4_STEP3_PV_PLS                         IMPT 00000000   3764 
_SH4_STEP3_REST_P                         IMPT 00000000   3769 
_SH4_STEP3_SV_PLS                         IMPT 00000000   3759 
_SH4_STEP3_TIM                            IMPT 00000000   3779 
_SH4_STEP4_FRQ                            IMPT 00000000   3775 
_SH4_STEP4_PV_PLS                         IMPT 00000000   3765 
_SH4_STEP4_REST_P                         IMPT 00000000   3770 
_SH4_STEP4_SV_PLS                         IMPT 00000000   3760 
_SH4_STEP4_TIM                            IMPT 00000000   3780 
_SH4_STEP5_FRQ                            IMPT 00000000   3776 
_SH4_STEP5_PV_PLS                         IMPT 00000000   3766 
_SH4_STEP5_REST_P                         IMPT 00000000   3771 
_SH4_STEP5_SV_PLS                         IMPT 00000000   3761 
_SH4_STEP5_TIM                            IMPT 00000000   3781 
_SH4_STEP_FRQ                             IMPT 00000000   3787 
_SH4_STEP_NO                              IMPT 00000000   3696 
_SH4_STEP_PV_PLS                          IMPT 00000000   3785 
_SH4_STEP_REST_P                          IMPT 00000000   3786 
_SH4_STEP_SV_PLS                          IMPT 00000000   3784 
_SH4_STEP_TIM                             IMPT 00000000   3788 
_SH4_TOP_FRQ_SV                           IMPT 00000000   3745 
_SH4_TOTAL_PLS                            IMPT 00000000   3782 
_SH4_VLV_SIG                              IMPT 00000000   3960 
_SH4toSH2_TEPSIG                          IMPT 00000000   3657 
_SH_CNTSTOP_FLG                           IMPT 00000000   3675 
_SH_OUTPLS_DELT                           IMPT 00000000   3676 
_SH_POSCTL_ACC                            IMPT 00000000   3663 
_SH_POSCTL_CAL_REST                       IMPT 00000000   3669 
_SH_POSCTL_HENSA                          IMPT 00000000   3670 
_SH_POSCTL_LSIFREQ                        IMPT 00000000   3671 
_SH_POSCTL_OFS                            IMPT 00000000   3664 
_SH_POSCTL_PV_ABSPLS                      IMPT 00000000   3667 
_SH_POSCTL_REST_PLS                       IMPT 00000000   3668 
_SH_POSCTL_RL_ABSPLS                      IMPT 00000000   3666 
_SH_POSCTL_RL_SPD                         IMPT 00000000   3662 
_SH_POSCTL_SV_ABSPLS                      IMPT 00000000   3665 
_SH_POSCTL_SV_SPD                         IMPT 00000000   3661 
_SH_SQ200_IN                              IMPT 00000000   3674 
_SICDAR                                   IMPT 00000000    548 
_SICTR                                    IMPT 00000000    549 
_SIFCTR                                   IMPT 00000000    550 
_SIFPR                                    IMPT 00000000    558 
_SIIER                                    IMPT 00000000    552 
_SIMDR                                    IMPT 00000000    544 
*** SuperH RISC engine ASSEMBLER V.7.01.02.000 ***    11/14/21 17:24:11                                                  PAGE    58

*** CROSS REFERENCE LIST

NAME                             SECTION  ATTR VALUE             SEQUENCE

_SIRCR                                    IMPT 00000000    556 
_SIRDAR                                   IMPT 00000000    547 
_SIRDR                                    IMPT 00000000    554 
_SISCR                                    IMPT 00000000    545 
_SISTR                                    IMPT 00000000    551 
_SITCR                                    IMPT 00000000    555 
_SITDAR                                   IMPT 00000000    546 
_SITDR                                    IMPT 00000000    553 
_SITMR                                    IMPT 00000000    557 
_SMR0                                     IMPT 00000000    684 
_SQ_CBWK_TOP                              IMPT 00000000   4607 
_SRAM_SIZE                                EQU  001FFFFF   4292*
_SRAM_TOP                                 EQU  AC000000   4291*
_SRSTR                                    IMPT 00000000    619 
_SSR0                                     IMPT 00000000    688 
_START_ACK_COD                            EQU  00004321    212*
_START_REQ_COD                            EQU  00009876    211*
_STBCR                                    IMPT 00000000    731 
_STBCR2                                   IMPT 00000000    734 
_STBCR3                                   IMPT 00000000    618 
_STR_CODE                                 EQU  00000000   4032*
_SVB_ARA1_KAJ_T2                          IMPT 00000000   2389 
_SVB_BAKORG_PLS1                          IMPT 00000000   2380 
_SVB_BAKORG_PLS2                          IMPT 00000000   2381 
_SVB_DYHITO_POS                           IMPT 00000000   2377 
_SVB_RENIA_BUP1                           IMPT 00000000   2383 
_SVB_RENIA_BUP2                           IMPT 00000000   2384 
_SVB_RENIA_BUP3                           IMPT 00000000   2385 
_SVB_RENIA_BUP4                           IMPT 00000000   2386 
_SVB_RNAORG_PLS1                          IMPT 00000000   2375 
_SVB_SLIDE_POS                            IMPT 00000000   2378 
_SVOP2_WAIT_ANSA                          IMPT 00000000   3888 
_SVOP2_WAIT_ANSB                          IMPT 00000000   3889 
_SVP_ACCLAT_TIM1                          IMPT 00000000   2427 
_SVP_ACCLAT_TIMP                          IMPT 00000000   2850 
_SVP_AMP100P_VLT                          IMPT 00000000   2474 
_SVP_AMPERR_TIM1                          IMPT 00000000   2448 
_SVP_AMPERR_TIM2                          IMPT 00000000   2450 
_SVP_AMPERR_TIM3                          IMPT 00000000   2452 
_SVP_AMPERR_VLT1                          IMPT 00000000   2447 
_SVP_AMPERR_VLT2                          IMPT 00000000   2449 
_SVP_AMPERR_VLT3                          IMPT 00000000   2451 
_SVP_ARACHK_LNG1                          IMPT 00000000   2433 
_SVP_ATCOL_CYC                            IMPT 00000000   2527 
_SVP_ATCOL_SPAG                           IMPT 00000000   2531 
_SVP_ATCOL_SPNO                           IMPT 00000000   2530 
_SVP_ATCOL_STAG                           IMPT 00000000   2529 
_SVP_ATCOL_STNO                           IMPT 00000000   2528 
_SVP_ATSLID_BAKLNG                        IMPT 00000000   2710 
_SVP_ATSLID_COEF1                         IMPT 00000000   2711 
_SVP_ATSLID_DNOBJ1                        IMPT 00000000   2708 
_SVP_ATSLID_OBJ1                          IMPT 00000000   2707 
_SVP_ATSLID_UPOBJ1                        IMPT 00000000   2709 
_SVP_BREAK_DIG                            IMPT 00000000   2457 
*** SuperH RISC engine ASSEMBLER V.7.01.02.000 ***    11/14/21 17:24:11                                                  PAGE    59

*** CROSS REFERENCE LIST

NAME                             SECTION  ATTR VALUE             SEQUENCE

_SVP_BREAK_DIG_RAT                        IMPT 00000000   2552 
_SVP_BREAK_TIM1                           IMPT 00000000   2458 
_SVP_BREAK_TIM_RAT                        IMPT 00000000   2553 
_SVP_CAMFUN_SEL00                         IMPT 00000000   2689 
_SVP_CAMFUN_SEL01                         IMPT 00000000   2690 
_SVP_CAMFUN_SEL02                         IMPT 00000000   2691 
_SVP_CAMFUN_SEL03                         IMPT 00000000   2692 
_SVP_CAMFUN_SEL04                         IMPT 00000000   2693 
_SVP_CAMFUN_SEL05                         IMPT 00000000   2694 
_SVP_CAMFUN_SEL06                         IMPT 00000000   2695 
_SVP_CAMFUN_SEL07                         IMPT 00000000   2696 
_SVP_CAMFUN_SEL08                         IMPT 00000000   2697 
_SVP_CAMFUN_SEL09                         IMPT 00000000   2698 
_SVP_CAMFUN_SEL0A                         IMPT 00000000   2699 
_SVP_CAMFUN_SEL0B                         IMPT 00000000   2700 
_SVP_CAMFUN_SEL0C                         IMPT 00000000   2701 
_SVP_CAMFUN_SEL0D                         IMPT 00000000   2702 
_SVP_CAMFUN_SEL0E                         IMPT 00000000   2703 
_SVP_CAMFUN_SEL0F                         IMPT 00000000   2704 
_SVP_CAMFUN_SEL_TOP                       IMPT 00000000   2688 
_SVP_CNT_CNT                              IMPT 00000000   2456 
_SVP_CNT_TIM                              IMPT 00000000   2455 
_SVP_DAIHAI_LNG1                          IMPT 00000000   2443 
_SVP_DAIHAI_LNG2                          IMPT 00000000   2444 
_SVP_DAIHAI_LNG3                          IMPT 00000000   2445 
_SVP_DAIHAI_ORG0                          IMPT 00000000   2652 
_SVP_DAIHSA_LENG                          IMPT 00000000   2663 
_SVP_DANSAM_LEN                           IMPT 00000000   2793 
_SVP_DEB_ADR0                             IMPT 00000000   3194 
_SVP_DEB_ADR1                             IMPT 00000000   3195 
_SVP_DEB_ADR2                             IMPT 00000000   3196 
_SVP_DEB_ADR3                             IMPT 00000000   3197 
_SVP_DEB_ADR4                             IMPT 00000000   3198 
_SVP_DEB_SEL0                             IMPT 00000000   3200 
_SVP_DEB_SEL1                             IMPT 00000000   3201 
_SVP_DEB_SEL2                             IMPT 00000000   3202 
_SVP_DEB_SEL3                             IMPT 00000000   3203 
_SVP_DEB_SEL4                             IMPT 00000000   3204 
_SVP_DNAREA_INP0                          IMPT 00000000   2661 
_SVP_DNAREA_INP1                          IMPT 00000000   2430 
_SVP_DNAREA_JUDG                          IMPT 00000000   2411 
_SVP_DNDATA_A21                           IMPT 00000000   3445 
_SVP_DNDINC_SPD1                          IMPT 00000000   2415 
_SVP_DND_STOPDIG1                         IMPT 00000000   2735 
_SVP_DNSTOP_A21                           IMPT 00000000   3448 
_SVP_ECOM_BASE                            IMPT 00000000   2847 
_SVP_ECOM_SCAL                            IMPT 00000000   2848 
_SVP_EJECAM_OFR                           IMPT 00000000   3563 
_SVP_EJECAM_ONR                           IMPT 00000000   3562 
_SVP_EP_ADJSIN                            IMPT 00000000   2845 
_SVP_EP_ADJVAL                            IMPT 00000000   2846 
_SVP_EP_K1                                IMPT 00000000   2843 
_SVP_EP_K2                                IMPT 00000000   2844 
_SVP_EP_LTM                               IMPT 00000000   2842 
*** SuperH RISC engine ASSEMBLER V.7.01.02.000 ***    11/14/21 17:24:11                                                  PAGE    60

*** CROSS REFERENCE LIST

NAME                             SECTION  ATTR VALUE             SEQUENCE

_SVP_EP_TRQ                               IMPT 00000000   2841 
_SVP_EP_VMX                               IMPT 00000000   2840 
_SVP_EP_VOF                               IMPT 00000000   2839 
_SVP_FCLS_STR_DEG                         IMPT 00000000   2821 
_SVP_FCLS_STR_HENS                        IMPT 00000000   2822 
_SVP_FCLS_ZIKI_SPD1                       IMPT 00000000   2823 
_SVP_FCLS_ZIKI_SPD2                       IMPT 00000000   2824 
_SVP_GENITI_A21                           IMPT 00000000   3446 
_SVP_GMNSEQ_CNT01                         IMPT 00000000   2670 
_SVP_GMNSEQ_CNT02                         IMPT 00000000   2671 
_SVP_GMNSEQ_CNT03                         IMPT 00000000   2672 
_SVP_GMNSEQ_CNT04                         IMPT 00000000   2673 
_SVP_GMNSEQ_CNT05                         IMPT 00000000   2674 
_SVP_GMNSEQ_CNT06                         IMPT 00000000   2675 
_SVP_GMNSEQ_CNT07                         IMPT 00000000   2676 
_SVP_GMNSEQ_CNT08                         IMPT 00000000   2677 
_SVP_GMNSEQ_TIM01                         IMPT 00000000   2679 
_SVP_GMNSEQ_TIM02                         IMPT 00000000   2680 
_SVP_GMNSEQ_TIM03                         IMPT 00000000   2681 
_SVP_GMNSEQ_TIM04                         IMPT 00000000   2682 
_SVP_GMNSEQ_TIM05                         IMPT 00000000   2683 
_SVP_GMNSEQ_TIM06                         IMPT 00000000   2684 
_SVP_GMNSEQ_TIM07                         IMPT 00000000   2685 
_SVP_GMNSEQ_TIM08                         IMPT 00000000   2686 
_SVP_HOSEI_SPD                            IMPT 00000000   2791 
_SVP_HOSRAG_PLS1                          IMPT 00000000   2789 
_SVP_HOSRAG_PLS2                          IMPT 00000000   2790 
_SVP_INCDIR_SEL1                          IMPT 00000000   2400 
_SVP_INCENC_ELNG                          IMPT 00000000   2437 
_SVP_INCHEN_ELNG                          IMPT 00000000   2436 
_SVP_INCPLS_1REV                          IMPT 00000000   2401 
_SVP_INCPLS_HOSM                          IMPT 00000000   2403 
_SVP_INCPLS_HOSN                          IMPT 00000000   2402 
_SVP_INCPOS_KP01                          IMPT 00000000   2425 
_SVP_INCREV_ELNG                          IMPT 00000000   2441 
_SVP_INCRNA_ELNG                          IMPT 00000000   2438 
_SVP_INCSTP_ELNG                          IMPT 00000000   2439 
_SVP_INPPOS_TIM1                          IMPT 00000000   2432 
_SVP_INTLIM_AGL                           IMPT 00000000   3482 
_SVP_INTLIM_POS                           IMPT 00000000   3483 
_SVP_INTLIM_SNO                           IMPT 00000000   3481 
_SVP_KAJAREA_EAG                          IMPT 00000000   3435 
_SVP_KAJAREA_ENO                          IMPT 00000000   3434 
_SVP_KAJAREA_SAG                          IMPT 00000000   3433 
_SVP_KAJAREA_SEL                          IMPT 00000000   3436 
_SVP_KAJAREA_SNO                          IMPT 00000000   3432 
_SVP_KAJOBJ_HAB                           IMPT 00000000   3478 
_SVP_KAJYUU_OBJP                          IMPT 00000000   2723 
_SVP_KAJYUU_PRS1                          IMPT 00000000   2722 
_SVP_KAJYUU_PV1                           IMPT 00000000   2724 
_SVP_KANDO_A21                            IMPT 00000000   3443 
_SVP_KATTCH_EAG                           IMPT 00000000   3440 
_SVP_KATTCH_SAG                           IMPT 00000000   3439 
_SVP_KATTCH_SPD                           IMPT 00000000   2333 
*** SuperH RISC engine ASSEMBLER V.7.01.02.000 ***    11/14/21 17:24:11                                                  PAGE    61

*** CROSS REFERENCE LIST

NAME                             SECTION  ATTR VALUE             SEQUENCE

_SVP_KJEND_DIG1                           IMPT 00000000   2741 
_SVP_KJEND_STEP1                          IMPT 00000000   2740 
_SVP_KJSTR_DIG1                           IMPT 00000000   2739 
_SVP_KJSTR_STEP1                          IMPT 00000000   2738 
_SVP_LSAABN_AGL1                          IMPT 00000000   2477 
_SVP_LSAABN_AGL2                          IMPT 00000000   2478 
_SVP_MACINE_SEL1                          IMPT 00000000   2470  5205 
_SVP_MANSAMER_PLS                         IMPT 00000000   2796 
_SVP_MANSAM_LEN                           IMPT 00000000   2792 
_SVP_MAX_KJYU                             IMPT 00000000   2554 
_SVP_MISCAM_OFR                           IMPT 00000000   3565 
_SVP_MISCAM_ONR                           IMPT 00000000   3564 
_SVP_MOADR0_SQH                           IMPT 00000000   2489 
_SVP_MOADR0_SQL                           IMPT 00000000   2490 
_SVP_MOADR1_SQH                           IMPT 00000000   2491 
_SVP_MOADR1_SQL                           IMPT 00000000   2492 
_SVP_MOADR2_SQH                           IMPT 00000000   2493 
_SVP_MOADR2_SQL                           IMPT 00000000   2494 
_SVP_MOADR3_SQH                           IMPT 00000000   2495 
_SVP_MOADR3_SQL                           IMPT 00000000   2496 
_SVP_MOADR4_SQH                           IMPT 00000000   2497 
_SVP_MOADR4_SQL                           IMPT 00000000   2498 
_SVP_MOADR5_SQH                           IMPT 00000000   2499 
_SVP_MOADR5_SQL                           IMPT 00000000   2500 
_SVP_MOADR6_SQH                           IMPT 00000000   2501 
_SVP_MOADR6_SQL                           IMPT 00000000   2502 
_SVP_MOADR7_SQH                           IMPT 00000000   2503 
_SVP_MOADR7_SQL                           IMPT 00000000   2504 
_SVP_MOADR8_SQH                           IMPT 00000000   2505 
_SVP_MOADR8_SQL                           IMPT 00000000   2506 
_SVP_MOADR9_SQH                           IMPT 00000000   2507 
_SVP_MOADR9_SQL                           IMPT 00000000   2508 
_SVP_MOADRA_SQH                           IMPT 00000000   2509 
_SVP_MOADRA_SQL                           IMPT 00000000   2510 
_SVP_MOADRB_SQH                           IMPT 00000000   2511 
_SVP_MOADRB_SQL                           IMPT 00000000   2512 
_SVP_MOADRC_SQH                           IMPT 00000000   2513 
_SVP_MOADRC_SQL                           IMPT 00000000   2514 
_SVP_MOADRD_SQH                           IMPT 00000000   2515 
_SVP_MOADRD_SQL                           IMPT 00000000   2516 
_SVP_MOADRE_SQH                           IMPT 00000000   2517 
_SVP_MOADRE_SQL                           IMPT 00000000   2518 
_SVP_MOADRF_SQH                           IMPT 00000000   2519 
_SVP_MOADRF_SQL                           IMPT 00000000   2520 
_SVP_MODORI_A21                           IMPT 00000000   3447 
_SVP_MONALM_S01                           IMPT 00000000   2716 
_SVP_MONALM_S02                           IMPT 00000000   2717 
_SVP_MONALM_S03                           IMPT 00000000   2718 
_SVP_MONALM_S04                           IMPT 00000000   2719 
_SVP_MOTMAX_FREQ                          IMPT 00000000   2406 
_SVP_MOTREP_CNT                           IMPT 00000000   3558 
_SVP_MOTREP_SPD                           IMPT 00000000   3557 
_SVP_MOTREP_STGE                          IMPT 00000000   3556 
_SVP_MOTREP_STGS                          IMPT 00000000   3555 
*** SuperH RISC engine ASSEMBLER V.7.01.02.000 ***    11/14/21 17:24:11                                                  PAGE    62

*** CROSS REFERENCE LIST

NAME                             SECTION  ATTR VALUE             SEQUENCE

_SVP_MOTRPM_MAXM                          IMPT 00000000   2404 
_SVP_MOTRPM_MAXP                          IMPT 00000000   2849 
_SVP_MOTWT_TIM                            IMPT 00000000   2462 
_SVP_MOT_FIX                              IMPT 00000000   3567 
_SVP_MRTION_SEL1                          IMPT 00000000   2653 
_SVP_MTSTEP_MAXM                          IMPT 00000000   2654 
_SVP_NEG_OFS_LNG                          IMPT 00000000   2473 
_SVP_OBJARA_INP0                          IMPT 00000000   2662 
_SVP_OBJARA_INP1                          IMPT 00000000   2431 
_SVP_OBJECT_DG01                          IMPT 00000000   2584 
_SVP_OBJECT_DG02                          IMPT 00000000   2585 
_SVP_OBJECT_DG03                          IMPT 00000000   2586 
_SVP_OBJECT_DG04                          IMPT 00000000   2587 
_SVP_OBJECT_DG05                          IMPT 00000000   2588 
_SVP_OBJECT_DG06                          IMPT 00000000   2589 
_SVP_OBJECT_DG07                          IMPT 00000000   2590 
_SVP_OBJECT_DG08                          IMPT 00000000   2591 
_SVP_OBJECT_DG09                          IMPT 00000000   2592 
_SVP_OBJECT_DG10                          IMPT 00000000   2593 
_SVP_OBJECT_DG11                          IMPT 00000000   2594 
_SVP_OBJECT_DG12                          IMPT 00000000   2595 
_SVP_OBJECT_DG13                          IMPT 00000000   2596 
_SVP_OBJECT_DG14                          IMPT 00000000   2597 
_SVP_OBJECT_DG15                          IMPT 00000000   2598 
_SVP_OBJECT_DG16                          IMPT 00000000   2599 
_SVP_OBJECT_DG17                          IMPT 00000000   2600 
_SVP_OBJECT_DG18                          IMPT 00000000   2601 
_SVP_OBJECT_DG19                          IMPT 00000000   2602 
_SVP_OBJECT_DG20                          IMPT 00000000   2603 
_SVP_OBJECT_DIG_TOP                       IMPT 00000000   2583 
_SVP_OBJECT_POS_TOP                       IMPT 00000000   2561 
_SVP_OBJECT_PRS01                         IMPT 00000000   2540 
_SVP_OBJECT_PRS02                         IMPT 00000000   2541 
_SVP_OBJECT_PRS03                         IMPT 00000000   2542 
_SVP_OBJECT_PRS04                         IMPT 00000000   2543 
_SVP_OBJECT_PRS05                         IMPT 00000000   2544 
_SVP_OBJECT_PRS06                         IMPT 00000000   2545 
_SVP_OBJECT_PRS07                         IMPT 00000000   2546 
_SVP_OBJECT_PRS08                         IMPT 00000000   2547 
_SVP_OBJECT_PRS09                         IMPT 00000000   2548 
_SVP_OBJECT_PRS10                         IMPT 00000000   2549 
_SVP_OBJECT_PRS_TOP                       IMPT 00000000   2539 
_SVP_OBJECT_PS01                          IMPT 00000000   2562 
_SVP_OBJECT_PS02                          IMPT 00000000   2563 
_SVP_OBJECT_PS03                          IMPT 00000000   2564 
_SVP_OBJECT_PS04                          IMPT 00000000   2565 
_SVP_OBJECT_PS05                          IMPT 00000000   2566 
_SVP_OBJECT_PS06                          IMPT 00000000   2567 
_SVP_OBJECT_PS07                          IMPT 00000000   2568 
_SVP_OBJECT_PS08                          IMPT 00000000   2569 
_SVP_OBJECT_PS09                          IMPT 00000000   2570 
_SVP_OBJECT_PS10                          IMPT 00000000   2571 
_SVP_OBJECT_PS11                          IMPT 00000000   2572 
_SVP_OBJECT_PS12                          IMPT 00000000   2573 
*** SuperH RISC engine ASSEMBLER V.7.01.02.000 ***    11/14/21 17:24:11                                                  PAGE    63

*** CROSS REFERENCE LIST

NAME                             SECTION  ATTR VALUE             SEQUENCE

_SVP_OBJECT_PS13                          IMPT 00000000   2574 
_SVP_OBJECT_PS14                          IMPT 00000000   2575 
_SVP_OBJECT_PS15                          IMPT 00000000   2576 
_SVP_OBJECT_PS16                          IMPT 00000000   2577 
_SVP_OBJECT_PS17                          IMPT 00000000   2578 
_SVP_OBJECT_PS18                          IMPT 00000000   2579 
_SVP_OBJECT_PS19                          IMPT 00000000   2580 
_SVP_OBJECT_PS20                          IMPT 00000000   2581 
_SVP_OBJECT_SP01                          IMPT 00000000   2606 
_SVP_OBJECT_SP02                          IMPT 00000000   2607 
_SVP_OBJECT_SP03                          IMPT 00000000   2608 
_SVP_OBJECT_SP04                          IMPT 00000000   2609 
_SVP_OBJECT_SP05                          IMPT 00000000   2610 
_SVP_OBJECT_SP06                          IMPT 00000000   2611 
_SVP_OBJECT_SP07                          IMPT 00000000   2612 
_SVP_OBJECT_SP08                          IMPT 00000000   2613 
_SVP_OBJECT_SP09                          IMPT 00000000   2614 
_SVP_OBJECT_SP10                          IMPT 00000000   2615 
_SVP_OBJECT_SP11                          IMPT 00000000   2616 
_SVP_OBJECT_SP12                          IMPT 00000000   2617 
_SVP_OBJECT_SP13                          IMPT 00000000   2618 
_SVP_OBJECT_SP14                          IMPT 00000000   2619 
_SVP_OBJECT_SP15                          IMPT 00000000   2620 
_SVP_OBJECT_SP16                          IMPT 00000000   2621 
_SVP_OBJECT_SP17                          IMPT 00000000   2622 
_SVP_OBJECT_SP18                          IMPT 00000000   2623 
_SVP_OBJECT_SP19                          IMPT 00000000   2624 
_SVP_OBJECT_SP20                          IMPT 00000000   2625 
_SVP_OBJECT_SPD_TOP                       IMPT 00000000   2605 
_SVP_OBJECT_TIM_TOP                       IMPT 00000000   2627 
_SVP_OBJECT_TM01                          IMPT 00000000   2628 
_SVP_OBJECT_TM02                          IMPT 00000000   2629 
_SVP_OBJECT_TM03                          IMPT 00000000   2630 
_SVP_OBJECT_TM04                          IMPT 00000000   2631 
_SVP_OBJECT_TM05                          IMPT 00000000   2632 
_SVP_OBJECT_TM06                          IMPT 00000000   2633 
_SVP_OBJECT_TM07                          IMPT 00000000   2634 
_SVP_OBJECT_TM08                          IMPT 00000000   2635 
_SVP_OBJECT_TM09                          IMPT 00000000   2636 
_SVP_OBJECT_TM10                          IMPT 00000000   2637 
_SVP_OBJECT_TM11                          IMPT 00000000   2638 
_SVP_OBJECT_TM12                          IMPT 00000000   2639 
_SVP_OBJECT_TM13                          IMPT 00000000   2640 
_SVP_OBJECT_TM14                          IMPT 00000000   2641 
_SVP_OBJECT_TM15                          IMPT 00000000   2642 
_SVP_OBJECT_TM16                          IMPT 00000000   2643 
_SVP_OBJECT_TM17                          IMPT 00000000   2644 
_SVP_OBJECT_TM18                          IMPT 00000000   2645 
_SVP_OBJECT_TM19                          IMPT 00000000   2646 
_SVP_OBJECT_TM20                          IMPT 00000000   2647 
_SVP_ONESTR_SPD2                          IMPT 00000000   2853 
_SVP_ORGCAL_DAT1                          IMPT 00000000   2765 
_SVP_ORGCAL_DAT2                          IMPT 00000000   2766 
_SVP_ORGCAL_DAT3                          IMPT 00000000   2767 
*** SuperH RISC engine ASSEMBLER V.7.01.02.000 ***    11/14/21 17:24:11                                                  PAGE    64

*** CROSS REFERENCE LIST

NAME                             SECTION  ATTR VALUE             SEQUENCE

_SVP_ORGCAL_DAT4                          IMPT 00000000   2768 
_SVP_ORGCAL_DAT5                          IMPT 00000000   2769 
_SVP_ORGCAL_DAT6                          IMPT 00000000   2770 
_SVP_ORGFWD_AGL                           IMPT 00000000   2860 
_SVP_ORGLDN_DEG                           IMPT 00000000   2782 
_SVP_ORGLUP_DEG                           IMPT 00000000   2781 
_SVP_ORGMEM_DEG1                          IMPT 00000000   2783 
_SVP_ORGMEM_DEG1A                         IMPT 00000000   2800 
_SVP_ORGMEM_DEG2                          IMPT 00000000   2785 
_SVP_ORGMEM_DEG2A                         IMPT 00000000   2801 
_SVP_ORGMEM_DEGS1                         IMPT 00000000   2784 
_SVP_ORGMEM_DEGS2                         IMPT 00000000   2786 
_SVP_ORGMPL_SEL1                          IMPT 00000000   2787 
_SVP_ORGMPL_SEL2                          IMPT 00000000   2788 
_SVP_ORGRDN_DEG                           IMPT 00000000   2780 
_SVP_ORGREV_AGL                           IMPT 00000000   2859 
_SVP_ORGRUP_DEG                           IMPT 00000000   2779 
_SVP_ORGSOK_PLS                           IMPT 00000000   2764 
_SVP_ORGSTRK_LEN1                         IMPT 00000000   2771 
_SVP_ORGSTRK_LEN2                         IMPT 00000000   2772 
_SVP_OUTPLS_HOSA                          IMPT 00000000   2467 
_SVP_OUTPLS_HOSB                          IMPT 00000000   2468 
_SVP_OVERE1_A26                           IMPT 00000000   3454 
_SVP_OVERE1_A27                           IMPT 00000000   3462 
_SVP_OVERE1_A28                           IMPT 00000000   3470 
_SVP_OVERE2_A26                           IMPT 00000000   3456 
_SVP_OVERE2_A27                           IMPT 00000000   3464 
_SVP_OVERE2_A28                           IMPT 00000000   3472 
_SVP_OVERE3_A26                           IMPT 00000000   3458 
_SVP_OVERE3_A27                           IMPT 00000000   3466 
_SVP_OVERE3_A28                           IMPT 00000000   3474 
_SVP_OVERLIDE_COF                         IMPT 00000000   2732 
_SVP_PLSAHI_PLS                           IMPT 00000000   2480 
_SVP_PLSALO_PLS                           IMPT 00000000   2479 
_SVP_PSMOD_SEL                            IMPT 00000000   2463 
_SVP_RAD                                  IMPT 00000000   2858 
_SVP_RCAMOF_D000                          IMPT 00000000   2913 
_SVP_RCAMOF_D001                          IMPT 00000000   2917 
_SVP_RCAMOF_D002                          IMPT 00000000   2921 
_SVP_RCAMOF_D003                          IMPT 00000000   2925 
_SVP_RCAMOF_D004                          IMPT 00000000   2929 
_SVP_RCAMOF_D005                          IMPT 00000000   2933 
_SVP_RCAMOF_D006                          IMPT 00000000   2937 
_SVP_RCAMOF_D007                          IMPT 00000000   2941 
_SVP_RCAMOF_D008                          IMPT 00000000   2945 
_SVP_RCAMOF_D009                          IMPT 00000000   2949 
_SVP_RCAMOF_D00A                          IMPT 00000000   2953 
_SVP_RCAMOF_D00B                          IMPT 00000000   2957 
_SVP_RCAMOF_D00C                          IMPT 00000000   2961 
_SVP_RCAMOF_D00D                          IMPT 00000000   2965 
_SVP_RCAMOF_D00E                          IMPT 00000000   2969 
_SVP_RCAMOF_D00F                          IMPT 00000000   2973 
_SVP_RCAMOF_D010                          IMPT 00000000   2977 
_SVP_RCAMOF_D011                          IMPT 00000000   2981 
*** SuperH RISC engine ASSEMBLER V.7.01.02.000 ***    11/14/21 17:24:11                                                  PAGE    65

*** CROSS REFERENCE LIST

NAME                             SECTION  ATTR VALUE             SEQUENCE

_SVP_RCAMOF_D012                          IMPT 00000000   2985 
_SVP_RCAMOF_D013                          IMPT 00000000   2989 
_SVP_RCAMOF_D014                          IMPT 00000000   2993 
_SVP_RCAMOF_D015                          IMPT 00000000   2997 
_SVP_RCAMOF_D016                          IMPT 00000000   3001 
_SVP_RCAMOF_D017                          IMPT 00000000   3005 
_SVP_RCAMOF_D018                          IMPT 00000000   3009 
_SVP_RCAMOF_D019                          IMPT 00000000   3013 
_SVP_RCAMOF_D01A                          IMPT 00000000   3017 
_SVP_RCAMOF_D01B                          IMPT 00000000   3021 
_SVP_RCAMOF_D01C                          IMPT 00000000   3025 
_SVP_RCAMOF_D01D                          IMPT 00000000   3029 
_SVP_RCAMOF_D01E                          IMPT 00000000   3033 
_SVP_RCAMOF_D01F                          IMPT 00000000   3037 
_SVP_RCAMOF_D020                          IMPT 00000000   3041 
_SVP_RCAMOF_D021                          IMPT 00000000   3045 
_SVP_RCAMOF_D022                          IMPT 00000000   3049 
_SVP_RCAMOF_D023                          IMPT 00000000   3053 
_SVP_RCAMOF_D024                          IMPT 00000000   3057 
_SVP_RCAMOF_D025                          IMPT 00000000   3061 
_SVP_RCAMOF_D026                          IMPT 00000000   3065 
_SVP_RCAMOF_D027                          IMPT 00000000   3069 
_SVP_RCAMOF_D028                          IMPT 00000000   3073 
_SVP_RCAMOF_D029                          IMPT 00000000   3077 
_SVP_RCAMOF_D02A                          IMPT 00000000   3081 
_SVP_RCAMOF_D02B                          IMPT 00000000   3085 
_SVP_RCAMOF_D02C                          IMPT 00000000   3089 
_SVP_RCAMOF_D02D                          IMPT 00000000   3093 
_SVP_RCAMOF_D02E                          IMPT 00000000   3097 
_SVP_RCAMOF_D02F                          IMPT 00000000   3101 
_SVP_RCAMOF_D100                          IMPT 00000000   3106 
_SVP_RCAMOF_D101                          IMPT 00000000   3110 
_SVP_RCAMOF_D102                          IMPT 00000000   3114 
_SVP_RCAMOF_D103                          IMPT 00000000   3118 
_SVP_RCAMOF_D104                          IMPT 00000000   3122 
_SVP_RCAMOF_D105                          IMPT 00000000   3126 
_SVP_RCAMOF_D106                          IMPT 00000000   3130 
_SVP_RCAMOF_D107                          IMPT 00000000   3134 
_SVP_RCAMOF_D108                          IMPT 00000000   3138 
_SVP_RCAMOF_D109                          IMPT 00000000   3142 
_SVP_RCAMOF_D10A                          IMPT 00000000   3146 
_SVP_RCAMOF_D10B                          IMPT 00000000   3150 
_SVP_RCAMOF_D10C                          IMPT 00000000   3154 
_SVP_RCAMOF_D10D                          IMPT 00000000   3158 
_SVP_RCAMOF_D10E                          IMPT 00000000   3162 
_SVP_RCAMOF_D10F                          IMPT 00000000   3166 
_SVP_RCAMOF_P000                          IMPT 00000000   2912 
_SVP_RCAMOF_P001                          IMPT 00000000   2916 
_SVP_RCAMOF_P002                          IMPT 00000000   2920 
_SVP_RCAMOF_P003                          IMPT 00000000   2924 
_SVP_RCAMOF_P004                          IMPT 00000000   2928 
_SVP_RCAMOF_P005                          IMPT 00000000   2932 
_SVP_RCAMOF_P006                          IMPT 00000000   2936 
_SVP_RCAMOF_P007                          IMPT 00000000   2940 
*** SuperH RISC engine ASSEMBLER V.7.01.02.000 ***    11/14/21 17:24:11                                                  PAGE    66

*** CROSS REFERENCE LIST

NAME                             SECTION  ATTR VALUE             SEQUENCE

_SVP_RCAMOF_P008                          IMPT 00000000   2944 
_SVP_RCAMOF_P009                          IMPT 00000000   2948 
_SVP_RCAMOF_P00A                          IMPT 00000000   2952 
_SVP_RCAMOF_P00B                          IMPT 00000000   2956 
_SVP_RCAMOF_P00C                          IMPT 00000000   2960 
_SVP_RCAMOF_P00D                          IMPT 00000000   2964 
_SVP_RCAMOF_P00E                          IMPT 00000000   2968 
_SVP_RCAMOF_P00F                          IMPT 00000000   2972 
_SVP_RCAMOF_P010                          IMPT 00000000   2976 
_SVP_RCAMOF_P011                          IMPT 00000000   2980 
_SVP_RCAMOF_P012                          IMPT 00000000   2984 
_SVP_RCAMOF_P013                          IMPT 00000000   2988 
_SVP_RCAMOF_P014                          IMPT 00000000   2992 
_SVP_RCAMOF_P015                          IMPT 00000000   2996 
_SVP_RCAMOF_P016                          IMPT 00000000   3000 
_SVP_RCAMOF_P017                          IMPT 00000000   3004 
_SVP_RCAMOF_P018                          IMPT 00000000   3008 
_SVP_RCAMOF_P019                          IMPT 00000000   3012 
_SVP_RCAMOF_P01A                          IMPT 00000000   3016 
_SVP_RCAMOF_P01B                          IMPT 00000000   3020 
_SVP_RCAMOF_P01C                          IMPT 00000000   3024 
_SVP_RCAMOF_P01D                          IMPT 00000000   3028 
_SVP_RCAMOF_P01E                          IMPT 00000000   3032 
_SVP_RCAMOF_P01F                          IMPT 00000000   3036 
_SVP_RCAMOF_P020                          IMPT 00000000   3040 
_SVP_RCAMOF_P021                          IMPT 00000000   3044 
_SVP_RCAMOF_P022                          IMPT 00000000   3048 
_SVP_RCAMOF_P023                          IMPT 00000000   3052 
_SVP_RCAMOF_P024                          IMPT 00000000   3056 
_SVP_RCAMOF_P025                          IMPT 00000000   3060 
_SVP_RCAMOF_P026                          IMPT 00000000   3064 
_SVP_RCAMOF_P027                          IMPT 00000000   3068 
_SVP_RCAMOF_P028                          IMPT 00000000   3072 
_SVP_RCAMOF_P029                          IMPT 00000000   3076 
_SVP_RCAMOF_P02A                          IMPT 00000000   3080 
_SVP_RCAMOF_P02B                          IMPT 00000000   3084 
_SVP_RCAMOF_P02C                          IMPT 00000000   3088 
_SVP_RCAMOF_P02D                          IMPT 00000000   3092 
_SVP_RCAMOF_P02E                          IMPT 00000000   3096 
_SVP_RCAMOF_P02F                          IMPT 00000000   3100 
_SVP_RCAMOF_P100                          IMPT 00000000   3105 
_SVP_RCAMOF_P101                          IMPT 00000000   3109 
_SVP_RCAMOF_P102                          IMPT 00000000   3113 
_SVP_RCAMOF_P103                          IMPT 00000000   3117 
_SVP_RCAMOF_P104                          IMPT 00000000   3121 
_SVP_RCAMOF_P105                          IMPT 00000000   3125 
_SVP_RCAMOF_P106                          IMPT 00000000   3129 
_SVP_RCAMOF_P107                          IMPT 00000000   3133 
_SVP_RCAMOF_P108                          IMPT 00000000   3137 
_SVP_RCAMOF_P109                          IMPT 00000000   3141 
_SVP_RCAMOF_P10A                          IMPT 00000000   3145 
_SVP_RCAMOF_P10B                          IMPT 00000000   3149 
_SVP_RCAMOF_P10C                          IMPT 00000000   3153 
_SVP_RCAMOF_P10D                          IMPT 00000000   3157 
*** SuperH RISC engine ASSEMBLER V.7.01.02.000 ***    11/14/21 17:24:11                                                  PAGE    67

*** CROSS REFERENCE LIST

NAME                             SECTION  ATTR VALUE             SEQUENCE

_SVP_RCAMOF_P10E                          IMPT 00000000   3161 
_SVP_RCAMOF_P10F                          IMPT 00000000   3165 
_SVP_RCAMOF_SA00                          IMPT 00000000   3489 
_SVP_RCAMOF_SA01                          IMPT 00000000   3493 
_SVP_RCAMOF_SA02                          IMPT 00000000   3497 
_SVP_RCAMOF_SA03                          IMPT 00000000   3501 
_SVP_RCAMOF_SA04                          IMPT 00000000   3505 
_SVP_RCAMOF_SA05                          IMPT 00000000   3509 
_SVP_RCAMOF_SA06                          IMPT 00000000   3513 
_SVP_RCAMOF_SA07                          IMPT 00000000   3517 
_SVP_RCAMOF_SA08                          IMPT 00000000   3521 
_SVP_RCAMOF_SA09                          IMPT 00000000   3525 
_SVP_RCAMOF_SA10                          IMPT 00000000   3529 
_SVP_RCAMOF_SA11                          IMPT 00000000   3533 
_SVP_RCAMOF_SA12                          IMPT 00000000   3537 
_SVP_RCAMOF_SA13                          IMPT 00000000   3541 
_SVP_RCAMOF_SA14                          IMPT 00000000   3545 
_SVP_RCAMOF_SA15                          IMPT 00000000   3549 
_SVP_RCAMOF_ST00                          IMPT 00000000   3490 
_SVP_RCAMOF_ST01                          IMPT 00000000   3494 
_SVP_RCAMOF_ST02                          IMPT 00000000   3498 
_SVP_RCAMOF_ST03                          IMPT 00000000   3502 
_SVP_RCAMOF_ST04                          IMPT 00000000   3506 
_SVP_RCAMOF_ST05                          IMPT 00000000   3510 
_SVP_RCAMOF_ST06                          IMPT 00000000   3514 
_SVP_RCAMOF_ST07                          IMPT 00000000   3518 
_SVP_RCAMOF_ST08                          IMPT 00000000   3522 
_SVP_RCAMOF_ST09                          IMPT 00000000   3526 
_SVP_RCAMOF_ST10                          IMPT 00000000   3530 
_SVP_RCAMOF_ST11                          IMPT 00000000   3534 
_SVP_RCAMOF_ST12                          IMPT 00000000   3538 
_SVP_RCAMOF_ST13                          IMPT 00000000   3542 
_SVP_RCAMOF_ST14                          IMPT 00000000   3546 
_SVP_RCAMOF_ST15                          IMPT 00000000   3550 
_SVP_RCAMON_D000                          IMPT 00000000   2911 
_SVP_RCAMON_D001                          IMPT 00000000   2915 
_SVP_RCAMON_D002                          IMPT 00000000   2919 
_SVP_RCAMON_D003                          IMPT 00000000   2923 
_SVP_RCAMON_D004                          IMPT 00000000   2927 
_SVP_RCAMON_D005                          IMPT 00000000   2931 
_SVP_RCAMON_D006                          IMPT 00000000   2935 
_SVP_RCAMON_D007                          IMPT 00000000   2939 
_SVP_RCAMON_D008                          IMPT 00000000   2943 
_SVP_RCAMON_D009                          IMPT 00000000   2947 
_SVP_RCAMON_D00A                          IMPT 00000000   2951 
_SVP_RCAMON_D00B                          IMPT 00000000   2955 
_SVP_RCAMON_D00C                          IMPT 00000000   2959 
_SVP_RCAMON_D00D                          IMPT 00000000   2963 
_SVP_RCAMON_D00E                          IMPT 00000000   2967 
_SVP_RCAMON_D00F                          IMPT 00000000   2971 
_SVP_RCAMON_D010                          IMPT 00000000   2975 
_SVP_RCAMON_D011                          IMPT 00000000   2979 
_SVP_RCAMON_D012                          IMPT 00000000   2983 
_SVP_RCAMON_D013                          IMPT 00000000   2987 
*** SuperH RISC engine ASSEMBLER V.7.01.02.000 ***    11/14/21 17:24:11                                                  PAGE    68

*** CROSS REFERENCE LIST

NAME                             SECTION  ATTR VALUE             SEQUENCE

_SVP_RCAMON_D014                          IMPT 00000000   2991 
_SVP_RCAMON_D015                          IMPT 00000000   2995 
_SVP_RCAMON_D016                          IMPT 00000000   2999 
_SVP_RCAMON_D017                          IMPT 00000000   3003 
_SVP_RCAMON_D018                          IMPT 00000000   3007 
_SVP_RCAMON_D019                          IMPT 00000000   3011 
_SVP_RCAMON_D01A                          IMPT 00000000   3015 
_SVP_RCAMON_D01B                          IMPT 00000000   3019 
_SVP_RCAMON_D01C                          IMPT 00000000   3023 
_SVP_RCAMON_D01D                          IMPT 00000000   3027 
_SVP_RCAMON_D01E                          IMPT 00000000   3031 
_SVP_RCAMON_D01F                          IMPT 00000000   3035 
_SVP_RCAMON_D020                          IMPT 00000000   3039 
_SVP_RCAMON_D021                          IMPT 00000000   3043 
_SVP_RCAMON_D022                          IMPT 00000000   3047 
_SVP_RCAMON_D023                          IMPT 00000000   3051 
_SVP_RCAMON_D024                          IMPT 00000000   3055 
_SVP_RCAMON_D025                          IMPT 00000000   3059 
_SVP_RCAMON_D026                          IMPT 00000000   3063 
_SVP_RCAMON_D027                          IMPT 00000000   3067 
_SVP_RCAMON_D028                          IMPT 00000000   3071 
_SVP_RCAMON_D029                          IMPT 00000000   3075 
_SVP_RCAMON_D02A                          IMPT 00000000   3079 
_SVP_RCAMON_D02B                          IMPT 00000000   3083 
_SVP_RCAMON_D02C                          IMPT 00000000   3087 
_SVP_RCAMON_D02D                          IMPT 00000000   3091 
_SVP_RCAMON_D02E                          IMPT 00000000   3095 
_SVP_RCAMON_D02F                          IMPT 00000000   3099 
_SVP_RCAMON_D100                          IMPT 00000000   3104 
_SVP_RCAMON_D101                          IMPT 00000000   3108 
_SVP_RCAMON_D102                          IMPT 00000000   3112 
_SVP_RCAMON_D103                          IMPT 00000000   3116 
_SVP_RCAMON_D104                          IMPT 00000000   3120 
_SVP_RCAMON_D105                          IMPT 00000000   3124 
_SVP_RCAMON_D106                          IMPT 00000000   3128 
_SVP_RCAMON_D107                          IMPT 00000000   3132 
_SVP_RCAMON_D108                          IMPT 00000000   3136 
_SVP_RCAMON_D109                          IMPT 00000000   3140 
_SVP_RCAMON_D10A                          IMPT 00000000   3144 
_SVP_RCAMON_D10B                          IMPT 00000000   3148 
_SVP_RCAMON_D10C                          IMPT 00000000   3152 
_SVP_RCAMON_D10D                          IMPT 00000000   3156 
_SVP_RCAMON_D10E                          IMPT 00000000   3160 
_SVP_RCAMON_D10F                          IMPT 00000000   3164 
_SVP_RCAMON_P000                          IMPT 00000000   2910 
_SVP_RCAMON_P001                          IMPT 00000000   2914 
_SVP_RCAMON_P002                          IMPT 00000000   2918 
_SVP_RCAMON_P003                          IMPT 00000000   2922 
_SVP_RCAMON_P004                          IMPT 00000000   2926 
_SVP_RCAMON_P005                          IMPT 00000000   2930 
_SVP_RCAMON_P006                          IMPT 00000000   2934 
_SVP_RCAMON_P007                          IMPT 00000000   2938 
_SVP_RCAMON_P008                          IMPT 00000000   2942 
_SVP_RCAMON_P009                          IMPT 00000000   2946 
*** SuperH RISC engine ASSEMBLER V.7.01.02.000 ***    11/14/21 17:24:11                                                  PAGE    69

*** CROSS REFERENCE LIST

NAME                             SECTION  ATTR VALUE             SEQUENCE

_SVP_RCAMON_P00A                          IMPT 00000000   2950 
_SVP_RCAMON_P00B                          IMPT 00000000   2954 
_SVP_RCAMON_P00C                          IMPT 00000000   2958 
_SVP_RCAMON_P00D                          IMPT 00000000   2962 
_SVP_RCAMON_P00E                          IMPT 00000000   2966 
_SVP_RCAMON_P00F                          IMPT 00000000   2970 
_SVP_RCAMON_P010                          IMPT 00000000   2974 
_SVP_RCAMON_P011                          IMPT 00000000   2978 
_SVP_RCAMON_P012                          IMPT 00000000   2982 
_SVP_RCAMON_P013                          IMPT 00000000   2986 
_SVP_RCAMON_P014                          IMPT 00000000   2990 
_SVP_RCAMON_P015                          IMPT 00000000   2994 
_SVP_RCAMON_P016                          IMPT 00000000   2998 
_SVP_RCAMON_P017                          IMPT 00000000   3002 
_SVP_RCAMON_P018                          IMPT 00000000   3006 
_SVP_RCAMON_P019                          IMPT 00000000   3010 
_SVP_RCAMON_P01A                          IMPT 00000000   3014 
_SVP_RCAMON_P01B                          IMPT 00000000   3018 
_SVP_RCAMON_P01C                          IMPT 00000000   3022 
_SVP_RCAMON_P01D                          IMPT 00000000   3026 
_SVP_RCAMON_P01E                          IMPT 00000000   3030 
_SVP_RCAMON_P01F                          IMPT 00000000   3034 
_SVP_RCAMON_P020                          IMPT 00000000   3038 
_SVP_RCAMON_P021                          IMPT 00000000   3042 
_SVP_RCAMON_P022                          IMPT 00000000   3046 
_SVP_RCAMON_P023                          IMPT 00000000   3050 
_SVP_RCAMON_P024                          IMPT 00000000   3054 
_SVP_RCAMON_P025                          IMPT 00000000   3058 
_SVP_RCAMON_P026                          IMPT 00000000   3062 
_SVP_RCAMON_P027                          IMPT 00000000   3066 
_SVP_RCAMON_P028                          IMPT 00000000   3070 
_SVP_RCAMON_P029                          IMPT 00000000   3074 
_SVP_RCAMON_P02A                          IMPT 00000000   3078 
_SVP_RCAMON_P02B                          IMPT 00000000   3082 
_SVP_RCAMON_P02C                          IMPT 00000000   3086 
_SVP_RCAMON_P02D                          IMPT 00000000   3090 
_SVP_RCAMON_P02E                          IMPT 00000000   3094 
_SVP_RCAMON_P02F                          IMPT 00000000   3098 
_SVP_RCAMON_P100                          IMPT 00000000   3103 
_SVP_RCAMON_P101                          IMPT 00000000   3107 
_SVP_RCAMON_P102                          IMPT 00000000   3111 
_SVP_RCAMON_P103                          IMPT 00000000   3115 
_SVP_RCAMON_P104                          IMPT 00000000   3119 
_SVP_RCAMON_P105                          IMPT 00000000   3123 
_SVP_RCAMON_P106                          IMPT 00000000   3127 
_SVP_RCAMON_P107                          IMPT 00000000   3131 
_SVP_RCAMON_P108                          IMPT 00000000   3135 
_SVP_RCAMON_P109                          IMPT 00000000   3139 
_SVP_RCAMON_P10A                          IMPT 00000000   3143 
_SVP_RCAMON_P10B                          IMPT 00000000   3147 
_SVP_RCAMON_P10C                          IMPT 00000000   3151 
_SVP_RCAMON_P10D                          IMPT 00000000   3155 
_SVP_RCAMON_P10E                          IMPT 00000000   3159 
_SVP_RCAMON_P10F                          IMPT 00000000   3163 
*** SuperH RISC engine ASSEMBLER V.7.01.02.000 ***    11/14/21 17:24:11                                                  PAGE    70

*** CROSS REFERENCE LIST

NAME                             SECTION  ATTR VALUE             SEQUENCE

_SVP_RCAMON_POS_TOP                       IMPT 00000000   2909 
_SVP_RCAMON_SA00                          IMPT 00000000   3487 
_SVP_RCAMON_SA01                          IMPT 00000000   3491 
_SVP_RCAMON_SA02                          IMPT 00000000   3495 
_SVP_RCAMON_SA03                          IMPT 00000000   3499 
_SVP_RCAMON_SA04                          IMPT 00000000   3503 
_SVP_RCAMON_SA05                          IMPT 00000000   3507 
_SVP_RCAMON_SA06                          IMPT 00000000   3511 
_SVP_RCAMON_SA07                          IMPT 00000000   3515 
_SVP_RCAMON_SA08                          IMPT 00000000   3519 
_SVP_RCAMON_SA09                          IMPT 00000000   3523 
_SVP_RCAMON_SA10                          IMPT 00000000   3527 
_SVP_RCAMON_SA11                          IMPT 00000000   3531 
_SVP_RCAMON_SA12                          IMPT 00000000   3535 
_SVP_RCAMON_SA13                          IMPT 00000000   3539 
_SVP_RCAMON_SA14                          IMPT 00000000   3543 
_SVP_RCAMON_SA15                          IMPT 00000000   3547 
_SVP_RCAMON_ST00                          IMPT 00000000   3488 
_SVP_RCAMON_ST01                          IMPT 00000000   3492 
_SVP_RCAMON_ST02                          IMPT 00000000   3496 
_SVP_RCAMON_ST03                          IMPT 00000000   3500 
_SVP_RCAMON_ST04                          IMPT 00000000   3504 
_SVP_RCAMON_ST05                          IMPT 00000000   3508 
_SVP_RCAMON_ST06                          IMPT 00000000   3512 
_SVP_RCAMON_ST07                          IMPT 00000000   3516 
_SVP_RCAMON_ST08                          IMPT 00000000   3520 
_SVP_RCAMON_ST09                          IMPT 00000000   3524 
_SVP_RCAMON_ST10                          IMPT 00000000   3528 
_SVP_RCAMON_ST11                          IMPT 00000000   3532 
_SVP_RCAMON_ST12                          IMPT 00000000   3536 
_SVP_RCAMON_ST13                          IMPT 00000000   3540 
_SVP_RCAMON_ST14                          IMPT 00000000   3544 
_SVP_RCAMON_ST15                          IMPT 00000000   3548 
_SVP_RCAMON_TIM_TOP                       IMPT 00000000   3102 
_SVP_REVDAT_SPD1                          IMPT 00000000   2418 
_SVP_REVDAT_SPD2                          IMPT 00000000   2419 
_SVP_REVDAT_SPD3                          IMPT 00000000   2420 
_SVP_RISE_CMP1                            IMPT 00000000   2864 
_SVP_RISE_CMP2                            IMPT 00000000   2865 
_SVP_RISE_CMP3                            IMPT 00000000   2866 
_SVP_RISE_DLY1                            IMPT 00000000   2867 
_SVP_RISE_DLY2                            IMPT 00000000   2868 
_SVP_RISE_ZWID                            IMPT 00000000   2863 
_SVP_RNADIR_SEL1                          IMPT 00000000   2399 
_SVP_RNADIR_SEL2                          IMPT 00000000   2799 
_SVP_RNAORGMEM_LEG1                       IMPT 00000000   2773 
_SVP_RNAORGMEM_LEG2                       IMPT 00000000   2775 
_SVP_RNAORG_PLS1                          IMPT 00000000   2774 
_SVP_RNAORG_PLS2                          IMPT 00000000   2776 
_SVP_RNAORG_POS1                          IMPT 00000000   2407 
_SVP_RNAORG_SIN1                          IMPT 00000000   2777 
_SVP_RNAORG_SIN2                          IMPT 00000000   2778 
_SVP_RNAPOS_KP01                          IMPT 00000000   2426 
_SVP_RNAPOS_MAXP                          IMPT 00000000   2408 
*** SuperH RISC engine ASSEMBLER V.7.01.02.000 ***    11/14/21 17:24:11                                                  PAGE    71

*** CROSS REFERENCE LIST

NAME                             SECTION  ATTR VALUE             SEQUENCE

_SVP_RNAPOS_MINP                          IMPT 00000000   2409 
_SVP_RNAREV_ELNG                          IMPT 00000000   2442 
_SVP_RNASTP_ELNG                          IMPT 00000000   2440 
_SVP_RNA_STLORK                           IMPT 00000000   2466 
_SVP_ROALM1_A26                           IMPT 00000000   3455 
_SVP_ROALM1_A27                           IMPT 00000000   3463 
_SVP_ROALM1_A28                           IMPT 00000000   3471 
_SVP_ROALM2_A26                           IMPT 00000000   3457 
_SVP_ROALM2_A27                           IMPT 00000000   3465 
_SVP_ROALM2_A28                           IMPT 00000000   3473 
_SVP_ROALM3_A26                           IMPT 00000000   3459 
_SVP_ROALM3_A27                           IMPT 00000000   3467 
_SVP_ROALM3_A28                           IMPT 00000000   3475 
_SVP_ROTCAM_OFR                           IMPT 00000000   3561 
_SVP_ROTCAM_ONR                           IMPT 00000000   3560 
_SVP_RPARAM_TOP1                          IMPT 00000000   2394 
_SVP_RUNSAMER_LEN1                        IMPT 00000000   2794 
_SVP_RUNSAMER_LEN2                        IMPT 00000000   2795 
_SVP_RUNSAMER_PLS                         IMPT 00000000   2797 
_SVP_SLIDE_S                              IMPT 00000000   2857 
_SVP_SLID_POS1                            IMPT 00000000   2666 
_SVP_SLID_POS2                            IMPT 00000000   2667 
_SVP_SLID_POS3                            IMPT 00000000   2668 
_SVP_SLPOS_DIR                            IMPT 00000000   3451 
_SVP_SL_TENPOS                            IMPT 00000000   3450 
_SVP_SMPCYC_TIM                           IMPT 00000000   2488 
_SVP_SMPCYC_TIM2                          IMPT 00000000   3553 
_SVP_SMPMAX_CNT                           IMPT 00000000   2486 
_SVP_SMPMAX_CNT2                          IMPT 00000000   3552 
_SVP_SMPSTR_AGL                           IMPT 00000000   2482 
_SVP_SMPSTR_FUK                           IMPT 00000000   2483 
_SVP_SMPSTR_KAJ                           IMPT 00000000   2481 
_SVP_SMPSTR_SEH                           IMPT 00000000   2484 
_SVP_SMPSTR_SQL                           IMPT 00000000   2485 
_SVP_SMPTRG_CNT                           IMPT 00000000   2487 
_SVP_SMPTRG_CNT1                          IMPT 00000000   2536 
_SVP_SMP_CNT                              IMPT 00000000   2523 
_SVP_SSCURV_TIM1                          IMPT 00000000   2428 
_SVP_STDINC_SPD1                          IMPT 00000000   2417 
_SVP_SYNC_ERR_DEGA                        IMPT 00000000   2825 
_SVP_SYNC_ERR_DEGB                        IMPT 00000000   2826 
_SVP_SYNC_ERR_DEGC                        IMPT 00000000   2827 
_SVP_SYNC_ERR_DEGD                        IMPT 00000000   2828 
_SVP_SYNC_ERR_PGA                         IMPT 00000000   2833 
_SVP_SYNC_ERR_PGB                         IMPT 00000000   2834 
_SVP_SYNC_ERR_PGC                         IMPT 00000000   2835 
_SVP_SYNC_ERR_PGD                         IMPT 00000000   2836 
_SVP_SYNC_ERR_RNAA                        IMPT 00000000   2829 
_SVP_SYNC_ERR_RNAB                        IMPT 00000000   2830 
_SVP_SYNC_ERR_RNAC                        IMPT 00000000   2831 
_SVP_SYNC_ERR_RNAD                        IMPT 00000000   2832 
_SVP_TEPDAT_SPD1                          IMPT 00000000   2421 
_SVP_TEPLAT_DAT1                          IMPT 00000000   2422 
_SVP_TEPLAT_DAT2                          IMPT 00000000   2423 
*** SuperH RISC engine ASSEMBLER V.7.01.02.000 ***    11/14/21 17:24:11                                                  PAGE    72

*** CROSS REFERENCE LIST

NAME                             SECTION  ATTR VALUE             SEQUENCE

_SVP_TRDCSR_RNAD                          IMPT 00000000   2535 
_SVP_TRDCSR_RNAU                          IMPT 00000000   2534 
_SVP_TRD_CNT                              IMPT 00000000   2524 
_SVP_UPAREA_DIG0                          IMPT 00000000   2657 
_SVP_UPAREA_DIG1                          IMPT 00000000   2434 
_SVP_UPAREA_INP1                          IMPT 00000000   2429 
_SVP_UPAREA_JUDG                          IMPT 00000000   2410 
_SVP_UPAREA_POS0                          IMPT 00000000   2656 
_SVP_UPAREA_SPD0                          IMPT 00000000   2658 
_SVP_UPAREA_SPD1                          IMPT 00000000   2416 
_SVP_UPAREA_TIM0                          IMPT 00000000   2659 
_SVP_UPDATA_A21                           IMPT 00000000   3444 
_SVP_UPHOLD_DIG                           IMPT 00000000   2469 
_SVP_UPSTOP_A21                           IMPT 00000000   3449 
_SVP_VIB_KJYU_TTL                         IMPT 00000000   2555 
_SVP_VOLST_L                              IMPT 00000000   2856 
_SVP_WTTIM_MAX                            IMPT 00000000   3484 
_SVP_WT_DIG1                              IMPT 00000000   2459 
_SVP_WT_DIG2                              IMPT 00000000   2460 
_SVP_WT_DIG3                              IMPT 00000000   2461 
_SWECLEAR                                 EQU  000000BF   4244*
_SWESET                                   EQU  00000040   4243*
_SYORI_STS                                EQU  00000003   4035*
_TCNT0                                    IMPT 00000000    693 
_TCNT1                                    IMPT 00000000    696 
_TCNT2                                    IMPT 00000000    699 
_TCOR0                                    IMPT 00000000    692 
_TCOR1                                    IMPT 00000000    695 
_TCOR2                                    IMPT 00000000    698 
_TCR0                                     IMPT 00000000    694 
_TCR1                                     IMPT 00000000    697 
_TCR2                                     IMPT 00000000    700 
_TDFP                                     IMPT 00000000    607 
_TDR0                                     IMPT 00000000    687 
_TEA                                      IMPT 00000000    757 
_TIM100US                                 EQU  000007D0   4282*
_TIM1MS                                   EQU  000009C4   4283*
_TINT3_10MS_CNT                           IMPT 00000000   4545 
_TRA                                      IMPT 00000000    747 
_TSTR                                     IMPT 00000000    691 
_TTB                                      IMPT 00000000    756 
_USBDASTS                                 IMPT 00000000    631 
_USBDMA                                   IMPT 00000000    640 
_USBEPDR0I                                IMPT 00000000    625 
_USBEPDR0O                                IMPT 00000000    626 
_USBEPDR0S                                IMPT 00000000    630 
_USBEPDR1                                 IMPT 00000000    637 
_USBEPDR2                                 IMPT 00000000    632 
_USBEPDR3                                 IMPT 00000000    641 
_USBEPSTL                                 IMPT 00000000    634 
_USBEPSZ0O                                IMPT 00000000    629 
_USBEPSZ1                                 IMPT 00000000    638 
_USBFCLR                                  IMPT 00000000    628 
_USBHBCED                                 IMPT 00000000    653 
*** SuperH RISC engine ASSEMBLER V.7.01.02.000 ***    11/14/21 17:24:11                                                  PAGE    73

*** CROSS REFERENCE LIST

NAME                             SECTION  ATTR VALUE             SEQUENCE

_USBHBHED                                 IMPT 00000000    652 
_USBHC                                    IMPT 00000000    643 
_USBHCCED                                 IMPT 00000000    651 
_USBHCHED                                 IMPT 00000000    650 
_USBHCS                                   IMPT 00000000    644 
_USBHDHED                                 IMPT 00000000    654 
_USBHFI                                   IMPT 00000000    655 
_USBHFN                                   IMPT 00000000    657 
_USBHFR                                   IMPT 00000000    656 
_USBHHCCA                                 IMPT 00000000    648 
_USBHID                                   IMPT 00000000    647 
_USBHIE                                   IMPT 00000000    646 
_USBHIS                                   IMPT 00000000    645 
_USBHLST                                  IMPT 00000000    659 
_USBHPCED                                 IMPT 00000000    649 
_USBHPS                                   IMPT 00000000    658 
_USBHR                                    IMPT 00000000    642 
_USBHRDA                                  IMPT 00000000    660 
_USBHRDB                                  IMPT 00000000    661 
_USBHRPS1                                 IMPT 00000000    663 
_USBHRPS2                                 IMPT 00000000    664 
_USBHRS                                   IMPT 00000000    662 
_USBIER0                                  IMPT 00000000    635 
_USBIER1                                  IMPT 00000000    636 
_USBIFR0                                  IMPT 00000000    623 
_USBIFR1                                  IMPT 00000000    624 
_USBISR0                                  IMPT 00000000    633 
_USBISR1                                  IMPT 00000000    639 
_USBTFG                                   IMPT 00000000    627 
_VLVER11_ERR_TM                           IMPT 00000000   4465 
_VLVER12_ERR_TM                           IMPT 00000000   4466 
_VLVER21_ERR_TM                           IMPT 00000000   4467 
_VLVER22_ERR_TM                           IMPT 00000000   4468 
_VLVER31_ERR_TM                           IMPT 00000000   4469 
_VLVER32_ERR_TM                           IMPT 00000000   4470 
_VUPCHECK_EQU                             EQU  11AB3739     97*
_VUP_DATA_ADR_OP1                         IMPT 00000000   2371  5374 
_VUP_DATA_AREA_ADR               Bvupwkra      00000010   5177  5230  5277  5487  5520  5664  6066*
_VUP_DATA_AREA_CPUA                       EQU  AC070000   4127*
_VUP_DATA_AREA_CPUB                       EQU  AC400000   4129* 5176  5229  5276  5372  5878 
_VUP_HSAREA_A_TO_B                        IMPT 00000000   2350  5016 
_VUP_HSAREA_B_TO_A                        IMPT 00000000   2343  5015 
_VUP_MAIN                        PvupsciR      000000BC   4933  5010*
_VUP_PRG_NG_DAT                  Bvupwkra      00000038   5333  5435  5636  5982  6070* 6261  6455 
_VUP_PRG_NON_SUM_CODE            Bvupwkra      0000003C   5209  5863  6072*
_VUP_PRG_RETRY_CNT               Bvupwkra      0000003A   5629  6071*
_VUP_PROG_SUMCHK_020             PvupsciR      00000472   5857  5862*
_VUP_PROG_SUMCHK_030             PvupsciR      00000488   5867  5877*
_VUP_PROG_SUMCHK_050             PvupsciR      00000496   5887* 5895  5970 
_VUP_PROG_SUMCHK_100             PvupsciR      0000050A   5889  5973*
_VUP_PROG_SUMCHK_150             PvupsciR      0000051C   5977  5979  5985*
_VUP_PROG_SUMCHK_EXT             PvupsciR      0000051C   5859  5869  5986*
_VUP_PROG_SUMCHK_NG              PvupsciR      00000516   5980*
_VUP_PROG_SUM_CHK                PvupsciR      00000442   5780*
*** SuperH RISC engine ASSEMBLER V.7.01.02.000 ***    11/14/21 17:24:11                                                  PAGE    74

*** CROSS REFERENCE LIST

NAME                             SECTION  ATTR VALUE             SEQUENCE

_VUP_WKRAM                       Bvupwkra      00000018   4937  5058  6069*
_WCR1                                     IMPT 00000000    722 
_WCR2                                     IMPT 00000000    723 
_WDT_573u                                 EQU  0000A579   4235*
_WDT_9m                                   EQU  0000A57D   4234*
_WDT_A_TO_B_ANS                           IMPT 00000000   3639 
_WDT_A_TO_B_REQ                           IMPT 00000000   3638 
_WDT_B_TO_A_ANS                           IMPT 00000000   3641 
_WDT_B_TO_A_REQ                           IMPT 00000000   3640 
_WDT_TCSR                                 EQU  FFFF8610   4233*
_WK_RCV_SCFDR2                            IMPT 00000000   4551 
_WK_RCV_SCFSR2                            IMPT 00000000   4550 
_WK_RCV_SCLSR2                            IMPT 00000000   4549 
_WORD_SUUH                                EQU  00000018   4056*
_WORD_SUUL                                EQU  00000017   4055*
_WPAR1_BTNER_TM                           IMPT 00000000   4477 
_WPAR1_CMPER2_TM                          IMPT 00000000   4486 
_WPAR1_FSFTTRER_TM                        IMPT 00000000   4487 
_WPAR1_MODSER_TM1                         IMPT 00000000   4478 
_WPAR1_MODSER_TM2                         IMPT 00000000   4479 
_WPAR1_RSFTTRER_TM                        IMPT 00000000   4488 
_WPAR1_SFTSWER_TM                         IMPT 00000000   4476 
_WPAR1_VLVER11_TM1                        IMPT 00000000   4480 
_WPAR1_VLVER12_TM1                        IMPT 00000000   4481 
_WPAR1_VLVER21_TM1                        IMPT 00000000   4482 
_WPAR1_VLVER22_TM1                        IMPT 00000000   4483 
_WPAR1_VLVER31_TM1                        IMPT 00000000   4484 
_WPAR1_VLVER32_TM1                        IMPT 00000000   4485 
_WTCNT                                    IMPT 00000000    732 
_WTCSR                                    IMPT 00000000    733 
_Wait100u                                 EQU  000003EA   4226*
_Wait10m                                  EQU  000186A2   4229*
_Wait10u                                  EQU  00000066   4222*
_Wait1u                                   EQU  0000000C   4217*
_Wait200u                                 EQU  000007D2   4227*
_Wait20u                                  EQU  000000CA   4223*
_Wait2s                                   EQU  01312D02   4231*
_Wait2u                                   EQU  00000016   4218*
_Wait30u                                  EQU  0000012E   4224*
_Wait4u                                   EQU  0000002A   4219*
_Wait50m                                  EQU  0007A122   4230*
_Wait50u                                  EQU  000001F6   4225*
_Wait5m                                   EQU  0000C352   4228*
_Wait5u                                   EQU  00000034   4220*
_Wait6u                                   EQU  0000003E   4221*
_Wait_STS                                 EQU  00000064   4216* 4217  4218  4219  4220  4221  4222  4223  4224  4225  4226  4227 
                                                          4228  4229  4230  4231 
_dio_top2                                 IMPT 00000000   4773  4893  4906  5557  5570  5928  5941  6194  6207  6373  6386 
_rcv2_data_INcnt                          IMPT 00000000   4427 
_rcv2_data_buf                            IMPT 00000000   4429 
_rcv2_data_cnt                            IMPT 00000000   4428 
_rcv2_err_FRPRErrCnt                      IMPT 00000000   4421 
_rcv2_err_OverRunCnt                      IMPT 00000000   4420 
_rcv2_err_data_flg1                       IMPT 00000000   4415 
*** SuperH RISC engine ASSEMBLER V.7.01.02.000 ***    11/14/21 17:24:11                                                  PAGE    75

*** CROSS REFERENCE LIST

NAME                             SECTION  ATTR VALUE             SEQUENCE

_rcv2_err_data_sts1                       IMPT 00000000   4419 
_rcv2_err_elseErrCnt                      IMPT 00000000   4422 
_rcv2_err_hard_INTflg1                    IMPT 00000000   4412 
_rcv2_err_hard_INTflg2                    IMPT 00000000   4413 
_rcv2_err_hard_INTflg3                    IMPT 00000000   4414 
_rcv2_err_hard_sts1                       IMPT 00000000   4416 
_rcv2_err_hard_sts2                       IMPT 00000000   4417 
_rcv2_err_hard_sts3                       IMPT 00000000   4418 
_rcv2_event_flg                           IMPT 00000000   4438 
_send2_data_buf                           IMPT 00000000   4434 
_send2_event_flg                          IMPT 00000000   4439 
*** SuperH RISC engine ASSEMBLER V.7.01.02.000 ***    11/14/21 17:24:11                                                  PAGE    76

*** SECTION DATA LIST

SECTION                          ATTRIBUTE    SIZE             START

PvupsciROM                       REL-CODE    0000007F0        
Bvupwkram                        REL-CODE    00000003E        
