*** SuperH RISC engine ASSEMBLER V.7.01.02.000 ***    11/14/21 17:25:06                                                  PAGE     1
PROGRAM NAME =

    1                               1     ;       ******************************************************************
    2                               2     ;       **********      TIMER SEQUENCE BIT SET MACRO            **********
    3                               3     ;       **********                                              **********
    4                               4     ;       **********      Name            : _SEQ_TIM_CNT(start/stop)*********
    5                               5     ;       **********      Input           : R6 = TIMER DATA ADRS  **********
    6                               6     ;       **********                      : R0 = 2 (start/stop AREA)********
    7                               7     ;       **********      Output          : R6 = R6+4             **********
    8                               8     ;       **********      Destroy         : R1,R2                 **********
    9                               9     ;       ******************************************************************
   10                              10     
   11                              11     ;;;;;   MOV.L   #_SEQ_TMR_DT_TOP,R6             ;
   12                              12     ;;;;;   MOV.L   #2,R0                           ; TIMER START FLG AREA
   13                              13     ;
   14                              14             .MACRO  _SEQ_TIM_CNT
   15                              15     ;
   16                              16     ;       ***     TIMMER COUNT DOWN MACRO         ***
   17                              17     ;;SAITO MOV.B   @(R0,R6),R1                     ; timmer count start bit LOAD
   18                              18     ;;SAITO TST     R1,R1                           ;
   19                              19     ;;SAITO BT      _JMP000\@                       ;
   20                              20     ;
   21                              21             MOV.B   @(R0,R6),R1                     ; timmer count start bit LOAD
   22                              22             MOV.B   #BIT0,R2                        ;
   23                              23             CMP/EQ  R1,R2                           ;
   24                              24             BF      _JMP000\@                       ;
   25                              25     
   26                              26             MOV.W   @R6,R1                          ;  timer PV data LOAD
   27                              27     
   28                              28             MOV.L   #1,R2                           ;
   29                              29             CLRT                                    ; T <- 0 CLEAR
   30                              30             SUBC    R2,R1                           ; TIMER PV DATA -1
   31                              31             XOR     R2,R2                           ;
   32                              32             ADDC    R2,R1                           ; counter = FFFF --> 0 set
   33                              33             MOV.W   R1,@R6                          ; TIMER DATA -1 SET
   34                              34     ;
   35                              35     _JMP000\@:
   36                              36     ;
   37                              37             MOV.L   #4,R1                           ;
   38                              38             ADD     R1,R6                           ; next timer data adr set
   39                              39     
   40                              40             .ENDM
   41                              41     
   42                              42     
   43                              43     
   44                              44     
   45                              45     ;       ***************************************************
   46                              46     ;       ***                                             ***
   47                              47     ;       ***                                             ***
   48                              48     ;       ***     シーケンスタイマ10msec 割込み           ***
   49                              49     ;       ***                                             ***
   50                              50     ;       ***                                             ***
   51                              51     ;       ***************************************************
 5727                              64     
 5728                              65     
 5729 00000000                     66             .SECTION        P,CODE                  ;
 5730                              67     
 5731                              68     
 5732                              69     
*** SuperH RISC engine ASSEMBLER V.7.01.02.000 ***    11/14/21 17:25:06                                                  PAGE     2
PROGRAM NAME =

 5733                              70     
 5734                              71     
 5735                              72     ;       //      ***********************************
 5736                              73     ;       //      ***     EXTERN 宣言 PROGRAM     ***
 5737                              74     ;       //      ***********************************
 5738                              75     
 5739                              76     ;       //      ***********************************
 5740                              77     ;       //      ***     EXTERN 宣言 MEMORY,HARD ***
 5741                              78     ;       //      ***********************************
 5742                              79     
 5743                              80     ;       //      ***********************************
 5744                              81     ;       //      ***     PUBLIC 宣言 PROGRAM     ***
 5745                              82     ;       //      ***********************************
 5746                              83             .EXPORT         _SEQ_INT_TIM10MS
 5747                              84     
 5748                              85     
 5749 00000000                     86     _SEQ_INT_TIM10MS:
 5750                              87             SUB_START
 5751 00000000 4F22                   M           STS.L   PR,@-R15                ;[必要]
 5752                                 M   ;;;;;;; ADD     #-4,R15                 ;[不要?]
 5753                              88     
 5754 00000002 D602                89             MOV.L   #_SEQ_TMR_DATA,R6               ;
 5755 00000004 D002                90             MOV.L   #2,R0                           ; TIMER START FLG AREA
 5756                              91     
 5757                              92             M_BRA   _SEQ_INT_TM10MS_000             ;
 5758 00000006 A005                   M           BRA     _SEQ_INT_TM10MS_000
 5759 00000008 0009                   M           NOP
 5760                              93     
 5761                                     ***** BEGIN-POOL *****
 5762 0000000A 0000                       ALIGNMENT CODE
 5763 0000000C 00000000                   DATA FOR SOURCE-LINE 89
 5764 00000010 00000002                   DATA FOR SOURCE-LINE 90
 5765                                     ***** END-POOL *****
 5766 00000014                     94     _SEQ_INT_TM10MS_000:
 5767                              95             _SEQ_TIM_CNT                            ;1
 5768                                 M   ;
 5769                                 M   ;       ***     TIMMER COUNT DOWN MACRO         ***
 5770                                 M   ;;SAITO MOV.B   @(R0,R6),R1                     ; timmer count start bit LOAD
 5771                                 M   ;;SAITO TST     R1,R1                           ;
 5772                                 M   ;;SAITO BT      _JMP00000000                    ;
 5773                                 M   ;
 5774 00000014 016C                   M           MOV.B   @(R0,R6),R1                     ; timmer count start bit LOAD
 5775 00000016 E201                   M           MOV.B   #BIT0,R2                        ;
 5776 00000018 3210                   M           CMP/EQ  R1,R2                           ;
 5777 0000001A 8B06                   M           BF      _JMP00000000                    ;
 5778                                 M   
 5779 0000001C 6161                   M           MOV.W   @R6,R1                          ;  timer PV data LOAD
 5780                                 M   
 5781 0000001E D23F                   M           MOV.L   #1,R2                           ;
 5782 00000020 0008                   M           CLRT                                    ; T <- 0 CLEAR
 5783 00000022 312A                   M           SUBC    R2,R1                           ; TIMER PV DATA -1
 5784 00000024 222A                   M           XOR     R2,R2                           ;
 5785 00000026 312E                   M           ADDC    R2,R1                           ; counter = FFFF --> 0 set
 5786 00000028 2611                   M           MOV.W   R1,@R6                          ; TIMER DATA -1 SET
 5787                                 M   ;
 5788 0000002A                        M   _JMP00000000:
 5789                                 M   ;
*** SuperH RISC engine ASSEMBLER V.7.01.02.000 ***    11/14/21 17:25:06                                                  PAGE     3
PROGRAM NAME =

 5790 0000002A D13D                   M           MOV.L   #4,R1                           ;
 5791 0000002C 361C                   M           ADD     R1,R6                           ; next timer data adr set
 5792                                 M   
 5793                              96             _SEQ_TIM_CNT                            ;2
 5794                                 M   ;
 5795                                 M   ;       ***     TIMMER COUNT DOWN MACRO         ***
 5796                                 M   ;;SAITO MOV.B   @(R0,R6),R1                     ; timmer count start bit LOAD
 5797                                 M   ;;SAITO TST     R1,R1                           ;
 5798                                 M   ;;SAITO BT      _JMP00000001                    ;
 5799                                 M   ;
 5800 0000002E 016C                   M           MOV.B   @(R0,R6),R1                     ; timmer count start bit LOAD
 5801 00000030 E201                   M           MOV.B   #BIT0,R2                        ;
 5802 00000032 3210                   M           CMP/EQ  R1,R2                           ;
 5803 00000034 8B06                   M           BF      _JMP00000001                    ;
 5804                                 M   
 5805 00000036 6161                   M           MOV.W   @R6,R1                          ;  timer PV data LOAD
 5806                                 M   
 5807 00000038 D238                   M           MOV.L   #1,R2                           ;
 5808 0000003A 0008                   M           CLRT                                    ; T <- 0 CLEAR
 5809 0000003C 312A                   M           SUBC    R2,R1                           ; TIMER PV DATA -1
 5810 0000003E 222A                   M           XOR     R2,R2                           ;
 5811 00000040 312E                   M           ADDC    R2,R1                           ; counter = FFFF --> 0 set
 5812 00000042 2611                   M           MOV.W   R1,@R6                          ; TIMER DATA -1 SET
 5813                                 M   ;
 5814 00000044                        M   _JMP00000001:
 5815                                 M   ;
 5816 00000044 D136                   M           MOV.L   #4,R1                           ;
 5817 00000046 361C                   M           ADD     R1,R6                           ; next timer data adr set
 5818                                 M   
 5819                              97             _SEQ_TIM_CNT                            ;3
 5820                                 M   ;
 5821                                 M   ;       ***     TIMMER COUNT DOWN MACRO         ***
 5822                                 M   ;;SAITO MOV.B   @(R0,R6),R1                     ; timmer count start bit LOAD
 5823                                 M   ;;SAITO TST     R1,R1                           ;
 5824                                 M   ;;SAITO BT      _JMP00000002                    ;
 5825                                 M   ;
 5826 00000048 016C                   M           MOV.B   @(R0,R6),R1                     ; timmer count start bit LOAD
 5827 0000004A E201                   M           MOV.B   #BIT0,R2                        ;
 5828 0000004C 3210                   M           CMP/EQ  R1,R2                           ;
 5829 0000004E 8B06                   M           BF      _JMP00000002                    ;
 5830                                 M   
 5831 00000050 6161                   M           MOV.W   @R6,R1                          ;  timer PV data LOAD
 5832                                 M   
 5833 00000052 D232                   M           MOV.L   #1,R2                           ;
 5834 00000054 0008                   M           CLRT                                    ; T <- 0 CLEAR
 5835 00000056 312A                   M           SUBC    R2,R1                           ; TIMER PV DATA -1
 5836 00000058 222A                   M           XOR     R2,R2                           ;
 5837 0000005A 312E                   M           ADDC    R2,R1                           ; counter = FFFF --> 0 set
 5838 0000005C 2611                   M           MOV.W   R1,@R6                          ; TIMER DATA -1 SET
 5839                                 M   ;
 5840 0000005E                        M   _JMP00000002:
 5841                                 M   ;
 5842 0000005E D130                   M           MOV.L   #4,R1                           ;
 5843 00000060 361C                   M           ADD     R1,R6                           ; next timer data adr set
 5844                                 M   
 5845                              98             _SEQ_TIM_CNT                            ;4
 5846                                 M   ;
*** SuperH RISC engine ASSEMBLER V.7.01.02.000 ***    11/14/21 17:25:06                                                  PAGE     4
PROGRAM NAME =

 5847                                 M   ;       ***     TIMMER COUNT DOWN MACRO         ***
 5848                                 M   ;;SAITO MOV.B   @(R0,R6),R1                     ; timmer count start bit LOAD
 5849                                 M   ;;SAITO TST     R1,R1                           ;
 5850                                 M   ;;SAITO BT      _JMP00000003                    ;
 5851                                 M   ;
 5852 00000062 016C                   M           MOV.B   @(R0,R6),R1                     ; timmer count start bit LOAD
 5853 00000064 E201                   M           MOV.B   #BIT0,R2                        ;
 5854 00000066 3210                   M           CMP/EQ  R1,R2                           ;
 5855 00000068 8B06                   M           BF      _JMP00000003                    ;
 5856                                 M   
 5857 0000006A 6161                   M           MOV.W   @R6,R1                          ;  timer PV data LOAD
 5858                                 M   
 5859 0000006C D22B                   M           MOV.L   #1,R2                           ;
 5860 0000006E 0008                   M           CLRT                                    ; T <- 0 CLEAR
 5861 00000070 312A                   M           SUBC    R2,R1                           ; TIMER PV DATA -1
 5862 00000072 222A                   M           XOR     R2,R2                           ;
 5863 00000074 312E                   M           ADDC    R2,R1                           ; counter = FFFF --> 0 set
 5864 00000076 2611                   M           MOV.W   R1,@R6                          ; TIMER DATA -1 SET
 5865                                 M   ;
 5866 00000078                        M   _JMP00000003:
 5867                                 M   ;
 5868 00000078 D129                   M           MOV.L   #4,R1                           ;
 5869 0000007A 361C                   M           ADD     R1,R6                           ; next timer data adr set
 5870                                 M   
 5871                              99             _SEQ_TIM_CNT                            ;5
 5872                                 M   ;
 5873                                 M   ;       ***     TIMMER COUNT DOWN MACRO         ***
 5874                                 M   ;;SAITO MOV.B   @(R0,R6),R1                     ; timmer count start bit LOAD
 5875                                 M   ;;SAITO TST     R1,R1                           ;
 5876                                 M   ;;SAITO BT      _JMP00000004                    ;
 5877                                 M   ;
 5878 0000007C 016C                   M           MOV.B   @(R0,R6),R1                     ; timmer count start bit LOAD
 5879 0000007E E201                   M           MOV.B   #BIT0,R2                        ;
 5880 00000080 3210                   M           CMP/EQ  R1,R2                           ;
 5881 00000082 8B06                   M           BF      _JMP00000004                    ;
 5882                                 M   
 5883 00000084 6161                   M           MOV.W   @R6,R1                          ;  timer PV data LOAD
 5884                                 M   
 5885 00000086 D225                   M           MOV.L   #1,R2                           ;
 5886 00000088 0008                   M           CLRT                                    ; T <- 0 CLEAR
 5887 0000008A 312A                   M           SUBC    R2,R1                           ; TIMER PV DATA -1
 5888 0000008C 222A                   M           XOR     R2,R2                           ;
 5889 0000008E 312E                   M           ADDC    R2,R1                           ; counter = FFFF --> 0 set
 5890 00000090 2611                   M           MOV.W   R1,@R6                          ; TIMER DATA -1 SET
 5891                                 M   ;
 5892 00000092                        M   _JMP00000004:
 5893                                 M   ;
 5894 00000092 D123                   M           MOV.L   #4,R1                           ;
 5895 00000094 361C                   M           ADD     R1,R6                           ; next timer data adr set
 5896                                 M   
 5897                             100             _SEQ_TIM_CNT                            ;6
 5898                                 M   ;
 5899                                 M   ;       ***     TIMMER COUNT DOWN MACRO         ***
 5900                                 M   ;;SAITO MOV.B   @(R0,R6),R1                     ; timmer count start bit LOAD
 5901                                 M   ;;SAITO TST     R1,R1                           ;
 5902                                 M   ;;SAITO BT      _JMP00000005                    ;
 5903                                 M   ;
*** SuperH RISC engine ASSEMBLER V.7.01.02.000 ***    11/14/21 17:25:06                                                  PAGE     5
PROGRAM NAME =

 5904 00000096 016C                   M           MOV.B   @(R0,R6),R1                     ; timmer count start bit LOAD
 5905 00000098 E201                   M           MOV.B   #BIT0,R2                        ;
 5906 0000009A 3210                   M           CMP/EQ  R1,R2                           ;
 5907 0000009C 8B06                   M           BF      _JMP00000005                    ;
 5908                                 M   
 5909 0000009E 6161                   M           MOV.W   @R6,R1                          ;  timer PV data LOAD
 5910                                 M   
 5911 000000A0 D21E                   M           MOV.L   #1,R2                           ;
 5912 000000A2 0008                   M           CLRT                                    ; T <- 0 CLEAR
 5913 000000A4 312A                   M           SUBC    R2,R1                           ; TIMER PV DATA -1
 5914 000000A6 222A                   M           XOR     R2,R2                           ;
 5915 000000A8 312E                   M           ADDC    R2,R1                           ; counter = FFFF --> 0 set
 5916 000000AA 2611                   M           MOV.W   R1,@R6                          ; TIMER DATA -1 SET
 5917                                 M   ;
 5918 000000AC                        M   _JMP00000005:
 5919                                 M   ;
 5920 000000AC D11C                   M           MOV.L   #4,R1                           ;
 5921 000000AE 361C                   M           ADD     R1,R6                           ; next timer data adr set
 5922                                 M   
 5923                             101             _SEQ_TIM_CNT                            ;7
 5924                                 M   ;
 5925                                 M   ;       ***     TIMMER COUNT DOWN MACRO         ***
 5926                                 M   ;;SAITO MOV.B   @(R0,R6),R1                     ; timmer count start bit LOAD
 5927                                 M   ;;SAITO TST     R1,R1                           ;
 5928                                 M   ;;SAITO BT      _JMP00000006                    ;
 5929                                 M   ;
 5930 000000B0 016C                   M           MOV.B   @(R0,R6),R1                     ; timmer count start bit LOAD
 5931 000000B2 E201                   M           MOV.B   #BIT0,R2                        ;
 5932 000000B4 3210                   M           CMP/EQ  R1,R2                           ;
 5933 000000B6 8B06                   M           BF      _JMP00000006                    ;
 5934                                 M   
 5935 000000B8 6161                   M           MOV.W   @R6,R1                          ;  timer PV data LOAD
 5936                                 M   
 5937 000000BA D218                   M           MOV.L   #1,R2                           ;
 5938 000000BC 0008                   M           CLRT                                    ; T <- 0 CLEAR
 5939 000000BE 312A                   M           SUBC    R2,R1                           ; TIMER PV DATA -1
 5940 000000C0 222A                   M           XOR     R2,R2                           ;
 5941 000000C2 312E                   M           ADDC    R2,R1                           ; counter = FFFF --> 0 set
 5942 000000C4 2611                   M           MOV.W   R1,@R6                          ; TIMER DATA -1 SET
 5943                                 M   ;
 5944 000000C6                        M   _JMP00000006:
 5945                                 M   ;
 5946 000000C6 D116                   M           MOV.L   #4,R1                           ;
 5947 000000C8 361C                   M           ADD     R1,R6                           ; next timer data adr set
 5948                                 M   
 5949                             102             _SEQ_TIM_CNT                            ;8
 5950                                 M   ;
 5951                                 M   ;       ***     TIMMER COUNT DOWN MACRO         ***
 5952                                 M   ;;SAITO MOV.B   @(R0,R6),R1                     ; timmer count start bit LOAD
 5953                                 M   ;;SAITO TST     R1,R1                           ;
 5954                                 M   ;;SAITO BT      _JMP00000007                    ;
 5955                                 M   ;
 5956 000000CA 016C                   M           MOV.B   @(R0,R6),R1                     ; timmer count start bit LOAD
 5957 000000CC E201                   M           MOV.B   #BIT0,R2                        ;
 5958 000000CE 3210                   M           CMP/EQ  R1,R2                           ;
 5959 000000D0 8B06                   M           BF      _JMP00000007                    ;
 5960                                 M   
*** SuperH RISC engine ASSEMBLER V.7.01.02.000 ***    11/14/21 17:25:06                                                  PAGE     6
PROGRAM NAME =

 5961 000000D2 6161                   M           MOV.W   @R6,R1                          ;  timer PV data LOAD
 5962                                 M   
 5963 000000D4 D211                   M           MOV.L   #1,R2                           ;
 5964 000000D6 0008                   M           CLRT                                    ; T <- 0 CLEAR
 5965 000000D8 312A                   M           SUBC    R2,R1                           ; TIMER PV DATA -1
 5966 000000DA 222A                   M           XOR     R2,R2                           ;
 5967 000000DC 312E                   M           ADDC    R2,R1                           ; counter = FFFF --> 0 set
 5968 000000DE 2611                   M           MOV.W   R1,@R6                          ; TIMER DATA -1 SET
 5969                                 M   ;
 5970 000000E0                        M   _JMP00000007:
 5971                                 M   ;
 5972 000000E0 D10F                   M           MOV.L   #4,R1                           ;
 5973 000000E2 361C                   M           ADD     R1,R6                           ; next timer data adr set
 5974                                 M   
 5975                             103             _SEQ_TIM_CNT                            ;9
 5976                                 M   ;
 5977                                 M   ;       ***     TIMMER COUNT DOWN MACRO         ***
 5978                                 M   ;;SAITO MOV.B   @(R0,R6),R1                     ; timmer count start bit LOAD
 5979                                 M   ;;SAITO TST     R1,R1                           ;
 5980                                 M   ;;SAITO BT      _JMP00000008                    ;
 5981                                 M   ;
 5982 000000E4 016C                   M           MOV.B   @(R0,R6),R1                     ; timmer count start bit LOAD
 5983 000000E6 E201                   M           MOV.B   #BIT0,R2                        ;
 5984 000000E8 3210                   M           CMP/EQ  R1,R2                           ;
 5985 000000EA 8B06                   M           BF      _JMP00000008                    ;
 5986                                 M   
 5987 000000EC 6161                   M           MOV.W   @R6,R1                          ;  timer PV data LOAD
 5988                                 M   
 5989 000000EE D20B                   M           MOV.L   #1,R2                           ;
 5990 000000F0 0008                   M           CLRT                                    ; T <- 0 CLEAR
 5991 000000F2 312A                   M           SUBC    R2,R1                           ; TIMER PV DATA -1
 5992 000000F4 222A                   M           XOR     R2,R2                           ;
 5993 000000F6 312E                   M           ADDC    R2,R1                           ; counter = FFFF --> 0 set
 5994 000000F8 2611                   M           MOV.W   R1,@R6                          ; TIMER DATA -1 SET
 5995                                 M   ;
 5996 000000FA                        M   _JMP00000008:
 5997                                 M   ;
 5998 000000FA D109                   M           MOV.L   #4,R1                           ;
 5999 000000FC 361C                   M           ADD     R1,R6                           ; next timer data adr set
 6000                                 M   
 6001                             104             _SEQ_TIM_CNT                            ;10
 6002                                 M   ;
 6003                                 M   ;       ***     TIMMER COUNT DOWN MACRO         ***
 6004                                 M   ;;SAITO MOV.B   @(R0,R6),R1                     ; timmer count start bit LOAD
 6005                                 M   ;;SAITO TST     R1,R1                           ;
 6006                                 M   ;;SAITO BT      _JMP00000009                    ;
 6007                                 M   ;
 6008 000000FE 016C                   M           MOV.B   @(R0,R6),R1                     ; timmer count start bit LOAD
 6009 00000100 E201                   M           MOV.B   #BIT0,R2                        ;
 6010 00000102 3210                   M           CMP/EQ  R1,R2                           ;
 6011 00000104 8B06                   M           BF      _JMP00000009                    ;
 6012                                 M   
 6013 00000106 6161                   M           MOV.W   @R6,R1                          ;  timer PV data LOAD
 6014                                 M   
 6015 00000108 D204                   M           MOV.L   #1,R2                           ;
 6016 0000010A 0008                   M           CLRT                                    ; T <- 0 CLEAR
 6017 0000010C 312A                   M           SUBC    R2,R1                           ; TIMER PV DATA -1
*** SuperH RISC engine ASSEMBLER V.7.01.02.000 ***    11/14/21 17:25:06                                                  PAGE     7
PROGRAM NAME =

 6018 0000010E 222A                   M           XOR     R2,R2                           ;
 6019 00000110 312E                   M           ADDC    R2,R1                           ; counter = FFFF --> 0 set
 6020 00000112 2611                   M           MOV.W   R1,@R6                          ; TIMER DATA -1 SET
 6021                                 M   ;
 6022 00000114                        M   _JMP00000009:
 6023                                 M   ;
 6024 00000114 D102                   M           MOV.L   #4,R1                           ;
 6025 00000116 361C                   M           ADD     R1,R6                           ; next timer data adr set
 6026                                 M   
 6027                             105             M_BRA   _SEQ_INT_TM10MS_010             ;
 6028 00000118 A004                   M           BRA     _SEQ_INT_TM10MS_010
 6029 0000011A 0009                   M           NOP
 6030                             106     
 6031                                     ***** BEGIN-POOL *****
 6032 0000011C 00000001                   DATA FOR SOURCE-LINE 95,96,97,98,99,100,101,102,103,104
 6033 00000120 00000004                   DATA FOR SOURCE-LINE 95,96,97,98,99,100,101,102,103,104
 6034                                     ***** END-POOL *****
 6035 00000124                    107     _SEQ_INT_TM10MS_010:
 6036                             108             _SEQ_TIM_CNT                            ;11
 6037                                 M   ;
 6038                                 M   ;       ***     TIMMER COUNT DOWN MACRO         ***
 6039                                 M   ;;SAITO MOV.B   @(R0,R6),R1                     ; timmer count start bit LOAD
 6040                                 M   ;;SAITO TST     R1,R1                           ;
 6041                                 M   ;;SAITO BT      _JMP00000010                    ;
 6042                                 M   ;
 6043 00000124 016C                   M           MOV.B   @(R0,R6),R1                     ; timmer count start bit LOAD
 6044 00000126 E201                   M           MOV.B   #BIT0,R2                        ;
 6045 00000128 3210                   M           CMP/EQ  R1,R2                           ;
 6046 0000012A 8B06                   M           BF      _JMP00000010                    ;
 6047                                 M   
 6048 0000012C 6161                   M           MOV.W   @R6,R1                          ;  timer PV data LOAD
 6049                                 M   
 6050 0000012E D23F                   M           MOV.L   #1,R2                           ;
 6051 00000130 0008                   M           CLRT                                    ; T <- 0 CLEAR
 6052 00000132 312A                   M           SUBC    R2,R1                           ; TIMER PV DATA -1
 6053 00000134 222A                   M           XOR     R2,R2                           ;
 6054 00000136 312E                   M           ADDC    R2,R1                           ; counter = FFFF --> 0 set
 6055 00000138 2611                   M           MOV.W   R1,@R6                          ; TIMER DATA -1 SET
 6056                                 M   ;
 6057 0000013A                        M   _JMP00000010:
 6058                                 M   ;
 6059 0000013A D13D                   M           MOV.L   #4,R1                           ;
 6060 0000013C 361C                   M           ADD     R1,R6                           ; next timer data adr set
 6061                                 M   
 6062                             109             _SEQ_TIM_CNT                            ;12
 6063                                 M   ;
 6064                                 M   ;       ***     TIMMER COUNT DOWN MACRO         ***
 6065                                 M   ;;SAITO MOV.B   @(R0,R6),R1                     ; timmer count start bit LOAD
 6066                                 M   ;;SAITO TST     R1,R1                           ;
 6067                                 M   ;;SAITO BT      _JMP00000011                    ;
 6068                                 M   ;
 6069 0000013E 016C                   M           MOV.B   @(R0,R6),R1                     ; timmer count start bit LOAD
 6070 00000140 E201                   M           MOV.B   #BIT0,R2                        ;
 6071 00000142 3210                   M           CMP/EQ  R1,R2                           ;
 6072 00000144 8B06                   M           BF      _JMP00000011                    ;
 6073                                 M   
 6074 00000146 6161                   M           MOV.W   @R6,R1                          ;  timer PV data LOAD
*** SuperH RISC engine ASSEMBLER V.7.01.02.000 ***    11/14/21 17:25:06                                                  PAGE     8
PROGRAM NAME =

 6075                                 M   
 6076 00000148 D238                   M           MOV.L   #1,R2                           ;
 6077 0000014A 0008                   M           CLRT                                    ; T <- 0 CLEAR
 6078 0000014C 312A                   M           SUBC    R2,R1                           ; TIMER PV DATA -1
 6079 0000014E 222A                   M           XOR     R2,R2                           ;
 6080 00000150 312E                   M           ADDC    R2,R1                           ; counter = FFFF --> 0 set
 6081 00000152 2611                   M           MOV.W   R1,@R6                          ; TIMER DATA -1 SET
 6082                                 M   ;
 6083 00000154                        M   _JMP00000011:
 6084                                 M   ;
 6085 00000154 D136                   M           MOV.L   #4,R1                           ;
 6086 00000156 361C                   M           ADD     R1,R6                           ; next timer data adr set
 6087                                 M   
 6088                             110             _SEQ_TIM_CNT                            ;13
 6089                                 M   ;
 6090                                 M   ;       ***     TIMMER COUNT DOWN MACRO         ***
 6091                                 M   ;;SAITO MOV.B   @(R0,R6),R1                     ; timmer count start bit LOAD
 6092                                 M   ;;SAITO TST     R1,R1                           ;
 6093                                 M   ;;SAITO BT      _JMP00000012                    ;
 6094                                 M   ;
 6095 00000158 016C                   M           MOV.B   @(R0,R6),R1                     ; timmer count start bit LOAD
 6096 0000015A E201                   M           MOV.B   #BIT0,R2                        ;
 6097 0000015C 3210                   M           CMP/EQ  R1,R2                           ;
 6098 0000015E 8B06                   M           BF      _JMP00000012                    ;
 6099                                 M   
 6100 00000160 6161                   M           MOV.W   @R6,R1                          ;  timer PV data LOAD
 6101                                 M   
 6102 00000162 D232                   M           MOV.L   #1,R2                           ;
 6103 00000164 0008                   M           CLRT                                    ; T <- 0 CLEAR
 6104 00000166 312A                   M           SUBC    R2,R1                           ; TIMER PV DATA -1
 6105 00000168 222A                   M           XOR     R2,R2                           ;
 6106 0000016A 312E                   M           ADDC    R2,R1                           ; counter = FFFF --> 0 set
 6107 0000016C 2611                   M           MOV.W   R1,@R6                          ; TIMER DATA -1 SET
 6108                                 M   ;
 6109 0000016E                        M   _JMP00000012:
 6110                                 M   ;
 6111 0000016E D130                   M           MOV.L   #4,R1                           ;
 6112 00000170 361C                   M           ADD     R1,R6                           ; next timer data adr set
 6113                                 M   
 6114                             111             _SEQ_TIM_CNT                            ;14
 6115                                 M   ;
 6116                                 M   ;       ***     TIMMER COUNT DOWN MACRO         ***
 6117                                 M   ;;SAITO MOV.B   @(R0,R6),R1                     ; timmer count start bit LOAD
 6118                                 M   ;;SAITO TST     R1,R1                           ;
 6119                                 M   ;;SAITO BT      _JMP00000013                    ;
 6120                                 M   ;
 6121 00000172 016C                   M           MOV.B   @(R0,R6),R1                     ; timmer count start bit LOAD
 6122 00000174 E201                   M           MOV.B   #BIT0,R2                        ;
 6123 00000176 3210                   M           CMP/EQ  R1,R2                           ;
 6124 00000178 8B06                   M           BF      _JMP00000013                    ;
 6125                                 M   
 6126 0000017A 6161                   M           MOV.W   @R6,R1                          ;  timer PV data LOAD
 6127                                 M   
 6128 0000017C D22B                   M           MOV.L   #1,R2                           ;
 6129 0000017E 0008                   M           CLRT                                    ; T <- 0 CLEAR
 6130 00000180 312A                   M           SUBC    R2,R1                           ; TIMER PV DATA -1
 6131 00000182 222A                   M           XOR     R2,R2                           ;
*** SuperH RISC engine ASSEMBLER V.7.01.02.000 ***    11/14/21 17:25:06                                                  PAGE     9
PROGRAM NAME =

 6132 00000184 312E                   M           ADDC    R2,R1                           ; counter = FFFF --> 0 set
 6133 00000186 2611                   M           MOV.W   R1,@R6                          ; TIMER DATA -1 SET
 6134                                 M   ;
 6135 00000188                        M   _JMP00000013:
 6136                                 M   ;
 6137 00000188 D129                   M           MOV.L   #4,R1                           ;
 6138 0000018A 361C                   M           ADD     R1,R6                           ; next timer data adr set
 6139                                 M   
 6140                             112             _SEQ_TIM_CNT                            ;15
 6141                                 M   ;
 6142                                 M   ;       ***     TIMMER COUNT DOWN MACRO         ***
 6143                                 M   ;;SAITO MOV.B   @(R0,R6),R1                     ; timmer count start bit LOAD
 6144                                 M   ;;SAITO TST     R1,R1                           ;
 6145                                 M   ;;SAITO BT      _JMP00000014                    ;
 6146                                 M   ;
 6147 0000018C 016C                   M           MOV.B   @(R0,R6),R1                     ; timmer count start bit LOAD
 6148 0000018E E201                   M           MOV.B   #BIT0,R2                        ;
 6149 00000190 3210                   M           CMP/EQ  R1,R2                           ;
 6150 00000192 8B06                   M           BF      _JMP00000014                    ;
 6151                                 M   
 6152 00000194 6161                   M           MOV.W   @R6,R1                          ;  timer PV data LOAD
 6153                                 M   
 6154 00000196 D225                   M           MOV.L   #1,R2                           ;
 6155 00000198 0008                   M           CLRT                                    ; T <- 0 CLEAR
 6156 0000019A 312A                   M           SUBC    R2,R1                           ; TIMER PV DATA -1
 6157 0000019C 222A                   M           XOR     R2,R2                           ;
 6158 0000019E 312E                   M           ADDC    R2,R1                           ; counter = FFFF --> 0 set
 6159 000001A0 2611                   M           MOV.W   R1,@R6                          ; TIMER DATA -1 SET
 6160                                 M   ;
 6161 000001A2                        M   _JMP00000014:
 6162                                 M   ;
 6163 000001A2 D123                   M           MOV.L   #4,R1                           ;
 6164 000001A4 361C                   M           ADD     R1,R6                           ; next timer data adr set
 6165                                 M   
 6166                             113             _SEQ_TIM_CNT                            ;16
 6167                                 M   ;
 6168                                 M   ;       ***     TIMMER COUNT DOWN MACRO         ***
 6169                                 M   ;;SAITO MOV.B   @(R0,R6),R1                     ; timmer count start bit LOAD
 6170                                 M   ;;SAITO TST     R1,R1                           ;
 6171                                 M   ;;SAITO BT      _JMP00000015                    ;
 6172                                 M   ;
 6173 000001A6 016C                   M           MOV.B   @(R0,R6),R1                     ; timmer count start bit LOAD
 6174 000001A8 E201                   M           MOV.B   #BIT0,R2                        ;
 6175 000001AA 3210                   M           CMP/EQ  R1,R2                           ;
 6176 000001AC 8B06                   M           BF      _JMP00000015                    ;
 6177                                 M   
 6178 000001AE 6161                   M           MOV.W   @R6,R1                          ;  timer PV data LOAD
 6179                                 M   
 6180 000001B0 D21E                   M           MOV.L   #1,R2                           ;
 6181 000001B2 0008                   M           CLRT                                    ; T <- 0 CLEAR
 6182 000001B4 312A                   M           SUBC    R2,R1                           ; TIMER PV DATA -1
 6183 000001B6 222A                   M           XOR     R2,R2                           ;
 6184 000001B8 312E                   M           ADDC    R2,R1                           ; counter = FFFF --> 0 set
 6185 000001BA 2611                   M           MOV.W   R1,@R6                          ; TIMER DATA -1 SET
 6186                                 M   ;
 6187 000001BC                        M   _JMP00000015:
 6188                                 M   ;
*** SuperH RISC engine ASSEMBLER V.7.01.02.000 ***    11/14/21 17:25:06                                                  PAGE    10
PROGRAM NAME =

 6189 000001BC D11C                   M           MOV.L   #4,R1                           ;
 6190 000001BE 361C                   M           ADD     R1,R6                           ; next timer data adr set
 6191                                 M   
 6192                             114             _SEQ_TIM_CNT                            ;17
 6193                                 M   ;
 6194                                 M   ;       ***     TIMMER COUNT DOWN MACRO         ***
 6195                                 M   ;;SAITO MOV.B   @(R0,R6),R1                     ; timmer count start bit LOAD
 6196                                 M   ;;SAITO TST     R1,R1                           ;
 6197                                 M   ;;SAITO BT      _JMP00000016                    ;
 6198                                 M   ;
 6199 000001C0 016C                   M           MOV.B   @(R0,R6),R1                     ; timmer count start bit LOAD
 6200 000001C2 E201                   M           MOV.B   #BIT0,R2                        ;
 6201 000001C4 3210                   M           CMP/EQ  R1,R2                           ;
 6202 000001C6 8B06                   M           BF      _JMP00000016                    ;
 6203                                 M   
 6204 000001C8 6161                   M           MOV.W   @R6,R1                          ;  timer PV data LOAD
 6205                                 M   
 6206 000001CA D218                   M           MOV.L   #1,R2                           ;
 6207 000001CC 0008                   M           CLRT                                    ; T <- 0 CLEAR
 6208 000001CE 312A                   M           SUBC    R2,R1                           ; TIMER PV DATA -1
 6209 000001D0 222A                   M           XOR     R2,R2                           ;
 6210 000001D2 312E                   M           ADDC    R2,R1                           ; counter = FFFF --> 0 set
 6211 000001D4 2611                   M           MOV.W   R1,@R6                          ; TIMER DATA -1 SET
 6212                                 M   ;
 6213 000001D6                        M   _JMP00000016:
 6214                                 M   ;
 6215 000001D6 D116                   M           MOV.L   #4,R1                           ;
 6216 000001D8 361C                   M           ADD     R1,R6                           ; next timer data adr set
 6217                                 M   
 6218                             115             _SEQ_TIM_CNT                            ;18
 6219                                 M   ;
 6220                                 M   ;       ***     TIMMER COUNT DOWN MACRO         ***
 6221                                 M   ;;SAITO MOV.B   @(R0,R6),R1                     ; timmer count start bit LOAD
 6222                                 M   ;;SAITO TST     R1,R1                           ;
 6223                                 M   ;;SAITO BT      _JMP00000017                    ;
 6224                                 M   ;
 6225 000001DA 016C                   M           MOV.B   @(R0,R6),R1                     ; timmer count start bit LOAD
 6226 000001DC E201                   M           MOV.B   #BIT0,R2                        ;
 6227 000001DE 3210                   M           CMP/EQ  R1,R2                           ;
 6228 000001E0 8B06                   M           BF      _JMP00000017                    ;
 6229                                 M   
 6230 000001E2 6161                   M           MOV.W   @R6,R1                          ;  timer PV data LOAD
 6231                                 M   
 6232 000001E4 D211                   M           MOV.L   #1,R2                           ;
 6233 000001E6 0008                   M           CLRT                                    ; T <- 0 CLEAR
 6234 000001E8 312A                   M           SUBC    R2,R1                           ; TIMER PV DATA -1
 6235 000001EA 222A                   M           XOR     R2,R2                           ;
 6236 000001EC 312E                   M           ADDC    R2,R1                           ; counter = FFFF --> 0 set
 6237 000001EE 2611                   M           MOV.W   R1,@R6                          ; TIMER DATA -1 SET
 6238                                 M   ;
 6239 000001F0                        M   _JMP00000017:
 6240                                 M   ;
 6241 000001F0 D10F                   M           MOV.L   #4,R1                           ;
 6242 000001F2 361C                   M           ADD     R1,R6                           ; next timer data adr set
 6243                                 M   
 6244                             116             _SEQ_TIM_CNT                            ;19
 6245                                 M   ;
*** SuperH RISC engine ASSEMBLER V.7.01.02.000 ***    11/14/21 17:25:06                                                  PAGE    11
PROGRAM NAME =

 6246                                 M   ;       ***     TIMMER COUNT DOWN MACRO         ***
 6247                                 M   ;;SAITO MOV.B   @(R0,R6),R1                     ; timmer count start bit LOAD
 6248                                 M   ;;SAITO TST     R1,R1                           ;
 6249                                 M   ;;SAITO BT      _JMP00000018                    ;
 6250                                 M   ;
 6251 000001F4 016C                   M           MOV.B   @(R0,R6),R1                     ; timmer count start bit LOAD
 6252 000001F6 E201                   M           MOV.B   #BIT0,R2                        ;
 6253 000001F8 3210                   M           CMP/EQ  R1,R2                           ;
 6254 000001FA 8B06                   M           BF      _JMP00000018                    ;
 6255                                 M   
 6256 000001FC 6161                   M           MOV.W   @R6,R1                          ;  timer PV data LOAD
 6257                                 M   
 6258 000001FE D20B                   M           MOV.L   #1,R2                           ;
 6259 00000200 0008                   M           CLRT                                    ; T <- 0 CLEAR
 6260 00000202 312A                   M           SUBC    R2,R1                           ; TIMER PV DATA -1
 6261 00000204 222A                   M           XOR     R2,R2                           ;
 6262 00000206 312E                   M           ADDC    R2,R1                           ; counter = FFFF --> 0 set
 6263 00000208 2611                   M           MOV.W   R1,@R6                          ; TIMER DATA -1 SET
 6264                                 M   ;
 6265 0000020A                        M   _JMP00000018:
 6266                                 M   ;
 6267 0000020A D109                   M           MOV.L   #4,R1                           ;
 6268 0000020C 361C                   M           ADD     R1,R6                           ; next timer data adr set
 6269                                 M   
 6270                             117             _SEQ_TIM_CNT                            ;20
 6271                                 M   ;
 6272                                 M   ;       ***     TIMMER COUNT DOWN MACRO         ***
 6273                                 M   ;;SAITO MOV.B   @(R0,R6),R1                     ; timmer count start bit LOAD
 6274                                 M   ;;SAITO TST     R1,R1                           ;
 6275                                 M   ;;SAITO BT      _JMP00000019                    ;
 6276                                 M   ;
 6277 0000020E 016C                   M           MOV.B   @(R0,R6),R1                     ; timmer count start bit LOAD
 6278 00000210 E201                   M           MOV.B   #BIT0,R2                        ;
 6279 00000212 3210                   M           CMP/EQ  R1,R2                           ;
 6280 00000214 8B06                   M           BF      _JMP00000019                    ;
 6281                                 M   
 6282 00000216 6161                   M           MOV.W   @R6,R1                          ;  timer PV data LOAD
 6283                                 M   
 6284 00000218 D204                   M           MOV.L   #1,R2                           ;
 6285 0000021A 0008                   M           CLRT                                    ; T <- 0 CLEAR
 6286 0000021C 312A                   M           SUBC    R2,R1                           ; TIMER PV DATA -1
 6287 0000021E 222A                   M           XOR     R2,R2                           ;
 6288 00000220 312E                   M           ADDC    R2,R1                           ; counter = FFFF --> 0 set
 6289 00000222 2611                   M           MOV.W   R1,@R6                          ; TIMER DATA -1 SET
 6290                                 M   ;
 6291 00000224                        M   _JMP00000019:
 6292                                 M   ;
 6293 00000224 D102                   M           MOV.L   #4,R1                           ;
 6294 00000226 361C                   M           ADD     R1,R6                           ; next timer data adr set
 6295                                 M   
 6296                             118     
 6297                             119             M_BRA   _SEQ_INT_TM10MS_020             ;
 6298 00000228 A004                   M           BRA     _SEQ_INT_TM10MS_020
 6299 0000022A 0009                   M           NOP
 6300                             120     
 6301                                     ***** BEGIN-POOL *****
 6302 0000022C 00000001                   DATA FOR SOURCE-LINE 108,109,110,111,112,113,114,115,116,117
*** SuperH RISC engine ASSEMBLER V.7.01.02.000 ***    11/14/21 17:25:06                                                  PAGE    12
PROGRAM NAME =

 6303 00000230 00000004                   DATA FOR SOURCE-LINE 108,109,110,111,112,113,114,115,116,117
 6304                                     ***** END-POOL *****
 6305 00000234                    121     _SEQ_INT_TM10MS_020:
 6306                             122             _SEQ_TIM_CNT                            ;21
 6307                                 M   ;
 6308                                 M   ;       ***     TIMMER COUNT DOWN MACRO         ***
 6309                                 M   ;;SAITO MOV.B   @(R0,R6),R1                     ; timmer count start bit LOAD
 6310                                 M   ;;SAITO TST     R1,R1                           ;
 6311                                 M   ;;SAITO BT      _JMP00000020                    ;
 6312                                 M   ;
 6313 00000234 016C                   M           MOV.B   @(R0,R6),R1                     ; timmer count start bit LOAD
 6314 00000236 E201                   M           MOV.B   #BIT0,R2                        ;
 6315 00000238 3210                   M           CMP/EQ  R1,R2                           ;
 6316 0000023A 8B06                   M           BF      _JMP00000020                    ;
 6317                                 M   
 6318 0000023C 6161                   M           MOV.W   @R6,R1                          ;  timer PV data LOAD
 6319                                 M   
 6320 0000023E D23F                   M           MOV.L   #1,R2                           ;
 6321 00000240 0008                   M           CLRT                                    ; T <- 0 CLEAR
 6322 00000242 312A                   M           SUBC    R2,R1                           ; TIMER PV DATA -1
 6323 00000244 222A                   M           XOR     R2,R2                           ;
 6324 00000246 312E                   M           ADDC    R2,R1                           ; counter = FFFF --> 0 set
 6325 00000248 2611                   M           MOV.W   R1,@R6                          ; TIMER DATA -1 SET
 6326                                 M   ;
 6327 0000024A                        M   _JMP00000020:
 6328                                 M   ;
 6329 0000024A D13D                   M           MOV.L   #4,R1                           ;
 6330 0000024C 361C                   M           ADD     R1,R6                           ; next timer data adr set
 6331                                 M   
 6332                             123             _SEQ_TIM_CNT                            ;22
 6333                                 M   ;
 6334                                 M   ;       ***     TIMMER COUNT DOWN MACRO         ***
 6335                                 M   ;;SAITO MOV.B   @(R0,R6),R1                     ; timmer count start bit LOAD
 6336                                 M   ;;SAITO TST     R1,R1                           ;
 6337                                 M   ;;SAITO BT      _JMP00000021                    ;
 6338                                 M   ;
 6339 0000024E 016C                   M           MOV.B   @(R0,R6),R1                     ; timmer count start bit LOAD
 6340 00000250 E201                   M           MOV.B   #BIT0,R2                        ;
 6341 00000252 3210                   M           CMP/EQ  R1,R2                           ;
 6342 00000254 8B06                   M           BF      _JMP00000021                    ;
 6343                                 M   
 6344 00000256 6161                   M           MOV.W   @R6,R1                          ;  timer PV data LOAD
 6345                                 M   
 6346 00000258 D238                   M           MOV.L   #1,R2                           ;
 6347 0000025A 0008                   M           CLRT                                    ; T <- 0 CLEAR
 6348 0000025C 312A                   M           SUBC    R2,R1                           ; TIMER PV DATA -1
 6349 0000025E 222A                   M           XOR     R2,R2                           ;
 6350 00000260 312E                   M           ADDC    R2,R1                           ; counter = FFFF --> 0 set
 6351 00000262 2611                   M           MOV.W   R1,@R6                          ; TIMER DATA -1 SET
 6352                                 M   ;
 6353 00000264                        M   _JMP00000021:
 6354                                 M   ;
 6355 00000264 D136                   M           MOV.L   #4,R1                           ;
 6356 00000266 361C                   M           ADD     R1,R6                           ; next timer data adr set
 6357                                 M   
 6358                             124             _SEQ_TIM_CNT                            ;23
 6359                                 M   ;
*** SuperH RISC engine ASSEMBLER V.7.01.02.000 ***    11/14/21 17:25:06                                                  PAGE    13
PROGRAM NAME =

 6360                                 M   ;       ***     TIMMER COUNT DOWN MACRO         ***
 6361                                 M   ;;SAITO MOV.B   @(R0,R6),R1                     ; timmer count start bit LOAD
 6362                                 M   ;;SAITO TST     R1,R1                           ;
 6363                                 M   ;;SAITO BT      _JMP00000022                    ;
 6364                                 M   ;
 6365 00000268 016C                   M           MOV.B   @(R0,R6),R1                     ; timmer count start bit LOAD
 6366 0000026A E201                   M           MOV.B   #BIT0,R2                        ;
 6367 0000026C 3210                   M           CMP/EQ  R1,R2                           ;
 6368 0000026E 8B06                   M           BF      _JMP00000022                    ;
 6369                                 M   
 6370 00000270 6161                   M           MOV.W   @R6,R1                          ;  timer PV data LOAD
 6371                                 M   
 6372 00000272 D232                   M           MOV.L   #1,R2                           ;
 6373 00000274 0008                   M           CLRT                                    ; T <- 0 CLEAR
 6374 00000276 312A                   M           SUBC    R2,R1                           ; TIMER PV DATA -1
 6375 00000278 222A                   M           XOR     R2,R2                           ;
 6376 0000027A 312E                   M           ADDC    R2,R1                           ; counter = FFFF --> 0 set
 6377 0000027C 2611                   M           MOV.W   R1,@R6                          ; TIMER DATA -1 SET
 6378                                 M   ;
 6379 0000027E                        M   _JMP00000022:
 6380                                 M   ;
 6381 0000027E D130                   M           MOV.L   #4,R1                           ;
 6382 00000280 361C                   M           ADD     R1,R6                           ; next timer data adr set
 6383                                 M   
 6384                             125             _SEQ_TIM_CNT                            ;24
 6385                                 M   ;
 6386                                 M   ;       ***     TIMMER COUNT DOWN MACRO         ***
 6387                                 M   ;;SAITO MOV.B   @(R0,R6),R1                     ; timmer count start bit LOAD
 6388                                 M   ;;SAITO TST     R1,R1                           ;
 6389                                 M   ;;SAITO BT      _JMP00000023                    ;
 6390                                 M   ;
 6391 00000282 016C                   M           MOV.B   @(R0,R6),R1                     ; timmer count start bit LOAD
 6392 00000284 E201                   M           MOV.B   #BIT0,R2                        ;
 6393 00000286 3210                   M           CMP/EQ  R1,R2                           ;
 6394 00000288 8B06                   M           BF      _JMP00000023                    ;
 6395                                 M   
 6396 0000028A 6161                   M           MOV.W   @R6,R1                          ;  timer PV data LOAD
 6397                                 M   
 6398 0000028C D22B                   M           MOV.L   #1,R2                           ;
 6399 0000028E 0008                   M           CLRT                                    ; T <- 0 CLEAR
 6400 00000290 312A                   M           SUBC    R2,R1                           ; TIMER PV DATA -1
 6401 00000292 222A                   M           XOR     R2,R2                           ;
 6402 00000294 312E                   M           ADDC    R2,R1                           ; counter = FFFF --> 0 set
 6403 00000296 2611                   M           MOV.W   R1,@R6                          ; TIMER DATA -1 SET
 6404                                 M   ;
 6405 00000298                        M   _JMP00000023:
 6406                                 M   ;
 6407 00000298 D129                   M           MOV.L   #4,R1                           ;
 6408 0000029A 361C                   M           ADD     R1,R6                           ; next timer data adr set
 6409                                 M   
 6410                             126             _SEQ_TIM_CNT                            ;25
 6411                                 M   ;
 6412                                 M   ;       ***     TIMMER COUNT DOWN MACRO         ***
 6413                                 M   ;;SAITO MOV.B   @(R0,R6),R1                     ; timmer count start bit LOAD
 6414                                 M   ;;SAITO TST     R1,R1                           ;
 6415                                 M   ;;SAITO BT      _JMP00000024                    ;
 6416                                 M   ;
*** SuperH RISC engine ASSEMBLER V.7.01.02.000 ***    11/14/21 17:25:06                                                  PAGE    14
PROGRAM NAME =

 6417 0000029C 016C                   M           MOV.B   @(R0,R6),R1                     ; timmer count start bit LOAD
 6418 0000029E E201                   M           MOV.B   #BIT0,R2                        ;
 6419 000002A0 3210                   M           CMP/EQ  R1,R2                           ;
 6420 000002A2 8B06                   M           BF      _JMP00000024                    ;
 6421                                 M   
 6422 000002A4 6161                   M           MOV.W   @R6,R1                          ;  timer PV data LOAD
 6423                                 M   
 6424 000002A6 D225                   M           MOV.L   #1,R2                           ;
 6425 000002A8 0008                   M           CLRT                                    ; T <- 0 CLEAR
 6426 000002AA 312A                   M           SUBC    R2,R1                           ; TIMER PV DATA -1
 6427 000002AC 222A                   M           XOR     R2,R2                           ;
 6428 000002AE 312E                   M           ADDC    R2,R1                           ; counter = FFFF --> 0 set
 6429 000002B0 2611                   M           MOV.W   R1,@R6                          ; TIMER DATA -1 SET
 6430                                 M   ;
 6431 000002B2                        M   _JMP00000024:
 6432                                 M   ;
 6433 000002B2 D123                   M           MOV.L   #4,R1                           ;
 6434 000002B4 361C                   M           ADD     R1,R6                           ; next timer data adr set
 6435                                 M   
 6436                             127             _SEQ_TIM_CNT                            ;26
 6437                                 M   ;
 6438                                 M   ;       ***     TIMMER COUNT DOWN MACRO         ***
 6439                                 M   ;;SAITO MOV.B   @(R0,R6),R1                     ; timmer count start bit LOAD
 6440                                 M   ;;SAITO TST     R1,R1                           ;
 6441                                 M   ;;SAITO BT      _JMP00000025                    ;
 6442                                 M   ;
 6443 000002B6 016C                   M           MOV.B   @(R0,R6),R1                     ; timmer count start bit LOAD
 6444 000002B8 E201                   M           MOV.B   #BIT0,R2                        ;
 6445 000002BA 3210                   M           CMP/EQ  R1,R2                           ;
 6446 000002BC 8B06                   M           BF      _JMP00000025                    ;
 6447                                 M   
 6448 000002BE 6161                   M           MOV.W   @R6,R1                          ;  timer PV data LOAD
 6449                                 M   
 6450 000002C0 D21E                   M           MOV.L   #1,R2                           ;
 6451 000002C2 0008                   M           CLRT                                    ; T <- 0 CLEAR
 6452 000002C4 312A                   M           SUBC    R2,R1                           ; TIMER PV DATA -1
 6453 000002C6 222A                   M           XOR     R2,R2                           ;
 6454 000002C8 312E                   M           ADDC    R2,R1                           ; counter = FFFF --> 0 set
 6455 000002CA 2611                   M           MOV.W   R1,@R6                          ; TIMER DATA -1 SET
 6456                                 M   ;
 6457 000002CC                        M   _JMP00000025:
 6458                                 M   ;
 6459 000002CC D11C                   M           MOV.L   #4,R1                           ;
 6460 000002CE 361C                   M           ADD     R1,R6                           ; next timer data adr set
 6461                                 M   
 6462                             128             _SEQ_TIM_CNT                            ;27
 6463                                 M   ;
 6464                                 M   ;       ***     TIMMER COUNT DOWN MACRO         ***
 6465                                 M   ;;SAITO MOV.B   @(R0,R6),R1                     ; timmer count start bit LOAD
 6466                                 M   ;;SAITO TST     R1,R1                           ;
 6467                                 M   ;;SAITO BT      _JMP00000026                    ;
 6468                                 M   ;
 6469 000002D0 016C                   M           MOV.B   @(R0,R6),R1                     ; timmer count start bit LOAD
 6470 000002D2 E201                   M           MOV.B   #BIT0,R2                        ;
 6471 000002D4 3210                   M           CMP/EQ  R1,R2                           ;
 6472 000002D6 8B06                   M           BF      _JMP00000026                    ;
 6473                                 M   
*** SuperH RISC engine ASSEMBLER V.7.01.02.000 ***    11/14/21 17:25:06                                                  PAGE    15
PROGRAM NAME =

 6474 000002D8 6161                   M           MOV.W   @R6,R1                          ;  timer PV data LOAD
 6475                                 M   
 6476 000002DA D218                   M           MOV.L   #1,R2                           ;
 6477 000002DC 0008                   M           CLRT                                    ; T <- 0 CLEAR
 6478 000002DE 312A                   M           SUBC    R2,R1                           ; TIMER PV DATA -1
 6479 000002E0 222A                   M           XOR     R2,R2                           ;
 6480 000002E2 312E                   M           ADDC    R2,R1                           ; counter = FFFF --> 0 set
 6481 000002E4 2611                   M           MOV.W   R1,@R6                          ; TIMER DATA -1 SET
 6482                                 M   ;
 6483 000002E6                        M   _JMP00000026:
 6484                                 M   ;
 6485 000002E6 D116                   M           MOV.L   #4,R1                           ;
 6486 000002E8 361C                   M           ADD     R1,R6                           ; next timer data adr set
 6487                                 M   
 6488                             129             _SEQ_TIM_CNT                            ;28
 6489                                 M   ;
 6490                                 M   ;       ***     TIMMER COUNT DOWN MACRO         ***
 6491                                 M   ;;SAITO MOV.B   @(R0,R6),R1                     ; timmer count start bit LOAD
 6492                                 M   ;;SAITO TST     R1,R1                           ;
 6493                                 M   ;;SAITO BT      _JMP00000027                    ;
 6494                                 M   ;
 6495 000002EA 016C                   M           MOV.B   @(R0,R6),R1                     ; timmer count start bit LOAD
 6496 000002EC E201                   M           MOV.B   #BIT0,R2                        ;
 6497 000002EE 3210                   M           CMP/EQ  R1,R2                           ;
 6498 000002F0 8B06                   M           BF      _JMP00000027                    ;
 6499                                 M   
 6500 000002F2 6161                   M           MOV.W   @R6,R1                          ;  timer PV data LOAD
 6501                                 M   
 6502 000002F4 D211                   M           MOV.L   #1,R2                           ;
 6503 000002F6 0008                   M           CLRT                                    ; T <- 0 CLEAR
 6504 000002F8 312A                   M           SUBC    R2,R1                           ; TIMER PV DATA -1
 6505 000002FA 222A                   M           XOR     R2,R2                           ;
 6506 000002FC 312E                   M           ADDC    R2,R1                           ; counter = FFFF --> 0 set
 6507 000002FE 2611                   M           MOV.W   R1,@R6                          ; TIMER DATA -1 SET
 6508                                 M   ;
 6509 00000300                        M   _JMP00000027:
 6510                                 M   ;
 6511 00000300 D10F                   M           MOV.L   #4,R1                           ;
 6512 00000302 361C                   M           ADD     R1,R6                           ; next timer data adr set
 6513                                 M   
 6514                             130             _SEQ_TIM_CNT                            ;29
 6515                                 M   ;
 6516                                 M   ;       ***     TIMMER COUNT DOWN MACRO         ***
 6517                                 M   ;;SAITO MOV.B   @(R0,R6),R1                     ; timmer count start bit LOAD
 6518                                 M   ;;SAITO TST     R1,R1                           ;
 6519                                 M   ;;SAITO BT      _JMP00000028                    ;
 6520                                 M   ;
 6521 00000304 016C                   M           MOV.B   @(R0,R6),R1                     ; timmer count start bit LOAD
 6522 00000306 E201                   M           MOV.B   #BIT0,R2                        ;
 6523 00000308 3210                   M           CMP/EQ  R1,R2                           ;
 6524 0000030A 8B06                   M           BF      _JMP00000028                    ;
 6525                                 M   
 6526 0000030C 6161                   M           MOV.W   @R6,R1                          ;  timer PV data LOAD
 6527                                 M   
 6528 0000030E D20B                   M           MOV.L   #1,R2                           ;
 6529 00000310 0008                   M           CLRT                                    ; T <- 0 CLEAR
 6530 00000312 312A                   M           SUBC    R2,R1                           ; TIMER PV DATA -1
*** SuperH RISC engine ASSEMBLER V.7.01.02.000 ***    11/14/21 17:25:06                                                  PAGE    16
PROGRAM NAME =

 6531 00000314 222A                   M           XOR     R2,R2                           ;
 6532 00000316 312E                   M           ADDC    R2,R1                           ; counter = FFFF --> 0 set
 6533 00000318 2611                   M           MOV.W   R1,@R6                          ; TIMER DATA -1 SET
 6534                                 M   ;
 6535 0000031A                        M   _JMP00000028:
 6536                                 M   ;
 6537 0000031A D109                   M           MOV.L   #4,R1                           ;
 6538 0000031C 361C                   M           ADD     R1,R6                           ; next timer data adr set
 6539                                 M   
 6540                             131             _SEQ_TIM_CNT                            ;30
 6541                                 M   ;
 6542                                 M   ;       ***     TIMMER COUNT DOWN MACRO         ***
 6543                                 M   ;;SAITO MOV.B   @(R0,R6),R1                     ; timmer count start bit LOAD
 6544                                 M   ;;SAITO TST     R1,R1                           ;
 6545                                 M   ;;SAITO BT      _JMP00000029                    ;
 6546                                 M   ;
 6547 0000031E 016C                   M           MOV.B   @(R0,R6),R1                     ; timmer count start bit LOAD
 6548 00000320 E201                   M           MOV.B   #BIT0,R2                        ;
 6549 00000322 3210                   M           CMP/EQ  R1,R2                           ;
 6550 00000324 8B06                   M           BF      _JMP00000029                    ;
 6551                                 M   
 6552 00000326 6161                   M           MOV.W   @R6,R1                          ;  timer PV data LOAD
 6553                                 M   
 6554 00000328 D204                   M           MOV.L   #1,R2                           ;
 6555 0000032A 0008                   M           CLRT                                    ; T <- 0 CLEAR
 6556 0000032C 312A                   M           SUBC    R2,R1                           ; TIMER PV DATA -1
 6557 0000032E 222A                   M           XOR     R2,R2                           ;
 6558 00000330 312E                   M           ADDC    R2,R1                           ; counter = FFFF --> 0 set
 6559 00000332 2611                   M           MOV.W   R1,@R6                          ; TIMER DATA -1 SET
 6560                                 M   ;
 6561 00000334                        M   _JMP00000029:
 6562                                 M   ;
 6563 00000334 D102                   M           MOV.L   #4,R1                           ;
 6564 00000336 361C                   M           ADD     R1,R6                           ; next timer data adr set
 6565                                 M   
 6566                             132     
 6567                             133             M_BRA   _SEQ_INT_TM10MS_030             ;
 6568 00000338 A004                   M           BRA     _SEQ_INT_TM10MS_030
 6569 0000033A 0009                   M           NOP
 6570                             134     
 6571                                     ***** BEGIN-POOL *****
 6572 0000033C 00000001                   DATA FOR SOURCE-LINE 122,123,124,125,126,127,128,129,130,131
 6573 00000340 00000004                   DATA FOR SOURCE-LINE 122,123,124,125,126,127,128,129,130,131
 6574                                     ***** END-POOL *****
 6575 00000344                    135     _SEQ_INT_TM10MS_030:
 6576                             136             _SEQ_TIM_CNT                            ;31
 6577                                 M   ;
 6578                                 M   ;       ***     TIMMER COUNT DOWN MACRO         ***
 6579                                 M   ;;SAITO MOV.B   @(R0,R6),R1                     ; timmer count start bit LOAD
 6580                                 M   ;;SAITO TST     R1,R1                           ;
 6581                                 M   ;;SAITO BT      _JMP00000030                    ;
 6582                                 M   ;
 6583 00000344 016C                   M           MOV.B   @(R0,R6),R1                     ; timmer count start bit LOAD
 6584 00000346 E201                   M           MOV.B   #BIT0,R2                        ;
 6585 00000348 3210                   M           CMP/EQ  R1,R2                           ;
 6586 0000034A 8B06                   M           BF      _JMP00000030                    ;
 6587                                 M   
*** SuperH RISC engine ASSEMBLER V.7.01.02.000 ***    11/14/21 17:25:06                                                  PAGE    17
PROGRAM NAME =

 6588 0000034C 6161                   M           MOV.W   @R6,R1                          ;  timer PV data LOAD
 6589                                 M   
 6590 0000034E D23F                   M           MOV.L   #1,R2                           ;
 6591 00000350 0008                   M           CLRT                                    ; T <- 0 CLEAR
 6592 00000352 312A                   M           SUBC    R2,R1                           ; TIMER PV DATA -1
 6593 00000354 222A                   M           XOR     R2,R2                           ;
 6594 00000356 312E                   M           ADDC    R2,R1                           ; counter = FFFF --> 0 set
 6595 00000358 2611                   M           MOV.W   R1,@R6                          ; TIMER DATA -1 SET
 6596                                 M   ;
 6597 0000035A                        M   _JMP00000030:
 6598                                 M   ;
 6599 0000035A D13D                   M           MOV.L   #4,R1                           ;
 6600 0000035C 361C                   M           ADD     R1,R6                           ; next timer data adr set
 6601                                 M   
 6602                             137             _SEQ_TIM_CNT                            ;32
 6603                                 M   ;
 6604                                 M   ;       ***     TIMMER COUNT DOWN MACRO         ***
 6605                                 M   ;;SAITO MOV.B   @(R0,R6),R1                     ; timmer count start bit LOAD
 6606                                 M   ;;SAITO TST     R1,R1                           ;
 6607                                 M   ;;SAITO BT      _JMP00000031                    ;
 6608                                 M   ;
 6609 0000035E 016C                   M           MOV.B   @(R0,R6),R1                     ; timmer count start bit LOAD
 6610 00000360 E201                   M           MOV.B   #BIT0,R2                        ;
 6611 00000362 3210                   M           CMP/EQ  R1,R2                           ;
 6612 00000364 8B06                   M           BF      _JMP00000031                    ;
 6613                                 M   
 6614 00000366 6161                   M           MOV.W   @R6,R1                          ;  timer PV data LOAD
 6615                                 M   
 6616 00000368 D238                   M           MOV.L   #1,R2                           ;
 6617 0000036A 0008                   M           CLRT                                    ; T <- 0 CLEAR
 6618 0000036C 312A                   M           SUBC    R2,R1                           ; TIMER PV DATA -1
 6619 0000036E 222A                   M           XOR     R2,R2                           ;
 6620 00000370 312E                   M           ADDC    R2,R1                           ; counter = FFFF --> 0 set
 6621 00000372 2611                   M           MOV.W   R1,@R6                          ; TIMER DATA -1 SET
 6622                                 M   ;
 6623 00000374                        M   _JMP00000031:
 6624                                 M   ;
 6625 00000374 D136                   M           MOV.L   #4,R1                           ;
 6626 00000376 361C                   M           ADD     R1,R6                           ; next timer data adr set
 6627                                 M   
 6628                             138             _SEQ_TIM_CNT                            ;33
 6629                                 M   ;
 6630                                 M   ;       ***     TIMMER COUNT DOWN MACRO         ***
 6631                                 M   ;;SAITO MOV.B   @(R0,R6),R1                     ; timmer count start bit LOAD
 6632                                 M   ;;SAITO TST     R1,R1                           ;
 6633                                 M   ;;SAITO BT      _JMP00000032                    ;
 6634                                 M   ;
 6635 00000378 016C                   M           MOV.B   @(R0,R6),R1                     ; timmer count start bit LOAD
 6636 0000037A E201                   M           MOV.B   #BIT0,R2                        ;
 6637 0000037C 3210                   M           CMP/EQ  R1,R2                           ;
 6638 0000037E 8B06                   M           BF      _JMP00000032                    ;
 6639                                 M   
 6640 00000380 6161                   M           MOV.W   @R6,R1                          ;  timer PV data LOAD
 6641                                 M   
 6642 00000382 D232                   M           MOV.L   #1,R2                           ;
 6643 00000384 0008                   M           CLRT                                    ; T <- 0 CLEAR
 6644 00000386 312A                   M           SUBC    R2,R1                           ; TIMER PV DATA -1
*** SuperH RISC engine ASSEMBLER V.7.01.02.000 ***    11/14/21 17:25:06                                                  PAGE    18
PROGRAM NAME =

 6645 00000388 222A                   M           XOR     R2,R2                           ;
 6646 0000038A 312E                   M           ADDC    R2,R1                           ; counter = FFFF --> 0 set
 6647 0000038C 2611                   M           MOV.W   R1,@R6                          ; TIMER DATA -1 SET
 6648                                 M   ;
 6649 0000038E                        M   _JMP00000032:
 6650                                 M   ;
 6651 0000038E D130                   M           MOV.L   #4,R1                           ;
 6652 00000390 361C                   M           ADD     R1,R6                           ; next timer data adr set
 6653                                 M   
 6654                             139             _SEQ_TIM_CNT                            ;34
 6655                                 M   ;
 6656                                 M   ;       ***     TIMMER COUNT DOWN MACRO         ***
 6657                                 M   ;;SAITO MOV.B   @(R0,R6),R1                     ; timmer count start bit LOAD
 6658                                 M   ;;SAITO TST     R1,R1                           ;
 6659                                 M   ;;SAITO BT      _JMP00000033                    ;
 6660                                 M   ;
 6661 00000392 016C                   M           MOV.B   @(R0,R6),R1                     ; timmer count start bit LOAD
 6662 00000394 E201                   M           MOV.B   #BIT0,R2                        ;
 6663 00000396 3210                   M           CMP/EQ  R1,R2                           ;
 6664 00000398 8B06                   M           BF      _JMP00000033                    ;
 6665                                 M   
 6666 0000039A 6161                   M           MOV.W   @R6,R1                          ;  timer PV data LOAD
 6667                                 M   
 6668 0000039C D22B                   M           MOV.L   #1,R2                           ;
 6669 0000039E 0008                   M           CLRT                                    ; T <- 0 CLEAR
 6670 000003A0 312A                   M           SUBC    R2,R1                           ; TIMER PV DATA -1
 6671 000003A2 222A                   M           XOR     R2,R2                           ;
 6672 000003A4 312E                   M           ADDC    R2,R1                           ; counter = FFFF --> 0 set
 6673 000003A6 2611                   M           MOV.W   R1,@R6                          ; TIMER DATA -1 SET
 6674                                 M   ;
 6675 000003A8                        M   _JMP00000033:
 6676                                 M   ;
 6677 000003A8 D129                   M           MOV.L   #4,R1                           ;
 6678 000003AA 361C                   M           ADD     R1,R6                           ; next timer data adr set
 6679                                 M   
 6680                             140             _SEQ_TIM_CNT                            ;35
 6681                                 M   ;
 6682                                 M   ;       ***     TIMMER COUNT DOWN MACRO         ***
 6683                                 M   ;;SAITO MOV.B   @(R0,R6),R1                     ; timmer count start bit LOAD
 6684                                 M   ;;SAITO TST     R1,R1                           ;
 6685                                 M   ;;SAITO BT      _JMP00000034                    ;
 6686                                 M   ;
 6687 000003AC 016C                   M           MOV.B   @(R0,R6),R1                     ; timmer count start bit LOAD
 6688 000003AE E201                   M           MOV.B   #BIT0,R2                        ;
 6689 000003B0 3210                   M           CMP/EQ  R1,R2                           ;
 6690 000003B2 8B06                   M           BF      _JMP00000034                    ;
 6691                                 M   
 6692 000003B4 6161                   M           MOV.W   @R6,R1                          ;  timer PV data LOAD
 6693                                 M   
 6694 000003B6 D225                   M           MOV.L   #1,R2                           ;
 6695 000003B8 0008                   M           CLRT                                    ; T <- 0 CLEAR
 6696 000003BA 312A                   M           SUBC    R2,R1                           ; TIMER PV DATA -1
 6697 000003BC 222A                   M           XOR     R2,R2                           ;
 6698 000003BE 312E                   M           ADDC    R2,R1                           ; counter = FFFF --> 0 set
 6699 000003C0 2611                   M           MOV.W   R1,@R6                          ; TIMER DATA -1 SET
 6700                                 M   ;
 6701 000003C2                        M   _JMP00000034:
*** SuperH RISC engine ASSEMBLER V.7.01.02.000 ***    11/14/21 17:25:06                                                  PAGE    19
PROGRAM NAME =

 6702                                 M   ;
 6703 000003C2 D123                   M           MOV.L   #4,R1                           ;
 6704 000003C4 361C                   M           ADD     R1,R6                           ; next timer data adr set
 6705                                 M   
 6706                             141             _SEQ_TIM_CNT                            ;36
 6707                                 M   ;
 6708                                 M   ;       ***     TIMMER COUNT DOWN MACRO         ***
 6709                                 M   ;;SAITO MOV.B   @(R0,R6),R1                     ; timmer count start bit LOAD
 6710                                 M   ;;SAITO TST     R1,R1                           ;
 6711                                 M   ;;SAITO BT      _JMP00000035                    ;
 6712                                 M   ;
 6713 000003C6 016C                   M           MOV.B   @(R0,R6),R1                     ; timmer count start bit LOAD
 6714 000003C8 E201                   M           MOV.B   #BIT0,R2                        ;
 6715 000003CA 3210                   M           CMP/EQ  R1,R2                           ;
 6716 000003CC 8B06                   M           BF      _JMP00000035                    ;
 6717                                 M   
 6718 000003CE 6161                   M           MOV.W   @R6,R1                          ;  timer PV data LOAD
 6719                                 M   
 6720 000003D0 D21E                   M           MOV.L   #1,R2                           ;
 6721 000003D2 0008                   M           CLRT                                    ; T <- 0 CLEAR
 6722 000003D4 312A                   M           SUBC    R2,R1                           ; TIMER PV DATA -1
 6723 000003D6 222A                   M           XOR     R2,R2                           ;
 6724 000003D8 312E                   M           ADDC    R2,R1                           ; counter = FFFF --> 0 set
 6725 000003DA 2611                   M           MOV.W   R1,@R6                          ; TIMER DATA -1 SET
 6726                                 M   ;
 6727 000003DC                        M   _JMP00000035:
 6728                                 M   ;
 6729 000003DC D11C                   M           MOV.L   #4,R1                           ;
 6730 000003DE 361C                   M           ADD     R1,R6                           ; next timer data adr set
 6731                                 M   
 6732                             142             _SEQ_TIM_CNT                            ;37
 6733                                 M   ;
 6734                                 M   ;       ***     TIMMER COUNT DOWN MACRO         ***
 6735                                 M   ;;SAITO MOV.B   @(R0,R6),R1                     ; timmer count start bit LOAD
 6736                                 M   ;;SAITO TST     R1,R1                           ;
 6737                                 M   ;;SAITO BT      _JMP00000036                    ;
 6738                                 M   ;
 6739 000003E0 016C                   M           MOV.B   @(R0,R6),R1                     ; timmer count start bit LOAD
 6740 000003E2 E201                   M           MOV.B   #BIT0,R2                        ;
 6741 000003E4 3210                   M           CMP/EQ  R1,R2                           ;
 6742 000003E6 8B06                   M           BF      _JMP00000036                    ;
 6743                                 M   
 6744 000003E8 6161                   M           MOV.W   @R6,R1                          ;  timer PV data LOAD
 6745                                 M   
 6746 000003EA D218                   M           MOV.L   #1,R2                           ;
 6747 000003EC 0008                   M           CLRT                                    ; T <- 0 CLEAR
 6748 000003EE 312A                   M           SUBC    R2,R1                           ; TIMER PV DATA -1
 6749 000003F0 222A                   M           XOR     R2,R2                           ;
 6750 000003F2 312E                   M           ADDC    R2,R1                           ; counter = FFFF --> 0 set
 6751 000003F4 2611                   M           MOV.W   R1,@R6                          ; TIMER DATA -1 SET
 6752                                 M   ;
 6753 000003F6                        M   _JMP00000036:
 6754                                 M   ;
 6755 000003F6 D116                   M           MOV.L   #4,R1                           ;
 6756 000003F8 361C                   M           ADD     R1,R6                           ; next timer data adr set
 6757                                 M   
 6758                             143             _SEQ_TIM_CNT                            ;38
*** SuperH RISC engine ASSEMBLER V.7.01.02.000 ***    11/14/21 17:25:06                                                  PAGE    20
PROGRAM NAME =

 6759                                 M   ;
 6760                                 M   ;       ***     TIMMER COUNT DOWN MACRO         ***
 6761                                 M   ;;SAITO MOV.B   @(R0,R6),R1                     ; timmer count start bit LOAD
 6762                                 M   ;;SAITO TST     R1,R1                           ;
 6763                                 M   ;;SAITO BT      _JMP00000037                    ;
 6764                                 M   ;
 6765 000003FA 016C                   M           MOV.B   @(R0,R6),R1                     ; timmer count start bit LOAD
 6766 000003FC E201                   M           MOV.B   #BIT0,R2                        ;
 6767 000003FE 3210                   M           CMP/EQ  R1,R2                           ;
 6768 00000400 8B06                   M           BF      _JMP00000037                    ;
 6769                                 M   
 6770 00000402 6161                   M           MOV.W   @R6,R1                          ;  timer PV data LOAD
 6771                                 M   
 6772 00000404 D211                   M           MOV.L   #1,R2                           ;
 6773 00000406 0008                   M           CLRT                                    ; T <- 0 CLEAR
 6774 00000408 312A                   M           SUBC    R2,R1                           ; TIMER PV DATA -1
 6775 0000040A 222A                   M           XOR     R2,R2                           ;
 6776 0000040C 312E                   M           ADDC    R2,R1                           ; counter = FFFF --> 0 set
 6777 0000040E 2611                   M           MOV.W   R1,@R6                          ; TIMER DATA -1 SET
 6778                                 M   ;
 6779 00000410                        M   _JMP00000037:
 6780                                 M   ;
 6781 00000410 D10F                   M           MOV.L   #4,R1                           ;
 6782 00000412 361C                   M           ADD     R1,R6                           ; next timer data adr set
 6783                                 M   
 6784                             144             _SEQ_TIM_CNT                            ;39
 6785                                 M   ;
 6786                                 M   ;       ***     TIMMER COUNT DOWN MACRO         ***
 6787                                 M   ;;SAITO MOV.B   @(R0,R6),R1                     ; timmer count start bit LOAD
 6788                                 M   ;;SAITO TST     R1,R1                           ;
 6789                                 M   ;;SAITO BT      _JMP00000038                    ;
 6790                                 M   ;
 6791 00000414 016C                   M           MOV.B   @(R0,R6),R1                     ; timmer count start bit LOAD
 6792 00000416 E201                   M           MOV.B   #BIT0,R2                        ;
 6793 00000418 3210                   M           CMP/EQ  R1,R2                           ;
 6794 0000041A 8B06                   M           BF      _JMP00000038                    ;
 6795                                 M   
 6796 0000041C 6161                   M           MOV.W   @R6,R1                          ;  timer PV data LOAD
 6797                                 M   
 6798 0000041E D20B                   M           MOV.L   #1,R2                           ;
 6799 00000420 0008                   M           CLRT                                    ; T <- 0 CLEAR
 6800 00000422 312A                   M           SUBC    R2,R1                           ; TIMER PV DATA -1
 6801 00000424 222A                   M           XOR     R2,R2                           ;
 6802 00000426 312E                   M           ADDC    R2,R1                           ; counter = FFFF --> 0 set
 6803 00000428 2611                   M           MOV.W   R1,@R6                          ; TIMER DATA -1 SET
 6804                                 M   ;
 6805 0000042A                        M   _JMP00000038:
 6806                                 M   ;
 6807 0000042A D109                   M           MOV.L   #4,R1                           ;
 6808 0000042C 361C                   M           ADD     R1,R6                           ; next timer data adr set
 6809                                 M   
 6810                             145             _SEQ_TIM_CNT                            ;40
 6811                                 M   ;
 6812                                 M   ;       ***     TIMMER COUNT DOWN MACRO         ***
 6813                                 M   ;;SAITO MOV.B   @(R0,R6),R1                     ; timmer count start bit LOAD
 6814                                 M   ;;SAITO TST     R1,R1                           ;
 6815                                 M   ;;SAITO BT      _JMP00000039                    ;
*** SuperH RISC engine ASSEMBLER V.7.01.02.000 ***    11/14/21 17:25:06                                                  PAGE    21
PROGRAM NAME =

 6816                                 M   ;
 6817 0000042E 016C                   M           MOV.B   @(R0,R6),R1                     ; timmer count start bit LOAD
 6818 00000430 E201                   M           MOV.B   #BIT0,R2                        ;
 6819 00000432 3210                   M           CMP/EQ  R1,R2                           ;
 6820 00000434 8B06                   M           BF      _JMP00000039                    ;
 6821                                 M   
 6822 00000436 6161                   M           MOV.W   @R6,R1                          ;  timer PV data LOAD
 6823                                 M   
 6824 00000438 D204                   M           MOV.L   #1,R2                           ;
 6825 0000043A 0008                   M           CLRT                                    ; T <- 0 CLEAR
 6826 0000043C 312A                   M           SUBC    R2,R1                           ; TIMER PV DATA -1
 6827 0000043E 222A                   M           XOR     R2,R2                           ;
 6828 00000440 312E                   M           ADDC    R2,R1                           ; counter = FFFF --> 0 set
 6829 00000442 2611                   M           MOV.W   R1,@R6                          ; TIMER DATA -1 SET
 6830                                 M   ;
 6831 00000444                        M   _JMP00000039:
 6832                                 M   ;
 6833 00000444 D102                   M           MOV.L   #4,R1                           ;
 6834 00000446 361C                   M           ADD     R1,R6                           ; next timer data adr set
 6835                                 M   
 6836                             146     
 6837                             147             M_BRA   _SEQ_INT_TM10MS_040             ;
 6838 00000448 A004                   M           BRA     _SEQ_INT_TM10MS_040
 6839 0000044A 0009                   M           NOP
 6840                             148     
 6841                                     ***** BEGIN-POOL *****
 6842 0000044C 00000001                   DATA FOR SOURCE-LINE 136,137,138,139,140,141,142,143,144,145
 6843 00000450 00000004                   DATA FOR SOURCE-LINE 136,137,138,139,140,141,142,143,144,145
 6844                                     ***** END-POOL *****
 6845 00000454                    149     _SEQ_INT_TM10MS_040:
 6846                             150             _SEQ_TIM_CNT                            ;41
 6847                                 M   ;
 6848                                 M   ;       ***     TIMMER COUNT DOWN MACRO         ***
 6849                                 M   ;;SAITO MOV.B   @(R0,R6),R1                     ; timmer count start bit LOAD
 6850                                 M   ;;SAITO TST     R1,R1                           ;
 6851                                 M   ;;SAITO BT      _JMP00000040                    ;
 6852                                 M   ;
 6853 00000454 016C                   M           MOV.B   @(R0,R6),R1                     ; timmer count start bit LOAD
 6854 00000456 E201                   M           MOV.B   #BIT0,R2                        ;
 6855 00000458 3210                   M           CMP/EQ  R1,R2                           ;
 6856 0000045A 8B06                   M           BF      _JMP00000040                    ;
 6857                                 M   
 6858 0000045C 6161                   M           MOV.W   @R6,R1                          ;  timer PV data LOAD
 6859                                 M   
 6860 0000045E D23F                   M           MOV.L   #1,R2                           ;
 6861 00000460 0008                   M           CLRT                                    ; T <- 0 CLEAR
 6862 00000462 312A                   M           SUBC    R2,R1                           ; TIMER PV DATA -1
 6863 00000464 222A                   M           XOR     R2,R2                           ;
 6864 00000466 312E                   M           ADDC    R2,R1                           ; counter = FFFF --> 0 set
 6865 00000468 2611                   M           MOV.W   R1,@R6                          ; TIMER DATA -1 SET
 6866                                 M   ;
 6867 0000046A                        M   _JMP00000040:
 6868                                 M   ;
 6869 0000046A D13D                   M           MOV.L   #4,R1                           ;
 6870 0000046C 361C                   M           ADD     R1,R6                           ; next timer data adr set
 6871                                 M   
 6872                             151             _SEQ_TIM_CNT                            ;42
*** SuperH RISC engine ASSEMBLER V.7.01.02.000 ***    11/14/21 17:25:06                                                  PAGE    22
PROGRAM NAME =

 6873                                 M   ;
 6874                                 M   ;       ***     TIMMER COUNT DOWN MACRO         ***
 6875                                 M   ;;SAITO MOV.B   @(R0,R6),R1                     ; timmer count start bit LOAD
 6876                                 M   ;;SAITO TST     R1,R1                           ;
 6877                                 M   ;;SAITO BT      _JMP00000041                    ;
 6878                                 M   ;
 6879 0000046E 016C                   M           MOV.B   @(R0,R6),R1                     ; timmer count start bit LOAD
 6880 00000470 E201                   M           MOV.B   #BIT0,R2                        ;
 6881 00000472 3210                   M           CMP/EQ  R1,R2                           ;
 6882 00000474 8B06                   M           BF      _JMP00000041                    ;
 6883                                 M   
 6884 00000476 6161                   M           MOV.W   @R6,R1                          ;  timer PV data LOAD
 6885                                 M   
 6886 00000478 D238                   M           MOV.L   #1,R2                           ;
 6887 0000047A 0008                   M           CLRT                                    ; T <- 0 CLEAR
 6888 0000047C 312A                   M           SUBC    R2,R1                           ; TIMER PV DATA -1
 6889 0000047E 222A                   M           XOR     R2,R2                           ;
 6890 00000480 312E                   M           ADDC    R2,R1                           ; counter = FFFF --> 0 set
 6891 00000482 2611                   M           MOV.W   R1,@R6                          ; TIMER DATA -1 SET
 6892                                 M   ;
 6893 00000484                        M   _JMP00000041:
 6894                                 M   ;
 6895 00000484 D136                   M           MOV.L   #4,R1                           ;
 6896 00000486 361C                   M           ADD     R1,R6                           ; next timer data adr set
 6897                                 M   
 6898                             152             _SEQ_TIM_CNT                            ;43
 6899                                 M   ;
 6900                                 M   ;       ***     TIMMER COUNT DOWN MACRO         ***
 6901                                 M   ;;SAITO MOV.B   @(R0,R6),R1                     ; timmer count start bit LOAD
 6902                                 M   ;;SAITO TST     R1,R1                           ;
 6903                                 M   ;;SAITO BT      _JMP00000042                    ;
 6904                                 M   ;
 6905 00000488 016C                   M           MOV.B   @(R0,R6),R1                     ; timmer count start bit LOAD
 6906 0000048A E201                   M           MOV.B   #BIT0,R2                        ;
 6907 0000048C 3210                   M           CMP/EQ  R1,R2                           ;
 6908 0000048E 8B06                   M           BF      _JMP00000042                    ;
 6909                                 M   
 6910 00000490 6161                   M           MOV.W   @R6,R1                          ;  timer PV data LOAD
 6911                                 M   
 6912 00000492 D232                   M           MOV.L   #1,R2                           ;
 6913 00000494 0008                   M           CLRT                                    ; T <- 0 CLEAR
 6914 00000496 312A                   M           SUBC    R2,R1                           ; TIMER PV DATA -1
 6915 00000498 222A                   M           XOR     R2,R2                           ;
 6916 0000049A 312E                   M           ADDC    R2,R1                           ; counter = FFFF --> 0 set
 6917 0000049C 2611                   M           MOV.W   R1,@R6                          ; TIMER DATA -1 SET
 6918                                 M   ;
 6919 0000049E                        M   _JMP00000042:
 6920                                 M   ;
 6921 0000049E D130                   M           MOV.L   #4,R1                           ;
 6922 000004A0 361C                   M           ADD     R1,R6                           ; next timer data adr set
 6923                                 M   
 6924                             153             _SEQ_TIM_CNT                            ;44
 6925                                 M   ;
 6926                                 M   ;       ***     TIMMER COUNT DOWN MACRO         ***
 6927                                 M   ;;SAITO MOV.B   @(R0,R6),R1                     ; timmer count start bit LOAD
 6928                                 M   ;;SAITO TST     R1,R1                           ;
 6929                                 M   ;;SAITO BT      _JMP00000043                    ;
*** SuperH RISC engine ASSEMBLER V.7.01.02.000 ***    11/14/21 17:25:06                                                  PAGE    23
PROGRAM NAME =

 6930                                 M   ;
 6931 000004A2 016C                   M           MOV.B   @(R0,R6),R1                     ; timmer count start bit LOAD
 6932 000004A4 E201                   M           MOV.B   #BIT0,R2                        ;
 6933 000004A6 3210                   M           CMP/EQ  R1,R2                           ;
 6934 000004A8 8B06                   M           BF      _JMP00000043                    ;
 6935                                 M   
 6936 000004AA 6161                   M           MOV.W   @R6,R1                          ;  timer PV data LOAD
 6937                                 M   
 6938 000004AC D22B                   M           MOV.L   #1,R2                           ;
 6939 000004AE 0008                   M           CLRT                                    ; T <- 0 CLEAR
 6940 000004B0 312A                   M           SUBC    R2,R1                           ; TIMER PV DATA -1
 6941 000004B2 222A                   M           XOR     R2,R2                           ;
 6942 000004B4 312E                   M           ADDC    R2,R1                           ; counter = FFFF --> 0 set
 6943 000004B6 2611                   M           MOV.W   R1,@R6                          ; TIMER DATA -1 SET
 6944                                 M   ;
 6945 000004B8                        M   _JMP00000043:
 6946                                 M   ;
 6947 000004B8 D129                   M           MOV.L   #4,R1                           ;
 6948 000004BA 361C                   M           ADD     R1,R6                           ; next timer data adr set
 6949                                 M   
 6950                             154             _SEQ_TIM_CNT                            ;45
 6951                                 M   ;
 6952                                 M   ;       ***     TIMMER COUNT DOWN MACRO         ***
 6953                                 M   ;;SAITO MOV.B   @(R0,R6),R1                     ; timmer count start bit LOAD
 6954                                 M   ;;SAITO TST     R1,R1                           ;
 6955                                 M   ;;SAITO BT      _JMP00000044                    ;
 6956                                 M   ;
 6957 000004BC 016C                   M           MOV.B   @(R0,R6),R1                     ; timmer count start bit LOAD
 6958 000004BE E201                   M           MOV.B   #BIT0,R2                        ;
 6959 000004C0 3210                   M           CMP/EQ  R1,R2                           ;
 6960 000004C2 8B06                   M           BF      _JMP00000044                    ;
 6961                                 M   
 6962 000004C4 6161                   M           MOV.W   @R6,R1                          ;  timer PV data LOAD
 6963                                 M   
 6964 000004C6 D225                   M           MOV.L   #1,R2                           ;
 6965 000004C8 0008                   M           CLRT                                    ; T <- 0 CLEAR
 6966 000004CA 312A                   M           SUBC    R2,R1                           ; TIMER PV DATA -1
 6967 000004CC 222A                   M           XOR     R2,R2                           ;
 6968 000004CE 312E                   M           ADDC    R2,R1                           ; counter = FFFF --> 0 set
 6969 000004D0 2611                   M           MOV.W   R1,@R6                          ; TIMER DATA -1 SET
 6970                                 M   ;
 6971 000004D2                        M   _JMP00000044:
 6972                                 M   ;
 6973 000004D2 D123                   M           MOV.L   #4,R1                           ;
 6974 000004D4 361C                   M           ADD     R1,R6                           ; next timer data adr set
 6975                                 M   
 6976                             155             _SEQ_TIM_CNT                            ;46
 6977                                 M   ;
 6978                                 M   ;       ***     TIMMER COUNT DOWN MACRO         ***
 6979                                 M   ;;SAITO MOV.B   @(R0,R6),R1                     ; timmer count start bit LOAD
 6980                                 M   ;;SAITO TST     R1,R1                           ;
 6981                                 M   ;;SAITO BT      _JMP00000045                    ;
 6982                                 M   ;
 6983 000004D6 016C                   M           MOV.B   @(R0,R6),R1                     ; timmer count start bit LOAD
 6984 000004D8 E201                   M           MOV.B   #BIT0,R2                        ;
 6985 000004DA 3210                   M           CMP/EQ  R1,R2                           ;
 6986 000004DC 8B06                   M           BF      _JMP00000045                    ;
*** SuperH RISC engine ASSEMBLER V.7.01.02.000 ***    11/14/21 17:25:06                                                  PAGE    24
PROGRAM NAME =

 6987                                 M   
 6988 000004DE 6161                   M           MOV.W   @R6,R1                          ;  timer PV data LOAD
 6989                                 M   
 6990 000004E0 D21E                   M           MOV.L   #1,R2                           ;
 6991 000004E2 0008                   M           CLRT                                    ; T <- 0 CLEAR
 6992 000004E4 312A                   M           SUBC    R2,R1                           ; TIMER PV DATA -1
 6993 000004E6 222A                   M           XOR     R2,R2                           ;
 6994 000004E8 312E                   M           ADDC    R2,R1                           ; counter = FFFF --> 0 set
 6995 000004EA 2611                   M           MOV.W   R1,@R6                          ; TIMER DATA -1 SET
 6996                                 M   ;
 6997 000004EC                        M   _JMP00000045:
 6998                                 M   ;
 6999 000004EC D11C                   M           MOV.L   #4,R1                           ;
 7000 000004EE 361C                   M           ADD     R1,R6                           ; next timer data adr set
 7001                                 M   
 7002                             156             _SEQ_TIM_CNT                            ;47
 7003                                 M   ;
 7004                                 M   ;       ***     TIMMER COUNT DOWN MACRO         ***
 7005                                 M   ;;SAITO MOV.B   @(R0,R6),R1                     ; timmer count start bit LOAD
 7006                                 M   ;;SAITO TST     R1,R1                           ;
 7007                                 M   ;;SAITO BT      _JMP00000046                    ;
 7008                                 M   ;
 7009 000004F0 016C                   M           MOV.B   @(R0,R6),R1                     ; timmer count start bit LOAD
 7010 000004F2 E201                   M           MOV.B   #BIT0,R2                        ;
 7011 000004F4 3210                   M           CMP/EQ  R1,R2                           ;
 7012 000004F6 8B06                   M           BF      _JMP00000046                    ;
 7013                                 M   
 7014 000004F8 6161                   M           MOV.W   @R6,R1                          ;  timer PV data LOAD
 7015                                 M   
 7016 000004FA D218                   M           MOV.L   #1,R2                           ;
 7017 000004FC 0008                   M           CLRT                                    ; T <- 0 CLEAR
 7018 000004FE 312A                   M           SUBC    R2,R1                           ; TIMER PV DATA -1
 7019 00000500 222A                   M           XOR     R2,R2                           ;
 7020 00000502 312E                   M           ADDC    R2,R1                           ; counter = FFFF --> 0 set
 7021 00000504 2611                   M           MOV.W   R1,@R6                          ; TIMER DATA -1 SET
 7022                                 M   ;
 7023 00000506                        M   _JMP00000046:
 7024                                 M   ;
 7025 00000506 D116                   M           MOV.L   #4,R1                           ;
 7026 00000508 361C                   M           ADD     R1,R6                           ; next timer data adr set
 7027                                 M   
 7028                             157             _SEQ_TIM_CNT                            ;48
 7029                                 M   ;
 7030                                 M   ;       ***     TIMMER COUNT DOWN MACRO         ***
 7031                                 M   ;;SAITO MOV.B   @(R0,R6),R1                     ; timmer count start bit LOAD
 7032                                 M   ;;SAITO TST     R1,R1                           ;
 7033                                 M   ;;SAITO BT      _JMP00000047                    ;
 7034                                 M   ;
 7035 0000050A 016C                   M           MOV.B   @(R0,R6),R1                     ; timmer count start bit LOAD
 7036 0000050C E201                   M           MOV.B   #BIT0,R2                        ;
 7037 0000050E 3210                   M           CMP/EQ  R1,R2                           ;
 7038 00000510 8B06                   M           BF      _JMP00000047                    ;
 7039                                 M   
 7040 00000512 6161                   M           MOV.W   @R6,R1                          ;  timer PV data LOAD
 7041                                 M   
 7042 00000514 D211                   M           MOV.L   #1,R2                           ;
 7043 00000516 0008                   M           CLRT                                    ; T <- 0 CLEAR
*** SuperH RISC engine ASSEMBLER V.7.01.02.000 ***    11/14/21 17:25:06                                                  PAGE    25
PROGRAM NAME =

 7044 00000518 312A                   M           SUBC    R2,R1                           ; TIMER PV DATA -1
 7045 0000051A 222A                   M           XOR     R2,R2                           ;
 7046 0000051C 312E                   M           ADDC    R2,R1                           ; counter = FFFF --> 0 set
 7047 0000051E 2611                   M           MOV.W   R1,@R6                          ; TIMER DATA -1 SET
 7048                                 M   ;
 7049 00000520                        M   _JMP00000047:
 7050                                 M   ;
 7051 00000520 D10F                   M           MOV.L   #4,R1                           ;
 7052 00000522 361C                   M           ADD     R1,R6                           ; next timer data adr set
 7053                                 M   
 7054                             158             _SEQ_TIM_CNT                            ;49
 7055                                 M   ;
 7056                                 M   ;       ***     TIMMER COUNT DOWN MACRO         ***
 7057                                 M   ;;SAITO MOV.B   @(R0,R6),R1                     ; timmer count start bit LOAD
 7058                                 M   ;;SAITO TST     R1,R1                           ;
 7059                                 M   ;;SAITO BT      _JMP00000048                    ;
 7060                                 M   ;
 7061 00000524 016C                   M           MOV.B   @(R0,R6),R1                     ; timmer count start bit LOAD
 7062 00000526 E201                   M           MOV.B   #BIT0,R2                        ;
 7063 00000528 3210                   M           CMP/EQ  R1,R2                           ;
 7064 0000052A 8B06                   M           BF      _JMP00000048                    ;
 7065                                 M   
 7066 0000052C 6161                   M           MOV.W   @R6,R1                          ;  timer PV data LOAD
 7067                                 M   
 7068 0000052E D20B                   M           MOV.L   #1,R2                           ;
 7069 00000530 0008                   M           CLRT                                    ; T <- 0 CLEAR
 7070 00000532 312A                   M           SUBC    R2,R1                           ; TIMER PV DATA -1
 7071 00000534 222A                   M           XOR     R2,R2                           ;
 7072 00000536 312E                   M           ADDC    R2,R1                           ; counter = FFFF --> 0 set
 7073 00000538 2611                   M           MOV.W   R1,@R6                          ; TIMER DATA -1 SET
 7074                                 M   ;
 7075 0000053A                        M   _JMP00000048:
 7076                                 M   ;
 7077 0000053A D109                   M           MOV.L   #4,R1                           ;
 7078 0000053C 361C                   M           ADD     R1,R6                           ; next timer data adr set
 7079                                 M   
 7080                             159             _SEQ_TIM_CNT                            ;50
 7081                                 M   ;
 7082                                 M   ;       ***     TIMMER COUNT DOWN MACRO         ***
 7083                                 M   ;;SAITO MOV.B   @(R0,R6),R1                     ; timmer count start bit LOAD
 7084                                 M   ;;SAITO TST     R1,R1                           ;
 7085                                 M   ;;SAITO BT      _JMP00000049                    ;
 7086                                 M   ;
 7087 0000053E 016C                   M           MOV.B   @(R0,R6),R1                     ; timmer count start bit LOAD
 7088 00000540 E201                   M           MOV.B   #BIT0,R2                        ;
 7089 00000542 3210                   M           CMP/EQ  R1,R2                           ;
 7090 00000544 8B06                   M           BF      _JMP00000049                    ;
 7091                                 M   
 7092 00000546 6161                   M           MOV.W   @R6,R1                          ;  timer PV data LOAD
 7093                                 M   
 7094 00000548 D204                   M           MOV.L   #1,R2                           ;
 7095 0000054A 0008                   M           CLRT                                    ; T <- 0 CLEAR
 7096 0000054C 312A                   M           SUBC    R2,R1                           ; TIMER PV DATA -1
 7097 0000054E 222A                   M           XOR     R2,R2                           ;
 7098 00000550 312E                   M           ADDC    R2,R1                           ; counter = FFFF --> 0 set
 7099 00000552 2611                   M           MOV.W   R1,@R6                          ; TIMER DATA -1 SET
 7100                                 M   ;
*** SuperH RISC engine ASSEMBLER V.7.01.02.000 ***    11/14/21 17:25:06                                                  PAGE    26
PROGRAM NAME =

 7101 00000554                        M   _JMP00000049:
 7102                                 M   ;
 7103 00000554 D102                   M           MOV.L   #4,R1                           ;
 7104 00000556 361C                   M           ADD     R1,R6                           ; next timer data adr set
 7105                                 M   
 7106                             160     
 7107                             161             M_BRA   _SEQ_INT_TM10MS_050             ;
 7108 00000558 A004                   M           BRA     _SEQ_INT_TM10MS_050
 7109 0000055A 0009                   M           NOP
 7110                             162     
 7111                                     ***** BEGIN-POOL *****
 7112 0000055C 00000001                   DATA FOR SOURCE-LINE 150,151,152,153,154,155,156,157,158,159
 7113 00000560 00000004                   DATA FOR SOURCE-LINE 150,151,152,153,154,155,156,157,158,159
 7114                                     ***** END-POOL *****
 7115 00000564                    163     _SEQ_INT_TM10MS_050:
 7116                             164             _SEQ_TIM_CNT                            ;51
 7117                                 M   ;
 7118                                 M   ;       ***     TIMMER COUNT DOWN MACRO         ***
 7119                                 M   ;;SAITO MOV.B   @(R0,R6),R1                     ; timmer count start bit LOAD
 7120                                 M   ;;SAITO TST     R1,R1                           ;
 7121                                 M   ;;SAITO BT      _JMP00000050                    ;
 7122                                 M   ;
 7123 00000564 016C                   M           MOV.B   @(R0,R6),R1                     ; timmer count start bit LOAD
 7124 00000566 E201                   M           MOV.B   #BIT0,R2                        ;
 7125 00000568 3210                   M           CMP/EQ  R1,R2                           ;
 7126 0000056A 8B06                   M           BF      _JMP00000050                    ;
 7127                                 M   
 7128 0000056C 6161                   M           MOV.W   @R6,R1                          ;  timer PV data LOAD
 7129                                 M   
 7130 0000056E D23F                   M           MOV.L   #1,R2                           ;
 7131 00000570 0008                   M           CLRT                                    ; T <- 0 CLEAR
 7132 00000572 312A                   M           SUBC    R2,R1                           ; TIMER PV DATA -1
 7133 00000574 222A                   M           XOR     R2,R2                           ;
 7134 00000576 312E                   M           ADDC    R2,R1                           ; counter = FFFF --> 0 set
 7135 00000578 2611                   M           MOV.W   R1,@R6                          ; TIMER DATA -1 SET
 7136                                 M   ;
 7137 0000057A                        M   _JMP00000050:
 7138                                 M   ;
 7139 0000057A D13D                   M           MOV.L   #4,R1                           ;
 7140 0000057C 361C                   M           ADD     R1,R6                           ; next timer data adr set
 7141                                 M   
 7142                             165             _SEQ_TIM_CNT                            ;52
 7143                                 M   ;
 7144                                 M   ;       ***     TIMMER COUNT DOWN MACRO         ***
 7145                                 M   ;;SAITO MOV.B   @(R0,R6),R1                     ; timmer count start bit LOAD
 7146                                 M   ;;SAITO TST     R1,R1                           ;
 7147                                 M   ;;SAITO BT      _JMP00000051                    ;
 7148                                 M   ;
 7149 0000057E 016C                   M           MOV.B   @(R0,R6),R1                     ; timmer count start bit LOAD
 7150 00000580 E201                   M           MOV.B   #BIT0,R2                        ;
 7151 00000582 3210                   M           CMP/EQ  R1,R2                           ;
 7152 00000584 8B06                   M           BF      _JMP00000051                    ;
 7153                                 M   
 7154 00000586 6161                   M           MOV.W   @R6,R1                          ;  timer PV data LOAD
 7155                                 M   
 7156 00000588 D238                   M           MOV.L   #1,R2                           ;
 7157 0000058A 0008                   M           CLRT                                    ; T <- 0 CLEAR
*** SuperH RISC engine ASSEMBLER V.7.01.02.000 ***    11/14/21 17:25:06                                                  PAGE    27
PROGRAM NAME =

 7158 0000058C 312A                   M           SUBC    R2,R1                           ; TIMER PV DATA -1
 7159 0000058E 222A                   M           XOR     R2,R2                           ;
 7160 00000590 312E                   M           ADDC    R2,R1                           ; counter = FFFF --> 0 set
 7161 00000592 2611                   M           MOV.W   R1,@R6                          ; TIMER DATA -1 SET
 7162                                 M   ;
 7163 00000594                        M   _JMP00000051:
 7164                                 M   ;
 7165 00000594 D136                   M           MOV.L   #4,R1                           ;
 7166 00000596 361C                   M           ADD     R1,R6                           ; next timer data adr set
 7167                                 M   
 7168                             166             _SEQ_TIM_CNT                            ;53
 7169                                 M   ;
 7170                                 M   ;       ***     TIMMER COUNT DOWN MACRO         ***
 7171                                 M   ;;SAITO MOV.B   @(R0,R6),R1                     ; timmer count start bit LOAD
 7172                                 M   ;;SAITO TST     R1,R1                           ;
 7173                                 M   ;;SAITO BT      _JMP00000052                    ;
 7174                                 M   ;
 7175 00000598 016C                   M           MOV.B   @(R0,R6),R1                     ; timmer count start bit LOAD
 7176 0000059A E201                   M           MOV.B   #BIT0,R2                        ;
 7177 0000059C 3210                   M           CMP/EQ  R1,R2                           ;
 7178 0000059E 8B06                   M           BF      _JMP00000052                    ;
 7179                                 M   
 7180 000005A0 6161                   M           MOV.W   @R6,R1                          ;  timer PV data LOAD
 7181                                 M   
 7182 000005A2 D232                   M           MOV.L   #1,R2                           ;
 7183 000005A4 0008                   M           CLRT                                    ; T <- 0 CLEAR
 7184 000005A6 312A                   M           SUBC    R2,R1                           ; TIMER PV DATA -1
 7185 000005A8 222A                   M           XOR     R2,R2                           ;
 7186 000005AA 312E                   M           ADDC    R2,R1                           ; counter = FFFF --> 0 set
 7187 000005AC 2611                   M           MOV.W   R1,@R6                          ; TIMER DATA -1 SET
 7188                                 M   ;
 7189 000005AE                        M   _JMP00000052:
 7190                                 M   ;
 7191 000005AE D130                   M           MOV.L   #4,R1                           ;
 7192 000005B0 361C                   M           ADD     R1,R6                           ; next timer data adr set
 7193                                 M   
 7194                             167             _SEQ_TIM_CNT                            ;54
 7195                                 M   ;
 7196                                 M   ;       ***     TIMMER COUNT DOWN MACRO         ***
 7197                                 M   ;;SAITO MOV.B   @(R0,R6),R1                     ; timmer count start bit LOAD
 7198                                 M   ;;SAITO TST     R1,R1                           ;
 7199                                 M   ;;SAITO BT      _JMP00000053                    ;
 7200                                 M   ;
 7201 000005B2 016C                   M           MOV.B   @(R0,R6),R1                     ; timmer count start bit LOAD
 7202 000005B4 E201                   M           MOV.B   #BIT0,R2                        ;
 7203 000005B6 3210                   M           CMP/EQ  R1,R2                           ;
 7204 000005B8 8B06                   M           BF      _JMP00000053                    ;
 7205                                 M   
 7206 000005BA 6161                   M           MOV.W   @R6,R1                          ;  timer PV data LOAD
 7207                                 M   
 7208 000005BC D22B                   M           MOV.L   #1,R2                           ;
 7209 000005BE 0008                   M           CLRT                                    ; T <- 0 CLEAR
 7210 000005C0 312A                   M           SUBC    R2,R1                           ; TIMER PV DATA -1
 7211 000005C2 222A                   M           XOR     R2,R2                           ;
 7212 000005C4 312E                   M           ADDC    R2,R1                           ; counter = FFFF --> 0 set
 7213 000005C6 2611                   M           MOV.W   R1,@R6                          ; TIMER DATA -1 SET
 7214                                 M   ;
*** SuperH RISC engine ASSEMBLER V.7.01.02.000 ***    11/14/21 17:25:06                                                  PAGE    28
PROGRAM NAME =

 7215 000005C8                        M   _JMP00000053:
 7216                                 M   ;
 7217 000005C8 D129                   M           MOV.L   #4,R1                           ;
 7218 000005CA 361C                   M           ADD     R1,R6                           ; next timer data adr set
 7219                                 M   
 7220                             168             _SEQ_TIM_CNT                            ;55
 7221                                 M   ;
 7222                                 M   ;       ***     TIMMER COUNT DOWN MACRO         ***
 7223                                 M   ;;SAITO MOV.B   @(R0,R6),R1                     ; timmer count start bit LOAD
 7224                                 M   ;;SAITO TST     R1,R1                           ;
 7225                                 M   ;;SAITO BT      _JMP00000054                    ;
 7226                                 M   ;
 7227 000005CC 016C                   M           MOV.B   @(R0,R6),R1                     ; timmer count start bit LOAD
 7228 000005CE E201                   M           MOV.B   #BIT0,R2                        ;
 7229 000005D0 3210                   M           CMP/EQ  R1,R2                           ;
 7230 000005D2 8B06                   M           BF      _JMP00000054                    ;
 7231                                 M   
 7232 000005D4 6161                   M           MOV.W   @R6,R1                          ;  timer PV data LOAD
 7233                                 M   
 7234 000005D6 D225                   M           MOV.L   #1,R2                           ;
 7235 000005D8 0008                   M           CLRT                                    ; T <- 0 CLEAR
 7236 000005DA 312A                   M           SUBC    R2,R1                           ; TIMER PV DATA -1
 7237 000005DC 222A                   M           XOR     R2,R2                           ;
 7238 000005DE 312E                   M           ADDC    R2,R1                           ; counter = FFFF --> 0 set
 7239 000005E0 2611                   M           MOV.W   R1,@R6                          ; TIMER DATA -1 SET
 7240                                 M   ;
 7241 000005E2                        M   _JMP00000054:
 7242                                 M   ;
 7243 000005E2 D123                   M           MOV.L   #4,R1                           ;
 7244 000005E4 361C                   M           ADD     R1,R6                           ; next timer data adr set
 7245                                 M   
 7246                             169             _SEQ_TIM_CNT                            ;56
 7247                                 M   ;
 7248                                 M   ;       ***     TIMMER COUNT DOWN MACRO         ***
 7249                                 M   ;;SAITO MOV.B   @(R0,R6),R1                     ; timmer count start bit LOAD
 7250                                 M   ;;SAITO TST     R1,R1                           ;
 7251                                 M   ;;SAITO BT      _JMP00000055                    ;
 7252                                 M   ;
 7253 000005E6 016C                   M           MOV.B   @(R0,R6),R1                     ; timmer count start bit LOAD
 7254 000005E8 E201                   M           MOV.B   #BIT0,R2                        ;
 7255 000005EA 3210                   M           CMP/EQ  R1,R2                           ;
 7256 000005EC 8B06                   M           BF      _JMP00000055                    ;
 7257                                 M   
 7258 000005EE 6161                   M           MOV.W   @R6,R1                          ;  timer PV data LOAD
 7259                                 M   
 7260 000005F0 D21E                   M           MOV.L   #1,R2                           ;
 7261 000005F2 0008                   M           CLRT                                    ; T <- 0 CLEAR
 7262 000005F4 312A                   M           SUBC    R2,R1                           ; TIMER PV DATA -1
 7263 000005F6 222A                   M           XOR     R2,R2                           ;
 7264 000005F8 312E                   M           ADDC    R2,R1                           ; counter = FFFF --> 0 set
 7265 000005FA 2611                   M           MOV.W   R1,@R6                          ; TIMER DATA -1 SET
 7266                                 M   ;
 7267 000005FC                        M   _JMP00000055:
 7268                                 M   ;
 7269 000005FC D11C                   M           MOV.L   #4,R1                           ;
 7270 000005FE 361C                   M           ADD     R1,R6                           ; next timer data adr set
 7271                                 M   
*** SuperH RISC engine ASSEMBLER V.7.01.02.000 ***    11/14/21 17:25:06                                                  PAGE    29
PROGRAM NAME =

 7272                             170             _SEQ_TIM_CNT                            ;57
 7273                                 M   ;
 7274                                 M   ;       ***     TIMMER COUNT DOWN MACRO         ***
 7275                                 M   ;;SAITO MOV.B   @(R0,R6),R1                     ; timmer count start bit LOAD
 7276                                 M   ;;SAITO TST     R1,R1                           ;
 7277                                 M   ;;SAITO BT      _JMP00000056                    ;
 7278                                 M   ;
 7279 00000600 016C                   M           MOV.B   @(R0,R6),R1                     ; timmer count start bit LOAD
 7280 00000602 E201                   M           MOV.B   #BIT0,R2                        ;
 7281 00000604 3210                   M           CMP/EQ  R1,R2                           ;
 7282 00000606 8B06                   M           BF      _JMP00000056                    ;
 7283                                 M   
 7284 00000608 6161                   M           MOV.W   @R6,R1                          ;  timer PV data LOAD
 7285                                 M   
 7286 0000060A D218                   M           MOV.L   #1,R2                           ;
 7287 0000060C 0008                   M           CLRT                                    ; T <- 0 CLEAR
 7288 0000060E 312A                   M           SUBC    R2,R1                           ; TIMER PV DATA -1
 7289 00000610 222A                   M           XOR     R2,R2                           ;
 7290 00000612 312E                   M           ADDC    R2,R1                           ; counter = FFFF --> 0 set
 7291 00000614 2611                   M           MOV.W   R1,@R6                          ; TIMER DATA -1 SET
 7292                                 M   ;
 7293 00000616                        M   _JMP00000056:
 7294                                 M   ;
 7295 00000616 D116                   M           MOV.L   #4,R1                           ;
 7296 00000618 361C                   M           ADD     R1,R6                           ; next timer data adr set
 7297                                 M   
 7298                             171             _SEQ_TIM_CNT                            ;58
 7299                                 M   ;
 7300                                 M   ;       ***     TIMMER COUNT DOWN MACRO         ***
 7301                                 M   ;;SAITO MOV.B   @(R0,R6),R1                     ; timmer count start bit LOAD
 7302                                 M   ;;SAITO TST     R1,R1                           ;
 7303                                 M   ;;SAITO BT      _JMP00000057                    ;
 7304                                 M   ;
 7305 0000061A 016C                   M           MOV.B   @(R0,R6),R1                     ; timmer count start bit LOAD
 7306 0000061C E201                   M           MOV.B   #BIT0,R2                        ;
 7307 0000061E 3210                   M           CMP/EQ  R1,R2                           ;
 7308 00000620 8B06                   M           BF      _JMP00000057                    ;
 7309                                 M   
 7310 00000622 6161                   M           MOV.W   @R6,R1                          ;  timer PV data LOAD
 7311                                 M   
 7312 00000624 D211                   M           MOV.L   #1,R2                           ;
 7313 00000626 0008                   M           CLRT                                    ; T <- 0 CLEAR
 7314 00000628 312A                   M           SUBC    R2,R1                           ; TIMER PV DATA -1
 7315 0000062A 222A                   M           XOR     R2,R2                           ;
 7316 0000062C 312E                   M           ADDC    R2,R1                           ; counter = FFFF --> 0 set
 7317 0000062E 2611                   M           MOV.W   R1,@R6                          ; TIMER DATA -1 SET
 7318                                 M   ;
 7319 00000630                        M   _JMP00000057:
 7320                                 M   ;
 7321 00000630 D10F                   M           MOV.L   #4,R1                           ;
 7322 00000632 361C                   M           ADD     R1,R6                           ; next timer data adr set
 7323                                 M   
 7324                             172             _SEQ_TIM_CNT                            ;59
 7325                                 M   ;
 7326                                 M   ;       ***     TIMMER COUNT DOWN MACRO         ***
 7327                                 M   ;;SAITO MOV.B   @(R0,R6),R1                     ; timmer count start bit LOAD
 7328                                 M   ;;SAITO TST     R1,R1                           ;
*** SuperH RISC engine ASSEMBLER V.7.01.02.000 ***    11/14/21 17:25:06                                                  PAGE    30
PROGRAM NAME =

 7329                                 M   ;;SAITO BT      _JMP00000058                    ;
 7330                                 M   ;
 7331 00000634 016C                   M           MOV.B   @(R0,R6),R1                     ; timmer count start bit LOAD
 7332 00000636 E201                   M           MOV.B   #BIT0,R2                        ;
 7333 00000638 3210                   M           CMP/EQ  R1,R2                           ;
 7334 0000063A 8B06                   M           BF      _JMP00000058                    ;
 7335                                 M   
 7336 0000063C 6161                   M           MOV.W   @R6,R1                          ;  timer PV data LOAD
 7337                                 M   
 7338 0000063E D20B                   M           MOV.L   #1,R2                           ;
 7339 00000640 0008                   M           CLRT                                    ; T <- 0 CLEAR
 7340 00000642 312A                   M           SUBC    R2,R1                           ; TIMER PV DATA -1
 7341 00000644 222A                   M           XOR     R2,R2                           ;
 7342 00000646 312E                   M           ADDC    R2,R1                           ; counter = FFFF --> 0 set
 7343 00000648 2611                   M           MOV.W   R1,@R6                          ; TIMER DATA -1 SET
 7344                                 M   ;
 7345 0000064A                        M   _JMP00000058:
 7346                                 M   ;
 7347 0000064A D109                   M           MOV.L   #4,R1                           ;
 7348 0000064C 361C                   M           ADD     R1,R6                           ; next timer data adr set
 7349                                 M   
 7350                             173             _SEQ_TIM_CNT                            ;60
 7351                                 M   ;
 7352                                 M   ;       ***     TIMMER COUNT DOWN MACRO         ***
 7353                                 M   ;;SAITO MOV.B   @(R0,R6),R1                     ; timmer count start bit LOAD
 7354                                 M   ;;SAITO TST     R1,R1                           ;
 7355                                 M   ;;SAITO BT      _JMP00000059                    ;
 7356                                 M   ;
 7357 0000064E 016C                   M           MOV.B   @(R0,R6),R1                     ; timmer count start bit LOAD
 7358 00000650 E201                   M           MOV.B   #BIT0,R2                        ;
 7359 00000652 3210                   M           CMP/EQ  R1,R2                           ;
 7360 00000654 8B06                   M           BF      _JMP00000059                    ;
 7361                                 M   
 7362 00000656 6161                   M           MOV.W   @R6,R1                          ;  timer PV data LOAD
 7363                                 M   
 7364 00000658 D204                   M           MOV.L   #1,R2                           ;
 7365 0000065A 0008                   M           CLRT                                    ; T <- 0 CLEAR
 7366 0000065C 312A                   M           SUBC    R2,R1                           ; TIMER PV DATA -1
 7367 0000065E 222A                   M           XOR     R2,R2                           ;
 7368 00000660 312E                   M           ADDC    R2,R1                           ; counter = FFFF --> 0 set
 7369 00000662 2611                   M           MOV.W   R1,@R6                          ; TIMER DATA -1 SET
 7370                                 M   ;
 7371 00000664                        M   _JMP00000059:
 7372                                 M   ;
 7373 00000664 D102                   M           MOV.L   #4,R1                           ;
 7374 00000666 361C                   M           ADD     R1,R6                           ; next timer data adr set
 7375                                 M   
 7376                             174     
 7377                             175             M_BRA   _SEQ_INT_TM10MS_060             ;
 7378 00000668 A004                   M           BRA     _SEQ_INT_TM10MS_060
 7379 0000066A 0009                   M           NOP
 7380                             176     
 7381                                     ***** BEGIN-POOL *****
 7382 0000066C 00000001                   DATA FOR SOURCE-LINE 164,165,166,167,168,169,170,171,172,173
 7383 00000670 00000004                   DATA FOR SOURCE-LINE 164,165,166,167,168,169,170,171,172,173
 7384                                     ***** END-POOL *****
 7385 00000674                    177     _SEQ_INT_TM10MS_060:
*** SuperH RISC engine ASSEMBLER V.7.01.02.000 ***    11/14/21 17:25:06                                                  PAGE    31
PROGRAM NAME =

 7386                             178             _SEQ_TIM_CNT                            ;61
 7387                                 M   ;
 7388                                 M   ;       ***     TIMMER COUNT DOWN MACRO         ***
 7389                                 M   ;;SAITO MOV.B   @(R0,R6),R1                     ; timmer count start bit LOAD
 7390                                 M   ;;SAITO TST     R1,R1                           ;
 7391                                 M   ;;SAITO BT      _JMP00000060                    ;
 7392                                 M   ;
 7393 00000674 016C                   M           MOV.B   @(R0,R6),R1                     ; timmer count start bit LOAD
 7394 00000676 E201                   M           MOV.B   #BIT0,R2                        ;
 7395 00000678 3210                   M           CMP/EQ  R1,R2                           ;
 7396 0000067A 8B06                   M           BF      _JMP00000060                    ;
 7397                                 M   
 7398 0000067C 6161                   M           MOV.W   @R6,R1                          ;  timer PV data LOAD
 7399                                 M   
 7400 0000067E D23F                   M           MOV.L   #1,R2                           ;
 7401 00000680 0008                   M           CLRT                                    ; T <- 0 CLEAR
 7402 00000682 312A                   M           SUBC    R2,R1                           ; TIMER PV DATA -1
 7403 00000684 222A                   M           XOR     R2,R2                           ;
 7404 00000686 312E                   M           ADDC    R2,R1                           ; counter = FFFF --> 0 set
 7405 00000688 2611                   M           MOV.W   R1,@R6                          ; TIMER DATA -1 SET
 7406                                 M   ;
 7407 0000068A                        M   _JMP00000060:
 7408                                 M   ;
 7409 0000068A D13D                   M           MOV.L   #4,R1                           ;
 7410 0000068C 361C                   M           ADD     R1,R6                           ; next timer data adr set
 7411                                 M   
 7412                             179             _SEQ_TIM_CNT                            ;62
 7413                                 M   ;
 7414                                 M   ;       ***     TIMMER COUNT DOWN MACRO         ***
 7415                                 M   ;;SAITO MOV.B   @(R0,R6),R1                     ; timmer count start bit LOAD
 7416                                 M   ;;SAITO TST     R1,R1                           ;
 7417                                 M   ;;SAITO BT      _JMP00000061                    ;
 7418                                 M   ;
 7419 0000068E 016C                   M           MOV.B   @(R0,R6),R1                     ; timmer count start bit LOAD
 7420 00000690 E201                   M           MOV.B   #BIT0,R2                        ;
 7421 00000692 3210                   M           CMP/EQ  R1,R2                           ;
 7422 00000694 8B06                   M           BF      _JMP00000061                    ;
 7423                                 M   
 7424 00000696 6161                   M           MOV.W   @R6,R1                          ;  timer PV data LOAD
 7425                                 M   
 7426 00000698 D238                   M           MOV.L   #1,R2                           ;
 7427 0000069A 0008                   M           CLRT                                    ; T <- 0 CLEAR
 7428 0000069C 312A                   M           SUBC    R2,R1                           ; TIMER PV DATA -1
 7429 0000069E 222A                   M           XOR     R2,R2                           ;
 7430 000006A0 312E                   M           ADDC    R2,R1                           ; counter = FFFF --> 0 set
 7431 000006A2 2611                   M           MOV.W   R1,@R6                          ; TIMER DATA -1 SET
 7432                                 M   ;
 7433 000006A4                        M   _JMP00000061:
 7434                                 M   ;
 7435 000006A4 D136                   M           MOV.L   #4,R1                           ;
 7436 000006A6 361C                   M           ADD     R1,R6                           ; next timer data adr set
 7437                                 M   
 7438                             180             _SEQ_TIM_CNT                            ;63
 7439                                 M   ;
 7440                                 M   ;       ***     TIMMER COUNT DOWN MACRO         ***
 7441                                 M   ;;SAITO MOV.B   @(R0,R6),R1                     ; timmer count start bit LOAD
 7442                                 M   ;;SAITO TST     R1,R1                           ;
*** SuperH RISC engine ASSEMBLER V.7.01.02.000 ***    11/14/21 17:25:06                                                  PAGE    32
PROGRAM NAME =

 7443                                 M   ;;SAITO BT      _JMP00000062                    ;
 7444                                 M   ;
 7445 000006A8 016C                   M           MOV.B   @(R0,R6),R1                     ; timmer count start bit LOAD
 7446 000006AA E201                   M           MOV.B   #BIT0,R2                        ;
 7447 000006AC 3210                   M           CMP/EQ  R1,R2                           ;
 7448 000006AE 8B06                   M           BF      _JMP00000062                    ;
 7449                                 M   
 7450 000006B0 6161                   M           MOV.W   @R6,R1                          ;  timer PV data LOAD
 7451                                 M   
 7452 000006B2 D232                   M           MOV.L   #1,R2                           ;
 7453 000006B4 0008                   M           CLRT                                    ; T <- 0 CLEAR
 7454 000006B6 312A                   M           SUBC    R2,R1                           ; TIMER PV DATA -1
 7455 000006B8 222A                   M           XOR     R2,R2                           ;
 7456 000006BA 312E                   M           ADDC    R2,R1                           ; counter = FFFF --> 0 set
 7457 000006BC 2611                   M           MOV.W   R1,@R6                          ; TIMER DATA -1 SET
 7458                                 M   ;
 7459 000006BE                        M   _JMP00000062:
 7460                                 M   ;
 7461 000006BE D130                   M           MOV.L   #4,R1                           ;
 7462 000006C0 361C                   M           ADD     R1,R6                           ; next timer data adr set
 7463                                 M   
 7464                             181             _SEQ_TIM_CNT                            ;64
 7465                                 M   ;
 7466                                 M   ;       ***     TIMMER COUNT DOWN MACRO         ***
 7467                                 M   ;;SAITO MOV.B   @(R0,R6),R1                     ; timmer count start bit LOAD
 7468                                 M   ;;SAITO TST     R1,R1                           ;
 7469                                 M   ;;SAITO BT      _JMP00000063                    ;
 7470                                 M   ;
 7471 000006C2 016C                   M           MOV.B   @(R0,R6),R1                     ; timmer count start bit LOAD
 7472 000006C4 E201                   M           MOV.B   #BIT0,R2                        ;
 7473 000006C6 3210                   M           CMP/EQ  R1,R2                           ;
 7474 000006C8 8B06                   M           BF      _JMP00000063                    ;
 7475                                 M   
 7476 000006CA 6161                   M           MOV.W   @R6,R1                          ;  timer PV data LOAD
 7477                                 M   
 7478 000006CC D22B                   M           MOV.L   #1,R2                           ;
 7479 000006CE 0008                   M           CLRT                                    ; T <- 0 CLEAR
 7480 000006D0 312A                   M           SUBC    R2,R1                           ; TIMER PV DATA -1
 7481 000006D2 222A                   M           XOR     R2,R2                           ;
 7482 000006D4 312E                   M           ADDC    R2,R1                           ; counter = FFFF --> 0 set
 7483 000006D6 2611                   M           MOV.W   R1,@R6                          ; TIMER DATA -1 SET
 7484                                 M   ;
 7485 000006D8                        M   _JMP00000063:
 7486                                 M   ;
 7487 000006D8 D129                   M           MOV.L   #4,R1                           ;
 7488 000006DA 361C                   M           ADD     R1,R6                           ; next timer data adr set
 7489                                 M   
 7490                             182             _SEQ_TIM_CNT                            ;65
 7491                                 M   ;
 7492                                 M   ;       ***     TIMMER COUNT DOWN MACRO         ***
 7493                                 M   ;;SAITO MOV.B   @(R0,R6),R1                     ; timmer count start bit LOAD
 7494                                 M   ;;SAITO TST     R1,R1                           ;
 7495                                 M   ;;SAITO BT      _JMP00000064                    ;
 7496                                 M   ;
 7497 000006DC 016C                   M           MOV.B   @(R0,R6),R1                     ; timmer count start bit LOAD
 7498 000006DE E201                   M           MOV.B   #BIT0,R2                        ;
 7499 000006E0 3210                   M           CMP/EQ  R1,R2                           ;
*** SuperH RISC engine ASSEMBLER V.7.01.02.000 ***    11/14/21 17:25:06                                                  PAGE    33
PROGRAM NAME =

 7500 000006E2 8B06                   M           BF      _JMP00000064                    ;
 7501                                 M   
 7502 000006E4 6161                   M           MOV.W   @R6,R1                          ;  timer PV data LOAD
 7503                                 M   
 7504 000006E6 D225                   M           MOV.L   #1,R2                           ;
 7505 000006E8 0008                   M           CLRT                                    ; T <- 0 CLEAR
 7506 000006EA 312A                   M           SUBC    R2,R1                           ; TIMER PV DATA -1
 7507 000006EC 222A                   M           XOR     R2,R2                           ;
 7508 000006EE 312E                   M           ADDC    R2,R1                           ; counter = FFFF --> 0 set
 7509 000006F0 2611                   M           MOV.W   R1,@R6                          ; TIMER DATA -1 SET
 7510                                 M   ;
 7511 000006F2                        M   _JMP00000064:
 7512                                 M   ;
 7513 000006F2 D123                   M           MOV.L   #4,R1                           ;
 7514 000006F4 361C                   M           ADD     R1,R6                           ; next timer data adr set
 7515                                 M   
 7516                             183             _SEQ_TIM_CNT                            ;66
 7517                                 M   ;
 7518                                 M   ;       ***     TIMMER COUNT DOWN MACRO         ***
 7519                                 M   ;;SAITO MOV.B   @(R0,R6),R1                     ; timmer count start bit LOAD
 7520                                 M   ;;SAITO TST     R1,R1                           ;
 7521                                 M   ;;SAITO BT      _JMP00000065                    ;
 7522                                 M   ;
 7523 000006F6 016C                   M           MOV.B   @(R0,R6),R1                     ; timmer count start bit LOAD
 7524 000006F8 E201                   M           MOV.B   #BIT0,R2                        ;
 7525 000006FA 3210                   M           CMP/EQ  R1,R2                           ;
 7526 000006FC 8B06                   M           BF      _JMP00000065                    ;
 7527                                 M   
 7528 000006FE 6161                   M           MOV.W   @R6,R1                          ;  timer PV data LOAD
 7529                                 M   
 7530 00000700 D21E                   M           MOV.L   #1,R2                           ;
 7531 00000702 0008                   M           CLRT                                    ; T <- 0 CLEAR
 7532 00000704 312A                   M           SUBC    R2,R1                           ; TIMER PV DATA -1
 7533 00000706 222A                   M           XOR     R2,R2                           ;
 7534 00000708 312E                   M           ADDC    R2,R1                           ; counter = FFFF --> 0 set
 7535 0000070A 2611                   M           MOV.W   R1,@R6                          ; TIMER DATA -1 SET
 7536                                 M   ;
 7537 0000070C                        M   _JMP00000065:
 7538                                 M   ;
 7539 0000070C D11C                   M           MOV.L   #4,R1                           ;
 7540 0000070E 361C                   M           ADD     R1,R6                           ; next timer data adr set
 7541                                 M   
 7542                             184             _SEQ_TIM_CNT                            ;67
 7543                                 M   ;
 7544                                 M   ;       ***     TIMMER COUNT DOWN MACRO         ***
 7545                                 M   ;;SAITO MOV.B   @(R0,R6),R1                     ; timmer count start bit LOAD
 7546                                 M   ;;SAITO TST     R1,R1                           ;
 7547                                 M   ;;SAITO BT      _JMP00000066                    ;
 7548                                 M   ;
 7549 00000710 016C                   M           MOV.B   @(R0,R6),R1                     ; timmer count start bit LOAD
 7550 00000712 E201                   M           MOV.B   #BIT0,R2                        ;
 7551 00000714 3210                   M           CMP/EQ  R1,R2                           ;
 7552 00000716 8B06                   M           BF      _JMP00000066                    ;
 7553                                 M   
 7554 00000718 6161                   M           MOV.W   @R6,R1                          ;  timer PV data LOAD
 7555                                 M   
 7556 0000071A D218                   M           MOV.L   #1,R2                           ;
*** SuperH RISC engine ASSEMBLER V.7.01.02.000 ***    11/14/21 17:25:06                                                  PAGE    34
PROGRAM NAME =

 7557 0000071C 0008                   M           CLRT                                    ; T <- 0 CLEAR
 7558 0000071E 312A                   M           SUBC    R2,R1                           ; TIMER PV DATA -1
 7559 00000720 222A                   M           XOR     R2,R2                           ;
 7560 00000722 312E                   M           ADDC    R2,R1                           ; counter = FFFF --> 0 set
 7561 00000724 2611                   M           MOV.W   R1,@R6                          ; TIMER DATA -1 SET
 7562                                 M   ;
 7563 00000726                        M   _JMP00000066:
 7564                                 M   ;
 7565 00000726 D116                   M           MOV.L   #4,R1                           ;
 7566 00000728 361C                   M           ADD     R1,R6                           ; next timer data adr set
 7567                                 M   
 7568                             185             _SEQ_TIM_CNT                            ;68
 7569                                 M   ;
 7570                                 M   ;       ***     TIMMER COUNT DOWN MACRO         ***
 7571                                 M   ;;SAITO MOV.B   @(R0,R6),R1                     ; timmer count start bit LOAD
 7572                                 M   ;;SAITO TST     R1,R1                           ;
 7573                                 M   ;;SAITO BT      _JMP00000067                    ;
 7574                                 M   ;
 7575 0000072A 016C                   M           MOV.B   @(R0,R6),R1                     ; timmer count start bit LOAD
 7576 0000072C E201                   M           MOV.B   #BIT0,R2                        ;
 7577 0000072E 3210                   M           CMP/EQ  R1,R2                           ;
 7578 00000730 8B06                   M           BF      _JMP00000067                    ;
 7579                                 M   
 7580 00000732 6161                   M           MOV.W   @R6,R1                          ;  timer PV data LOAD
 7581                                 M   
 7582 00000734 D211                   M           MOV.L   #1,R2                           ;
 7583 00000736 0008                   M           CLRT                                    ; T <- 0 CLEAR
 7584 00000738 312A                   M           SUBC    R2,R1                           ; TIMER PV DATA -1
 7585 0000073A 222A                   M           XOR     R2,R2                           ;
 7586 0000073C 312E                   M           ADDC    R2,R1                           ; counter = FFFF --> 0 set
 7587 0000073E 2611                   M           MOV.W   R1,@R6                          ; TIMER DATA -1 SET
 7588                                 M   ;
 7589 00000740                        M   _JMP00000067:
 7590                                 M   ;
 7591 00000740 D10F                   M           MOV.L   #4,R1                           ;
 7592 00000742 361C                   M           ADD     R1,R6                           ; next timer data adr set
 7593                                 M   
 7594                             186             _SEQ_TIM_CNT                            ;69
 7595                                 M   ;
 7596                                 M   ;       ***     TIMMER COUNT DOWN MACRO         ***
 7597                                 M   ;;SAITO MOV.B   @(R0,R6),R1                     ; timmer count start bit LOAD
 7598                                 M   ;;SAITO TST     R1,R1                           ;
 7599                                 M   ;;SAITO BT      _JMP00000068                    ;
 7600                                 M   ;
 7601 00000744 016C                   M           MOV.B   @(R0,R6),R1                     ; timmer count start bit LOAD
 7602 00000746 E201                   M           MOV.B   #BIT0,R2                        ;
 7603 00000748 3210                   M           CMP/EQ  R1,R2                           ;
 7604 0000074A 8B06                   M           BF      _JMP00000068                    ;
 7605                                 M   
 7606 0000074C 6161                   M           MOV.W   @R6,R1                          ;  timer PV data LOAD
 7607                                 M   
 7608 0000074E D20B                   M           MOV.L   #1,R2                           ;
 7609 00000750 0008                   M           CLRT                                    ; T <- 0 CLEAR
 7610 00000752 312A                   M           SUBC    R2,R1                           ; TIMER PV DATA -1
 7611 00000754 222A                   M           XOR     R2,R2                           ;
 7612 00000756 312E                   M           ADDC    R2,R1                           ; counter = FFFF --> 0 set
 7613 00000758 2611                   M           MOV.W   R1,@R6                          ; TIMER DATA -1 SET
*** SuperH RISC engine ASSEMBLER V.7.01.02.000 ***    11/14/21 17:25:06                                                  PAGE    35
PROGRAM NAME =

 7614                                 M   ;
 7615 0000075A                        M   _JMP00000068:
 7616                                 M   ;
 7617 0000075A D109                   M           MOV.L   #4,R1                           ;
 7618 0000075C 361C                   M           ADD     R1,R6                           ; next timer data adr set
 7619                                 M   
 7620                             187             _SEQ_TIM_CNT                            ;70
 7621                                 M   ;
 7622                                 M   ;       ***     TIMMER COUNT DOWN MACRO         ***
 7623                                 M   ;;SAITO MOV.B   @(R0,R6),R1                     ; timmer count start bit LOAD
 7624                                 M   ;;SAITO TST     R1,R1                           ;
 7625                                 M   ;;SAITO BT      _JMP00000069                    ;
 7626                                 M   ;
 7627 0000075E 016C                   M           MOV.B   @(R0,R6),R1                     ; timmer count start bit LOAD
 7628 00000760 E201                   M           MOV.B   #BIT0,R2                        ;
 7629 00000762 3210                   M           CMP/EQ  R1,R2                           ;
 7630 00000764 8B06                   M           BF      _JMP00000069                    ;
 7631                                 M   
 7632 00000766 6161                   M           MOV.W   @R6,R1                          ;  timer PV data LOAD
 7633                                 M   
 7634 00000768 D204                   M           MOV.L   #1,R2                           ;
 7635 0000076A 0008                   M           CLRT                                    ; T <- 0 CLEAR
 7636 0000076C 312A                   M           SUBC    R2,R1                           ; TIMER PV DATA -1
 7637 0000076E 222A                   M           XOR     R2,R2                           ;
 7638 00000770 312E                   M           ADDC    R2,R1                           ; counter = FFFF --> 0 set
 7639 00000772 2611                   M           MOV.W   R1,@R6                          ; TIMER DATA -1 SET
 7640                                 M   ;
 7641 00000774                        M   _JMP00000069:
 7642                                 M   ;
 7643 00000774 D102                   M           MOV.L   #4,R1                           ;
 7644 00000776 361C                   M           ADD     R1,R6                           ; next timer data adr set
 7645                                 M   
 7646                             188     
 7647                             189             M_BRA   _SEQ_INT_TM10MS_070             ;
 7648 00000778 A004                   M           BRA     _SEQ_INT_TM10MS_070
 7649 0000077A 0009                   M           NOP
 7650                             190     
 7651                                     ***** BEGIN-POOL *****
 7652 0000077C 00000001                   DATA FOR SOURCE-LINE 178,179,180,181,182,183,184,185,186,187
 7653 00000780 00000004                   DATA FOR SOURCE-LINE 178,179,180,181,182,183,184,185,186,187
 7654                                     ***** END-POOL *****
 7655 00000784                    191     _SEQ_INT_TM10MS_070:
 7656                             192             _SEQ_TIM_CNT                            ;71
 7657                                 M   ;
 7658                                 M   ;       ***     TIMMER COUNT DOWN MACRO         ***
 7659                                 M   ;;SAITO MOV.B   @(R0,R6),R1                     ; timmer count start bit LOAD
 7660                                 M   ;;SAITO TST     R1,R1                           ;
 7661                                 M   ;;SAITO BT      _JMP00000070                    ;
 7662                                 M   ;
 7663 00000784 016C                   M           MOV.B   @(R0,R6),R1                     ; timmer count start bit LOAD
 7664 00000786 E201                   M           MOV.B   #BIT0,R2                        ;
 7665 00000788 3210                   M           CMP/EQ  R1,R2                           ;
 7666 0000078A 8B06                   M           BF      _JMP00000070                    ;
 7667                                 M   
 7668 0000078C 6161                   M           MOV.W   @R6,R1                          ;  timer PV data LOAD
 7669                                 M   
 7670 0000078E D23F                   M           MOV.L   #1,R2                           ;
*** SuperH RISC engine ASSEMBLER V.7.01.02.000 ***    11/14/21 17:25:06                                                  PAGE    36
PROGRAM NAME =

 7671 00000790 0008                   M           CLRT                                    ; T <- 0 CLEAR
 7672 00000792 312A                   M           SUBC    R2,R1                           ; TIMER PV DATA -1
 7673 00000794 222A                   M           XOR     R2,R2                           ;
 7674 00000796 312E                   M           ADDC    R2,R1                           ; counter = FFFF --> 0 set
 7675 00000798 2611                   M           MOV.W   R1,@R6                          ; TIMER DATA -1 SET
 7676                                 M   ;
 7677 0000079A                        M   _JMP00000070:
 7678                                 M   ;
 7679 0000079A D13D                   M           MOV.L   #4,R1                           ;
 7680 0000079C 361C                   M           ADD     R1,R6                           ; next timer data adr set
 7681                                 M   
 7682                             193             _SEQ_TIM_CNT                            ;72
 7683                                 M   ;
 7684                                 M   ;       ***     TIMMER COUNT DOWN MACRO         ***
 7685                                 M   ;;SAITO MOV.B   @(R0,R6),R1                     ; timmer count start bit LOAD
 7686                                 M   ;;SAITO TST     R1,R1                           ;
 7687                                 M   ;;SAITO BT      _JMP00000071                    ;
 7688                                 M   ;
 7689 0000079E 016C                   M           MOV.B   @(R0,R6),R1                     ; timmer count start bit LOAD
 7690 000007A0 E201                   M           MOV.B   #BIT0,R2                        ;
 7691 000007A2 3210                   M           CMP/EQ  R1,R2                           ;
 7692 000007A4 8B06                   M           BF      _JMP00000071                    ;
 7693                                 M   
 7694 000007A6 6161                   M           MOV.W   @R6,R1                          ;  timer PV data LOAD
 7695                                 M   
 7696 000007A8 D238                   M           MOV.L   #1,R2                           ;
 7697 000007AA 0008                   M           CLRT                                    ; T <- 0 CLEAR
 7698 000007AC 312A                   M           SUBC    R2,R1                           ; TIMER PV DATA -1
 7699 000007AE 222A                   M           XOR     R2,R2                           ;
 7700 000007B0 312E                   M           ADDC    R2,R1                           ; counter = FFFF --> 0 set
 7701 000007B2 2611                   M           MOV.W   R1,@R6                          ; TIMER DATA -1 SET
 7702                                 M   ;
 7703 000007B4                        M   _JMP00000071:
 7704                                 M   ;
 7705 000007B4 D136                   M           MOV.L   #4,R1                           ;
 7706 000007B6 361C                   M           ADD     R1,R6                           ; next timer data adr set
 7707                                 M   
 7708                             194             _SEQ_TIM_CNT                            ;73
 7709                                 M   ;
 7710                                 M   ;       ***     TIMMER COUNT DOWN MACRO         ***
 7711                                 M   ;;SAITO MOV.B   @(R0,R6),R1                     ; timmer count start bit LOAD
 7712                                 M   ;;SAITO TST     R1,R1                           ;
 7713                                 M   ;;SAITO BT      _JMP00000072                    ;
 7714                                 M   ;
 7715 000007B8 016C                   M           MOV.B   @(R0,R6),R1                     ; timmer count start bit LOAD
 7716 000007BA E201                   M           MOV.B   #BIT0,R2                        ;
 7717 000007BC 3210                   M           CMP/EQ  R1,R2                           ;
 7718 000007BE 8B06                   M           BF      _JMP00000072                    ;
 7719                                 M   
 7720 000007C0 6161                   M           MOV.W   @R6,R1                          ;  timer PV data LOAD
 7721                                 M   
 7722 000007C2 D232                   M           MOV.L   #1,R2                           ;
 7723 000007C4 0008                   M           CLRT                                    ; T <- 0 CLEAR
 7724 000007C6 312A                   M           SUBC    R2,R1                           ; TIMER PV DATA -1
 7725 000007C8 222A                   M           XOR     R2,R2                           ;
 7726 000007CA 312E                   M           ADDC    R2,R1                           ; counter = FFFF --> 0 set
 7727 000007CC 2611                   M           MOV.W   R1,@R6                          ; TIMER DATA -1 SET
*** SuperH RISC engine ASSEMBLER V.7.01.02.000 ***    11/14/21 17:25:06                                                  PAGE    37
PROGRAM NAME =

 7728                                 M   ;
 7729 000007CE                        M   _JMP00000072:
 7730                                 M   ;
 7731 000007CE D130                   M           MOV.L   #4,R1                           ;
 7732 000007D0 361C                   M           ADD     R1,R6                           ; next timer data adr set
 7733                                 M   
 7734                             195             _SEQ_TIM_CNT                            ;74
 7735                                 M   ;
 7736                                 M   ;       ***     TIMMER COUNT DOWN MACRO         ***
 7737                                 M   ;;SAITO MOV.B   @(R0,R6),R1                     ; timmer count start bit LOAD
 7738                                 M   ;;SAITO TST     R1,R1                           ;
 7739                                 M   ;;SAITO BT      _JMP00000073                    ;
 7740                                 M   ;
 7741 000007D2 016C                   M           MOV.B   @(R0,R6),R1                     ; timmer count start bit LOAD
 7742 000007D4 E201                   M           MOV.B   #BIT0,R2                        ;
 7743 000007D6 3210                   M           CMP/EQ  R1,R2                           ;
 7744 000007D8 8B06                   M           BF      _JMP00000073                    ;
 7745                                 M   
 7746 000007DA 6161                   M           MOV.W   @R6,R1                          ;  timer PV data LOAD
 7747                                 M   
 7748 000007DC D22B                   M           MOV.L   #1,R2                           ;
 7749 000007DE 0008                   M           CLRT                                    ; T <- 0 CLEAR
 7750 000007E0 312A                   M           SUBC    R2,R1                           ; TIMER PV DATA -1
 7751 000007E2 222A                   M           XOR     R2,R2                           ;
 7752 000007E4 312E                   M           ADDC    R2,R1                           ; counter = FFFF --> 0 set
 7753 000007E6 2611                   M           MOV.W   R1,@R6                          ; TIMER DATA -1 SET
 7754                                 M   ;
 7755 000007E8                        M   _JMP00000073:
 7756                                 M   ;
 7757 000007E8 D129                   M           MOV.L   #4,R1                           ;
 7758 000007EA 361C                   M           ADD     R1,R6                           ; next timer data adr set
 7759                                 M   
 7760                             196             _SEQ_TIM_CNT                            ;75
 7761                                 M   ;
 7762                                 M   ;       ***     TIMMER COUNT DOWN MACRO         ***
 7763                                 M   ;;SAITO MOV.B   @(R0,R6),R1                     ; timmer count start bit LOAD
 7764                                 M   ;;SAITO TST     R1,R1                           ;
 7765                                 M   ;;SAITO BT      _JMP00000074                    ;
 7766                                 M   ;
 7767 000007EC 016C                   M           MOV.B   @(R0,R6),R1                     ; timmer count start bit LOAD
 7768 000007EE E201                   M           MOV.B   #BIT0,R2                        ;
 7769 000007F0 3210                   M           CMP/EQ  R1,R2                           ;
 7770 000007F2 8B06                   M           BF      _JMP00000074                    ;
 7771                                 M   
 7772 000007F4 6161                   M           MOV.W   @R6,R1                          ;  timer PV data LOAD
 7773                                 M   
 7774 000007F6 D225                   M           MOV.L   #1,R2                           ;
 7775 000007F8 0008                   M           CLRT                                    ; T <- 0 CLEAR
 7776 000007FA 312A                   M           SUBC    R2,R1                           ; TIMER PV DATA -1
 7777 000007FC 222A                   M           XOR     R2,R2                           ;
 7778 000007FE 312E                   M           ADDC    R2,R1                           ; counter = FFFF --> 0 set
 7779 00000800 2611                   M           MOV.W   R1,@R6                          ; TIMER DATA -1 SET
 7780                                 M   ;
 7781 00000802                        M   _JMP00000074:
 7782                                 M   ;
 7783 00000802 D123                   M           MOV.L   #4,R1                           ;
 7784 00000804 361C                   M           ADD     R1,R6                           ; next timer data adr set
*** SuperH RISC engine ASSEMBLER V.7.01.02.000 ***    11/14/21 17:25:06                                                  PAGE    38
PROGRAM NAME =

 7785                                 M   
 7786                             197             _SEQ_TIM_CNT                            ;76
 7787                                 M   ;
 7788                                 M   ;       ***     TIMMER COUNT DOWN MACRO         ***
 7789                                 M   ;;SAITO MOV.B   @(R0,R6),R1                     ; timmer count start bit LOAD
 7790                                 M   ;;SAITO TST     R1,R1                           ;
 7791                                 M   ;;SAITO BT      _JMP00000075                    ;
 7792                                 M   ;
 7793 00000806 016C                   M           MOV.B   @(R0,R6),R1                     ; timmer count start bit LOAD
 7794 00000808 E201                   M           MOV.B   #BIT0,R2                        ;
 7795 0000080A 3210                   M           CMP/EQ  R1,R2                           ;
 7796 0000080C 8B06                   M           BF      _JMP00000075                    ;
 7797                                 M   
 7798 0000080E 6161                   M           MOV.W   @R6,R1                          ;  timer PV data LOAD
 7799                                 M   
 7800 00000810 D21E                   M           MOV.L   #1,R2                           ;
 7801 00000812 0008                   M           CLRT                                    ; T <- 0 CLEAR
 7802 00000814 312A                   M           SUBC    R2,R1                           ; TIMER PV DATA -1
 7803 00000816 222A                   M           XOR     R2,R2                           ;
 7804 00000818 312E                   M           ADDC    R2,R1                           ; counter = FFFF --> 0 set
 7805 0000081A 2611                   M           MOV.W   R1,@R6                          ; TIMER DATA -1 SET
 7806                                 M   ;
 7807 0000081C                        M   _JMP00000075:
 7808                                 M   ;
 7809 0000081C D11C                   M           MOV.L   #4,R1                           ;
 7810 0000081E 361C                   M           ADD     R1,R6                           ; next timer data adr set
 7811                                 M   
 7812                             198             _SEQ_TIM_CNT                            ;77
 7813                                 M   ;
 7814                                 M   ;       ***     TIMMER COUNT DOWN MACRO         ***
 7815                                 M   ;;SAITO MOV.B   @(R0,R6),R1                     ; timmer count start bit LOAD
 7816                                 M   ;;SAITO TST     R1,R1                           ;
 7817                                 M   ;;SAITO BT      _JMP00000076                    ;
 7818                                 M   ;
 7819 00000820 016C                   M           MOV.B   @(R0,R6),R1                     ; timmer count start bit LOAD
 7820 00000822 E201                   M           MOV.B   #BIT0,R2                        ;
 7821 00000824 3210                   M           CMP/EQ  R1,R2                           ;
 7822 00000826 8B06                   M           BF      _JMP00000076                    ;
 7823                                 M   
 7824 00000828 6161                   M           MOV.W   @R6,R1                          ;  timer PV data LOAD
 7825                                 M   
 7826 0000082A D218                   M           MOV.L   #1,R2                           ;
 7827 0000082C 0008                   M           CLRT                                    ; T <- 0 CLEAR
 7828 0000082E 312A                   M           SUBC    R2,R1                           ; TIMER PV DATA -1
 7829 00000830 222A                   M           XOR     R2,R2                           ;
 7830 00000832 312E                   M           ADDC    R2,R1                           ; counter = FFFF --> 0 set
 7831 00000834 2611                   M           MOV.W   R1,@R6                          ; TIMER DATA -1 SET
 7832                                 M   ;
 7833 00000836                        M   _JMP00000076:
 7834                                 M   ;
 7835 00000836 D116                   M           MOV.L   #4,R1                           ;
 7836 00000838 361C                   M           ADD     R1,R6                           ; next timer data adr set
 7837                                 M   
 7838                             199             _SEQ_TIM_CNT                            ;78
 7839                                 M   ;
 7840                                 M   ;       ***     TIMMER COUNT DOWN MACRO         ***
 7841                                 M   ;;SAITO MOV.B   @(R0,R6),R1                     ; timmer count start bit LOAD
*** SuperH RISC engine ASSEMBLER V.7.01.02.000 ***    11/14/21 17:25:06                                                  PAGE    39
PROGRAM NAME =

 7842                                 M   ;;SAITO TST     R1,R1                           ;
 7843                                 M   ;;SAITO BT      _JMP00000077                    ;
 7844                                 M   ;
 7845 0000083A 016C                   M           MOV.B   @(R0,R6),R1                     ; timmer count start bit LOAD
 7846 0000083C E201                   M           MOV.B   #BIT0,R2                        ;
 7847 0000083E 3210                   M           CMP/EQ  R1,R2                           ;
 7848 00000840 8B06                   M           BF      _JMP00000077                    ;
 7849                                 M   
 7850 00000842 6161                   M           MOV.W   @R6,R1                          ;  timer PV data LOAD
 7851                                 M   
 7852 00000844 D211                   M           MOV.L   #1,R2                           ;
 7853 00000846 0008                   M           CLRT                                    ; T <- 0 CLEAR
 7854 00000848 312A                   M           SUBC    R2,R1                           ; TIMER PV DATA -1
 7855 0000084A 222A                   M           XOR     R2,R2                           ;
 7856 0000084C 312E                   M           ADDC    R2,R1                           ; counter = FFFF --> 0 set
 7857 0000084E 2611                   M           MOV.W   R1,@R6                          ; TIMER DATA -1 SET
 7858                                 M   ;
 7859 00000850                        M   _JMP00000077:
 7860                                 M   ;
 7861 00000850 D10F                   M           MOV.L   #4,R1                           ;
 7862 00000852 361C                   M           ADD     R1,R6                           ; next timer data adr set
 7863                                 M   
 7864                             200             _SEQ_TIM_CNT                            ;79
 7865                                 M   ;
 7866                                 M   ;       ***     TIMMER COUNT DOWN MACRO         ***
 7867                                 M   ;;SAITO MOV.B   @(R0,R6),R1                     ; timmer count start bit LOAD
 7868                                 M   ;;SAITO TST     R1,R1                           ;
 7869                                 M   ;;SAITO BT      _JMP00000078                    ;
 7870                                 M   ;
 7871 00000854 016C                   M           MOV.B   @(R0,R6),R1                     ; timmer count start bit LOAD
 7872 00000856 E201                   M           MOV.B   #BIT0,R2                        ;
 7873 00000858 3210                   M           CMP/EQ  R1,R2                           ;
 7874 0000085A 8B06                   M           BF      _JMP00000078                    ;
 7875                                 M   
 7876 0000085C 6161                   M           MOV.W   @R6,R1                          ;  timer PV data LOAD
 7877                                 M   
 7878 0000085E D20B                   M           MOV.L   #1,R2                           ;
 7879 00000860 0008                   M           CLRT                                    ; T <- 0 CLEAR
 7880 00000862 312A                   M           SUBC    R2,R1                           ; TIMER PV DATA -1
 7881 00000864 222A                   M           XOR     R2,R2                           ;
 7882 00000866 312E                   M           ADDC    R2,R1                           ; counter = FFFF --> 0 set
 7883 00000868 2611                   M           MOV.W   R1,@R6                          ; TIMER DATA -1 SET
 7884                                 M   ;
 7885 0000086A                        M   _JMP00000078:
 7886                                 M   ;
 7887 0000086A D109                   M           MOV.L   #4,R1                           ;
 7888 0000086C 361C                   M           ADD     R1,R6                           ; next timer data adr set
 7889                                 M   
 7890                             201             _SEQ_TIM_CNT                            ;80
 7891                                 M   ;
 7892                                 M   ;       ***     TIMMER COUNT DOWN MACRO         ***
 7893                                 M   ;;SAITO MOV.B   @(R0,R6),R1                     ; timmer count start bit LOAD
 7894                                 M   ;;SAITO TST     R1,R1                           ;
 7895                                 M   ;;SAITO BT      _JMP00000079                    ;
 7896                                 M   ;
 7897 0000086E 016C                   M           MOV.B   @(R0,R6),R1                     ; timmer count start bit LOAD
 7898 00000870 E201                   M           MOV.B   #BIT0,R2                        ;
*** SuperH RISC engine ASSEMBLER V.7.01.02.000 ***    11/14/21 17:25:06                                                  PAGE    40
PROGRAM NAME =

 7899 00000872 3210                   M           CMP/EQ  R1,R2                           ;
 7900 00000874 8B06                   M           BF      _JMP00000079                    ;
 7901                                 M   
 7902 00000876 6161                   M           MOV.W   @R6,R1                          ;  timer PV data LOAD
 7903                                 M   
 7904 00000878 D204                   M           MOV.L   #1,R2                           ;
 7905 0000087A 0008                   M           CLRT                                    ; T <- 0 CLEAR
 7906 0000087C 312A                   M           SUBC    R2,R1                           ; TIMER PV DATA -1
 7907 0000087E 222A                   M           XOR     R2,R2                           ;
 7908 00000880 312E                   M           ADDC    R2,R1                           ; counter = FFFF --> 0 set
 7909 00000882 2611                   M           MOV.W   R1,@R6                          ; TIMER DATA -1 SET
 7910                                 M   ;
 7911 00000884                        M   _JMP00000079:
 7912                                 M   ;
 7913 00000884 D102                   M           MOV.L   #4,R1                           ;
 7914 00000886 361C                   M           ADD     R1,R6                           ; next timer data adr set
 7915                                 M   
 7916                             202     
 7917                             203             M_BRA   _SEQ_INT_TM10MS_080             ;
 7918 00000888 A004                   M           BRA     _SEQ_INT_TM10MS_080
 7919 0000088A 0009                   M           NOP
 7920                             204     
 7921                                     ***** BEGIN-POOL *****
 7922 0000088C 00000001                   DATA FOR SOURCE-LINE 192,193,194,195,196,197,198,199,200,201
 7923 00000890 00000004                   DATA FOR SOURCE-LINE 192,193,194,195,196,197,198,199,200,201
 7924                                     ***** END-POOL *****
 7925 00000894                    205     _SEQ_INT_TM10MS_080:
 7926                             206             _SEQ_TIM_CNT                            ;81
 7927                                 M   ;
 7928                                 M   ;       ***     TIMMER COUNT DOWN MACRO         ***
 7929                                 M   ;;SAITO MOV.B   @(R0,R6),R1                     ; timmer count start bit LOAD
 7930                                 M   ;;SAITO TST     R1,R1                           ;
 7931                                 M   ;;SAITO BT      _JMP00000080                    ;
 7932                                 M   ;
 7933 00000894 016C                   M           MOV.B   @(R0,R6),R1                     ; timmer count start bit LOAD
 7934 00000896 E201                   M           MOV.B   #BIT0,R2                        ;
 7935 00000898 3210                   M           CMP/EQ  R1,R2                           ;
 7936 0000089A 8B06                   M           BF      _JMP00000080                    ;
 7937                                 M   
 7938 0000089C 6161                   M           MOV.W   @R6,R1                          ;  timer PV data LOAD
 7939                                 M   
 7940 0000089E D23F                   M           MOV.L   #1,R2                           ;
 7941 000008A0 0008                   M           CLRT                                    ; T <- 0 CLEAR
 7942 000008A2 312A                   M           SUBC    R2,R1                           ; TIMER PV DATA -1
 7943 000008A4 222A                   M           XOR     R2,R2                           ;
 7944 000008A6 312E                   M           ADDC    R2,R1                           ; counter = FFFF --> 0 set
 7945 000008A8 2611                   M           MOV.W   R1,@R6                          ; TIMER DATA -1 SET
 7946                                 M   ;
 7947 000008AA                        M   _JMP00000080:
 7948                                 M   ;
 7949 000008AA D13D                   M           MOV.L   #4,R1                           ;
 7950 000008AC 361C                   M           ADD     R1,R6                           ; next timer data adr set
 7951                                 M   
 7952                             207             _SEQ_TIM_CNT                            ;82
 7953                                 M   ;
 7954                                 M   ;       ***     TIMMER COUNT DOWN MACRO         ***
 7955                                 M   ;;SAITO MOV.B   @(R0,R6),R1                     ; timmer count start bit LOAD
*** SuperH RISC engine ASSEMBLER V.7.01.02.000 ***    11/14/21 17:25:06                                                  PAGE    41
PROGRAM NAME =

 7956                                 M   ;;SAITO TST     R1,R1                           ;
 7957                                 M   ;;SAITO BT      _JMP00000081                    ;
 7958                                 M   ;
 7959 000008AE 016C                   M           MOV.B   @(R0,R6),R1                     ; timmer count start bit LOAD
 7960 000008B0 E201                   M           MOV.B   #BIT0,R2                        ;
 7961 000008B2 3210                   M           CMP/EQ  R1,R2                           ;
 7962 000008B4 8B06                   M           BF      _JMP00000081                    ;
 7963                                 M   
 7964 000008B6 6161                   M           MOV.W   @R6,R1                          ;  timer PV data LOAD
 7965                                 M   
 7966 000008B8 D238                   M           MOV.L   #1,R2                           ;
 7967 000008BA 0008                   M           CLRT                                    ; T <- 0 CLEAR
 7968 000008BC 312A                   M           SUBC    R2,R1                           ; TIMER PV DATA -1
 7969 000008BE 222A                   M           XOR     R2,R2                           ;
 7970 000008C0 312E                   M           ADDC    R2,R1                           ; counter = FFFF --> 0 set
 7971 000008C2 2611                   M           MOV.W   R1,@R6                          ; TIMER DATA -1 SET
 7972                                 M   ;
 7973 000008C4                        M   _JMP00000081:
 7974                                 M   ;
 7975 000008C4 D136                   M           MOV.L   #4,R1                           ;
 7976 000008C6 361C                   M           ADD     R1,R6                           ; next timer data adr set
 7977                                 M   
 7978                             208             _SEQ_TIM_CNT                            ;83
 7979                                 M   ;
 7980                                 M   ;       ***     TIMMER COUNT DOWN MACRO         ***
 7981                                 M   ;;SAITO MOV.B   @(R0,R6),R1                     ; timmer count start bit LOAD
 7982                                 M   ;;SAITO TST     R1,R1                           ;
 7983                                 M   ;;SAITO BT      _JMP00000082                    ;
 7984                                 M   ;
 7985 000008C8 016C                   M           MOV.B   @(R0,R6),R1                     ; timmer count start bit LOAD
 7986 000008CA E201                   M           MOV.B   #BIT0,R2                        ;
 7987 000008CC 3210                   M           CMP/EQ  R1,R2                           ;
 7988 000008CE 8B06                   M           BF      _JMP00000082                    ;
 7989                                 M   
 7990 000008D0 6161                   M           MOV.W   @R6,R1                          ;  timer PV data LOAD
 7991                                 M   
 7992 000008D2 D232                   M           MOV.L   #1,R2                           ;
 7993 000008D4 0008                   M           CLRT                                    ; T <- 0 CLEAR
 7994 000008D6 312A                   M           SUBC    R2,R1                           ; TIMER PV DATA -1
 7995 000008D8 222A                   M           XOR     R2,R2                           ;
 7996 000008DA 312E                   M           ADDC    R2,R1                           ; counter = FFFF --> 0 set
 7997 000008DC 2611                   M           MOV.W   R1,@R6                          ; TIMER DATA -1 SET
 7998                                 M   ;
 7999 000008DE                        M   _JMP00000082:
 8000                                 M   ;
 8001 000008DE D130                   M           MOV.L   #4,R1                           ;
 8002 000008E0 361C                   M           ADD     R1,R6                           ; next timer data adr set
 8003                                 M   
 8004                             209             _SEQ_TIM_CNT                            ;84
 8005                                 M   ;
 8006                                 M   ;       ***     TIMMER COUNT DOWN MACRO         ***
 8007                                 M   ;;SAITO MOV.B   @(R0,R6),R1                     ; timmer count start bit LOAD
 8008                                 M   ;;SAITO TST     R1,R1                           ;
 8009                                 M   ;;SAITO BT      _JMP00000083                    ;
 8010                                 M   ;
 8011 000008E2 016C                   M           MOV.B   @(R0,R6),R1                     ; timmer count start bit LOAD
 8012 000008E4 E201                   M           MOV.B   #BIT0,R2                        ;
*** SuperH RISC engine ASSEMBLER V.7.01.02.000 ***    11/14/21 17:25:06                                                  PAGE    42
PROGRAM NAME =

 8013 000008E6 3210                   M           CMP/EQ  R1,R2                           ;
 8014 000008E8 8B06                   M           BF      _JMP00000083                    ;
 8015                                 M   
 8016 000008EA 6161                   M           MOV.W   @R6,R1                          ;  timer PV data LOAD
 8017                                 M   
 8018 000008EC D22B                   M           MOV.L   #1,R2                           ;
 8019 000008EE 0008                   M           CLRT                                    ; T <- 0 CLEAR
 8020 000008F0 312A                   M           SUBC    R2,R1                           ; TIMER PV DATA -1
 8021 000008F2 222A                   M           XOR     R2,R2                           ;
 8022 000008F4 312E                   M           ADDC    R2,R1                           ; counter = FFFF --> 0 set
 8023 000008F6 2611                   M           MOV.W   R1,@R6                          ; TIMER DATA -1 SET
 8024                                 M   ;
 8025 000008F8                        M   _JMP00000083:
 8026                                 M   ;
 8027 000008F8 D129                   M           MOV.L   #4,R1                           ;
 8028 000008FA 361C                   M           ADD     R1,R6                           ; next timer data adr set
 8029                                 M   
 8030                             210             _SEQ_TIM_CNT                            ;85
 8031                                 M   ;
 8032                                 M   ;       ***     TIMMER COUNT DOWN MACRO         ***
 8033                                 M   ;;SAITO MOV.B   @(R0,R6),R1                     ; timmer count start bit LOAD
 8034                                 M   ;;SAITO TST     R1,R1                           ;
 8035                                 M   ;;SAITO BT      _JMP00000084                    ;
 8036                                 M   ;
 8037 000008FC 016C                   M           MOV.B   @(R0,R6),R1                     ; timmer count start bit LOAD
 8038 000008FE E201                   M           MOV.B   #BIT0,R2                        ;
 8039 00000900 3210                   M           CMP/EQ  R1,R2                           ;
 8040 00000902 8B06                   M           BF      _JMP00000084                    ;
 8041                                 M   
 8042 00000904 6161                   M           MOV.W   @R6,R1                          ;  timer PV data LOAD
 8043                                 M   
 8044 00000906 D225                   M           MOV.L   #1,R2                           ;
 8045 00000908 0008                   M           CLRT                                    ; T <- 0 CLEAR
 8046 0000090A 312A                   M           SUBC    R2,R1                           ; TIMER PV DATA -1
 8047 0000090C 222A                   M           XOR     R2,R2                           ;
 8048 0000090E 312E                   M           ADDC    R2,R1                           ; counter = FFFF --> 0 set
 8049 00000910 2611                   M           MOV.W   R1,@R6                          ; TIMER DATA -1 SET
 8050                                 M   ;
 8051 00000912                        M   _JMP00000084:
 8052                                 M   ;
 8053 00000912 D123                   M           MOV.L   #4,R1                           ;
 8054 00000914 361C                   M           ADD     R1,R6                           ; next timer data adr set
 8055                                 M   
 8056                             211             _SEQ_TIM_CNT                            ;86
 8057                                 M   ;
 8058                                 M   ;       ***     TIMMER COUNT DOWN MACRO         ***
 8059                                 M   ;;SAITO MOV.B   @(R0,R6),R1                     ; timmer count start bit LOAD
 8060                                 M   ;;SAITO TST     R1,R1                           ;
 8061                                 M   ;;SAITO BT      _JMP00000085                    ;
 8062                                 M   ;
 8063 00000916 016C                   M           MOV.B   @(R0,R6),R1                     ; timmer count start bit LOAD
 8064 00000918 E201                   M           MOV.B   #BIT0,R2                        ;
 8065 0000091A 3210                   M           CMP/EQ  R1,R2                           ;
 8066 0000091C 8B06                   M           BF      _JMP00000085                    ;
 8067                                 M   
 8068 0000091E 6161                   M           MOV.W   @R6,R1                          ;  timer PV data LOAD
 8069                                 M   
*** SuperH RISC engine ASSEMBLER V.7.01.02.000 ***    11/14/21 17:25:06                                                  PAGE    43
PROGRAM NAME =

 8070 00000920 D21E                   M           MOV.L   #1,R2                           ;
 8071 00000922 0008                   M           CLRT                                    ; T <- 0 CLEAR
 8072 00000924 312A                   M           SUBC    R2,R1                           ; TIMER PV DATA -1
 8073 00000926 222A                   M           XOR     R2,R2                           ;
 8074 00000928 312E                   M           ADDC    R2,R1                           ; counter = FFFF --> 0 set
 8075 0000092A 2611                   M           MOV.W   R1,@R6                          ; TIMER DATA -1 SET
 8076                                 M   ;
 8077 0000092C                        M   _JMP00000085:
 8078                                 M   ;
 8079 0000092C D11C                   M           MOV.L   #4,R1                           ;
 8080 0000092E 361C                   M           ADD     R1,R6                           ; next timer data adr set
 8081                                 M   
 8082                             212             _SEQ_TIM_CNT                            ;87
 8083                                 M   ;
 8084                                 M   ;       ***     TIMMER COUNT DOWN MACRO         ***
 8085                                 M   ;;SAITO MOV.B   @(R0,R6),R1                     ; timmer count start bit LOAD
 8086                                 M   ;;SAITO TST     R1,R1                           ;
 8087                                 M   ;;SAITO BT      _JMP00000086                    ;
 8088                                 M   ;
 8089 00000930 016C                   M           MOV.B   @(R0,R6),R1                     ; timmer count start bit LOAD
 8090 00000932 E201                   M           MOV.B   #BIT0,R2                        ;
 8091 00000934 3210                   M           CMP/EQ  R1,R2                           ;
 8092 00000936 8B06                   M           BF      _JMP00000086                    ;
 8093                                 M   
 8094 00000938 6161                   M           MOV.W   @R6,R1                          ;  timer PV data LOAD
 8095                                 M   
 8096 0000093A D218                   M           MOV.L   #1,R2                           ;
 8097 0000093C 0008                   M           CLRT                                    ; T <- 0 CLEAR
 8098 0000093E 312A                   M           SUBC    R2,R1                           ; TIMER PV DATA -1
 8099 00000940 222A                   M           XOR     R2,R2                           ;
 8100 00000942 312E                   M           ADDC    R2,R1                           ; counter = FFFF --> 0 set
 8101 00000944 2611                   M           MOV.W   R1,@R6                          ; TIMER DATA -1 SET
 8102                                 M   ;
 8103 00000946                        M   _JMP00000086:
 8104                                 M   ;
 8105 00000946 D116                   M           MOV.L   #4,R1                           ;
 8106 00000948 361C                   M           ADD     R1,R6                           ; next timer data adr set
 8107                                 M   
 8108                             213             _SEQ_TIM_CNT                            ;88
 8109                                 M   ;
 8110                                 M   ;       ***     TIMMER COUNT DOWN MACRO         ***
 8111                                 M   ;;SAITO MOV.B   @(R0,R6),R1                     ; timmer count start bit LOAD
 8112                                 M   ;;SAITO TST     R1,R1                           ;
 8113                                 M   ;;SAITO BT      _JMP00000087                    ;
 8114                                 M   ;
 8115 0000094A 016C                   M           MOV.B   @(R0,R6),R1                     ; timmer count start bit LOAD
 8116 0000094C E201                   M           MOV.B   #BIT0,R2                        ;
 8117 0000094E 3210                   M           CMP/EQ  R1,R2                           ;
 8118 00000950 8B06                   M           BF      _JMP00000087                    ;
 8119                                 M   
 8120 00000952 6161                   M           MOV.W   @R6,R1                          ;  timer PV data LOAD
 8121                                 M   
 8122 00000954 D211                   M           MOV.L   #1,R2                           ;
 8123 00000956 0008                   M           CLRT                                    ; T <- 0 CLEAR
 8124 00000958 312A                   M           SUBC    R2,R1                           ; TIMER PV DATA -1
 8125 0000095A 222A                   M           XOR     R2,R2                           ;
 8126 0000095C 312E                   M           ADDC    R2,R1                           ; counter = FFFF --> 0 set
*** SuperH RISC engine ASSEMBLER V.7.01.02.000 ***    11/14/21 17:25:06                                                  PAGE    44
PROGRAM NAME =

 8127 0000095E 2611                   M           MOV.W   R1,@R6                          ; TIMER DATA -1 SET
 8128                                 M   ;
 8129 00000960                        M   _JMP00000087:
 8130                                 M   ;
 8131 00000960 D10F                   M           MOV.L   #4,R1                           ;
 8132 00000962 361C                   M           ADD     R1,R6                           ; next timer data adr set
 8133                                 M   
 8134                             214             _SEQ_TIM_CNT                            ;89
 8135                                 M   ;
 8136                                 M   ;       ***     TIMMER COUNT DOWN MACRO         ***
 8137                                 M   ;;SAITO MOV.B   @(R0,R6),R1                     ; timmer count start bit LOAD
 8138                                 M   ;;SAITO TST     R1,R1                           ;
 8139                                 M   ;;SAITO BT      _JMP00000088                    ;
 8140                                 M   ;
 8141 00000964 016C                   M           MOV.B   @(R0,R6),R1                     ; timmer count start bit LOAD
 8142 00000966 E201                   M           MOV.B   #BIT0,R2                        ;
 8143 00000968 3210                   M           CMP/EQ  R1,R2                           ;
 8144 0000096A 8B06                   M           BF      _JMP00000088                    ;
 8145                                 M   
 8146 0000096C 6161                   M           MOV.W   @R6,R1                          ;  timer PV data LOAD
 8147                                 M   
 8148 0000096E D20B                   M           MOV.L   #1,R2                           ;
 8149 00000970 0008                   M           CLRT                                    ; T <- 0 CLEAR
 8150 00000972 312A                   M           SUBC    R2,R1                           ; TIMER PV DATA -1
 8151 00000974 222A                   M           XOR     R2,R2                           ;
 8152 00000976 312E                   M           ADDC    R2,R1                           ; counter = FFFF --> 0 set
 8153 00000978 2611                   M           MOV.W   R1,@R6                          ; TIMER DATA -1 SET
 8154                                 M   ;
 8155 0000097A                        M   _JMP00000088:
 8156                                 M   ;
 8157 0000097A D109                   M           MOV.L   #4,R1                           ;
 8158 0000097C 361C                   M           ADD     R1,R6                           ; next timer data adr set
 8159                                 M   
 8160                             215             _SEQ_TIM_CNT                            ;90
 8161                                 M   ;
 8162                                 M   ;       ***     TIMMER COUNT DOWN MACRO         ***
 8163                                 M   ;;SAITO MOV.B   @(R0,R6),R1                     ; timmer count start bit LOAD
 8164                                 M   ;;SAITO TST     R1,R1                           ;
 8165                                 M   ;;SAITO BT      _JMP00000089                    ;
 8166                                 M   ;
 8167 0000097E 016C                   M           MOV.B   @(R0,R6),R1                     ; timmer count start bit LOAD
 8168 00000980 E201                   M           MOV.B   #BIT0,R2                        ;
 8169 00000982 3210                   M           CMP/EQ  R1,R2                           ;
 8170 00000984 8B06                   M           BF      _JMP00000089                    ;
 8171                                 M   
 8172 00000986 6161                   M           MOV.W   @R6,R1                          ;  timer PV data LOAD
 8173                                 M   
 8174 00000988 D204                   M           MOV.L   #1,R2                           ;
 8175 0000098A 0008                   M           CLRT                                    ; T <- 0 CLEAR
 8176 0000098C 312A                   M           SUBC    R2,R1                           ; TIMER PV DATA -1
 8177 0000098E 222A                   M           XOR     R2,R2                           ;
 8178 00000990 312E                   M           ADDC    R2,R1                           ; counter = FFFF --> 0 set
 8179 00000992 2611                   M           MOV.W   R1,@R6                          ; TIMER DATA -1 SET
 8180                                 M   ;
 8181 00000994                        M   _JMP00000089:
 8182                                 M   ;
 8183 00000994 D102                   M           MOV.L   #4,R1                           ;
*** SuperH RISC engine ASSEMBLER V.7.01.02.000 ***    11/14/21 17:25:06                                                  PAGE    45
PROGRAM NAME =

 8184 00000996 361C                   M           ADD     R1,R6                           ; next timer data adr set
 8185                                 M   
 8186                             216     
 8187                             217             M_BRA   _SEQ_INT_TM10MS_090             ;
 8188 00000998 A004                   M           BRA     _SEQ_INT_TM10MS_090
 8189 0000099A 0009                   M           NOP
 8190                             218     
 8191                                     ***** BEGIN-POOL *****
 8192 0000099C 00000001                   DATA FOR SOURCE-LINE 206,207,208,209,210,211,212,213,214,215
 8193 000009A0 00000004                   DATA FOR SOURCE-LINE 206,207,208,209,210,211,212,213,214,215
 8194                                     ***** END-POOL *****
 8195 000009A4                    219     _SEQ_INT_TM10MS_090:
 8196                             220             _SEQ_TIM_CNT                            ;91
 8197                                 M   ;
 8198                                 M   ;       ***     TIMMER COUNT DOWN MACRO         ***
 8199                                 M   ;;SAITO MOV.B   @(R0,R6),R1                     ; timmer count start bit LOAD
 8200                                 M   ;;SAITO TST     R1,R1                           ;
 8201                                 M   ;;SAITO BT      _JMP00000090                    ;
 8202                                 M   ;
 8203 000009A4 016C                   M           MOV.B   @(R0,R6),R1                     ; timmer count start bit LOAD
 8204 000009A6 E201                   M           MOV.B   #BIT0,R2                        ;
 8205 000009A8 3210                   M           CMP/EQ  R1,R2                           ;
 8206 000009AA 8B06                   M           BF      _JMP00000090                    ;
 8207                                 M   
 8208 000009AC 6161                   M           MOV.W   @R6,R1                          ;  timer PV data LOAD
 8209                                 M   
 8210 000009AE D226                   M           MOV.L   #1,R2                           ;
 8211 000009B0 0008                   M           CLRT                                    ; T <- 0 CLEAR
 8212 000009B2 312A                   M           SUBC    R2,R1                           ; TIMER PV DATA -1
 8213 000009B4 222A                   M           XOR     R2,R2                           ;
 8214 000009B6 312E                   M           ADDC    R2,R1                           ; counter = FFFF --> 0 set
 8215 000009B8 2611                   M           MOV.W   R1,@R6                          ; TIMER DATA -1 SET
 8216                                 M   ;
 8217 000009BA                        M   _JMP00000090:
 8218                                 M   ;
 8219 000009BA D124                   M           MOV.L   #4,R1                           ;
 8220 000009BC 361C                   M           ADD     R1,R6                           ; next timer data adr set
 8221                                 M   
 8222                             221             _SEQ_TIM_CNT                            ;92
 8223                                 M   ;
 8224                                 M   ;       ***     TIMMER COUNT DOWN MACRO         ***
 8225                                 M   ;;SAITO MOV.B   @(R0,R6),R1                     ; timmer count start bit LOAD
 8226                                 M   ;;SAITO TST     R1,R1                           ;
 8227                                 M   ;;SAITO BT      _JMP00000091                    ;
 8228                                 M   ;
 8229 000009BE 016C                   M           MOV.B   @(R0,R6),R1                     ; timmer count start bit LOAD
 8230 000009C0 E201                   M           MOV.B   #BIT0,R2                        ;
 8231 000009C2 3210                   M           CMP/EQ  R1,R2                           ;
 8232 000009C4 8B06                   M           BF      _JMP00000091                    ;
 8233                                 M   
 8234 000009C6 6161                   M           MOV.W   @R6,R1                          ;  timer PV data LOAD
 8235                                 M   
 8236 000009C8 D21F                   M           MOV.L   #1,R2                           ;
 8237 000009CA 0008                   M           CLRT                                    ; T <- 0 CLEAR
 8238 000009CC 312A                   M           SUBC    R2,R1                           ; TIMER PV DATA -1
 8239 000009CE 222A                   M           XOR     R2,R2                           ;
 8240 000009D0 312E                   M           ADDC    R2,R1                           ; counter = FFFF --> 0 set
*** SuperH RISC engine ASSEMBLER V.7.01.02.000 ***    11/14/21 17:25:06                                                  PAGE    46
PROGRAM NAME =

 8241 000009D2 2611                   M           MOV.W   R1,@R6                          ; TIMER DATA -1 SET
 8242                                 M   ;
 8243 000009D4                        M   _JMP00000091:
 8244                                 M   ;
 8245 000009D4 D11D                   M           MOV.L   #4,R1                           ;
 8246 000009D6 361C                   M           ADD     R1,R6                           ; next timer data adr set
 8247                                 M   
 8248                             222             _SEQ_TIM_CNT                            ;93
 8249                                 M   ;
 8250                                 M   ;       ***     TIMMER COUNT DOWN MACRO         ***
 8251                                 M   ;;SAITO MOV.B   @(R0,R6),R1                     ; timmer count start bit LOAD
 8252                                 M   ;;SAITO TST     R1,R1                           ;
 8253                                 M   ;;SAITO BT      _JMP00000092                    ;
 8254                                 M   ;
 8255 000009D8 016C                   M           MOV.B   @(R0,R6),R1                     ; timmer count start bit LOAD
 8256 000009DA E201                   M           MOV.B   #BIT0,R2                        ;
 8257 000009DC 3210                   M           CMP/EQ  R1,R2                           ;
 8258 000009DE 8B06                   M           BF      _JMP00000092                    ;
 8259                                 M   
 8260 000009E0 6161                   M           MOV.W   @R6,R1                          ;  timer PV data LOAD
 8261                                 M   
 8262 000009E2 D219                   M           MOV.L   #1,R2                           ;
 8263 000009E4 0008                   M           CLRT                                    ; T <- 0 CLEAR
 8264 000009E6 312A                   M           SUBC    R2,R1                           ; TIMER PV DATA -1
 8265 000009E8 222A                   M           XOR     R2,R2                           ;
 8266 000009EA 312E                   M           ADDC    R2,R1                           ; counter = FFFF --> 0 set
 8267 000009EC 2611                   M           MOV.W   R1,@R6                          ; TIMER DATA -1 SET
 8268                                 M   ;
 8269 000009EE                        M   _JMP00000092:
 8270                                 M   ;
 8271 000009EE D117                   M           MOV.L   #4,R1                           ;
 8272 000009F0 361C                   M           ADD     R1,R6                           ; next timer data adr set
 8273                                 M   
 8274                             223             _SEQ_TIM_CNT                            ;94
 8275                                 M   ;
 8276                                 M   ;       ***     TIMMER COUNT DOWN MACRO         ***
 8277                                 M   ;;SAITO MOV.B   @(R0,R6),R1                     ; timmer count start bit LOAD
 8278                                 M   ;;SAITO TST     R1,R1                           ;
 8279                                 M   ;;SAITO BT      _JMP00000093                    ;
 8280                                 M   ;
 8281 000009F2 016C                   M           MOV.B   @(R0,R6),R1                     ; timmer count start bit LOAD
 8282 000009F4 E201                   M           MOV.B   #BIT0,R2                        ;
 8283 000009F6 3210                   M           CMP/EQ  R1,R2                           ;
 8284 000009F8 8B06                   M           BF      _JMP00000093                    ;
 8285                                 M   
 8286 000009FA 6161                   M           MOV.W   @R6,R1                          ;  timer PV data LOAD
 8287                                 M   
 8288 000009FC D212                   M           MOV.L   #1,R2                           ;
 8289 000009FE 0008                   M           CLRT                                    ; T <- 0 CLEAR
 8290 00000A00 312A                   M           SUBC    R2,R1                           ; TIMER PV DATA -1
 8291 00000A02 222A                   M           XOR     R2,R2                           ;
 8292 00000A04 312E                   M           ADDC    R2,R1                           ; counter = FFFF --> 0 set
 8293 00000A06 2611                   M           MOV.W   R1,@R6                          ; TIMER DATA -1 SET
 8294                                 M   ;
 8295 00000A08                        M   _JMP00000093:
 8296                                 M   ;
 8297 00000A08 D110                   M           MOV.L   #4,R1                           ;
*** SuperH RISC engine ASSEMBLER V.7.01.02.000 ***    11/14/21 17:25:06                                                  PAGE    47
PROGRAM NAME =

 8298 00000A0A 361C                   M           ADD     R1,R6                           ; next timer data adr set
 8299                                 M   
 8300                             224             _SEQ_TIM_CNT                            ;95
 8301                                 M   ;
 8302                                 M   ;       ***     TIMMER COUNT DOWN MACRO         ***
 8303                                 M   ;;SAITO MOV.B   @(R0,R6),R1                     ; timmer count start bit LOAD
 8304                                 M   ;;SAITO TST     R1,R1                           ;
 8305                                 M   ;;SAITO BT      _JMP00000094                    ;
 8306                                 M   ;
 8307 00000A0C 016C                   M           MOV.B   @(R0,R6),R1                     ; timmer count start bit LOAD
 8308 00000A0E E201                   M           MOV.B   #BIT0,R2                        ;
 8309 00000A10 3210                   M           CMP/EQ  R1,R2                           ;
 8310 00000A12 8B06                   M           BF      _JMP00000094                    ;
 8311                                 M   
 8312 00000A14 6161                   M           MOV.W   @R6,R1                          ;  timer PV data LOAD
 8313                                 M   
 8314 00000A16 D20C                   M           MOV.L   #1,R2                           ;
 8315 00000A18 0008                   M           CLRT                                    ; T <- 0 CLEAR
 8316 00000A1A 312A                   M           SUBC    R2,R1                           ; TIMER PV DATA -1
 8317 00000A1C 222A                   M           XOR     R2,R2                           ;
 8318 00000A1E 312E                   M           ADDC    R2,R1                           ; counter = FFFF --> 0 set
 8319 00000A20 2611                   M           MOV.W   R1,@R6                          ; TIMER DATA -1 SET
 8320                                 M   ;
 8321 00000A22                        M   _JMP00000094:
 8322                                 M   ;
 8323 00000A22 D10A                   M           MOV.L   #4,R1                           ;
 8324 00000A24 361C                   M           ADD     R1,R6                           ; next timer data adr set
 8325                                 M   
 8326                             225             _SEQ_TIM_CNT                            ;96
 8327                                 M   ;
 8328                                 M   ;       ***     TIMMER COUNT DOWN MACRO         ***
 8329                                 M   ;;SAITO MOV.B   @(R0,R6),R1                     ; timmer count start bit LOAD
 8330                                 M   ;;SAITO TST     R1,R1                           ;
 8331                                 M   ;;SAITO BT      _JMP00000095                    ;
 8332                                 M   ;
 8333 00000A26 016C                   M           MOV.B   @(R0,R6),R1                     ; timmer count start bit LOAD
 8334 00000A28 E201                   M           MOV.B   #BIT0,R2                        ;
 8335 00000A2A 3210                   M           CMP/EQ  R1,R2                           ;
 8336 00000A2C 8B06                   M           BF      _JMP00000095                    ;
 8337                                 M   
 8338 00000A2E 6161                   M           MOV.W   @R6,R1                          ;  timer PV data LOAD
 8339                                 M   
 8340 00000A30 D205                   M           MOV.L   #1,R2                           ;
 8341 00000A32 0008                   M           CLRT                                    ; T <- 0 CLEAR
 8342 00000A34 312A                   M           SUBC    R2,R1                           ; TIMER PV DATA -1
 8343 00000A36 222A                   M           XOR     R2,R2                           ;
 8344 00000A38 312E                   M           ADDC    R2,R1                           ; counter = FFFF --> 0 set
 8345 00000A3A 2611                   M           MOV.W   R1,@R6                          ; TIMER DATA -1 SET
 8346                                 M   ;
 8347 00000A3C                        M   _JMP00000095:
 8348                                 M   ;
 8349 00000A3C D103                   M           MOV.L   #4,R1                           ;
 8350 00000A3E 361C                   M           ADD     R1,R6                           ; next timer data adr set
 8351                                 M   
 8352                             226     
 8353                             227     
 8354                             228             SUB_END
*** SuperH RISC engine ASSEMBLER V.7.01.02.000 ***    11/14/21 17:25:06                                                  PAGE    48
PROGRAM NAME =

 8355                                 M   ;;;;;;; ADD     #4,R15                  ;[不要?]
 8356 00000A40 4F26                   M           LDS.L   @R15+,PR                ;[必要]
 8357                             229             M_RTS
 8358 00000A42 000B                   M           RTS                             ;RTSの後ろの
 8359 00000A44 0009                   M           NOP                             ;@R15+,PRはﾀﾞﾒ
 8360                             230     
 8361                             231     
 8362                             232     
 8363                                     ***** BEGIN-POOL *****
 8364 00000A46 0000                       ALIGNMENT CODE
 8365 00000A48 00000001                   DATA FOR SOURCE-LINE 220,221,222,223,224,225
 8366 00000A4C 00000004                   DATA FOR SOURCE-LINE 220,221,222,223,224,225
 8367                                     ***** END-POOL *****
 8368                             233             .END
  *****TOTAL ERRORS       0
  *****TOTAL WARNINGS     0
*** SuperH RISC engine ASSEMBLER V.7.01.02.000 ***    11/14/21 17:25:06                                                  PAGE    49

*** CROSS REFERENCE LIST

NAME                             SECTION  ATTR VALUE             SEQUENCE

BIT0                                      EQU  00000001     59* 5775  5801  5827  5853  5879  5905  5931  5957  5983  6009  6044 
                                                          6070  6096  6122  6148  6174  6200  6226  6252  6278  6314  6340  6366 
                                                          6392  6418  6444  6470  6496  6522  6548  6584  6610  6636  6662  6688 
                                                          6714  6740  6766  6792  6818  6854  6880  6906  6932  6958  6984  7010 
                                                          7036  7062  7088  7124  7150  7176  7202  7228  7254  7280  7306  7332 
                                                          7358  7394  7420  7446  7472  7498  7524  7550  7576  7602  7628  7664 
                                                          7690  7716  7742  7768  7794  7820  7846  7872  7898  7934  7960  7986 
                                                          8012  8038  8064  8090  8116  8142  8168  8204  8230  8256  8282  8308 
                                                          8334 
BIT1                                      EQU  00000002     60*
BIT10                                     EQU  00000400     69*
BIT11                                     EQU  00000800     70*
BIT12                                     EQU  00001000     71*
BIT13                                     EQU  00002000     72*
BIT14                                     EQU  00004000     73*
BIT15                                     EQU  00008000     74*
BIT16                                     EQU  00010000     75*
BIT17                                     EQU  00020000     76*
BIT18                                     EQU  00040000     77*
BIT19                                     EQU  00080000     78*
BIT2                                      EQU  00000004     61*
BIT20                                     EQU  00100000     79*
BIT21                                     EQU  00200000     80*
BIT22                                     EQU  00400000     81*
BIT23                                     EQU  00800000     82*
BIT24                                     EQU  01000000     83*
BIT25                                     EQU  02000000     84*
BIT26                                     EQU  04000000     85*
BIT27                                     EQU  08000000     86*
BIT28                                     EQU  10000000     87*
BIT29                                     EQU  20000000     88*
BIT3                                      EQU  00000008     62*
BIT30                                     EQU  40000000     89*
BIT31                                     EQU  80000000     90*
BIT4                                      EQU  00000010     63*
BIT5                                      EQU  00000020     64*
BIT6                                      EQU  00000040     65*
BIT7                                      EQU  00000080     66*
BIT8                                      EQU  00000100     67*
BIT9                                      EQU  00000200     68*
DREG                                      EQU  00000000   2066*
H_BYTE                                    EQU  00000000    126*
L_BYTE                                    EQU  00000001    125*
NBIT0                                     EQU  000000FE     93*
NBIT1                                     EQU  000000FD     94*
NBIT10                                    EQU  0000FBFF    104*
NBIT11                                    EQU  0000F7FF    105*
NBIT12                                    EQU  0000EFFF    106*
NBIT13                                    EQU  0000DFFF    107*
NBIT14                                    EQU  0000BFFF    108*
NBIT15                                    EQU  00007FFF    109*
NBIT2                                     EQU  000000FB     95*
NBIT3                                     EQU  000000F7     96*
NBIT4                                     EQU  000000EF     97*
*** SuperH RISC engine ASSEMBLER V.7.01.02.000 ***    11/14/21 17:25:06                                                  PAGE    50

*** CROSS REFERENCE LIST

NAME                             SECTION  ATTR VALUE             SEQUENCE

NBIT5                                     EQU  000000DF     98*
NBIT6                                     EQU  000000BF     99*
NBIT7                                     EQU  0000007F    100*
NBIT8                                     EQU  0000FEFF    102*
NBIT9                                     EQU  0000FDFF    103*
P                                P        SCT  00000000   5729*
XBIT0                                     EQU  00000000    112*
XBIT1                                     EQU  00000001    113*
XBIT2                                     EQU  00000002    114*
XBIT3                                     EQU  00000003    115*
XBIT4                                     EQU  00000004    116*
XBIT5                                     EQU  00000005    117*
XBIT6                                     EQU  00000006    118*
XBIT7                                     EQU  00000007    119*
_ADD_CHG                                  IMPT 00000000   1995 
_ADD_CMD                                  EQU  00000044   2085*
_ADD_CODE                                 IMPT 00000000   1950 
_ADD_CODE_END                             IMPT 00000000   1951 
_ADD_SUB                                  IMPT 00000000   1875 
_AMRG_CHG                                 IMPT 00000000   1982 
_AMRG_CODE                                IMPT 00000000   1908 
_AMRG_CODE_END                            IMPT 00000000   1909 
_ANDN_CHG                                 IMPT 00000000   1968 
_ANDN_CODE                                IMPT 00000000   1892 
_ANDN_CODE_END                            IMPT 00000000   1893 
_ANDW_CHG                                 IMPT 00000000   1997 
_ANDW_CMD                                 EQU  00000038   2082*
_ANDW_CODE                                IMPT 00000000   1944 
_ANDW_CODE_END                            IMPT 00000000   1945 
_ANDW_SUB                                 IMPT 00000000   1872 
_AND_CHG                                  IMPT 00000000   1967 
_AND_CODE                                 IMPT 00000000   1890 
_AND_CODE_END                             IMPT 00000000   1891 
_ATOB_KJYUALL_SMPCLR                      IMPT 00000000   3158 
_ATOB_KJYUALL_SMPSTART                    IMPT 00000000   3159 
_ATOB_KJYUTRD_SMPCLR                      IMPT 00000000   3162 
_ATOB_KJYUTRD_SMPSTART                    IMPT 00000000   3163 
_BAMRA                                    IMPT 00000000    339 
_BAMRB                                    IMPT 00000000    342 
_BARA                                     IMPT 00000000    338 
_BARB                                     IMPT 00000000    341 
_BASRA                                    IMPT 00000000    327 
_BASRB                                    IMPT 00000000    328 
_BBIT_CHG_TBL                             IMPT 00000000   2012 
_BBRA                                     IMPT 00000000    340 
_BBRB                                     IMPT 00000000    343 
_BCR1                                     IMPT 00000000    349 
_BCR2                                     IMPT 00000000    350 
_BDMRB                                    IMPT 00000000    345 
_BDRB                                     IMPT 00000000    344 
_BRCR                                     IMPT 00000000    346 
_BTOA_LFT_HAB                             IMPT 00000000   3179 
_BTOA_LFT_MAX                             IMPT 00000000   3177 
_BTOA_LFT_MIN                             IMPT 00000000   3178 
*** SuperH RISC engine ASSEMBLER V.7.01.02.000 ***    11/14/21 17:25:06                                                  PAGE    51

*** CROSS REFERENCE LIST

NAME                             SECTION  ATTR VALUE             SEQUENCE

_BTOA_LFT_TRDHAB                          IMPT 00000000   3192 
_BTOA_LFT_TRDMAX                          IMPT 00000000   3190 
_BTOA_LFT_TRDMIN                          IMPT 00000000   3191 
_BTOA_RIH_HAB                             IMPT 00000000   3183 
_BTOA_RIH_MAX                             IMPT 00000000   3181 
_BTOA_RIH_MIN                             IMPT 00000000   3182 
_BTOA_RIH_TRDHAB                          IMPT 00000000   3196 
_BTOA_RIH_TRDMAX                          IMPT 00000000   3194 
_BTOA_RIH_TRDMIN                          IMPT 00000000   3195 
_BTOA_TTL_HAB                             IMPT 00000000   3187 
_BTOA_TTL_MAX                             IMPT 00000000   3185 
_BTOA_TTL_MIN                             IMPT 00000000   3186 
_BTOA_TTL_TRDHAB                          IMPT 00000000   3200 
_BTOA_TTL_TRDMAX                          IMPT 00000000   3198 
_BTOA_TTL_TRDMIN                          IMPT 00000000   3199 
_CB2HMI_LDCMD_DAT                         IMPT 00000000   4636 
_CB2HMI_LDCMD_FLG                         IMPT 00000000   4635 
_CB_BAKUP_CMD1                            EQU  00005678    158*
_CB_BAKUP_CMD2                            EQU  00001234    159*
_CB_BAK_SUM_COD1                          EQU  5AA51234    156*
_CB_BAK_SUM_COD2                          EQU  A55A4321    157*
_CB_ERR_INFO_MEM                          EQU  00000080    182*
_CB_ERR_INFO_PSIZE                        EQU  00000008    183*
_CB_STS_BUF_1BLK                          EQU  00000040    161*  163 
_CB_STS_BUF_BLKMAX                        EQU  00000008    162*  163 
_CB_STS_BUF_MAX                           EQU  00000200    163*
_CB_STS_SAVE_FLG                          IMPT 00000000   3325 
_CB_TRD_BEFORE                            EQU  00000060    171*
_CB_TRD_BUF_DP_MAX                        EQU  00000080    175*
_CB_TRD_BUF_MAX                           EQU  00000800    172*
_CB_TRD_DP_1CNT                           EQU  00000008    174*
_CB_TRD_DP_CH                             EQU  00000004    167*
_CB_TRD_SAVE_FLG                          IMPT 00000000   3326 
_CB_TRD_SMP_CNT                           EQU  00000080    170*
_CCR                                      IMPT 00000000    329 
_CHCR0                                    IMPT 00000000    370 
_CHCR1                                    IMPT 00000000    374 
_CHCR2                                    IMPT 00000000    378 
_CHCR3                                    IMPT 00000000    382 
_CLR_CHG                                  IMPT 00000000   1980 
_CLR_CMD                                  EQU  0000000C   2071*
_CLR_CODE                                 IMPT 00000000   1918 
_CLR_CODE_END                             IMPT 00000000   1919 
_CLR_SUB                                  IMPT 00000000   1861 
_CMD_1CYCLE_DSP1                          IMPT 00000000   3329 
_CMD_DAIPOS_DSP1                          IMPT 00000000   3330 
_CMD_KJTECH_DSP1                          IMPT 00000000   3333 
_CPA_SHTDAT2                              IMPT 00000000   4643 
_CPA_SMPDAT2                              IMPT 00000000   4642 
_CPUATOB_STS_SAVECMD                      IMPT 00000000   4391 
_CPUATOB_STS_SAVEDAT1                     IMPT 00000000   4392 
_CPUATOB_STS_SAVEDAT2                     IMPT 00000000   4393 
_CPUATOB_STS_SAVEDAT3                     IMPT 00000000   4394 
_CPUATOD_1CYCL_SIG                        IMPT 00000000   5707 
*** SuperH RISC engine ASSEMBLER V.7.01.02.000 ***    11/14/21 17:25:06                                                  PAGE    52

*** CROSS REFERENCE LIST

NAME                             SECTION  ATTR VALUE             SEQUENCE

_CPUA_CONT_MOD_CNT_PV                     IMPT 00000000   3237 
_CPUA_DNM_DIR_NOW                         IMPT 00000000   3226 
_CPUA_DNM_DIR_SET                         IMPT 00000000   3225 
_CPUA_DP_SIZEHCK_END                      IMPT 00000000   5723 
_CPUA_IRQ_ERR_INT_CNT1                    IMPT 00000000   3099 
_CPUA_IRQ_ERR_INT_CNT2                    IMPT 00000000   3100 
_CPUA_IRQ_ERR_INT_CNT3                    IMPT 00000000   3101 
_CPUA_IRQ_ERR_INT_CNT4                    IMPT 00000000   3102 
_CPUA_IRQ_ERR_INT_CNT5                    IMPT 00000000   3103 
_CPUA_IRQ_ERR_INT_CNT6                    IMPT 00000000   3104 
_CPUA_IRQ_ERR_INT_CNT7                    IMPT 00000000   3105 
_CPUA_IRQ_ERR_INT_CNT8                    IMPT 00000000   3106 
_CPUA_IRQ_ERR_INT_CNT9                    IMPT 00000000   3107 
_CPUA_LOT_CHK_FLG                         IMPT 00000000   3233 
_CPUA_LOT_CNT_FLG                         IMPT 00000000   3235 
_CPUA_OP_OUT1_PLS                         IMPT 00000000   3135 
_CPUA_OP_PG1_PLS                          IMPT 00000000   3134 
_CPUA_PLS_OUTF                            IMPT 00000000   2893 
_CPUA_RCV_ACK_ET1                         IMPT 00000000   4653 
_CPUA_RCV_INI_ET1                         IMPT 00000000   4651 
_CPUA_RD_ACK                              IMPT 00000000   4665 
_CPUA_RD_ADR                              IMPT 00000000   4667 
_CPUA_RD_BUF                              IMPT 00000000   4668 
_CPUA_RD_CNT                              IMPT 00000000   4666 
_CPUA_RD_REQ                              IMPT 00000000   4664 
_CPUA_SELF2_CD1                           IMPT 00000000   3121 
_CPUA_SELF2_CD2                           IMPT 00000000   3122 
_CPUA_SELF2_CD3                           IMPT 00000000   3123 
_CPUA_SELF2_CD4                           IMPT 00000000   3124 
_CPUA_SELF2_END                           IMPT 00000000   3120 
_CPUA_SELF2_STR                           IMPT 00000000   3119 
_CPUA_SELF_HAND_FLG                       IMPT 00000000   2980 
_CPUA_SND_DAT                             IMPT 00000000   4656 
_CPUA_SND_END                             IMPT 00000000   4657 
_CPUA_SND_INI_ET1                         IMPT 00000000   4650 
_CPUA_SND_REQ_ADR                         IMPT 00000000   4654 
_CPUA_SND_REQ_CNT                         IMPT 00000000   4655 
_CPUA_SND_REQ_ET1                         IMPT 00000000   4652 
_CPUA_SV_STEP                             IMPT 00000000   3223 
_CPUA_WR2_ACK                             IMPT 00000000   4676 
_CPUA_WR2_ADR                             IMPT 00000000   4673 
_CPUA_WR2_BUF                             IMPT 00000000   4674 
_CPUA_WR2_CNT                             IMPT 00000000   4677 
_CPUA_WR2_REQ                             IMPT 00000000   4675 
_CPUBTOA_DAT1_ACKCOD                      IMPT 00000000   3258 
_CPUBTOA_DAT1_DATTOP                      IMPT 00000000   3259 
_CPUBTOA_DAT1_REQADR                      IMPT 00000000   3254 
_CPUBTOA_DAT1_REQCNT                      IMPT 00000000   3256 
_CPUBTOA_DAT1_REQCOD                      IMPT 00000000   3257 
_CPUBTOA_DAT1_REQKND                      IMPT 00000000   3255 
_CPUBTOA_STS_LOADDAT1                     IMPT 00000000   4397 
_CPUBTOA_STS_LOADDAT2                     IMPT 00000000   4398 
_CPUBTOA_STS_LOADDAT3                     IMPT 00000000   4399 
_CPUBTOA_STS_LOADSTS                      IMPT 00000000   4396 
*** SuperH RISC engine ASSEMBLER V.7.01.02.000 ***    11/14/21 17:25:06                                                  PAGE    53

*** CROSS REFERENCE LIST

NAME                             SECTION  ATTR VALUE             SEQUENCE

_CPUB_CONT_MOD_CNT_PV                     IMPT 00000000   3238 
_CPUB_DBG_MONI_CNT                        IMPT 00000000   3240 
_CPUB_DBG_MONI_STP                        IMPT 00000000   3239 
_CPUB_DNM_DIR_NOW                         IMPT 00000000   3228 
_CPUB_DNM_DIR_SET                         IMPT 00000000   3227 
_CPUB_IRQ_ERR_INT_CNT1                    IMPT 00000000   3108 
_CPUB_IRQ_ERR_INT_CNT2                    IMPT 00000000   3109 
_CPUB_IRQ_ERR_INT_CNT3                    IMPT 00000000   3110 
_CPUB_IRQ_ERR_INT_CNT4                    IMPT 00000000   3111 
_CPUB_IRQ_ERR_INT_CNT5                    IMPT 00000000   3112 
_CPUB_IRQ_ERR_INT_CNT6                    IMPT 00000000   3113 
_CPUB_IRQ_ERR_INT_CNT7                    IMPT 00000000   3114 
_CPUB_IRQ_ERR_INT_CNT8                    IMPT 00000000   3115 
_CPUB_IRQ_ERR_INT_CNT9                    IMPT 00000000   3116 
_CPUB_LOT_CHK_FLG                         IMPT 00000000   3234 
_CPUB_LOT_CNT_FLG                         IMPT 00000000   3236 
_CPUB_PLS_OUTF                            IMPT 00000000   2894 
_CPUB_SELF2_CD1                           IMPT 00000000   3128 
_CPUB_SELF2_CD2                           IMPT 00000000   3129 
_CPUB_SELF2_CD3                           IMPT 00000000   3130 
_CPUB_SELF2_CD4                           IMPT 00000000   3131 
_CPUB_SELF2_END                           IMPT 00000000   3127 
_CPUB_SELF2_STR                           IMPT 00000000   3126 
_CPUB_SELF_HAND_FLG                       IMPT 00000000   2981 
_CPUB_START_COD                           IMPT 00000000   2880 
_CPUB_SV_STEP                             IMPT 00000000   3224 
_CPUDTOA_DAT1_ACKCOD                      IMPT 00000000   5698 
_CPUDTOA_DAT1_DATTOP                      IMPT 00000000   5699 
_CPUDTOA_DAT1_REQADR                      IMPT 00000000   5694 
_CPUDTOA_DAT1_REQCNT                      IMPT 00000000   5696 
_CPUDTOA_DAT1_REQCOD                      IMPT 00000000   5697 
_CPUDTOA_DAT1_REQKND                      IMPT 00000000   5695 
_CPUD_AD_INF                              IMPT 00000000   5719 
_CPUD_PV_AD2                              IMPT 00000000   5716 
_CPUD_PV_AD3                              IMPT 00000000   5717 
_CPUD_PV_AD4                              IMPT 00000000   5718 
_CPUD_START_COD                           IMPT 00000000   3300 
_CPU_CTRL_CLK                             IMPT 00000000   2984 
_CTR_CMD                                  EQU  00000014   2073*
_DAR0                                     IMPT 00000000    368 
_DAR1                                     IMPT 00000000    372 
_DAR2                                     IMPT 00000000    376 
_DAR3                                     IMPT 00000000    380 
_DA_CNV_DT0                               IMPT 00000000   1844 
_DBG2_MONI_A00                            IMPT 00000000   4364 
_DBG2_MONI_A01                            IMPT 00000000   4365 
_DBG2_MONI_A02                            IMPT 00000000   4366 
_DBG2_MONI_A03                            IMPT 00000000   4367 
_DBG2_MONI_A04                            IMPT 00000000   4368 
_DBG2_MONI_A05                            IMPT 00000000   4369 
_DBG2_MONI_A06                            IMPT 00000000   4370 
_DBG2_MONI_A07                            IMPT 00000000   4371 
_DBG2_MONI_B00                            IMPT 00000000   4381 
_DBG2_MONI_B01                            IMPT 00000000   4382 
*** SuperH RISC engine ASSEMBLER V.7.01.02.000 ***    11/14/21 17:25:06                                                  PAGE    54

*** CROSS REFERENCE LIST

NAME                             SECTION  ATTR VALUE             SEQUENCE

_DBG2_MONI_B02                            IMPT 00000000   4383 
_DBG2_MONI_B03                            IMPT 00000000   4384 
_DBG2_MONI_B04                            IMPT 00000000   4385 
_DBG2_MONI_B05                            IMPT 00000000   4386 
_DBG2_MONI_B06                            IMPT 00000000   4387 
_DBG2_MONI_B07                            IMPT 00000000   4388 
_DBG4_MONI_A00                            IMPT 00000000   4356 
_DBG4_MONI_A01                            IMPT 00000000   4357 
_DBG4_MONI_A02                            IMPT 00000000   4358 
_DBG4_MONI_A03                            IMPT 00000000   4359 
_DBG4_MONI_A04                            IMPT 00000000   4360 
_DBG4_MONI_A05                            IMPT 00000000   4361 
_DBG4_MONI_A06                            IMPT 00000000   4362 
_DBG4_MONI_A07                            IMPT 00000000   4363 
_DBG4_MONI_B00                            IMPT 00000000   4373 
_DBG4_MONI_B01                            IMPT 00000000   4374 
_DBG4_MONI_B02                            IMPT 00000000   4375 
_DBG4_MONI_B03                            IMPT 00000000   4376 
_DBG4_MONI_B04                            IMPT 00000000   4377 
_DBG4_MONI_B05                            IMPT 00000000   4378 
_DBG4_MONI_B06                            IMPT 00000000   4379 
_DBG4_MONI_B07                            IMPT 00000000   4380 
_DEBUG_MONI_ABS_POS                       IMPT 00000000   4182 
_DEBUG_MONI_C1                            IMPT 00000000   4185 
_DEBUG_MONI_C2                            IMPT 00000000   4186 
_DEBUG_MONI_MD_DT0                        IMPT 00000000   4183 
_DEBUG_MONI_MD_DT1                        IMPT 00000000   4184 
_DEBUG_MONI_WORK1                         IMPT 00000000   4187 
_DEBUG_MONI_WORK2                         IMPT 00000000   4188 
_DEBUG_MONI_WORK3                         IMPT 00000000   4189 
_DEBUG_MONI_WORK4                         IMPT 00000000   4190 
_DEBUG_MONI_WORK5                         IMPT 00000000   4191 
_DEBUG_MONI_WORK6                         IMPT 00000000   4192 
_DMAOR                                    IMPT 00000000    383 
_DMATCR0                                  IMPT 00000000    369 
_DMATCR1                                  IMPT 00000000    373 
_DMATCR2                                  IMPT 00000000    377 
_DMATCR3                                  IMPT 00000000    381 
_DP_COP_CB_LD_MONI_SIG                    IMPT 00000000   2883 
_DP_DBG_CPUAB_DRV_START                   IMPT 00000000   2885 
_DSET_CHG                                 IMPT 00000000   1981 
_DS_CODE                                  IMPT 00000000   1916 
_DS_CODE_END                              IMPT 00000000   1917 
_DUMMY_SUM_CODE                           EQU  5AA53CC3    149*
_EMG_SH2_TO_SH4                           IMPT 00000000   2940 
_EMG_SH4_TO_SH2                           IMPT 00000000   2939 
_END_CHG                                  IMPT 00000000   1986 
_END_CMD                                  EQU  0000004C   2087*
_END_CODE                                 IMPT 00000000   1954 
_END_CODE_END                             IMPT 00000000   1955 
_END_SUB                                  IMPT 00000000   1877 
_EQ_CHG                                   IMPT 00000000   1991 
_EQ_CMD                                   EQU  00000028   2078*
_EQ_CODE                                  IMPT 00000000   1936 
*** SuperH RISC engine ASSEMBLER V.7.01.02.000 ***    11/14/21 17:25:06                                                  PAGE    55

*** CROSS REFERENCE LIST

NAME                             SECTION  ATTR VALUE             SEQUENCE

_EQ_CODE_END                              IMPT 00000000   1937 
_EQ_SUB                                   IMPT 00000000   1868 
_ERR_INFO_CPUA_FLG                        IMPT 00000000   4422 
_ERR_INFO_CPUA_TOP                        IMPT 00000000   4423 
_EXPEVT                                   IMPT 00000000    331 
_EXQ_SH2_TO_SH4                           IMPT 00000000   2943 
_EXQ_SH4_TO_SH2                           IMPT 00000000   2942 
_FRQCR                                    IMPT 00000000    386 
_GPIOIC                                   IMPT 00000000    364 
_GT_CHG                                   IMPT 00000000   1993 
_GT_CMD                                   EQU  00000030   2080*
_GT_CODE                                  IMPT 00000000   1940 
_GT_CODE_END                              IMPT 00000000   1941 
_GT_SUB                                   IMPT 00000000   1870 
_HD_CMP_PLS_A1                            IMPT 00000000   2896 
_HD_CMP_PLS_B1                            IMPT 00000000   2897 
_HMI2CB_LDCMD_DAT                         IMPT 00000000   4634 
_HMI2CB_LDCMD_FLG                         IMPT 00000000   4633 
_HND_SHTCNT_FLG2                          IMPT 00000000   4645 
_HND_SMPCNT_FLG2                          IMPT 00000000   4644 
_HS_PVP_LOTCNT_FLG                        IMPT 00000000   3320 
_HS_PVP_TAKIKI_FLG                        IMPT 00000000   3319 
_HS_SVCHG_A_TO_B                          IMPT 00000000   3318 
_HS_SVCHG_B_TO_A                          IMPT 00000000   3295 
_ICR                                      IMPT 00000000    393 
_INTEVT                                   IMPT 00000000    332 
_INT_2MS_SEL                              IMPT 00000000   1812 
_IPRA                                     IMPT 00000000    394 
_IPRB                                     IMPT 00000000    395 
_IPRC                                     IMPT 00000000    396 
_IPRD                                     IMPT 00000000    397 
_JMP00000000                     P             0000002A   5777  5788*
_JMP00000001                     P             00000044   5803  5814*
_JMP00000002                     P             0000005E   5829  5840*
_JMP00000003                     P             00000078   5855  5866*
_JMP00000004                     P             00000092   5881  5892*
_JMP00000005                     P             000000AC   5907  5918*
_JMP00000006                     P             000000C6   5933  5944*
_JMP00000007                     P             000000E0   5959  5970*
_JMP00000008                     P             000000FA   5985  5996*
_JMP00000009                     P             00000114   6011  6022*
_JMP00000010                     P             0000013A   6046  6057*
_JMP00000011                     P             00000154   6072  6083*
_JMP00000012                     P             0000016E   6098  6109*
_JMP00000013                     P             00000188   6124  6135*
_JMP00000014                     P             000001A2   6150  6161*
_JMP00000015                     P             000001BC   6176  6187*
_JMP00000016                     P             000001D6   6202  6213*
_JMP00000017                     P             000001F0   6228  6239*
_JMP00000018                     P             0000020A   6254  6265*
_JMP00000019                     P             00000224   6280  6291*
_JMP00000020                     P             0000024A   6316  6327*
_JMP00000021                     P             00000264   6342  6353*
_JMP00000022                     P             0000027E   6368  6379*
*** SuperH RISC engine ASSEMBLER V.7.01.02.000 ***    11/14/21 17:25:06                                                  PAGE    56

*** CROSS REFERENCE LIST

NAME                             SECTION  ATTR VALUE             SEQUENCE

_JMP00000023                     P             00000298   6394  6405*
_JMP00000024                     P             000002B2   6420  6431*
_JMP00000025                     P             000002CC   6446  6457*
_JMP00000026                     P             000002E6   6472  6483*
_JMP00000027                     P             00000300   6498  6509*
_JMP00000028                     P             0000031A   6524  6535*
_JMP00000029                     P             00000334   6550  6561*
_JMP00000030                     P             0000035A   6586  6597*
_JMP00000031                     P             00000374   6612  6623*
_JMP00000032                     P             0000038E   6638  6649*
_JMP00000033                     P             000003A8   6664  6675*
_JMP00000034                     P             000003C2   6690  6701*
_JMP00000035                     P             000003DC   6716  6727*
_JMP00000036                     P             000003F6   6742  6753*
_JMP00000037                     P             00000410   6768  6779*
_JMP00000038                     P             0000042A   6794  6805*
_JMP00000039                     P             00000444   6820  6831*
_JMP00000040                     P             0000046A   6856  6867*
_JMP00000041                     P             00000484   6882  6893*
_JMP00000042                     P             0000049E   6908  6919*
_JMP00000043                     P             000004B8   6934  6945*
_JMP00000044                     P             000004D2   6960  6971*
_JMP00000045                     P             000004EC   6986  6997*
_JMP00000046                     P             00000506   7012  7023*
_JMP00000047                     P             00000520   7038  7049*
_JMP00000048                     P             0000053A   7064  7075*
_JMP00000049                     P             00000554   7090  7101*
_JMP00000050                     P             0000057A   7126  7137*
_JMP00000051                     P             00000594   7152  7163*
_JMP00000052                     P             000005AE   7178  7189*
_JMP00000053                     P             000005C8   7204  7215*
_JMP00000054                     P             000005E2   7230  7241*
_JMP00000055                     P             000005FC   7256  7267*
_JMP00000056                     P             00000616   7282  7293*
_JMP00000057                     P             00000630   7308  7319*
_JMP00000058                     P             0000064A   7334  7345*
_JMP00000059                     P             00000664   7360  7371*
_JMP00000060                     P             0000068A   7396  7407*
_JMP00000061                     P             000006A4   7422  7433*
_JMP00000062                     P             000006BE   7448  7459*
_JMP00000063                     P             000006D8   7474  7485*
_JMP00000064                     P             000006F2   7500  7511*
_JMP00000065                     P             0000070C   7526  7537*
_JMP00000066                     P             00000726   7552  7563*
_JMP00000067                     P             00000740   7578  7589*
_JMP00000068                     P             0000075A   7604  7615*
_JMP00000069                     P             00000774   7630  7641*
_JMP00000070                     P             0000079A   7666  7677*
_JMP00000071                     P             000007B4   7692  7703*
_JMP00000072                     P             000007CE   7718  7729*
_JMP00000073                     P             000007E8   7744  7755*
_JMP00000074                     P             00000802   7770  7781*
_JMP00000075                     P             0000081C   7796  7807*
_JMP00000076                     P             00000836   7822  7833*
*** SuperH RISC engine ASSEMBLER V.7.01.02.000 ***    11/14/21 17:25:06                                                  PAGE    57

*** CROSS REFERENCE LIST

NAME                             SECTION  ATTR VALUE             SEQUENCE

_JMP00000077                     P             00000850   7848  7859*
_JMP00000078                     P             0000086A   7874  7885*
_JMP00000079                     P             00000884   7900  7911*
_JMP00000080                     P             000008AA   7936  7947*
_JMP00000081                     P             000008C4   7962  7973*
_JMP00000082                     P             000008DE   7988  7999*
_JMP00000083                     P             000008F8   8014  8025*
_JMP00000084                     P             00000912   8040  8051*
_JMP00000085                     P             0000092C   8066  8077*
_JMP00000086                     P             00000946   8092  8103*
_JMP00000087                     P             00000960   8118  8129*
_JMP00000088                     P             0000097A   8144  8155*
_JMP00000089                     P             00000994   8170  8181*
_JMP00000090                     P             000009BA   8206  8217*
_JMP00000091                     P             000009D4   8232  8243*
_JMP00000092                     P             000009EE   8258  8269*
_JMP00000093                     P             00000A08   8284  8295*
_JMP00000094                     P             00000A22   8310  8321*
_JMP00000095                     P             00000A3C   8336  8347*
_KEEPRY_BKUP_FLG                          IMPT 00000000   3322 
_LDN_CHG                                  IMPT 00000000   1966 
_LDN_CODE                                 IMPT 00000000   1888 
_LDN_CODE_END                             IMPT 00000000   1889 
_LDWU_CHG                                 IMPT 00000000   1988 
_LDWU_CODE                                IMPT 00000000   1930 
_LDWU_CODE_END                            IMPT 00000000   1931 
_LDW_CHG                                  IMPT 00000000   1987 
_LDW_CMD                                  EQU  00000020   2076*
_LDW_CODE                                 IMPT 00000000   1928 
_LDW_CODE_END                             IMPT 00000000   1929 
_LDW_SUB                                  IMPT 00000000   1866 
_LD_CHG                                   IMPT 00000000   1965 
_LD_CODE                                  IMPT 00000000   1886 
_LD_CODE_END                              IMPT 00000000   1887 
_LE_CHG                                   IMPT 00000000   1994 
_LE_CMD                                   EQU  00000034   2081*
_LE_CODE                                  IMPT 00000000   1942 
_LE_CODE_END                              IMPT 00000000   1943 
_LE_SUB                                   IMPT 00000000   1871 
_MCR                                      IMPT 00000000    354 
_MMUCR                                    IMPT 00000000    326 
_NE_CHG                                   IMPT 00000000   1992 
_NE_CMD                                   EQU  0000002C   2079*
_NE_CODE                                  IMPT 00000000   1938 
_NE_CODE_END                              IMPT 00000000   1939 
_NE_SUB                                   IMPT 00000000   1869 
_NOP_CHG                                  IMPT 00000000   1964 
_NOP_CODE                                 IMPT 00000000   1884 
_NOP_CODE_END                             IMPT 00000000   1885 
_NOP_SHLL8_R0_TBL0                        IMPT 00000000   2024 
_NOP_SHLL8_R1_TBL0                        IMPT 00000000   2025 
_NOP_SHLL8_R2_TBL0                        IMPT 00000000   2026 
_NOP_SHLL8_R3_TBL0                        IMPT 00000000   2027 
_NOP_SHLL8_R4_TBL0                        IMPT 00000000   2028 
*** SuperH RISC engine ASSEMBLER V.7.01.02.000 ***    11/14/21 17:25:06                                                  PAGE    58

*** CROSS REFERENCE LIST

NAME                             SECTION  ATTR VALUE             SEQUENCE

_NOP_SWAP_TBL0                            IMPT 00000000   2023 
_OMRG_CHG                                 IMPT 00000000   1983 
_OMRG_CODE                                IMPT 00000000   1910 
_OMRG_CODE_END                            IMPT 00000000   1911 
_ORN_CHG                                  IMPT 00000000   1970 
_ORN_CODE                                 IMPT 00000000   1896 
_ORN_CODE_END                             IMPT 00000000   1897 
_ORW_CHG                                  IMPT 00000000   1998 
_ORW_CMD                                  EQU  0000003C   2083*
_ORW_CODE                                 IMPT 00000000   1946 
_ORW_CODE_END                             IMPT 00000000   1947 
_ORW_SUB                                  IMPT 00000000   1873 
_OR_CHG                                   IMPT 00000000   1969 
_OR_CODE                                  IMPT 00000000   1894 
_OR_CODE_END                              IMPT 00000000   1895 
_PCR                                      IMPT 00000000    355 
_PCTRA                                    IMPT 00000000    360 
_PCTRB                                    IMPT 00000000    362 
_PDTRA                                    IMPT 00000000    361 
_PDTRB                                    IMPT 00000000    363 
_PLF_CHG                                  IMPT 00000000   1972 
_PLF_CMD                                  EQU  00000008   2070*
_PLF_CODE                                 IMPT 00000000   1906 
_PLF_CODE_END                             IMPT 00000000   1907 
_PLF_SUB                                  IMPT 00000000   1860 
_PLS_CHG                                  IMPT 00000000   1971 
_PLS_CMD                                  EQU  00000004   2069*
_PLS_CODE                                 IMPT 00000000   1904 
_PLS_CODE_END                             IMPT 00000000   1905 
_PLS_SUB                                  IMPT 00000000   1859 
_PTEA                                     IMPT 00000000    333 
_PTEH                                     IMPT 00000000    322 
_PTEL                                     IMPT 00000000    323 
_PVOP2_WAIT_CODA                          IMPT 00000000   3136 
_PVOP2_WAIT_CODB                          IMPT 00000000   3137 
_PVPAB_ARA1_KAJ_L                         IMPT 00000000   3172 
_PVPAB_ARA1_KAJ_R                         IMPT 00000000   3173 
_PVPAB_ARA1_KAJ_T                         IMPT 00000000   3174 
_PVPAB_DBG_KYUIN1                         IMPT 00000000   3147 
_PVPAB_DBG_KYUIN2                         IMPT 00000000   3148 
_PVPAB_DBG_KYUIN3                         IMPT 00000000   3149 
_PVPAB_KAJLIV_LFT                         IMPT 00000000   3167 
_PVPAB_KAJLIV_RIH                         IMPT 00000000   3168 
_PVPAB_KAJLIV_TTL                         IMPT 00000000   3169 
_PVPAB_SH2_AD_DAT2                        IMPT 00000000   3144 
_PVPAB_SH2_AD_DAT3                        IMPT 00000000   3145 
_PVPAB_SH2_AD_DAT4                        IMPT 00000000   3146 
_PVPAB_SH2_AD_DATA                        IMPT 00000000   3143 
_PVP_1ROT_CALSPM                          IMPT 00000000   3753 
_PVP_360_DEG                              IMPT 00000000   3764 
_PVP_ABS_ENC_SPD                          IMPT 00000000   4322 
_PVP_ABS_OUT_SPD                          IMPT 00000000   4323 
_PVP_ARA1_KAJ_L                           IMPT 00000000   3749 
_PVP_ARA1_KAJ_R                           IMPT 00000000   3748 
*** SuperH RISC engine ASSEMBLER V.7.01.02.000 ***    11/14/21 17:25:06                                                  PAGE    59

*** CROSS REFERENCE LIST

NAME                             SECTION  ATTR VALUE             SEQUENCE

_PVP_ARA1_KAJ_T                           IMPT 00000000   3750 
_PVP_ARA1_KAJ_T2                          IMPT 00000000   3817 
_PVP_ATSLID_OBJ1                          IMPT 00000000   4610 
_PVP_A_LOT_CNT1                           IMPT 00000000   4331 
_PVP_A_LOT_CNT2                           IMPT 00000000   4333 
_PVP_A_LOT_CNT3                           IMPT 00000000   4335 
_PVP_A_LOT_CNT4                           IMPT 00000000   4337 
_PVP_A_LOT_CNT5                           IMPT 00000000   4339 
_PVP_BAKORG_PLS1                          IMPT 00000000   3760 
_PVP_BAKORG_PLS2                          IMPT 00000000   3761 
_PVP_BREAK_DIG                            IMPT 00000000   4287 
_PVP_BREAK_TIM1                           IMPT 00000000   4292 
_PVP_BRK_ENC_SPD                          IMPT 00000000   4326 
_PVP_BRK_OUT_SPD                          IMPT 00000000   4327 
_PVP_B_LOT_CNT1                           IMPT 00000000   4332 
_PVP_B_LOT_CNT2                           IMPT 00000000   4334 
_PVP_B_LOT_CNT3                           IMPT 00000000   4336 
_PVP_B_LOT_CNT4                           IMPT 00000000   4338 
_PVP_B_LOT_CNT5                           IMPT 00000000   4340 
_PVP_CB_A_VER                             IMPT 00000000   4406 
_PVP_CB_B_VER                             IMPT 00000000   4407 
_PVP_CB_C_VER                             IMPT 00000000   4426 
_PVP_CKAGL_OVBIT                          IMPT 00000000   4581 
_PVP_CKLMT_AGL01                          IMPT 00000000   4583 
_PVP_CKLMT_AGL02                          IMPT 00000000   4584 
_PVP_CKLMT_AGL03                          IMPT 00000000   4585 
_PVP_CKLMT_AGL04                          IMPT 00000000   4586 
_PVP_CKLMT_AGL05                          IMPT 00000000   4587 
_PVP_CKLMT_AGL06                          IMPT 00000000   4588 
_PVP_CKLMT_AGL07                          IMPT 00000000   4589 
_PVP_CKLMT_AGL08                          IMPT 00000000   4590 
_PVP_CKLMT_AGL09                          IMPT 00000000   4591 
_PVP_CKLMT_AGL10                          IMPT 00000000   4592 
_PVP_CKLMT_AGLTOP                         IMPT 00000000   4582 
_PVP_CKLMT_MDSPD                          IMPT 00000000   3892 
_PVP_CKLMT_SPD01                          IMPT 00000000   3895 
_PVP_CKLMT_SPD02                          IMPT 00000000   3896 
_PVP_CKLMT_SPD03                          IMPT 00000000   3897 
_PVP_CKLMT_SPD04                          IMPT 00000000   3898 
_PVP_CKLMT_SPD05                          IMPT 00000000   3899 
_PVP_CKLMT_SPD06                          IMPT 00000000   3900 
_PVP_CKLMT_SPD07                          IMPT 00000000   3901 
_PVP_CKLMT_SPD08                          IMPT 00000000   3902 
_PVP_CKLMT_SPD09                          IMPT 00000000   3903 
_PVP_CKLMT_SPD10                          IMPT 00000000   3904 
_PVP_CKLMT_SPDTOP                         IMPT 00000000   3894 
_PVP_CKSPD_LMBIT                          IMPT 00000000   4605 
_PVP_CKSPD_OVBIT                          IMPT 00000000   3891 
_PVP_CKSPD_STPBT                          IMPT 00000000   4606 
_PVP_COM_ADR                              IMPT 00000000   4289 
_PVP_COM_ERR                              IMPT 00000000   4288 
_PVP_CPUA_ANAIN                           IMPT 00000000   4317 
_PVP_CPUA_TEPPLS                          IMPT 00000000   4315 
_PVP_CPUB_ANAIN                           IMPT 00000000   4318 
*** SuperH RISC engine ASSEMBLER V.7.01.02.000 ***    11/14/21 17:25:06                                                  PAGE    60

*** CROSS REFERENCE LIST

NAME                             SECTION  ATTR VALUE             SEQUENCE

_PVP_CPUB_TEPPLS                          IMPT 00000000   4316 
_PVP_CYCLE_SPM1                           IMPT 00000000   4276 
_PVP_CYCLE_TIME0                          IMPT 00000000   4273 
_PVP_DEB_DAT0                             IMPT 00000000   4212 
_PVP_DEB_DAT1                             IMPT 00000000   4213 
_PVP_DEB_DAT2                             IMPT 00000000   4214 
_PVP_DEB_DAT3                             IMPT 00000000   4215 
_PVP_DEB_DAT4                             IMPT 00000000   4216 
_PVP_DEB_DAT5                             IMPT 00000000   4217 
_PVP_DEB_DAT6                             IMPT 00000000   4218 
_PVP_DEB_DAT7                             IMPT 00000000   4219 
_PVP_DEB_DAT8                             IMPT 00000000   4220 
_PVP_DEB_DAT9                             IMPT 00000000   4221 
_PVP_DISP_SPM2                            IMPT 00000000   4277 
_PVP_DYHITO_HOSLNG                        IMPT 00000000   4279 
_PVP_DYHITO_POS                           IMPT 00000000   4280 
_PVP_ECO_METER                            IMPT 00000000   4344 
_PVP_ENC_PLS_SPD                          IMPT 00000000   4320 
_PVP_ENC_SPD_DIR                          IMPT 00000000   4328 
_PVP_ENC_SPD_PER                          IMPT 00000000   4324 
_PVP_EPM_KAISE                            IMPT 00000000   4347 
_PVP_EPM_SYOHI                            IMPT 00000000   4346 
_PVP_GMNSEQ_CNT01                         IMPT 00000000   4294 
_PVP_GMNSEQ_CNT02                         IMPT 00000000   4295 
_PVP_GMNSEQ_CNT03                         IMPT 00000000   4296 
_PVP_GMNSEQ_CNT04                         IMPT 00000000   4297 
_PVP_GMNSEQ_CNT05                         IMPT 00000000   4298 
_PVP_GMNSEQ_CNT06                         IMPT 00000000   4299 
_PVP_GMNSEQ_CNT07                         IMPT 00000000   4300 
_PVP_GMNSEQ_CNT08                         IMPT 00000000   4301 
_PVP_GMNSEQ_TIM01                         IMPT 00000000   4303 
_PVP_GMNSEQ_TIM02                         IMPT 00000000   4304 
_PVP_GMNSEQ_TIM03                         IMPT 00000000   4305 
_PVP_GMNSEQ_TIM04                         IMPT 00000000   4306 
_PVP_GMNSEQ_TIM05                         IMPT 00000000   4307 
_PVP_GMNSEQ_TIM06                         IMPT 00000000   4308 
_PVP_GMNSEQ_TIM07                         IMPT 00000000   4309 
_PVP_GMNSEQ_TIM08                         IMPT 00000000   4310 
_PVP_IVW_DOT                              IMPT 00000000   4349 
_PVP_KAJLIV_LFT                           IMPT 00000000   3733 
_PVP_KAJLIV_RIH                           IMPT 00000000   3735 
_PVP_KAJLIV_TTL                           IMPT 00000000   3734 
_PVP_MENTE_CNT                            IMPT 00000000   3819 
_PVP_MONALM1_TOP                          IMPT 00000000   4235 
_PVP_MONALM2_TOP                          IMPT 00000000   4355 
_PVP_MONALM_A01                           IMPT 00000000   4248 
_PVP_MONALM_A02                           IMPT 00000000   4249 
_PVP_MONALM_A03                           IMPT 00000000   4250 
_PVP_MONALM_A04                           IMPT 00000000   4251 
_PVP_MONALM_A05                           IMPT 00000000   4252 
_PVP_MONALM_A06                           IMPT 00000000   4253 
_PVP_MONALM_A07                           IMPT 00000000   4254 
_PVP_MONALM_A08                           IMPT 00000000   4255 
_PVP_MONALM_B01                           IMPT 00000000   4256 
*** SuperH RISC engine ASSEMBLER V.7.01.02.000 ***    11/14/21 17:25:06                                                  PAGE    61

*** CROSS REFERENCE LIST

NAME                             SECTION  ATTR VALUE             SEQUENCE

_PVP_MONALM_B02                           IMPT 00000000   4257 
_PVP_MONALM_B03                           IMPT 00000000   4258 
_PVP_MONALM_B04                           IMPT 00000000   4259 
_PVP_MONALM_B05                           IMPT 00000000   4260 
_PVP_MONALM_B06                           IMPT 00000000   4261 
_PVP_MONALM_B07                           IMPT 00000000   4262 
_PVP_MONALM_B08                           IMPT 00000000   4263 
_PVP_MONALM_C01                           IMPT 00000000   4240 
_PVP_MONALM_C02                           IMPT 00000000   4241 
_PVP_MONALM_C03                           IMPT 00000000   4242 
_PVP_MONALM_C04                           IMPT 00000000   4243 
_PVP_MONALM_C05                           IMPT 00000000   4244 
_PVP_MONALM_C06                           IMPT 00000000   4245 
_PVP_MONALM_C07                           IMPT 00000000   4246 
_PVP_MONALM_C08                           IMPT 00000000   4247 
_PVP_MONALM_P01                           IMPT 00000000   4236 
_PVP_MONALM_P02                           IMPT 00000000   4237 
_PVP_MONALM_P03                           IMPT 00000000   4238 
_PVP_MONALM_P04                           IMPT 00000000   4239 
_PVP_MOTINS_AG2                           IMPT 00000000   3883 
_PVP_MOTINS_AG3                           IMPT 00000000   3886 
_PVP_MOTINS_AGL                           IMPT 00000000   3878 
_PVP_MOTINS_DAN                           IMPT 00000000   3877 
_PVP_MOTINS_DANAFT                        IMPT 00000000   3907 
_PVP_MOTINS_DANBEF                        IMPT 00000000   3906 
_PVP_MOTINS_INF                           IMPT 00000000   3888 
_PVP_MOTINS_POS                           IMPT 00000000   3879 
_PVP_MOTINS_PS2                           IMPT 00000000   3882 
_PVP_MOTINS_PS3                           IMPT 00000000   3887 
_PVP_NOW_ANGLE00                          IMPT 00000000   4272 
_PVP_NOW_ANGLE_RNA                        IMPT 00000000   4278 
_PVP_NOW_POSI000                          IMPT 00000000   4270 
_PVP_ORGRNA_MOV1                          IMPT 00000000   3756 
_PVP_ORGRNA_MOV2                          IMPT 00000000   3757 
_PVP_ORGSTRK_LEG1                         IMPT 00000000   3758 
_PVP_ORGSTRK_LEG2                         IMPT 00000000   3759 
_PVP_OUT_PLS_SPD                          IMPT 00000000   4321 
_PVP_OUT_SPD_DIR                          IMPT 00000000   4329 
_PVP_OUT_SPD_PER                          IMPT 00000000   4325 
_PVP_PAR_A_CHAR                           IMPT 00000000   4416 
_PVP_PAR_A_VER                            IMPT 00000000   4410 
_PVP_PAR_B_CHAR                           IMPT 00000000   4417 
_PVP_PAR_B_VER                            IMPT 00000000   4411 
_PVP_PAR_C_CHAR                           IMPT 00000000   4428 
_PVP_PAR_C_VER                            IMPT 00000000   4427 
_PVP_PG12_DEG1                            IMPT 00000000   3826 
_PVP_PG_DEG1                              IMPT 00000000   3765 
_PVP_PG_DEG1X                             IMPT 00000000   3822 
_PVP_PG_DEG2                              IMPT 00000000   3766 
_PVP_PG_DEG2X                             IMPT 00000000   3823 
_PVP_PG_PLS1                              IMPT 00000000   3824 
_PVP_PG_PLS2                              IMPT 00000000   3825 
_PVP_POWER_KWH                            IMPT 00000000   4345 
_PVP_POWER_MONI                           IMPT 00000000   4313 
*** SuperH RISC engine ASSEMBLER V.7.01.02.000 ***    11/14/21 17:25:06                                                  PAGE    62

*** CROSS REFERENCE LIST

NAME                             SECTION  ATTR VALUE             SEQUENCE

_PVP_RENIA_BUP1                           IMPT 00000000   3809 
_PVP_RENIA_BUP2                           IMPT 00000000   3810 
_PVP_RENIA_BUP3                           IMPT 00000000   3811 
_PVP_RENIA_BUP4                           IMPT 00000000   3812 
_PVP_RENIA_POS1                           IMPT 00000000   3762 
_PVP_RENIA_POS2                           IMPT 00000000   3763 
_PVP_RENIA_POSI0                          IMPT 00000000   4271 
_PVP_RNABUP_ENB                           IMPT 00000000   3813 
_PVP_RNAORG_PLS1                          IMPT 00000000   4269 
_PVP_RNA_STLORK                           IMPT 00000000   4285 
_PVP_SEQ_ERR                              IMPT 00000000   4290 
_PVP_SINKAKU_UPDN1                        IMPT 00000000   4600 
_PVP_SINKAKU_UPDN2                        IMPT 00000000   4601 
_PVP_SLIDE_POS                            IMPT 00000000   4281 
_PVP_STOP_TIM                             IMPT 00000000   4286 
_PVP_TAIKITEN_POS                         IMPT 00000000   4283 
_PVP_TAIKI_POS                            IMPT 00000000   4282 
_PVP_TBL_A_CHAR                           IMPT 00000000   4418 
_PVP_TBL_A_VER                            IMPT 00000000   4412 
_PVP_TBL_B_CHAR                           IMPT 00000000   4419 
_PVP_TBL_B_VER                            IMPT 00000000   4413 
_PVP_TBL_C_CHAR                           IMPT 00000000   4430 
_PVP_TBL_C_VER                            IMPT 00000000   4429 
_PVP_WTJUD_AGL                            IMPT 00000000   4596 
_PVP_WTJUD_POS                            IMPT 00000000   4597 
_PVP_WTJUD_SNO                            IMPT 00000000   4595 
_PVP_ZURE_PLS                             IMPT 00000000   3767 
_PVP_ZURE_RNA                             IMPT 00000000   3768 
_PVX_RNA_DIGDT                            IMPT 00000000   2936 
_PVX_RNA_INDAT                            IMPT 00000000   2932 
_PVX_RNA_PLS_P                            IMPT 00000000   2938 
_PVX_RNA_POSD1                            IMPT 00000000   2933 
_PVX_RNA_POSD2                            IMPT 00000000   2934 
_PVX_RNA_POSDT                            IMPT 00000000   2935 
_PVX_SH4_OUTPLS                           IMPT 00000000   2945 
_PVX_SH4_SFTY_IN                          IMPT 00000000   2937 
_PV_CB_STS_DAT_TOP                        IMPT 00000000   4226 
_PV_CB_STS_POINT                          IMPT 00000000   4228 
_PV_CB_TRD_DAT_TOP                        IMPT 00000000   4227 
_PV_CB_TRD_POINT                          IMPT 00000000   4229 
_PV_POWER_ON_CNT                          IMPT 00000000   4230 
_QACR0                                    IMPT 00000000    334 
_QACR1                                    IMPT 00000000    335 
_RFCR                                     IMPT 00000000    359 
_RMIO2_IN_DATA                            IMPT 00000000   1842 
_RMIO_IN_DATA                             IMPT 00000000   1841 
_RST_CHG                                  IMPT 00000000   1976 
_RST_CODE                                 IMPT 00000000   1902 
_RST_CODE_END                             IMPT 00000000   1903 
_RTCNT                                    IMPT 00000000    357 
_RTCOR                                    IMPT 00000000    358 
_RTCSR                                    IMPT 00000000    356 
_SAR0                                     IMPT 00000000    367 
_SAR1                                     IMPT 00000000    371 
*** SuperH RISC engine ASSEMBLER V.7.01.02.000 ***    11/14/21 17:25:06                                                  PAGE    63

*** CROSS REFERENCE LIST

NAME                             SECTION  ATTR VALUE             SEQUENCE

_SAR2                                     IMPT 00000000    375 
_SAR3                                     IMPT 00000000    379 
_SCBRR1                                   IMPT 00000000    415 
_SCBRR2                                   IMPT 00000000    425 
_SCFCR2                                   IMPT 00000000    430 
_SCFDR2                                   IMPT 00000000    431 
_SCFRDR2                                  IMPT 00000000    429 
_SCFSR2                                   IMPT 00000000    428 
_SCFTDR2                                  IMPT 00000000    427 
_SCLSR2                                   IMPT 00000000    433 
_SCRDR1                                   IMPT 00000000    419 
_SCSCMR1                                  IMPT 00000000    420 
_SCSCR1                                   IMPT 00000000    416 
_SCSCR2                                   IMPT 00000000    426 
_SCSMR1                                   IMPT 00000000    414 
_SCSMR2                                   IMPT 00000000    424 
_SCSPTR1                                  IMPT 00000000    421 
_SCSPTR2                                  IMPT 00000000    432 
_SCSSR1                                   IMPT 00000000    418 
_SCTDR1                                   IMPT 00000000    417 
_SEQAB_DP_TOP                             IMPT 00000000   3246 
_SEQ_ADDCMD_R0_TBL                        IMPT 00000000   2021 
_SEQ_ADR                                  EQU  00000000   2047*
_SEQ_ADR_HI                               EQU  00000000   2052*
_SEQ_ADR_LO                               EQU  00000000   2053*
_SEQ_ARG1_DATA                            IMPT 00000000    477 
_SEQ_ASM_RAM_TOP                          IMPT 00000000    446 
_SEQ_BBIT_CHG_TBL                         IMPT 00000000   2013 
_SEQ_BIT                                  EQU  00000000   2046*
_SEQ_CARD_MAX                             EQU  0000007F   2043*
_SEQ_CARD_RAM                             IMPT 00000000    461 
_SEQ_CHG_TBL0                             IMPT 00000000   2009 
_SEQ_CMP_ERR                              IMPT 00000000    476 
_SEQ_CMP_ERR_ADR                          IMPT 00000000    482 
_SEQ_CTR_CARD_TOP                         EQU  00000430   2091*
_SEQ_CTR_DATA                             IMPT 00000000    470 
_SEQ_CTR_DT                               EQU  00000000   2050*
_SEQ_DP_TOP                               IMPT 00000000   4626 
_SEQ_DRG1_DATA                            IMPT 00000000    480 
_SEQ_DT_HI                                EQU  00000000   2056*
_SEQ_DT_LO                                EQU  00000000   2055*
_SEQ_GBR_TBL                              IMPT 00000000   2011 
_SEQ_INT_TIM10MS                 P        EXPT 00000000   5746  5749*
_SEQ_INT_TM10MS_000              P             00000014   5758  5766*
_SEQ_INT_TM10MS_010              P             00000124   6028  6035*
_SEQ_INT_TM10MS_020              P             00000234   6298  6305*
_SEQ_INT_TM10MS_030              P             00000344   6568  6575*
_SEQ_INT_TM10MS_040              P             00000454   6838  6845*
_SEQ_INT_TM10MS_050              P             00000564   7108  7115*
_SEQ_INT_TM10MS_060              P             00000674   7378  7385*
_SEQ_INT_TM10MS_070              P             00000784   7648  7655*
_SEQ_INT_TM10MS_080              P             00000894   7918  7925*
_SEQ_INT_TM10MS_090              P             000009A4   8188  8195*
_SEQ_MAX_BYTE                             EQU  0000001C   2038*
*** SuperH RISC engine ASSEMBLER V.7.01.02.000 ***    11/14/21 17:25:06                                                  PAGE    64

*** CROSS REFERENCE LIST

NAME                             SECTION  ATTR VALUE             SEQUENCE

_SEQ_MOVCMD_R0RD_TBL                      IMPT 00000000   2014 
_SEQ_MOVCMD_R1RD_TBL                      IMPT 00000000   2015 
_SEQ_MOVCMD_R1WR_TBL                      IMPT 00000000   2016 
_SEQ_MOVCMD_R3RD_TBL                      IMPT 00000000   2018 
_SEQ_MOVCMD_R3WR_TBL                      IMPT 00000000   2019 
_SEQ_MRG1_DATA                            IMPT 00000000    478 
_SEQ_NRG1_DATA                            IMPT 00000000    479 
_SEQ_OFFSET_ADR1                          EQU  00000000   2058*
_SEQ_OFFSET_ADR2                          EQU  000000C8   2059*
_SEQ_OFFSET_ADR3                          EQU  00000190   2060*
_SEQ_OFFSET_ADR4                          EQU  0000021C   2061*
_SEQ_OFFSET_ADR5                          EQU  000002F8   2062*
_SEQ_OFFSET_ADR6                          EQU  00000384   2063*
_SEQ_OFFSET_ADR7                          EQU  00000424   2064*
_SEQ_PAR_000                              IMPT 00000000   4682 
_SEQ_PAR_001                              IMPT 00000000   4683 
_SEQ_PAR_002                              IMPT 00000000   4684 
_SEQ_PAR_003                              IMPT 00000000   4685 
_SEQ_PAR_004                              IMPT 00000000   4686 
_SEQ_PAR_005                              IMPT 00000000   4687 
_SEQ_PAR_006                              IMPT 00000000   4688 
_SEQ_PAR_007                              IMPT 00000000   4689 
_SEQ_PAR_008                              IMPT 00000000   4690 
_SEQ_PAR_009                              IMPT 00000000   4691 
_SEQ_PAR_010                              IMPT 00000000   4692 
_SEQ_PAR_011                              IMPT 00000000   4693 
_SEQ_PAR_012                              IMPT 00000000   4694 
_SEQ_PAR_013                              IMPT 00000000   4695 
_SEQ_PAR_014                              IMPT 00000000   4696 
_SEQ_PAR_015                              IMPT 00000000   4697 
_SEQ_PAR_016                              IMPT 00000000   4698 
_SEQ_PAR_017                              IMPT 00000000   4699 
_SEQ_PAR_018                              IMPT 00000000   4700 
_SEQ_PAR_019                              IMPT 00000000   4701 
_SEQ_PAR_020                              IMPT 00000000   4702 
_SEQ_PAR_021                              IMPT 00000000   4703 
_SEQ_PAR_022                              IMPT 00000000   4704 
_SEQ_PAR_023                              IMPT 00000000   4705 
_SEQ_PAR_024                              IMPT 00000000   4706 
_SEQ_PAR_025                              IMPT 00000000   4707 
_SEQ_PAR_026                              IMPT 00000000   4708 
_SEQ_PAR_027                              IMPT 00000000   4709 
_SEQ_PAR_028                              IMPT 00000000   4710 
_SEQ_PAR_029                              IMPT 00000000   4711 
_SEQ_PAR_030                              IMPT 00000000   4712 
_SEQ_PAR_031                              IMPT 00000000   4713 
_SEQ_PAR_032                              IMPT 00000000   4714 
_SEQ_PAR_033                              IMPT 00000000   4715 
_SEQ_PAR_034                              IMPT 00000000   4716 
_SEQ_PAR_035                              IMPT 00000000   4717 
_SEQ_PAR_036                              IMPT 00000000   4718 
_SEQ_PAR_037                              IMPT 00000000   4719 
_SEQ_PAR_038                              IMPT 00000000   4720 
_SEQ_PAR_039                              IMPT 00000000   4721 
*** SuperH RISC engine ASSEMBLER V.7.01.02.000 ***    11/14/21 17:25:06                                                  PAGE    65

*** CROSS REFERENCE LIST

NAME                             SECTION  ATTR VALUE             SEQUENCE

_SEQ_PAR_040                              IMPT 00000000   4722 
_SEQ_PAR_041                              IMPT 00000000   4723 
_SEQ_PAR_042                              IMPT 00000000   4724 
_SEQ_PAR_043                              IMPT 00000000   4725 
_SEQ_PAR_044                              IMPT 00000000   4726 
_SEQ_PAR_045                              IMPT 00000000   4727 
_SEQ_PAR_046                              IMPT 00000000   4728 
_SEQ_PAR_047                              IMPT 00000000   4729 
_SEQ_PAR_048                              IMPT 00000000   4730 
_SEQ_PAR_049                              IMPT 00000000   4731 
_SEQ_PAR_050                              IMPT 00000000   4732 
_SEQ_PAR_051                              IMPT 00000000   4733 
_SEQ_PAR_052                              IMPT 00000000   4734 
_SEQ_PAR_053                              IMPT 00000000   4735 
_SEQ_PAR_054                              IMPT 00000000   4736 
_SEQ_PAR_055                              IMPT 00000000   4737 
_SEQ_PAR_056                              IMPT 00000000   4738 
_SEQ_PAR_057                              IMPT 00000000   4739 
_SEQ_PAR_058                              IMPT 00000000   4740 
_SEQ_PAR_059                              IMPT 00000000   4741 
_SEQ_PAR_060                              IMPT 00000000   4742 
_SEQ_PAR_061                              IMPT 00000000   4743 
_SEQ_PAR_062                              IMPT 00000000   4744 
_SEQ_PAR_063                              IMPT 00000000   4745 
_SEQ_PAR_064                              IMPT 00000000   4746 
_SEQ_PAR_065                              IMPT 00000000   4747 
_SEQ_PAR_066                              IMPT 00000000   4748 
_SEQ_PAR_067                              IMPT 00000000   4749 
_SEQ_PAR_068                              IMPT 00000000   4750 
_SEQ_PAR_069                              IMPT 00000000   4751 
_SEQ_PAR_070                              IMPT 00000000   4752 
_SEQ_PAR_071                              IMPT 00000000   4753 
_SEQ_PAR_072                              IMPT 00000000   4754 
_SEQ_PAR_073                              IMPT 00000000   4755 
_SEQ_PAR_074                              IMPT 00000000   4756 
_SEQ_PAR_075                              IMPT 00000000   4757 
_SEQ_PAR_076                              IMPT 00000000   4758 
_SEQ_PAR_077                              IMPT 00000000   4759 
_SEQ_PAR_078                              IMPT 00000000   4760 
_SEQ_PAR_079                              IMPT 00000000   4761 
_SEQ_PAR_080                              IMPT 00000000   4762 
_SEQ_PAR_081                              IMPT 00000000   4763 
_SEQ_PAR_082                              IMPT 00000000   4764 
_SEQ_PAR_083                              IMPT 00000000   4765 
_SEQ_PAR_084                              IMPT 00000000   4766 
_SEQ_PAR_085                              IMPT 00000000   4767 
_SEQ_PAR_086                              IMPT 00000000   4768 
_SEQ_PAR_087                              IMPT 00000000   4769 
_SEQ_PAR_088                              IMPT 00000000   4770 
_SEQ_PAR_089                              IMPT 00000000   4771 
_SEQ_PAR_090                              IMPT 00000000   4772 
_SEQ_PAR_091                              IMPT 00000000   4773 
_SEQ_PAR_092                              IMPT 00000000   4774 
_SEQ_PAR_093                              IMPT 00000000   4775 
*** SuperH RISC engine ASSEMBLER V.7.01.02.000 ***    11/14/21 17:25:06                                                  PAGE    66

*** CROSS REFERENCE LIST

NAME                             SECTION  ATTR VALUE             SEQUENCE

_SEQ_PAR_094                              IMPT 00000000   4776 
_SEQ_PAR_095                              IMPT 00000000   4777 
_SEQ_PAR_096                              IMPT 00000000   4778 
_SEQ_PAR_097                              IMPT 00000000   4779 
_SEQ_PAR_098                              IMPT 00000000   4780 
_SEQ_PAR_099                              IMPT 00000000   4781 
_SEQ_PAR_100                              IMPT 00000000   4782 
_SEQ_PAR_101                              IMPT 00000000   4783 
_SEQ_PAR_102                              IMPT 00000000   4784 
_SEQ_PAR_103                              IMPT 00000000   4785 
_SEQ_PAR_104                              IMPT 00000000   4786 
_SEQ_PAR_105                              IMPT 00000000   4787 
_SEQ_PAR_106                              IMPT 00000000   4788 
_SEQ_PAR_107                              IMPT 00000000   4789 
_SEQ_PAR_108                              IMPT 00000000   4790 
_SEQ_PAR_109                              IMPT 00000000   4791 
_SEQ_PAR_110                              IMPT 00000000   4792 
_SEQ_PAR_111                              IMPT 00000000   4793 
_SEQ_PAR_112                              IMPT 00000000   4794 
_SEQ_PAR_113                              IMPT 00000000   4795 
_SEQ_PAR_114                              IMPT 00000000   4796 
_SEQ_PAR_115                              IMPT 00000000   4797 
_SEQ_PAR_116                              IMPT 00000000   4798 
_SEQ_PAR_117                              IMPT 00000000   4799 
_SEQ_PAR_118                              IMPT 00000000   4800 
_SEQ_PAR_119                              IMPT 00000000   4801 
_SEQ_PAR_120                              IMPT 00000000   4802 
_SEQ_PAR_121                              IMPT 00000000   4803 
_SEQ_PAR_122                              IMPT 00000000   4804 
_SEQ_PAR_123                              IMPT 00000000   4805 
_SEQ_PAR_124                              IMPT 00000000   4806 
_SEQ_PAR_125                              IMPT 00000000   4807 
_SEQ_PAR_126                              IMPT 00000000   4808 
_SEQ_PAR_127                              IMPT 00000000   4809 
_SEQ_PAR_128                              IMPT 00000000   4810 
_SEQ_PAR_129                              IMPT 00000000   4811 
_SEQ_PAR_130                              IMPT 00000000   4812 
_SEQ_PAR_131                              IMPT 00000000   4813 
_SEQ_PAR_132                              IMPT 00000000   4814 
_SEQ_PAR_133                              IMPT 00000000   4815 
_SEQ_PAR_134                              IMPT 00000000   4816 
_SEQ_PAR_135                              IMPT 00000000   4817 
_SEQ_PAR_136                              IMPT 00000000   4818 
_SEQ_PAR_137                              IMPT 00000000   4819 
_SEQ_PAR_138                              IMPT 00000000   4820 
_SEQ_PAR_139                              IMPT 00000000   4821 
_SEQ_PAR_140                              IMPT 00000000   4822 
_SEQ_PAR_141                              IMPT 00000000   4823 
_SEQ_PAR_142                              IMPT 00000000   4824 
_SEQ_PAR_143                              IMPT 00000000   4825 
_SEQ_PAR_144                              IMPT 00000000   4826 
_SEQ_PAR_145                              IMPT 00000000   4827 
_SEQ_PAR_146                              IMPT 00000000   4828 
_SEQ_PAR_147                              IMPT 00000000   4829 
*** SuperH RISC engine ASSEMBLER V.7.01.02.000 ***    11/14/21 17:25:06                                                  PAGE    67

*** CROSS REFERENCE LIST

NAME                             SECTION  ATTR VALUE             SEQUENCE

_SEQ_PAR_148                              IMPT 00000000   4830 
_SEQ_PAR_149                              IMPT 00000000   4831 
_SEQ_PAR_150                              IMPT 00000000   4832 
_SEQ_PAR_151                              IMPT 00000000   4833 
_SEQ_PAR_152                              IMPT 00000000   4834 
_SEQ_PAR_153                              IMPT 00000000   4835 
_SEQ_PAR_154                              IMPT 00000000   4836 
_SEQ_PAR_155                              IMPT 00000000   4837 
_SEQ_PAR_156                              IMPT 00000000   4838 
_SEQ_PAR_157                              IMPT 00000000   4839 
_SEQ_PAR_158                              IMPT 00000000   4840 
_SEQ_PAR_159                              IMPT 00000000   4841 
_SEQ_PAR_160                              IMPT 00000000   4842 
_SEQ_PAR_161                              IMPT 00000000   4843 
_SEQ_PAR_162                              IMPT 00000000   4844 
_SEQ_PAR_163                              IMPT 00000000   4845 
_SEQ_PAR_164                              IMPT 00000000   4846 
_SEQ_PAR_165                              IMPT 00000000   4847 
_SEQ_PAR_166                              IMPT 00000000   4848 
_SEQ_PAR_167                              IMPT 00000000   4849 
_SEQ_PAR_168                              IMPT 00000000   4850 
_SEQ_PAR_169                              IMPT 00000000   4851 
_SEQ_PAR_170                              IMPT 00000000   4852 
_SEQ_PAR_171                              IMPT 00000000   4853 
_SEQ_PAR_172                              IMPT 00000000   4854 
_SEQ_PAR_173                              IMPT 00000000   4855 
_SEQ_PAR_174                              IMPT 00000000   4856 
_SEQ_PAR_175                              IMPT 00000000   4857 
_SEQ_PAR_176                              IMPT 00000000   4858 
_SEQ_PAR_177                              IMPT 00000000   4859 
_SEQ_PAR_178                              IMPT 00000000   4860 
_SEQ_PAR_179                              IMPT 00000000   4861 
_SEQ_PAR_180                              IMPT 00000000   4862 
_SEQ_PAR_181                              IMPT 00000000   4863 
_SEQ_PAR_182                              IMPT 00000000   4864 
_SEQ_PAR_183                              IMPT 00000000   4865 
_SEQ_PAR_184                              IMPT 00000000   4866 
_SEQ_PAR_185                              IMPT 00000000   4867 
_SEQ_PAR_186                              IMPT 00000000   4868 
_SEQ_PAR_187                              IMPT 00000000   4869 
_SEQ_PAR_188                              IMPT 00000000   4870 
_SEQ_PAR_189                              IMPT 00000000   4871 
_SEQ_PAR_190                              IMPT 00000000   4872 
_SEQ_PAR_191                              IMPT 00000000   4873 
_SEQ_PAR_192                              IMPT 00000000   4874 
_SEQ_PAR_193                              IMPT 00000000   4875 
_SEQ_PAR_194                              IMPT 00000000   4876 
_SEQ_PAR_195                              IMPT 00000000   4877 
_SEQ_PAR_196                              IMPT 00000000   4878 
_SEQ_PAR_197                              IMPT 00000000   4879 
_SEQ_PAR_198                              IMPT 00000000   4880 
_SEQ_PAR_199                              IMPT 00000000   4881 
_SEQ_PAR_200                              IMPT 00000000   4882 
_SEQ_PAR_201                              IMPT 00000000   4883 
*** SuperH RISC engine ASSEMBLER V.7.01.02.000 ***    11/14/21 17:25:06                                                  PAGE    68

*** CROSS REFERENCE LIST

NAME                             SECTION  ATTR VALUE             SEQUENCE

_SEQ_PAR_202                              IMPT 00000000   4884 
_SEQ_PAR_203                              IMPT 00000000   4885 
_SEQ_PAR_204                              IMPT 00000000   4886 
_SEQ_PAR_205                              IMPT 00000000   4887 
_SEQ_PAR_206                              IMPT 00000000   4888 
_SEQ_PAR_207                              IMPT 00000000   4889 
_SEQ_PAR_208                              IMPT 00000000   4890 
_SEQ_PAR_209                              IMPT 00000000   4891 
_SEQ_PAR_210                              IMPT 00000000   4892 
_SEQ_PAR_211                              IMPT 00000000   4893 
_SEQ_PAR_212                              IMPT 00000000   4894 
_SEQ_PAR_213                              IMPT 00000000   4895 
_SEQ_PAR_214                              IMPT 00000000   4896 
_SEQ_PAR_215                              IMPT 00000000   4897 
_SEQ_PAR_216                              IMPT 00000000   4898 
_SEQ_PAR_217                              IMPT 00000000   4899 
_SEQ_PAR_218                              IMPT 00000000   4900 
_SEQ_PAR_219                              IMPT 00000000   4901 
_SEQ_PAR_220                              IMPT 00000000   4902 
_SEQ_PAR_221                              IMPT 00000000   4903 
_SEQ_PAR_222                              IMPT 00000000   4904 
_SEQ_PAR_223                              IMPT 00000000   4905 
_SEQ_PAR_224                              IMPT 00000000   4906 
_SEQ_PAR_225                              IMPT 00000000   4907 
_SEQ_PAR_226                              IMPT 00000000   4908 
_SEQ_PAR_227                              IMPT 00000000   4909 
_SEQ_PAR_228                              IMPT 00000000   4910 
_SEQ_PAR_229                              IMPT 00000000   4911 
_SEQ_PAR_230                              IMPT 00000000   4912 
_SEQ_PAR_231                              IMPT 00000000   4913 
_SEQ_PAR_232                              IMPT 00000000   4914 
_SEQ_PAR_233                              IMPT 00000000   4915 
_SEQ_PAR_234                              IMPT 00000000   4916 
_SEQ_PAR_235                              IMPT 00000000   4917 
_SEQ_PAR_236                              IMPT 00000000   4918 
_SEQ_PAR_237                              IMPT 00000000   4919 
_SEQ_PAR_238                              IMPT 00000000   4920 
_SEQ_PAR_239                              IMPT 00000000   4921 
_SEQ_PAR_240                              IMPT 00000000   4922 
_SEQ_PAR_241                              IMPT 00000000   4923 
_SEQ_PAR_242                              IMPT 00000000   4924 
_SEQ_PAR_243                              IMPT 00000000   4925 
_SEQ_PAR_244                              IMPT 00000000   4926 
_SEQ_PAR_245                              IMPT 00000000   4927 
_SEQ_PAR_246                              IMPT 00000000   4928 
_SEQ_PAR_247                              IMPT 00000000   4929 
_SEQ_PAR_248                              IMPT 00000000   4930 
_SEQ_PAR_249                              IMPT 00000000   4931 
_SEQ_PAR_250                              IMPT 00000000   4932 
_SEQ_PAR_251                              IMPT 00000000   4933 
_SEQ_PAR_252                              IMPT 00000000   4934 
_SEQ_PAR_253                              IMPT 00000000   4935 
_SEQ_PAR_254                              IMPT 00000000   4936 
_SEQ_PAR_255                              IMPT 00000000   4937 
*** SuperH RISC engine ASSEMBLER V.7.01.02.000 ***    11/14/21 17:25:06                                                  PAGE    69

*** CROSS REFERENCE LIST

NAME                             SECTION  ATTR VALUE             SEQUENCE

_SEQ_PAR_256                              IMPT 00000000   4938 
_SEQ_PAR_257                              IMPT 00000000   4939 
_SEQ_PAR_258                              IMPT 00000000   4940 
_SEQ_PAR_259                              IMPT 00000000   4941 
_SEQ_PAR_260                              IMPT 00000000   4942 
_SEQ_PAR_261                              IMPT 00000000   4943 
_SEQ_PAR_262                              IMPT 00000000   4944 
_SEQ_PAR_263                              IMPT 00000000   4945 
_SEQ_PAR_264                              IMPT 00000000   4946 
_SEQ_PAR_265                              IMPT 00000000   4947 
_SEQ_PAR_266                              IMPT 00000000   4948 
_SEQ_PAR_267                              IMPT 00000000   4949 
_SEQ_PAR_268                              IMPT 00000000   4950 
_SEQ_PAR_269                              IMPT 00000000   4951 
_SEQ_PAR_270                              IMPT 00000000   4952 
_SEQ_PAR_271                              IMPT 00000000   4953 
_SEQ_PAR_272                              IMPT 00000000   4954 
_SEQ_PAR_273                              IMPT 00000000   4955 
_SEQ_PAR_274                              IMPT 00000000   4956 
_SEQ_PAR_275                              IMPT 00000000   4957 
_SEQ_PAR_276                              IMPT 00000000   4958 
_SEQ_PAR_277                              IMPT 00000000   4959 
_SEQ_PAR_278                              IMPT 00000000   4960 
_SEQ_PAR_279                              IMPT 00000000   4961 
_SEQ_PAR_280                              IMPT 00000000   4962 
_SEQ_PAR_281                              IMPT 00000000   4963 
_SEQ_PAR_282                              IMPT 00000000   4964 
_SEQ_PAR_283                              IMPT 00000000   4965 
_SEQ_PAR_284                              IMPT 00000000   4966 
_SEQ_PAR_285                              IMPT 00000000   4967 
_SEQ_PAR_286                              IMPT 00000000   4968 
_SEQ_PAR_287                              IMPT 00000000   4969 
_SEQ_PAR_288                              IMPT 00000000   4970 
_SEQ_PAR_289                              IMPT 00000000   4971 
_SEQ_PAR_290                              IMPT 00000000   4972 
_SEQ_PAR_291                              IMPT 00000000   4973 
_SEQ_PAR_292                              IMPT 00000000   4974 
_SEQ_PAR_293                              IMPT 00000000   4975 
_SEQ_PAR_294                              IMPT 00000000   4976 
_SEQ_PAR_295                              IMPT 00000000   4977 
_SEQ_PAR_296                              IMPT 00000000   4978 
_SEQ_PAR_297                              IMPT 00000000   4979 
_SEQ_PAR_298                              IMPT 00000000   4980 
_SEQ_PAR_299                              IMPT 00000000   4981 
_SEQ_PAR_300                              IMPT 00000000   4982 
_SEQ_PAR_301                              IMPT 00000000   4983 
_SEQ_PAR_302                              IMPT 00000000   4984 
_SEQ_PAR_303                              IMPT 00000000   4985 
_SEQ_PAR_304                              IMPT 00000000   4986 
_SEQ_PAR_305                              IMPT 00000000   4987 
_SEQ_PAR_306                              IMPT 00000000   4988 
_SEQ_PAR_307                              IMPT 00000000   4989 
_SEQ_PAR_308                              IMPT 00000000   4990 
_SEQ_PAR_309                              IMPT 00000000   4991 
*** SuperH RISC engine ASSEMBLER V.7.01.02.000 ***    11/14/21 17:25:06                                                  PAGE    70

*** CROSS REFERENCE LIST

NAME                             SECTION  ATTR VALUE             SEQUENCE

_SEQ_PAR_310                              IMPT 00000000   4992 
_SEQ_PAR_311                              IMPT 00000000   4993 
_SEQ_PAR_312                              IMPT 00000000   4994 
_SEQ_PAR_313                              IMPT 00000000   4995 
_SEQ_PAR_314                              IMPT 00000000   4996 
_SEQ_PAR_315                              IMPT 00000000   4997 
_SEQ_PAR_316                              IMPT 00000000   4998 
_SEQ_PAR_317                              IMPT 00000000   4999 
_SEQ_PAR_318                              IMPT 00000000   5000 
_SEQ_PAR_319                              IMPT 00000000   5001 
_SEQ_PAR_320                              IMPT 00000000   5002 
_SEQ_PAR_321                              IMPT 00000000   5003 
_SEQ_PAR_322                              IMPT 00000000   5004 
_SEQ_PAR_323                              IMPT 00000000   5005 
_SEQ_PAR_324                              IMPT 00000000   5006 
_SEQ_PAR_325                              IMPT 00000000   5007 
_SEQ_PAR_326                              IMPT 00000000   5008 
_SEQ_PAR_327                              IMPT 00000000   5009 
_SEQ_PAR_328                              IMPT 00000000   5010 
_SEQ_PAR_329                              IMPT 00000000   5011 
_SEQ_PAR_330                              IMPT 00000000   5012 
_SEQ_PAR_331                              IMPT 00000000   5013 
_SEQ_PAR_332                              IMPT 00000000   5014 
_SEQ_PAR_333                              IMPT 00000000   5015 
_SEQ_PAR_334                              IMPT 00000000   5016 
_SEQ_PAR_335                              IMPT 00000000   5017 
_SEQ_PAR_336                              IMPT 00000000   5018 
_SEQ_PAR_337                              IMPT 00000000   5019 
_SEQ_PAR_338                              IMPT 00000000   5020 
_SEQ_PAR_339                              IMPT 00000000   5021 
_SEQ_PAR_340                              IMPT 00000000   5022 
_SEQ_PAR_341                              IMPT 00000000   5023 
_SEQ_PAR_342                              IMPT 00000000   5024 
_SEQ_PAR_343                              IMPT 00000000   5025 
_SEQ_PAR_344                              IMPT 00000000   5026 
_SEQ_PAR_345                              IMPT 00000000   5027 
_SEQ_PAR_346                              IMPT 00000000   5028 
_SEQ_PAR_347                              IMPT 00000000   5029 
_SEQ_PAR_348                              IMPT 00000000   5030 
_SEQ_PAR_349                              IMPT 00000000   5031 
_SEQ_PAR_350                              IMPT 00000000   5032 
_SEQ_PAR_351                              IMPT 00000000   5033 
_SEQ_PAR_352                              IMPT 00000000   5034 
_SEQ_PAR_353                              IMPT 00000000   5035 
_SEQ_PAR_354                              IMPT 00000000   5036 
_SEQ_PAR_355                              IMPT 00000000   5037 
_SEQ_PAR_356                              IMPT 00000000   5038 
_SEQ_PAR_357                              IMPT 00000000   5039 
_SEQ_PAR_358                              IMPT 00000000   5040 
_SEQ_PAR_359                              IMPT 00000000   5041 
_SEQ_PAR_360                              IMPT 00000000   5042 
_SEQ_PAR_361                              IMPT 00000000   5043 
_SEQ_PAR_362                              IMPT 00000000   5044 
_SEQ_PAR_363                              IMPT 00000000   5045 
*** SuperH RISC engine ASSEMBLER V.7.01.02.000 ***    11/14/21 17:25:06                                                  PAGE    71

*** CROSS REFERENCE LIST

NAME                             SECTION  ATTR VALUE             SEQUENCE

_SEQ_PAR_364                              IMPT 00000000   5046 
_SEQ_PAR_365                              IMPT 00000000   5047 
_SEQ_PAR_366                              IMPT 00000000   5048 
_SEQ_PAR_367                              IMPT 00000000   5049 
_SEQ_PAR_368                              IMPT 00000000   5050 
_SEQ_PAR_369                              IMPT 00000000   5051 
_SEQ_PAR_370                              IMPT 00000000   5052 
_SEQ_PAR_371                              IMPT 00000000   5053 
_SEQ_PAR_372                              IMPT 00000000   5054 
_SEQ_PAR_373                              IMPT 00000000   5055 
_SEQ_PAR_374                              IMPT 00000000   5056 
_SEQ_PAR_375                              IMPT 00000000   5057 
_SEQ_PAR_376                              IMPT 00000000   5058 
_SEQ_PAR_377                              IMPT 00000000   5059 
_SEQ_PAR_378                              IMPT 00000000   5060 
_SEQ_PAR_379                              IMPT 00000000   5061 
_SEQ_PAR_380                              IMPT 00000000   5062 
_SEQ_PAR_381                              IMPT 00000000   5063 
_SEQ_PAR_382                              IMPT 00000000   5064 
_SEQ_PAR_383                              IMPT 00000000   5065 
_SEQ_PAR_384                              IMPT 00000000   5066 
_SEQ_PAR_385                              IMPT 00000000   5067 
_SEQ_PAR_386                              IMPT 00000000   5068 
_SEQ_PAR_387                              IMPT 00000000   5069 
_SEQ_PAR_388                              IMPT 00000000   5070 
_SEQ_PAR_389                              IMPT 00000000   5071 
_SEQ_PAR_390                              IMPT 00000000   5072 
_SEQ_PAR_391                              IMPT 00000000   5073 
_SEQ_PAR_392                              IMPT 00000000   5074 
_SEQ_PAR_393                              IMPT 00000000   5075 
_SEQ_PAR_394                              IMPT 00000000   5076 
_SEQ_PAR_395                              IMPT 00000000   5077 
_SEQ_PAR_396                              IMPT 00000000   5078 
_SEQ_PAR_397                              IMPT 00000000   5079 
_SEQ_PAR_398                              IMPT 00000000   5080 
_SEQ_PAR_399                              IMPT 00000000   5081 
_SEQ_PAR_400                              IMPT 00000000   5082 
_SEQ_PAR_401                              IMPT 00000000   5083 
_SEQ_PAR_402                              IMPT 00000000   5084 
_SEQ_PAR_403                              IMPT 00000000   5085 
_SEQ_PAR_404                              IMPT 00000000   5086 
_SEQ_PAR_405                              IMPT 00000000   5087 
_SEQ_PAR_406                              IMPT 00000000   5088 
_SEQ_PAR_407                              IMPT 00000000   5089 
_SEQ_PAR_408                              IMPT 00000000   5090 
_SEQ_PAR_409                              IMPT 00000000   5091 
_SEQ_PAR_410                              IMPT 00000000   5092 
_SEQ_PAR_411                              IMPT 00000000   5093 
_SEQ_PAR_412                              IMPT 00000000   5094 
_SEQ_PAR_413                              IMPT 00000000   5095 
_SEQ_PAR_414                              IMPT 00000000   5096 
_SEQ_PAR_415                              IMPT 00000000   5097 
_SEQ_PAR_416                              IMPT 00000000   5098 
_SEQ_PAR_417                              IMPT 00000000   5099 
*** SuperH RISC engine ASSEMBLER V.7.01.02.000 ***    11/14/21 17:25:06                                                  PAGE    72

*** CROSS REFERENCE LIST

NAME                             SECTION  ATTR VALUE             SEQUENCE

_SEQ_PAR_418                              IMPT 00000000   5100 
_SEQ_PAR_419                              IMPT 00000000   5101 
_SEQ_PAR_420                              IMPT 00000000   5102 
_SEQ_PAR_421                              IMPT 00000000   5103 
_SEQ_PAR_422                              IMPT 00000000   5104 
_SEQ_PAR_423                              IMPT 00000000   5105 
_SEQ_PAR_424                              IMPT 00000000   5106 
_SEQ_PAR_425                              IMPT 00000000   5107 
_SEQ_PAR_426                              IMPT 00000000   5108 
_SEQ_PAR_427                              IMPT 00000000   5109 
_SEQ_PAR_428                              IMPT 00000000   5110 
_SEQ_PAR_429                              IMPT 00000000   5111 
_SEQ_PAR_430                              IMPT 00000000   5112 
_SEQ_PAR_431                              IMPT 00000000   5113 
_SEQ_PAR_432                              IMPT 00000000   5114 
_SEQ_PAR_433                              IMPT 00000000   5115 
_SEQ_PAR_434                              IMPT 00000000   5116 
_SEQ_PAR_435                              IMPT 00000000   5117 
_SEQ_PAR_436                              IMPT 00000000   5118 
_SEQ_PAR_437                              IMPT 00000000   5119 
_SEQ_PAR_438                              IMPT 00000000   5120 
_SEQ_PAR_439                              IMPT 00000000   5121 
_SEQ_PAR_440                              IMPT 00000000   5122 
_SEQ_PAR_441                              IMPT 00000000   5123 
_SEQ_PAR_442                              IMPT 00000000   5124 
_SEQ_PAR_443                              IMPT 00000000   5125 
_SEQ_PAR_444                              IMPT 00000000   5126 
_SEQ_PAR_445                              IMPT 00000000   5127 
_SEQ_PAR_446                              IMPT 00000000   5128 
_SEQ_PAR_447                              IMPT 00000000   5129 
_SEQ_PAR_448                              IMPT 00000000   5130 
_SEQ_PAR_449                              IMPT 00000000   5131 
_SEQ_PAR_450                              IMPT 00000000   5132 
_SEQ_PAR_451                              IMPT 00000000   5133 
_SEQ_PAR_452                              IMPT 00000000   5134 
_SEQ_PAR_453                              IMPT 00000000   5135 
_SEQ_PAR_454                              IMPT 00000000   5136 
_SEQ_PAR_455                              IMPT 00000000   5137 
_SEQ_PAR_456                              IMPT 00000000   5138 
_SEQ_PAR_457                              IMPT 00000000   5139 
_SEQ_PAR_458                              IMPT 00000000   5140 
_SEQ_PAR_459                              IMPT 00000000   5141 
_SEQ_PAR_460                              IMPT 00000000   5142 
_SEQ_PAR_461                              IMPT 00000000   5143 
_SEQ_PAR_462                              IMPT 00000000   5144 
_SEQ_PAR_463                              IMPT 00000000   5145 
_SEQ_PAR_464                              IMPT 00000000   5146 
_SEQ_PAR_465                              IMPT 00000000   5147 
_SEQ_PAR_466                              IMPT 00000000   5148 
_SEQ_PAR_467                              IMPT 00000000   5149 
_SEQ_PAR_468                              IMPT 00000000   5150 
_SEQ_PAR_469                              IMPT 00000000   5151 
_SEQ_PAR_470                              IMPT 00000000   5152 
_SEQ_PAR_471                              IMPT 00000000   5153 
*** SuperH RISC engine ASSEMBLER V.7.01.02.000 ***    11/14/21 17:25:06                                                  PAGE    73

*** CROSS REFERENCE LIST

NAME                             SECTION  ATTR VALUE             SEQUENCE

_SEQ_PAR_472                              IMPT 00000000   5154 
_SEQ_PAR_473                              IMPT 00000000   5155 
_SEQ_PAR_474                              IMPT 00000000   5156 
_SEQ_PAR_475                              IMPT 00000000   5157 
_SEQ_PAR_476                              IMPT 00000000   5158 
_SEQ_PAR_477                              IMPT 00000000   5159 
_SEQ_PAR_478                              IMPT 00000000   5160 
_SEQ_PAR_479                              IMPT 00000000   5161 
_SEQ_PAR_480                              IMPT 00000000   5162 
_SEQ_PAR_481                              IMPT 00000000   5163 
_SEQ_PAR_482                              IMPT 00000000   5164 
_SEQ_PAR_483                              IMPT 00000000   5165 
_SEQ_PAR_484                              IMPT 00000000   5166 
_SEQ_PAR_485                              IMPT 00000000   5167 
_SEQ_PAR_486                              IMPT 00000000   5168 
_SEQ_PAR_487                              IMPT 00000000   5169 
_SEQ_PAR_488                              IMPT 00000000   5170 
_SEQ_PAR_489                              IMPT 00000000   5171 
_SEQ_PAR_490                              IMPT 00000000   5172 
_SEQ_PAR_491                              IMPT 00000000   5173 
_SEQ_PAR_492                              IMPT 00000000   5174 
_SEQ_PAR_493                              IMPT 00000000   5175 
_SEQ_PAR_494                              IMPT 00000000   5176 
_SEQ_PAR_495                              IMPT 00000000   5177 
_SEQ_PAR_496                              IMPT 00000000   5178 
_SEQ_PAR_497                              IMPT 00000000   5179 
_SEQ_PAR_498                              IMPT 00000000   5180 
_SEQ_PAR_499                              IMPT 00000000   5181 
_SEQ_PAR_500                              IMPT 00000000   5182 
_SEQ_PAR_501                              IMPT 00000000   5183 
_SEQ_PAR_502                              IMPT 00000000   5184 
_SEQ_PAR_503                              IMPT 00000000   5185 
_SEQ_PAR_504                              IMPT 00000000   5186 
_SEQ_PAR_505                              IMPT 00000000   5187 
_SEQ_PAR_506                              IMPT 00000000   5188 
_SEQ_PAR_507                              IMPT 00000000   5189 
_SEQ_PAR_508                              IMPT 00000000   5190 
_SEQ_PAR_509                              IMPT 00000000   5191 
_SEQ_PAR_510                              IMPT 00000000   5192 
_SEQ_PAR_511                              IMPT 00000000   5193 
_SEQ_PAR_512                              IMPT 00000000   5194 
_SEQ_PAR_513                              IMPT 00000000   5195 
_SEQ_PAR_514                              IMPT 00000000   5196 
_SEQ_PAR_515                              IMPT 00000000   5197 
_SEQ_PAR_516                              IMPT 00000000   5198 
_SEQ_PAR_517                              IMPT 00000000   5199 
_SEQ_PAR_518                              IMPT 00000000   5200 
_SEQ_PAR_519                              IMPT 00000000   5201 
_SEQ_PAR_520                              IMPT 00000000   5202 
_SEQ_PAR_521                              IMPT 00000000   5203 
_SEQ_PAR_522                              IMPT 00000000   5204 
_SEQ_PAR_523                              IMPT 00000000   5205 
_SEQ_PAR_524                              IMPT 00000000   5206 
_SEQ_PAR_525                              IMPT 00000000   5207 
*** SuperH RISC engine ASSEMBLER V.7.01.02.000 ***    11/14/21 17:25:06                                                  PAGE    74

*** CROSS REFERENCE LIST

NAME                             SECTION  ATTR VALUE             SEQUENCE

_SEQ_PAR_526                              IMPT 00000000   5208 
_SEQ_PAR_527                              IMPT 00000000   5209 
_SEQ_PAR_528                              IMPT 00000000   5210 
_SEQ_PAR_529                              IMPT 00000000   5211 
_SEQ_PAR_530                              IMPT 00000000   5212 
_SEQ_PAR_531                              IMPT 00000000   5213 
_SEQ_PAR_532                              IMPT 00000000   5214 
_SEQ_PAR_533                              IMPT 00000000   5215 
_SEQ_PAR_534                              IMPT 00000000   5216 
_SEQ_PAR_535                              IMPT 00000000   5217 
_SEQ_PAR_536                              IMPT 00000000   5218 
_SEQ_PAR_537                              IMPT 00000000   5219 
_SEQ_PAR_538                              IMPT 00000000   5220 
_SEQ_PAR_539                              IMPT 00000000   5221 
_SEQ_PAR_540                              IMPT 00000000   5222 
_SEQ_PAR_541                              IMPT 00000000   5223 
_SEQ_PAR_542                              IMPT 00000000   5224 
_SEQ_PAR_543                              IMPT 00000000   5225 
_SEQ_PAR_544                              IMPT 00000000   5226 
_SEQ_PAR_545                              IMPT 00000000   5227 
_SEQ_PAR_546                              IMPT 00000000   5228 
_SEQ_PAR_547                              IMPT 00000000   5229 
_SEQ_PAR_548                              IMPT 00000000   5230 
_SEQ_PAR_549                              IMPT 00000000   5231 
_SEQ_PAR_550                              IMPT 00000000   5232 
_SEQ_PAR_551                              IMPT 00000000   5233 
_SEQ_PAR_552                              IMPT 00000000   5234 
_SEQ_PAR_553                              IMPT 00000000   5235 
_SEQ_PAR_554                              IMPT 00000000   5236 
_SEQ_PAR_555                              IMPT 00000000   5237 
_SEQ_PAR_556                              IMPT 00000000   5238 
_SEQ_PAR_557                              IMPT 00000000   5239 
_SEQ_PAR_558                              IMPT 00000000   5240 
_SEQ_PAR_559                              IMPT 00000000   5241 
_SEQ_PAR_560                              IMPT 00000000   5242 
_SEQ_PAR_561                              IMPT 00000000   5243 
_SEQ_PAR_562                              IMPT 00000000   5244 
_SEQ_PAR_563                              IMPT 00000000   5245 
_SEQ_PAR_564                              IMPT 00000000   5246 
_SEQ_PAR_565                              IMPT 00000000   5247 
_SEQ_PAR_566                              IMPT 00000000   5248 
_SEQ_PAR_567                              IMPT 00000000   5249 
_SEQ_PAR_568                              IMPT 00000000   5250 
_SEQ_PAR_569                              IMPT 00000000   5251 
_SEQ_PAR_570                              IMPT 00000000   5252 
_SEQ_PAR_571                              IMPT 00000000   5253 
_SEQ_PAR_572                              IMPT 00000000   5254 
_SEQ_PAR_573                              IMPT 00000000   5255 
_SEQ_PAR_574                              IMPT 00000000   5256 
_SEQ_PAR_575                              IMPT 00000000   5257 
_SEQ_PAR_576                              IMPT 00000000   5258 
_SEQ_PAR_577                              IMPT 00000000   5259 
_SEQ_PAR_578                              IMPT 00000000   5260 
_SEQ_PAR_579                              IMPT 00000000   5261 
*** SuperH RISC engine ASSEMBLER V.7.01.02.000 ***    11/14/21 17:25:06                                                  PAGE    75

*** CROSS REFERENCE LIST

NAME                             SECTION  ATTR VALUE             SEQUENCE

_SEQ_PAR_580                              IMPT 00000000   5262 
_SEQ_PAR_581                              IMPT 00000000   5263 
_SEQ_PAR_582                              IMPT 00000000   5264 
_SEQ_PAR_583                              IMPT 00000000   5265 
_SEQ_PAR_584                              IMPT 00000000   5266 
_SEQ_PAR_585                              IMPT 00000000   5267 
_SEQ_PAR_586                              IMPT 00000000   5268 
_SEQ_PAR_587                              IMPT 00000000   5269 
_SEQ_PAR_588                              IMPT 00000000   5270 
_SEQ_PAR_589                              IMPT 00000000   5271 
_SEQ_PAR_590                              IMPT 00000000   5272 
_SEQ_PAR_591                              IMPT 00000000   5273 
_SEQ_PAR_592                              IMPT 00000000   5274 
_SEQ_PAR_593                              IMPT 00000000   5275 
_SEQ_PAR_594                              IMPT 00000000   5276 
_SEQ_PAR_595                              IMPT 00000000   5277 
_SEQ_PAR_596                              IMPT 00000000   5278 
_SEQ_PAR_597                              IMPT 00000000   5279 
_SEQ_PAR_598                              IMPT 00000000   5280 
_SEQ_PAR_599                              IMPT 00000000   5281 
_SEQ_PAR_600                              IMPT 00000000   5282 
_SEQ_PAR_601                              IMPT 00000000   5283 
_SEQ_PAR_602                              IMPT 00000000   5284 
_SEQ_PAR_603                              IMPT 00000000   5285 
_SEQ_PAR_604                              IMPT 00000000   5286 
_SEQ_PAR_605                              IMPT 00000000   5287 
_SEQ_PAR_606                              IMPT 00000000   5288 
_SEQ_PAR_607                              IMPT 00000000   5289 
_SEQ_PAR_608                              IMPT 00000000   5290 
_SEQ_PAR_609                              IMPT 00000000   5291 
_SEQ_PAR_610                              IMPT 00000000   5292 
_SEQ_PAR_611                              IMPT 00000000   5293 
_SEQ_PAR_612                              IMPT 00000000   5294 
_SEQ_PAR_613                              IMPT 00000000   5295 
_SEQ_PAR_614                              IMPT 00000000   5296 
_SEQ_PAR_615                              IMPT 00000000   5297 
_SEQ_PAR_616                              IMPT 00000000   5298 
_SEQ_PAR_617                              IMPT 00000000   5299 
_SEQ_PAR_618                              IMPT 00000000   5300 
_SEQ_PAR_619                              IMPT 00000000   5301 
_SEQ_PAR_620                              IMPT 00000000   5302 
_SEQ_PAR_621                              IMPT 00000000   5303 
_SEQ_PAR_622                              IMPT 00000000   5304 
_SEQ_PAR_623                              IMPT 00000000   5305 
_SEQ_PAR_624                              IMPT 00000000   5306 
_SEQ_PAR_625                              IMPT 00000000   5307 
_SEQ_PAR_626                              IMPT 00000000   5308 
_SEQ_PAR_627                              IMPT 00000000   5309 
_SEQ_PAR_628                              IMPT 00000000   5310 
_SEQ_PAR_629                              IMPT 00000000   5311 
_SEQ_PAR_630                              IMPT 00000000   5312 
_SEQ_PAR_631                              IMPT 00000000   5313 
_SEQ_PAR_632                              IMPT 00000000   5314 
_SEQ_PAR_633                              IMPT 00000000   5315 
*** SuperH RISC engine ASSEMBLER V.7.01.02.000 ***    11/14/21 17:25:06                                                  PAGE    76

*** CROSS REFERENCE LIST

NAME                             SECTION  ATTR VALUE             SEQUENCE

_SEQ_PAR_634                              IMPT 00000000   5316 
_SEQ_PAR_635                              IMPT 00000000   5317 
_SEQ_PAR_636                              IMPT 00000000   5318 
_SEQ_PAR_637                              IMPT 00000000   5319 
_SEQ_PAR_638                              IMPT 00000000   5320 
_SEQ_PAR_639                              IMPT 00000000   5321 
_SEQ_PAR_640                              IMPT 00000000   5322 
_SEQ_PAR_641                              IMPT 00000000   5323 
_SEQ_PAR_642                              IMPT 00000000   5324 
_SEQ_PAR_643                              IMPT 00000000   5325 
_SEQ_PAR_644                              IMPT 00000000   5326 
_SEQ_PAR_645                              IMPT 00000000   5327 
_SEQ_PAR_646                              IMPT 00000000   5328 
_SEQ_PAR_647                              IMPT 00000000   5329 
_SEQ_PAR_648                              IMPT 00000000   5330 
_SEQ_PAR_649                              IMPT 00000000   5331 
_SEQ_PAR_650                              IMPT 00000000   5332 
_SEQ_PAR_651                              IMPT 00000000   5333 
_SEQ_PAR_652                              IMPT 00000000   5334 
_SEQ_PAR_653                              IMPT 00000000   5335 
_SEQ_PAR_654                              IMPT 00000000   5336 
_SEQ_PAR_655                              IMPT 00000000   5337 
_SEQ_PAR_656                              IMPT 00000000   5338 
_SEQ_PAR_657                              IMPT 00000000   5339 
_SEQ_PAR_658                              IMPT 00000000   5340 
_SEQ_PAR_659                              IMPT 00000000   5341 
_SEQ_PAR_660                              IMPT 00000000   5342 
_SEQ_PAR_661                              IMPT 00000000   5343 
_SEQ_PAR_662                              IMPT 00000000   5344 
_SEQ_PAR_663                              IMPT 00000000   5345 
_SEQ_PAR_664                              IMPT 00000000   5346 
_SEQ_PAR_665                              IMPT 00000000   5347 
_SEQ_PAR_666                              IMPT 00000000   5348 
_SEQ_PAR_667                              IMPT 00000000   5349 
_SEQ_PAR_668                              IMPT 00000000   5350 
_SEQ_PAR_669                              IMPT 00000000   5351 
_SEQ_PAR_670                              IMPT 00000000   5352 
_SEQ_PAR_671                              IMPT 00000000   5353 
_SEQ_PAR_672                              IMPT 00000000   5354 
_SEQ_PAR_673                              IMPT 00000000   5355 
_SEQ_PAR_674                              IMPT 00000000   5356 
_SEQ_PAR_675                              IMPT 00000000   5357 
_SEQ_PAR_676                              IMPT 00000000   5358 
_SEQ_PAR_677                              IMPT 00000000   5359 
_SEQ_PAR_678                              IMPT 00000000   5360 
_SEQ_PAR_679                              IMPT 00000000   5361 
_SEQ_PAR_680                              IMPT 00000000   5362 
_SEQ_PAR_681                              IMPT 00000000   5363 
_SEQ_PAR_682                              IMPT 00000000   5364 
_SEQ_PAR_683                              IMPT 00000000   5365 
_SEQ_PAR_684                              IMPT 00000000   5366 
_SEQ_PAR_685                              IMPT 00000000   5367 
_SEQ_PAR_686                              IMPT 00000000   5368 
_SEQ_PAR_687                              IMPT 00000000   5369 
*** SuperH RISC engine ASSEMBLER V.7.01.02.000 ***    11/14/21 17:25:06                                                  PAGE    77

*** CROSS REFERENCE LIST

NAME                             SECTION  ATTR VALUE             SEQUENCE

_SEQ_PAR_688                              IMPT 00000000   5370 
_SEQ_PAR_689                              IMPT 00000000   5371 
_SEQ_PAR_690                              IMPT 00000000   5372 
_SEQ_PAR_691                              IMPT 00000000   5373 
_SEQ_PAR_692                              IMPT 00000000   5374 
_SEQ_PAR_693                              IMPT 00000000   5375 
_SEQ_PAR_694                              IMPT 00000000   5376 
_SEQ_PAR_695                              IMPT 00000000   5377 
_SEQ_PAR_696                              IMPT 00000000   5378 
_SEQ_PAR_697                              IMPT 00000000   5379 
_SEQ_PAR_698                              IMPT 00000000   5380 
_SEQ_PAR_699                              IMPT 00000000   5381 
_SEQ_PAR_700                              IMPT 00000000   5382 
_SEQ_PAR_701                              IMPT 00000000   5383 
_SEQ_PAR_702                              IMPT 00000000   5384 
_SEQ_PAR_703                              IMPT 00000000   5385 
_SEQ_PAR_704                              IMPT 00000000   5386 
_SEQ_PAR_705                              IMPT 00000000   5387 
_SEQ_PAR_706                              IMPT 00000000   5388 
_SEQ_PAR_707                              IMPT 00000000   5389 
_SEQ_PAR_708                              IMPT 00000000   5390 
_SEQ_PAR_709                              IMPT 00000000   5391 
_SEQ_PAR_710                              IMPT 00000000   5392 
_SEQ_PAR_711                              IMPT 00000000   5393 
_SEQ_PAR_712                              IMPT 00000000   5394 
_SEQ_PAR_713                              IMPT 00000000   5395 
_SEQ_PAR_714                              IMPT 00000000   5396 
_SEQ_PAR_715                              IMPT 00000000   5397 
_SEQ_PAR_716                              IMPT 00000000   5398 
_SEQ_PAR_717                              IMPT 00000000   5399 
_SEQ_PAR_718                              IMPT 00000000   5400 
_SEQ_PAR_719                              IMPT 00000000   5401 
_SEQ_PAR_720                              IMPT 00000000   5402 
_SEQ_PAR_721                              IMPT 00000000   5403 
_SEQ_PAR_722                              IMPT 00000000   5404 
_SEQ_PAR_723                              IMPT 00000000   5405 
_SEQ_PAR_724                              IMPT 00000000   5406 
_SEQ_PAR_725                              IMPT 00000000   5407 
_SEQ_PAR_726                              IMPT 00000000   5408 
_SEQ_PAR_727                              IMPT 00000000   5409 
_SEQ_PAR_728                              IMPT 00000000   5410 
_SEQ_PAR_729                              IMPT 00000000   5411 
_SEQ_PAR_730                              IMPT 00000000   5412 
_SEQ_PAR_731                              IMPT 00000000   5413 
_SEQ_PAR_732                              IMPT 00000000   5414 
_SEQ_PAR_733                              IMPT 00000000   5415 
_SEQ_PAR_734                              IMPT 00000000   5416 
_SEQ_PAR_735                              IMPT 00000000   5417 
_SEQ_PAR_736                              IMPT 00000000   5418 
_SEQ_PAR_737                              IMPT 00000000   5419 
_SEQ_PAR_738                              IMPT 00000000   5420 
_SEQ_PAR_739                              IMPT 00000000   5421 
_SEQ_PAR_740                              IMPT 00000000   5422 
_SEQ_PAR_741                              IMPT 00000000   5423 
*** SuperH RISC engine ASSEMBLER V.7.01.02.000 ***    11/14/21 17:25:06                                                  PAGE    78

*** CROSS REFERENCE LIST

NAME                             SECTION  ATTR VALUE             SEQUENCE

_SEQ_PAR_742                              IMPT 00000000   5424 
_SEQ_PAR_743                              IMPT 00000000   5425 
_SEQ_PAR_744                              IMPT 00000000   5426 
_SEQ_PAR_745                              IMPT 00000000   5427 
_SEQ_PAR_746                              IMPT 00000000   5428 
_SEQ_PAR_747                              IMPT 00000000   5429 
_SEQ_PAR_748                              IMPT 00000000   5430 
_SEQ_PAR_749                              IMPT 00000000   5431 
_SEQ_PAR_750                              IMPT 00000000   5432 
_SEQ_PAR_751                              IMPT 00000000   5433 
_SEQ_PAR_752                              IMPT 00000000   5434 
_SEQ_PAR_753                              IMPT 00000000   5435 
_SEQ_PAR_754                              IMPT 00000000   5436 
_SEQ_PAR_755                              IMPT 00000000   5437 
_SEQ_PAR_756                              IMPT 00000000   5438 
_SEQ_PAR_757                              IMPT 00000000   5439 
_SEQ_PAR_758                              IMPT 00000000   5440 
_SEQ_PAR_759                              IMPT 00000000   5441 
_SEQ_PAR_760                              IMPT 00000000   5442 
_SEQ_PAR_761                              IMPT 00000000   5443 
_SEQ_PAR_762                              IMPT 00000000   5444 
_SEQ_PAR_763                              IMPT 00000000   5445 
_SEQ_PAR_764                              IMPT 00000000   5446 
_SEQ_PAR_765                              IMPT 00000000   5447 
_SEQ_PAR_766                              IMPT 00000000   5448 
_SEQ_PAR_767                              IMPT 00000000   5449 
_SEQ_PAR_768                              IMPT 00000000   5450 
_SEQ_PAR_769                              IMPT 00000000   5451 
_SEQ_PAR_770                              IMPT 00000000   5452 
_SEQ_PAR_771                              IMPT 00000000   5453 
_SEQ_PAR_772                              IMPT 00000000   5454 
_SEQ_PAR_773                              IMPT 00000000   5455 
_SEQ_PAR_774                              IMPT 00000000   5456 
_SEQ_PAR_775                              IMPT 00000000   5457 
_SEQ_PAR_776                              IMPT 00000000   5458 
_SEQ_PAR_777                              IMPT 00000000   5459 
_SEQ_PAR_778                              IMPT 00000000   5460 
_SEQ_PAR_779                              IMPT 00000000   5461 
_SEQ_PAR_780                              IMPT 00000000   5462 
_SEQ_PAR_781                              IMPT 00000000   5463 
_SEQ_PAR_782                              IMPT 00000000   5464 
_SEQ_PAR_783                              IMPT 00000000   5465 
_SEQ_PAR_784                              IMPT 00000000   5466 
_SEQ_PAR_785                              IMPT 00000000   5467 
_SEQ_PAR_786                              IMPT 00000000   5468 
_SEQ_PAR_787                              IMPT 00000000   5469 
_SEQ_PAR_788                              IMPT 00000000   5470 
_SEQ_PAR_789                              IMPT 00000000   5471 
_SEQ_PAR_790                              IMPT 00000000   5472 
_SEQ_PAR_791                              IMPT 00000000   5473 
_SEQ_PAR_792                              IMPT 00000000   5474 
_SEQ_PAR_793                              IMPT 00000000   5475 
_SEQ_PAR_794                              IMPT 00000000   5476 
_SEQ_PAR_795                              IMPT 00000000   5477 
*** SuperH RISC engine ASSEMBLER V.7.01.02.000 ***    11/14/21 17:25:06                                                  PAGE    79

*** CROSS REFERENCE LIST

NAME                             SECTION  ATTR VALUE             SEQUENCE

_SEQ_PAR_796                              IMPT 00000000   5478 
_SEQ_PAR_797                              IMPT 00000000   5479 
_SEQ_PAR_798                              IMPT 00000000   5480 
_SEQ_PAR_799                              IMPT 00000000   5481 
_SEQ_PAR_800                              IMPT 00000000   5482 
_SEQ_PAR_801                              IMPT 00000000   5483 
_SEQ_PAR_802                              IMPT 00000000   5484 
_SEQ_PAR_803                              IMPT 00000000   5485 
_SEQ_PAR_804                              IMPT 00000000   5486 
_SEQ_PAR_805                              IMPT 00000000   5487 
_SEQ_PAR_806                              IMPT 00000000   5488 
_SEQ_PAR_807                              IMPT 00000000   5489 
_SEQ_PAR_808                              IMPT 00000000   5490 
_SEQ_PAR_809                              IMPT 00000000   5491 
_SEQ_PAR_810                              IMPT 00000000   5492 
_SEQ_PAR_811                              IMPT 00000000   5493 
_SEQ_PAR_812                              IMPT 00000000   5494 
_SEQ_PAR_813                              IMPT 00000000   5495 
_SEQ_PAR_814                              IMPT 00000000   5496 
_SEQ_PAR_815                              IMPT 00000000   5497 
_SEQ_PAR_816                              IMPT 00000000   5498 
_SEQ_PAR_817                              IMPT 00000000   5499 
_SEQ_PAR_818                              IMPT 00000000   5500 
_SEQ_PAR_819                              IMPT 00000000   5501 
_SEQ_PAR_820                              IMPT 00000000   5502 
_SEQ_PAR_821                              IMPT 00000000   5503 
_SEQ_PAR_822                              IMPT 00000000   5504 
_SEQ_PAR_823                              IMPT 00000000   5505 
_SEQ_PAR_824                              IMPT 00000000   5506 
_SEQ_PAR_825                              IMPT 00000000   5507 
_SEQ_PAR_826                              IMPT 00000000   5508 
_SEQ_PAR_827                              IMPT 00000000   5509 
_SEQ_PAR_828                              IMPT 00000000   5510 
_SEQ_PAR_829                              IMPT 00000000   5511 
_SEQ_PAR_830                              IMPT 00000000   5512 
_SEQ_PAR_831                              IMPT 00000000   5513 
_SEQ_PAR_832                              IMPT 00000000   5514 
_SEQ_PAR_833                              IMPT 00000000   5515 
_SEQ_PAR_834                              IMPT 00000000   5516 
_SEQ_PAR_835                              IMPT 00000000   5517 
_SEQ_PAR_836                              IMPT 00000000   5518 
_SEQ_PAR_837                              IMPT 00000000   5519 
_SEQ_PAR_838                              IMPT 00000000   5520 
_SEQ_PAR_839                              IMPT 00000000   5521 
_SEQ_PAR_840                              IMPT 00000000   5522 
_SEQ_PAR_841                              IMPT 00000000   5523 
_SEQ_PAR_842                              IMPT 00000000   5524 
_SEQ_PAR_843                              IMPT 00000000   5525 
_SEQ_PAR_844                              IMPT 00000000   5526 
_SEQ_PAR_845                              IMPT 00000000   5527 
_SEQ_PAR_846                              IMPT 00000000   5528 
_SEQ_PAR_847                              IMPT 00000000   5529 
_SEQ_PAR_848                              IMPT 00000000   5530 
_SEQ_PAR_849                              IMPT 00000000   5531 
*** SuperH RISC engine ASSEMBLER V.7.01.02.000 ***    11/14/21 17:25:06                                                  PAGE    80

*** CROSS REFERENCE LIST

NAME                             SECTION  ATTR VALUE             SEQUENCE

_SEQ_PAR_850                              IMPT 00000000   5532 
_SEQ_PAR_851                              IMPT 00000000   5533 
_SEQ_PAR_852                              IMPT 00000000   5534 
_SEQ_PAR_853                              IMPT 00000000   5535 
_SEQ_PAR_854                              IMPT 00000000   5536 
_SEQ_PAR_855                              IMPT 00000000   5537 
_SEQ_PAR_856                              IMPT 00000000   5538 
_SEQ_PAR_857                              IMPT 00000000   5539 
_SEQ_PAR_858                              IMPT 00000000   5540 
_SEQ_PAR_859                              IMPT 00000000   5541 
_SEQ_PAR_860                              IMPT 00000000   5542 
_SEQ_PAR_861                              IMPT 00000000   5543 
_SEQ_PAR_862                              IMPT 00000000   5544 
_SEQ_PAR_863                              IMPT 00000000   5545 
_SEQ_PAR_864                              IMPT 00000000   5546 
_SEQ_PAR_865                              IMPT 00000000   5547 
_SEQ_PAR_866                              IMPT 00000000   5548 
_SEQ_PAR_867                              IMPT 00000000   5549 
_SEQ_PAR_868                              IMPT 00000000   5550 
_SEQ_PAR_869                              IMPT 00000000   5551 
_SEQ_PAR_870                              IMPT 00000000   5552 
_SEQ_PAR_871                              IMPT 00000000   5553 
_SEQ_PAR_872                              IMPT 00000000   5554 
_SEQ_PAR_873                              IMPT 00000000   5555 
_SEQ_PAR_874                              IMPT 00000000   5556 
_SEQ_PAR_875                              IMPT 00000000   5557 
_SEQ_PAR_876                              IMPT 00000000   5558 
_SEQ_PAR_877                              IMPT 00000000   5559 
_SEQ_PAR_878                              IMPT 00000000   5560 
_SEQ_PAR_879                              IMPT 00000000   5561 
_SEQ_PAR_880                              IMPT 00000000   5562 
_SEQ_PAR_881                              IMPT 00000000   5563 
_SEQ_PAR_882                              IMPT 00000000   5564 
_SEQ_PAR_883                              IMPT 00000000   5565 
_SEQ_PAR_884                              IMPT 00000000   5566 
_SEQ_PAR_885                              IMPT 00000000   5567 
_SEQ_PAR_886                              IMPT 00000000   5568 
_SEQ_PAR_887                              IMPT 00000000   5569 
_SEQ_PAR_888                              IMPT 00000000   5570 
_SEQ_PAR_889                              IMPT 00000000   5571 
_SEQ_PAR_890                              IMPT 00000000   5572 
_SEQ_PAR_891                              IMPT 00000000   5573 
_SEQ_PAR_892                              IMPT 00000000   5574 
_SEQ_PAR_893                              IMPT 00000000   5575 
_SEQ_PAR_894                              IMPT 00000000   5576 
_SEQ_PAR_895                              IMPT 00000000   5577 
_SEQ_PAR_896                              IMPT 00000000   5578 
_SEQ_PAR_897                              IMPT 00000000   5579 
_SEQ_PAR_898                              IMPT 00000000   5580 
_SEQ_PAR_899                              IMPT 00000000   5581 
_SEQ_PAR_900                              IMPT 00000000   5582 
_SEQ_PAR_901                              IMPT 00000000   5583 
_SEQ_PAR_902                              IMPT 00000000   5584 
_SEQ_PAR_903                              IMPT 00000000   5585 
*** SuperH RISC engine ASSEMBLER V.7.01.02.000 ***    11/14/21 17:25:06                                                  PAGE    81

*** CROSS REFERENCE LIST

NAME                             SECTION  ATTR VALUE             SEQUENCE

_SEQ_PAR_904                              IMPT 00000000   5586 
_SEQ_PAR_905                              IMPT 00000000   5587 
_SEQ_PAR_906                              IMPT 00000000   5588 
_SEQ_PAR_907                              IMPT 00000000   5589 
_SEQ_PAR_908                              IMPT 00000000   5590 
_SEQ_PAR_909                              IMPT 00000000   5591 
_SEQ_PAR_910                              IMPT 00000000   5592 
_SEQ_PAR_911                              IMPT 00000000   5593 
_SEQ_PAR_912                              IMPT 00000000   5594 
_SEQ_PAR_913                              IMPT 00000000   5595 
_SEQ_PAR_914                              IMPT 00000000   5596 
_SEQ_PAR_915                              IMPT 00000000   5597 
_SEQ_PAR_916                              IMPT 00000000   5598 
_SEQ_PAR_917                              IMPT 00000000   5599 
_SEQ_PAR_918                              IMPT 00000000   5600 
_SEQ_PAR_919                              IMPT 00000000   5601 
_SEQ_PAR_920                              IMPT 00000000   5602 
_SEQ_PAR_921                              IMPT 00000000   5603 
_SEQ_PAR_922                              IMPT 00000000   5604 
_SEQ_PAR_923                              IMPT 00000000   5605 
_SEQ_PAR_924                              IMPT 00000000   5606 
_SEQ_PAR_925                              IMPT 00000000   5607 
_SEQ_PAR_926                              IMPT 00000000   5608 
_SEQ_PAR_927                              IMPT 00000000   5609 
_SEQ_PAR_928                              IMPT 00000000   5610 
_SEQ_PAR_929                              IMPT 00000000   5611 
_SEQ_PAR_930                              IMPT 00000000   5612 
_SEQ_PAR_931                              IMPT 00000000   5613 
_SEQ_PAR_932                              IMPT 00000000   5614 
_SEQ_PAR_933                              IMPT 00000000   5615 
_SEQ_PAR_934                              IMPT 00000000   5616 
_SEQ_PAR_935                              IMPT 00000000   5617 
_SEQ_PAR_936                              IMPT 00000000   5618 
_SEQ_PAR_937                              IMPT 00000000   5619 
_SEQ_PAR_938                              IMPT 00000000   5620 
_SEQ_PAR_939                              IMPT 00000000   5621 
_SEQ_PAR_940                              IMPT 00000000   5622 
_SEQ_PAR_941                              IMPT 00000000   5623 
_SEQ_PAR_942                              IMPT 00000000   5624 
_SEQ_PAR_943                              IMPT 00000000   5625 
_SEQ_PAR_944                              IMPT 00000000   5626 
_SEQ_PAR_945                              IMPT 00000000   5627 
_SEQ_PAR_946                              IMPT 00000000   5628 
_SEQ_PAR_947                              IMPT 00000000   5629 
_SEQ_PAR_948                              IMPT 00000000   5630 
_SEQ_PAR_949                              IMPT 00000000   5631 
_SEQ_PAR_950                              IMPT 00000000   5632 
_SEQ_PAR_951                              IMPT 00000000   5633 
_SEQ_PAR_952                              IMPT 00000000   5634 
_SEQ_PAR_953                              IMPT 00000000   5635 
_SEQ_PAR_954                              IMPT 00000000   5636 
_SEQ_PAR_955                              IMPT 00000000   5637 
_SEQ_PAR_956                              IMPT 00000000   5638 
_SEQ_PAR_957                              IMPT 00000000   5639 
*** SuperH RISC engine ASSEMBLER V.7.01.02.000 ***    11/14/21 17:25:06                                                  PAGE    82

*** CROSS REFERENCE LIST

NAME                             SECTION  ATTR VALUE             SEQUENCE

_SEQ_PAR_958                              IMPT 00000000   5640 
_SEQ_PAR_959                              IMPT 00000000   5641 
_SEQ_PAR_960                              IMPT 00000000   5642 
_SEQ_PAR_961                              IMPT 00000000   5643 
_SEQ_PAR_962                              IMPT 00000000   5644 
_SEQ_PAR_963                              IMPT 00000000   5645 
_SEQ_PAR_964                              IMPT 00000000   5646 
_SEQ_PAR_965                              IMPT 00000000   5647 
_SEQ_PAR_966                              IMPT 00000000   5648 
_SEQ_PAR_967                              IMPT 00000000   5649 
_SEQ_PAR_968                              IMPT 00000000   5650 
_SEQ_PAR_969                              IMPT 00000000   5651 
_SEQ_PAR_970                              IMPT 00000000   5652 
_SEQ_PAR_971                              IMPT 00000000   5653 
_SEQ_PAR_972                              IMPT 00000000   5654 
_SEQ_PAR_973                              IMPT 00000000   5655 
_SEQ_PAR_974                              IMPT 00000000   5656 
_SEQ_PAR_975                              IMPT 00000000   5657 
_SEQ_PAR_976                              IMPT 00000000   5658 
_SEQ_PAR_977                              IMPT 00000000   5659 
_SEQ_PAR_978                              IMPT 00000000   5660 
_SEQ_PAR_979                              IMPT 00000000   5661 
_SEQ_PAR_980                              IMPT 00000000   5662 
_SEQ_PAR_981                              IMPT 00000000   5663 
_SEQ_PAR_982                              IMPT 00000000   5664 
_SEQ_PAR_983                              IMPT 00000000   5665 
_SEQ_PAR_984                              IMPT 00000000   5666 
_SEQ_PAR_985                              IMPT 00000000   5667 
_SEQ_PAR_986                              IMPT 00000000   5668 
_SEQ_PAR_987                              IMPT 00000000   5669 
_SEQ_PAR_988                              IMPT 00000000   5670 
_SEQ_PAR_989                              IMPT 00000000   5671 
_SEQ_PAR_990                              IMPT 00000000   5672 
_SEQ_PAR_991                              IMPT 00000000   5673 
_SEQ_PAR_992                              IMPT 00000000   5674 
_SEQ_PAR_993                              IMPT 00000000   5675 
_SEQ_PAR_994                              IMPT 00000000   5676 
_SEQ_PAR_995                              IMPT 00000000   5677 
_SEQ_PAR_996                              IMPT 00000000   5678 
_SEQ_PAR_997                              IMPT 00000000   5679 
_SEQ_PAR_998                              IMPT 00000000   5680 
_SEQ_PAR_999                              IMPT 00000000   5681 
_SEQ_RUN1                                 IMPT 00000000    453 
_SEQ_RUN1_END                             IMPT 00000000    454 
_SEQ_RUN1_TOP                             IMPT 00000000    452 
_SEQ_RUN_CHG1_ERR_END                     IMPT 00000000   2000 
_SEQ_SEEK_CARD_TBL                        IMPT 00000000   2031 
_SEQ_SEEK_WBIT_TBL                        IMPT 00000000   2030 
_SEQ_SR_FLG                               IMPT 00000000    473 
_SEQ_TMR_CARD_TOP                         EQU  00000424   2090*
_SEQ_TMR_DATA                             IMPT 00000000    466  5754 
_SEQ_TMR_DT                               EQU  00000000   2049*
_SET_CHG                                  IMPT 00000000   1975 
_SET_CODE                                 IMPT 00000000   1900 
*** SuperH RISC engine ASSEMBLER V.7.01.02.000 ***    11/14/21 17:25:06                                                  PAGE    83

*** CROSS REFERENCE LIST

NAME                             SECTION  ATTR VALUE             SEQUENCE

_SET_CODE_END                             IMPT 00000000   1901 
_SH2_ADD_PLS                              IMPT 00000000   3085 
_SH2_AD_DATA                              IMPT 00000000   3297 
_SH2_BAS_FRQ_SV                           IMPT 00000000   3046 
_SH2_CMP_STS1                             IMPT 00000000   2956 
_SH2_CMP_STS2                             IMPT 00000000   2958 
_SH2_CNT_REST_HF                          IMPT 00000000   3057 
_SH2_CNT_REST_PLS                         IMPT 00000000   3041 
_SH2_DBG_KAGEN                            IMPT 00000000   3299 
_SH2_DNM_CALC_INFO                        IMPT 00000000   3220 
_SH2_GPOINT_LNG                           IMPT 00000000   2901 
_SH2_GPOINT_LNGDSP                        IMPT 00000000   2903 
_SH2_GPOINT_SPDDSP                        IMPT 00000000   2905 
_SH2_HD_CNT_CNT                           IMPT 00000000   2976 
_SH2_HD_CNT_STOP                          IMPT 00000000   2972 
_SH2_HD_CTRL_BUSY                         IMPT 00000000   2964 
_SH2_HD_CTRL_REDY                         IMPT 00000000   2962 
_SH2_HD_HLDSTOP1                          IMPT 00000000   3204 
_SH2_HD_HLDSTOP2                          IMPT 00000000   3207 
_SH2_HD_NEAR_ZERO                         IMPT 00000000   2970 
_SH2_HD_POS_START                         IMPT 00000000   2966 
_SH2_HD_SFTY_AUTO                         IMPT 00000000   2968 
_SH2_HD_STEP_END                          IMPT 00000000   2974 
_SH2_LNGH_ADD_SR                          IMPT 00000000   3042 
_SH2_LOT_CNT_A                            IMPT 00000000   3053 
_SH2_LOT_STEP_A                           IMPT 00000000   3054 
_SH2_MAIN_CLK                             IMPT 00000000   3298 
_SH2_NOW_FRQ_PV                           IMPT 00000000   3048 
_SH2_NOW_STEP                             IMPT 00000000   3092 
_SH2_OBJ_ENC360                           IMPT 00000000   3214 
_SH2_PDOWN_FLG                            IMPT 00000000   3296 
_SH2_PLSI_ACCS                            IMPT 00000000   3050 
_SH2_PLSI_LATE                            IMPT 00000000   3051 
_SH2_POS_STS1                             IMPT 00000000   2954 
_SH2_PV_ENC_SPD_PER                       IMPT 00000000   3216 
_SH2_PV_OUT_SPD_PER                       IMPT 00000000   3215 
_SH2_REST_PLS_RL                          IMPT 00000000   3044 
_SH2_REST_PLS_SR                          IMPT 00000000   3043 
_SH2_REST_RL_HF                           IMPT 00000000   3056 
_SH2_REST_SR_HF                           IMPT 00000000   3055 
_SH2_SCAN_AVLMAX                          IMPT 00000000   3310 
_SH2_SCAN_AVLPV                           IMPT 00000000   3311 
_SH2_SCAN_REALMAX                         IMPT 00000000   3309 
_SH2_STEP1_FRQ                            IMPT 00000000   3074 
_SH2_STEP1_PV_PLS                         IMPT 00000000   3064 
_SH2_STEP1_REST_P                         IMPT 00000000   3069 
_SH2_STEP1_SV_PLS                         IMPT 00000000   3059 
_SH2_STEP1_TIM                            IMPT 00000000   3079 
_SH2_STEP2_FRQ                            IMPT 00000000   3075 
_SH2_STEP2_PV_PLS                         IMPT 00000000   3065 
_SH2_STEP2_REST_P                         IMPT 00000000   3070 
_SH2_STEP2_SV_PLS                         IMPT 00000000   3060 
_SH2_STEP2_TIM                            IMPT 00000000   3080 
_SH2_STEP3_FRQ                            IMPT 00000000   3076 
*** SuperH RISC engine ASSEMBLER V.7.01.02.000 ***    11/14/21 17:25:06                                                  PAGE    84

*** CROSS REFERENCE LIST

NAME                             SECTION  ATTR VALUE             SEQUENCE

_SH2_STEP3_PV_PLS                         IMPT 00000000   3066 
_SH2_STEP3_REST_P                         IMPT 00000000   3071 
_SH2_STEP3_SV_PLS                         IMPT 00000000   3061 
_SH2_STEP3_TIM                            IMPT 00000000   3081 
_SH2_STEP4_FRQ                            IMPT 00000000   3077 
_SH2_STEP4_PV_PLS                         IMPT 00000000   3067 
_SH2_STEP4_REST_P                         IMPT 00000000   3072 
_SH2_STEP4_SV_PLS                         IMPT 00000000   3062 
_SH2_STEP4_TIM                            IMPT 00000000   3082 
_SH2_STEP5_FRQ                            IMPT 00000000   3078 
_SH2_STEP5_PV_PLS                         IMPT 00000000   3068 
_SH2_STEP5_REST_P                         IMPT 00000000   3073 
_SH2_STEP5_SV_PLS                         IMPT 00000000   3063 
_SH2_STEP5_TIM                            IMPT 00000000   3083 
_SH2_STEP_FRQ                             IMPT 00000000   3090 
_SH2_STEP_NO                              IMPT 00000000   2947 
_SH2_STEP_PV_PLS                          IMPT 00000000   3088 
_SH2_STEP_REST_P                          IMPT 00000000   3089 
_SH2_STEP_SV_PLS                          IMPT 00000000   3087 
_SH2_STEP_TIM                             IMPT 00000000   3091 
_SH2_TOP_FRQ_SV                           IMPT 00000000   3047 
_SH2_TOTAL_PLS                            IMPT 00000000   3084 
_SH2_VLV_SIG                              IMPT 00000000   3211 
_SH2toSH4_TEPSIG                          IMPT 00000000   2908 
_SH4_ADD_PLS                              IMPT 00000000   3033 
_SH4_BAS_FRQ_SV                           IMPT 00000000   2994 
_SH4_CMP_STS1                             IMPT 00000000   2955 
_SH4_CMP_STS2                             IMPT 00000000   2957 
_SH4_CNT_REST_HF                          IMPT 00000000   3005 
_SH4_CNT_REST_PLS                         IMPT 00000000   2990 
_SH4_DNM_CALC_INFO                        IMPT 00000000   3219 
_SH4_GPOINT_LNG                           IMPT 00000000   2900 
_SH4_GPOINT_LNGDSP                        IMPT 00000000   2902 
_SH4_GPOINT_SPDDSP                        IMPT 00000000   2904 
_SH4_HD_CNT_CNT                           IMPT 00000000   2975 
_SH4_HD_CNT_STOP                          IMPT 00000000   2971 
_SH4_HD_CTRL_BUSY                         IMPT 00000000   2963 
_SH4_HD_CTRL_REDY                         IMPT 00000000   2961 
_SH4_HD_HLDSTOP1                          IMPT 00000000   3203 
_SH4_HD_HLDSTOP2                          IMPT 00000000   3206 
_SH4_HD_NEAR_ZERO                         IMPT 00000000   2969 
_SH4_HD_POS_START                         IMPT 00000000   2965 
_SH4_HD_SFTY_AUTO                         IMPT 00000000   2967 
_SH4_HD_STEP_END                          IMPT 00000000   2973 
_SH4_LNGH_ADD_SR                          IMPT 00000000   2991 
_SH4_LOT_CNT_A                            IMPT 00000000   3001 
_SH4_LOT_STEP_A                           IMPT 00000000   3002 
_SH4_NOW_FRQ_PV                           IMPT 00000000   2996 
_SH4_NOW_STEP                             IMPT 00000000   3039 
_SH4_ORG_DIR_REV                          IMPT 00000000   2884 
_SH4_PDOWN_FLG                            IMPT 00000000   3323 
_SH4_PLSI_ACCS                            IMPT 00000000   2998 
_SH4_PLSI_LATE                            IMPT 00000000   2999 
_SH4_POS_STS1                             IMPT 00000000   2953 
*** SuperH RISC engine ASSEMBLER V.7.01.02.000 ***    11/14/21 17:25:06                                                  PAGE    85

*** CROSS REFERENCE LIST

NAME                             SECTION  ATTR VALUE             SEQUENCE

_SH4_REST_PLS_RL                          IMPT 00000000   2993 
_SH4_REST_PLS_SR                          IMPT 00000000   2992 
_SH4_REST_RL_HF                           IMPT 00000000   3004 
_SH4_REST_SR_HF                           IMPT 00000000   3003 
_SH4_STEP1_FRQ                            IMPT 00000000   3022 
_SH4_STEP1_PV_PLS                         IMPT 00000000   3012 
_SH4_STEP1_REST_P                         IMPT 00000000   3017 
_SH4_STEP1_SV_PLS                         IMPT 00000000   3007 
_SH4_STEP1_TIM                            IMPT 00000000   3027 
_SH4_STEP2_FRQ                            IMPT 00000000   3023 
_SH4_STEP2_PV_PLS                         IMPT 00000000   3013 
_SH4_STEP2_REST_P                         IMPT 00000000   3018 
_SH4_STEP2_SV_PLS                         IMPT 00000000   3008 
_SH4_STEP2_TIM                            IMPT 00000000   3028 
_SH4_STEP3_FRQ                            IMPT 00000000   3024 
_SH4_STEP3_PV_PLS                         IMPT 00000000   3014 
_SH4_STEP3_REST_P                         IMPT 00000000   3019 
_SH4_STEP3_SV_PLS                         IMPT 00000000   3009 
_SH4_STEP3_TIM                            IMPT 00000000   3029 
_SH4_STEP4_FRQ                            IMPT 00000000   3025 
_SH4_STEP4_PV_PLS                         IMPT 00000000   3015 
_SH4_STEP4_REST_P                         IMPT 00000000   3020 
_SH4_STEP4_SV_PLS                         IMPT 00000000   3010 
_SH4_STEP4_TIM                            IMPT 00000000   3030 
_SH4_STEP5_FRQ                            IMPT 00000000   3026 
_SH4_STEP5_PV_PLS                         IMPT 00000000   3016 
_SH4_STEP5_REST_P                         IMPT 00000000   3021 
_SH4_STEP5_SV_PLS                         IMPT 00000000   3011 
_SH4_STEP5_TIM                            IMPT 00000000   3031 
_SH4_STEP_FRQ                             IMPT 00000000   3037 
_SH4_STEP_NO                              IMPT 00000000   2946 
_SH4_STEP_PV_PLS                          IMPT 00000000   3035 
_SH4_STEP_REST_P                          IMPT 00000000   3036 
_SH4_STEP_SV_PLS                          IMPT 00000000   3034 
_SH4_STEP_TIM                             IMPT 00000000   3038 
_SH4_TOP_FRQ_SV                           IMPT 00000000   2995 
_SH4_TOTAL_PLS                            IMPT 00000000   3032 
_SH4_VLV_SIG                              IMPT 00000000   3210 
_SH4toSH2_TEPSIG                          IMPT 00000000   2907 
_SH_CNTSTOP_FLG                           IMPT 00000000   2925 
_SH_OUTPLS_DELT                           IMPT 00000000   2926 
_SH_POSCTL_ACC                            IMPT 00000000   2913 
_SH_POSCTL_CAL_REST                       IMPT 00000000   2919 
_SH_POSCTL_HENSA                          IMPT 00000000   2920 
_SH_POSCTL_LSIFREQ                        IMPT 00000000   2921 
_SH_POSCTL_OFS                            IMPT 00000000   2914 
_SH_POSCTL_PV_ABSPLS                      IMPT 00000000   2917 
_SH_POSCTL_REST_PLS                       IMPT 00000000   2918 
_SH_POSCTL_RL_ABSPLS                      IMPT 00000000   2916 
_SH_POSCTL_RL_SPD                         IMPT 00000000   2912 
_SH_POSCTL_SV_ABSPLS                      IMPT 00000000   2915 
_SH_POSCTL_SV_SPD                         IMPT 00000000   2911 
_SH_SQ200_IN                              IMPT 00000000   2924 
_SQ000                                    EQU  00000000   2170*
*** SuperH RISC engine ASSEMBLER V.7.01.02.000 ***    11/14/21 17:25:06                                                  PAGE    86

*** CROSS REFERENCE LIST

NAME                             SECTION  ATTR VALUE             SEQUENCE

_SQ001                                    EQU  00000002   2171*
_SQ002                                    EQU  00000004   2172*
_SQ003                                    EQU  00000006   2173*
_SQ004                                    EQU  00000008   2174*
_SQ005                                    EQU  0000000A   2175*
_SQ006                                    EQU  0000000C   2176*
_SQ007                                    EQU  0000000E   2177*
_SQ008                                    EQU  00000010   2178*
_SQ009                                    EQU  00000012   2179*
_SQ010                                    EQU  00000014   2180*
_SQ011                                    EQU  00000016   2181*
_SQ012                                    EQU  00000018   2182*
_SQ013                                    EQU  0000001A   2183*
_SQ014                                    EQU  0000001C   2184*
_SQ015                                    EQU  0000001E   2185*
_SQ016                                    EQU  00000020   2186*
_SQ017                                    EQU  00000022   2187*
_SQ018                                    EQU  00000024   2188*
_SQ019                                    EQU  00000026   2189*
_SQ020                                    EQU  00000028   2190*
_SQ021                                    EQU  0000002A   2191*
_SQ022                                    EQU  0000002C   2192*
_SQ023                                    EQU  0000002E   2193*
_SQ024                                    EQU  00000030   2194*
_SQ025                                    EQU  00000032   2195*
_SQ026                                    EQU  00000034   2196*
_SQ027                                    EQU  00000036   2197*
_SQ028                                    EQU  00000038   2198*
_SQ029                                    EQU  0000003A   2199*
_SQ030                                    EQU  0000003C   2200*
_SQ031                                    EQU  0000003E   2201*
_SQ032                                    EQU  00000040   2202*
_SQ033                                    EQU  00000042   2203*
_SQ034                                    EQU  00000044   2204*
_SQ035                                    EQU  00000046   2205*
_SQ036                                    EQU  00000048   2206*
_SQ037                                    EQU  0000004A   2207*
_SQ038                                    EQU  0000004C   2208*
_SQ039                                    EQU  0000004E   2209*
_SQ040                                    EQU  00000050   2210*
_SQ041                                    EQU  00000052   2211*
_SQ042                                    EQU  00000054   2212*
_SQ043                                    EQU  00000056   2213*
_SQ044                                    EQU  00000058   2214*
_SQ045                                    EQU  0000005A   2215*
_SQ046                                    EQU  0000005C   2216*
_SQ047                                    EQU  0000005E   2217*
_SQ048                                    EQU  00000060   2218*
_SQ049                                    EQU  00000062   2219*
_SQ050                                    EQU  00000064   2220*
_SQ051                                    EQU  00000066   2221*
_SQ052                                    EQU  00000068   2222*
_SQ053                                    EQU  0000006A   2223*
_SQ054                                    EQU  0000006C   2224*
*** SuperH RISC engine ASSEMBLER V.7.01.02.000 ***    11/14/21 17:25:06                                                  PAGE    87

*** CROSS REFERENCE LIST

NAME                             SECTION  ATTR VALUE             SEQUENCE

_SQ055                                    EQU  0000006E   2225*
_SQ056                                    EQU  00000070   2226*
_SQ057                                    EQU  00000072   2227*
_SQ058                                    EQU  00000074   2228*
_SQ059                                    EQU  00000076   2229*
_SQ060                                    EQU  00000078   2230*
_SQ061                                    EQU  0000007A   2231*
_SQ062                                    EQU  0000007C   2232*
_SQ063                                    EQU  0000007E   2233*
_SQ064                                    EQU  00000080   2234*
_SQ065                                    EQU  00000082   2235*
_SQ066                                    EQU  00000084   2236*
_SQ067                                    EQU  00000086   2237*
_SQ068                                    EQU  00000088   2238*
_SQ069                                    EQU  0000008A   2239*
_SQ070                                    EQU  0000008C   2240*
_SQ071                                    EQU  0000008E   2241*
_SQ072                                    EQU  00000090   2242*
_SQ073                                    EQU  00000092   2243*
_SQ074                                    EQU  00000094   2244*
_SQ075                                    EQU  00000096   2245*
_SQ076                                    EQU  00000098   2246*
_SQ077                                    EQU  0000009A   2247*
_SQ078                                    EQU  0000009C   2248*
_SQ079                                    EQU  0000009E   2249*
_SQ080                                    EQU  000000A0   2250*
_SQ081                                    EQU  000000A2   2251*
_SQ082                                    EQU  000000A4   2252*
_SQ083                                    EQU  000000A6   2253*
_SQ084                                    EQU  000000A8   2254*
_SQ085                                    EQU  000000AA   2255*
_SQ086                                    EQU  000000AC   2256*
_SQ087                                    EQU  000000AE   2257*
_SQ088                                    EQU  000000B0   2258*
_SQ089                                    EQU  000000B2   2259*
_SQ090                                    EQU  000000B4   2260*
_SQ091                                    EQU  000000B6   2261*
_SQ092                                    EQU  000000B8   2262*
_SQ093                                    EQU  000000BA   2263*
_SQ094                                    EQU  000000BC   2264*
_SQ095                                    EQU  000000BE   2265*
_SQ096                                    EQU  000000C0   2266*
_SQ097                                    EQU  000000C2   2267*
_SQ098                                    EQU  000000C4   2268*
_SQ099                                    EQU  000000C6   2269*
_SQ100                                    EQU  000000C8   2271*
_SQ101                                    EQU  000000CA   2272*
_SQ102                                    EQU  000000CC   2273*
_SQ103                                    EQU  000000CE   2274*
_SQ104                                    EQU  000000D0   2275*
_SQ105                                    EQU  000000D2   2276*
_SQ106                                    EQU  000000D4   2277*
_SQ107                                    EQU  000000D6   2278*
_SQ108                                    EQU  000000D8   2279*
*** SuperH RISC engine ASSEMBLER V.7.01.02.000 ***    11/14/21 17:25:06                                                  PAGE    88

*** CROSS REFERENCE LIST

NAME                             SECTION  ATTR VALUE             SEQUENCE

_SQ109                                    EQU  000000DA   2280*
_SQ110                                    EQU  000000DC   2281*
_SQ111                                    EQU  000000DE   2282*
_SQ112                                    EQU  000000E0   2283*
_SQ113                                    EQU  000000E2   2284*
_SQ114                                    EQU  000000E4   2285*
_SQ115                                    EQU  000000E6   2286*
_SQ116                                    EQU  000000E8   2287*
_SQ117                                    EQU  000000EA   2288*
_SQ118                                    EQU  000000EC   2289*
_SQ119                                    EQU  000000EE   2290*
_SQ120                                    EQU  000000F0   2291*
_SQ121                                    EQU  000000F2   2292*
_SQ122                                    EQU  000000F4   2293*
_SQ123                                    EQU  000000F6   2294*
_SQ124                                    EQU  000000F8   2295*
_SQ125                                    EQU  000000FA   2296*
_SQ126                                    EQU  000000FC   2297*
_SQ127                                    EQU  000000FE   2298*
_SQ128                                    EQU  00000100   2299*
_SQ129                                    EQU  00000102   2300*
_SQ130                                    EQU  00000104   2301*
_SQ131                                    EQU  00000106   2302*
_SQ132                                    EQU  00000108   2303*
_SQ133                                    EQU  0000010A   2304*
_SQ134                                    EQU  0000010C   2305*
_SQ135                                    EQU  0000010E   2306*
_SQ136                                    EQU  00000110   2307*
_SQ137                                    EQU  00000112   2308*
_SQ138                                    EQU  00000114   2309*
_SQ139                                    EQU  00000116   2310*
_SQ140                                    EQU  00000118   2311*
_SQ141                                    EQU  0000011A   2312*
_SQ142                                    EQU  0000011C   2313*
_SQ143                                    EQU  0000011E   2314*
_SQ144                                    EQU  00000120   2315*
_SQ145                                    EQU  00000122   2316*
_SQ146                                    EQU  00000124   2317*
_SQ147                                    EQU  00000126   2318*
_SQ148                                    EQU  00000128   2319*
_SQ149                                    EQU  0000012A   2320*
_SQ150                                    EQU  0000012C   2321*
_SQ151                                    EQU  0000012E   2322*
_SQ152                                    EQU  00000130   2323*
_SQ153                                    EQU  00000132   2324*
_SQ154                                    EQU  00000134   2325*
_SQ155                                    EQU  00000136   2326*
_SQ156                                    EQU  00000138   2327*
_SQ157                                    EQU  0000013A   2328*
_SQ158                                    EQU  0000013C   2329*
_SQ159                                    EQU  0000013E   2330*
_SQ160                                    EQU  00000140   2331*
_SQ161                                    EQU  00000142   2332*
_SQ162                                    EQU  00000144   2333*
*** SuperH RISC engine ASSEMBLER V.7.01.02.000 ***    11/14/21 17:25:06                                                  PAGE    89

*** CROSS REFERENCE LIST

NAME                             SECTION  ATTR VALUE             SEQUENCE

_SQ163                                    EQU  00000146   2334*
_SQ164                                    EQU  00000148   2335*
_SQ165                                    EQU  0000014A   2336*
_SQ166                                    EQU  0000014C   2337*
_SQ167                                    EQU  0000014E   2338*
_SQ168                                    EQU  00000150   2339*
_SQ169                                    EQU  00000152   2340*
_SQ170                                    EQU  00000154   2341*
_SQ171                                    EQU  00000156   2342*
_SQ172                                    EQU  00000158   2343*
_SQ173                                    EQU  0000015A   2344*
_SQ174                                    EQU  0000015C   2345*
_SQ175                                    EQU  0000015E   2346*
_SQ176                                    EQU  00000160   2347*
_SQ177                                    EQU  00000162   2348*
_SQ178                                    EQU  00000164   2349*
_SQ179                                    EQU  00000166   2350*
_SQ180                                    EQU  00000168   2351*
_SQ181                                    EQU  0000016A   2352*
_SQ182                                    EQU  0000016C   2353*
_SQ183                                    EQU  0000016E   2354*
_SQ184                                    EQU  00000170   2355*
_SQ185                                    EQU  00000172   2356*
_SQ186                                    EQU  00000174   2357*
_SQ187                                    EQU  00000176   2358*
_SQ188                                    EQU  00000178   2359*
_SQ189                                    EQU  0000017A   2360*
_SQ190                                    EQU  0000017C   2361*
_SQ191                                    EQU  0000017E   2362*
_SQ192                                    EQU  00000180   2363*
_SQ193                                    EQU  00000182   2364*
_SQ194                                    EQU  00000184   2365*
_SQ195                                    EQU  00000186   2366*
_SQ196                                    EQU  00000188   2367*
_SQ197                                    EQU  0000018A   2368*
_SQ198                                    EQU  0000018C   2369*
_SQ199                                    EQU  0000018E   2370*
_SQ200                                    EQU  00000190   2372*
_SQ201                                    EQU  00000192   2373*
_SQ202                                    EQU  00000194   2374*
_SQ203                                    EQU  00000196   2375*
_SQ204                                    EQU  00000198   2376*
_SQ205                                    EQU  0000019A   2377*
_SQ206                                    EQU  0000019C   2378*
_SQ207                                    EQU  0000019E   2379*
_SQ208                                    EQU  000001A0   2380*
_SQ209                                    EQU  000001A2   2381*
_SQ210                                    EQU  000001A4   2382*
_SQ211                                    EQU  000001A6   2383*
_SQ212                                    EQU  000001A8   2384*
_SQ213                                    EQU  000001AA   2385*
_SQ214                                    EQU  000001AC   2386*
_SQ215                                    EQU  000001AE   2387*
_SQ216                                    EQU  000001B0   2388*
*** SuperH RISC engine ASSEMBLER V.7.01.02.000 ***    11/14/21 17:25:06                                                  PAGE    90

*** CROSS REFERENCE LIST

NAME                             SECTION  ATTR VALUE             SEQUENCE

_SQ217                                    EQU  000001B2   2389*
_SQ218                                    EQU  000001B4   2390*
_SQ219                                    EQU  000001B6   2391*
_SQ220                                    EQU  000001B8   2392*
_SQ221                                    EQU  000001BA   2393*
_SQ222                                    EQU  000001BC   2394*
_SQ223                                    EQU  000001BE   2395*
_SQ224                                    EQU  000001C0   2396*
_SQ225                                    EQU  000001C2   2397*
_SQ226                                    EQU  000001C4   2398*
_SQ227                                    EQU  000001C6   2399*
_SQ228                                    EQU  000001C8   2400*
_SQ229                                    EQU  000001CA   2401*
_SQ230                                    EQU  000001CC   2402*
_SQ231                                    EQU  000001CE   2403*
_SQ232                                    EQU  000001D0   2404*
_SQ233                                    EQU  000001D2   2405*
_SQ234                                    EQU  000001D4   2406*
_SQ235                                    EQU  000001D6   2407*
_SQ236                                    EQU  000001D8   2408*
_SQ237                                    EQU  000001DA   2409*
_SQ238                                    EQU  000001DC   2410*
_SQ239                                    EQU  000001DE   2411*
_SQ240                                    EQU  000001E0   2412*
_SQ241                                    EQU  000001E2   2413*
_SQ242                                    EQU  000001E4   2414*
_SQ243                                    EQU  000001E6   2415*
_SQ244                                    EQU  000001E8   2416*
_SQ245                                    EQU  000001EA   2417*
_SQ246                                    EQU  000001EC   2418*
_SQ247                                    EQU  000001EE   2419*
_SQ248                                    EQU  000001F0   2420*
_SQ249                                    EQU  000001F2   2421*
_SQ250                                    EQU  000001F4   2422*
_SQ251                                    EQU  000001F6   2423*
_SQ252                                    EQU  000001F8   2424*
_SQ253                                    EQU  000001FA   2425*
_SQ254                                    EQU  000001FC   2426*
_SQ255                                    EQU  000001FE   2427*
_SQ256                                    EQU  00000200   2428*
_SQ257                                    EQU  00000202   2429*
_SQ258                                    EQU  00000204   2430*
_SQ259                                    EQU  00000206   2431*
_SQ260                                    EQU  00000208   2432*
_SQ261                                    EQU  0000020A   2433*
_SQ262                                    EQU  0000020C   2434*
_SQ263                                    EQU  0000020E   2435*
_SQ264                                    EQU  00000210   2436*
_SQ265                                    EQU  00000212   2437*
_SQ266                                    EQU  00000214   2438*
_SQ267                                    EQU  00000216   2439*
_SQ268                                    EQU  00000218   2440*
_SQ269                                    EQU  0000021A   2441*
_SQ270                                    EQU  0000021C   2442*
*** SuperH RISC engine ASSEMBLER V.7.01.02.000 ***    11/14/21 17:25:06                                                  PAGE    91

*** CROSS REFERENCE LIST

NAME                             SECTION  ATTR VALUE             SEQUENCE

_SQ271                                    EQU  0000021E   2443*
_SQ272                                    EQU  00000220   2444*
_SQ273                                    EQU  00000222   2445*
_SQ274                                    EQU  00000224   2446*
_SQ275                                    EQU  00000226   2447*
_SQ276                                    EQU  00000228   2448*
_SQ277                                    EQU  0000022A   2449*
_SQ278                                    EQU  0000022C   2450*
_SQ279                                    EQU  0000022E   2451*
_SQ280                                    EQU  00000230   2452*
_SQ281                                    EQU  00000232   2453*
_SQ282                                    EQU  00000234   2454*
_SQ283                                    EQU  00000236   2455*
_SQ284                                    EQU  00000238   2456*
_SQ285                                    EQU  0000023A   2457*
_SQ286                                    EQU  0000023C   2458*
_SQ287                                    EQU  0000023E   2459*
_SQ288                                    EQU  00000240   2460*
_SQ289                                    EQU  00000242   2461*
_SQ290                                    EQU  00000244   2462*
_SQ291                                    EQU  00000246   2463*
_SQ292                                    EQU  00000248   2464*
_SQ293                                    EQU  0000024A   2465*
_SQ294                                    EQU  0000024C   2466*
_SQ295                                    EQU  0000024E   2467*
_SQ296                                    EQU  00000250   2468*
_SQ297                                    EQU  00000252   2469*
_SQ298                                    EQU  00000254   2470*
_SQ299                                    EQU  00000256   2471*
_SQ300                                    EQU  00000258   2473*
_SQ301                                    EQU  0000025A   2474*
_SQ302                                    EQU  0000025C   2475*
_SQ303                                    EQU  0000025E   2476*
_SQ304                                    EQU  00000260   2477*
_SQ305                                    EQU  00000262   2478*
_SQ306                                    EQU  00000264   2479*
_SQ307                                    EQU  00000266   2480*
_SQ308                                    EQU  00000268   2481*
_SQ309                                    EQU  0000026A   2482*
_SQ310                                    EQU  0000026C   2483*
_SQ311                                    EQU  0000026E   2484*
_SQ312                                    EQU  00000270   2485*
_SQ313                                    EQU  00000272   2486*
_SQ314                                    EQU  00000274   2487*
_SQ315                                    EQU  00000276   2488*
_SQ316                                    EQU  00000278   2489*
_SQ317                                    EQU  0000027A   2490*
_SQ318                                    EQU  0000027C   2491*
_SQ319                                    EQU  0000027E   2492*
_SQ320                                    EQU  00000280   2493*
_SQ321                                    EQU  00000282   2494*
_SQ322                                    EQU  00000284   2495*
_SQ323                                    EQU  00000286   2496*
_SQ324                                    EQU  00000288   2497*
*** SuperH RISC engine ASSEMBLER V.7.01.02.000 ***    11/14/21 17:25:06                                                  PAGE    92

*** CROSS REFERENCE LIST

NAME                             SECTION  ATTR VALUE             SEQUENCE

_SQ325                                    EQU  0000028A   2498*
_SQ326                                    EQU  0000028C   2499*
_SQ327                                    EQU  0000028E   2500*
_SQ328                                    EQU  00000290   2501*
_SQ329                                    EQU  00000292   2502*
_SQ330                                    EQU  00000294   2503*
_SQ331                                    EQU  00000296   2504*
_SQ332                                    EQU  00000298   2505*
_SQ333                                    EQU  0000029A   2506*
_SQ334                                    EQU  0000029C   2507*
_SQ335                                    EQU  0000029E   2508*
_SQ336                                    EQU  000002A0   2509*
_SQ337                                    EQU  000002A2   2510*
_SQ338                                    EQU  000002A4   2511*
_SQ339                                    EQU  000002A6   2512*
_SQ340                                    EQU  000002A8   2513*
_SQ341                                    EQU  000002AA   2514*
_SQ342                                    EQU  000002AC   2515*
_SQ343                                    EQU  000002AE   2516*
_SQ344                                    EQU  000002B0   2517*
_SQ345                                    EQU  000002B2   2518*
_SQ346                                    EQU  000002B4   2519*
_SQ347                                    EQU  000002B6   2520*
_SQ348                                    EQU  000002B8   2521*
_SQ349                                    EQU  000002BA   2522*
_SQ350                                    EQU  000002BC   2523*
_SQ351                                    EQU  000002BE   2524*
_SQ352                                    EQU  000002C0   2525*
_SQ353                                    EQU  000002C2   2526*
_SQ354                                    EQU  000002C4   2527*
_SQ355                                    EQU  000002C6   2528*
_SQ356                                    EQU  000002C8   2529*
_SQ357                                    EQU  000002CA   2530*
_SQ358                                    EQU  000002CC   2531*
_SQ359                                    EQU  000002CE   2532*
_SQ360                                    EQU  000002D0   2533*
_SQ361                                    EQU  000002D2   2534*
_SQ362                                    EQU  000002D4   2535*
_SQ363                                    EQU  000002D6   2536*
_SQ364                                    EQU  000002D8   2537*
_SQ365                                    EQU  000002DA   2538*
_SQ366                                    EQU  000002DC   2539*
_SQ367                                    EQU  000002DE   2540*
_SQ368                                    EQU  000002E0   2541*
_SQ369                                    EQU  000002E2   2542*
_SQ370                                    EQU  000002E4   2543*
_SQ371                                    EQU  000002E6   2544*
_SQ372                                    EQU  000002E8   2545*
_SQ373                                    EQU  000002EA   2546*
_SQ374                                    EQU  000002EC   2547*
_SQ375                                    EQU  000002EE   2548*
_SQ376                                    EQU  000002F0   2549*
_SQ377                                    EQU  000002F2   2550*
_SQ378                                    EQU  000002F4   2551*
*** SuperH RISC engine ASSEMBLER V.7.01.02.000 ***    11/14/21 17:25:06                                                  PAGE    93

*** CROSS REFERENCE LIST

NAME                             SECTION  ATTR VALUE             SEQUENCE

_SQ379                                    EQU  000002F6   2552*
_SQ380                                    EQU  000002F8   2553*
_SQ381                                    EQU  000002FA   2554*
_SQ382                                    EQU  000002FC   2555*
_SQ383                                    EQU  000002FE   2556*
_SQ384                                    EQU  00000300   2557*
_SQ385                                    EQU  00000302   2558*
_SQ386                                    EQU  00000304   2559*
_SQ387                                    EQU  00000306   2560*
_SQ388                                    EQU  00000308   2561*
_SQ389                                    EQU  0000030A   2562*
_SQ390                                    EQU  0000030C   2563*
_SQ391                                    EQU  0000030E   2564*
_SQ392                                    EQU  00000310   2565*
_SQ393                                    EQU  00000312   2566*
_SQ394                                    EQU  00000314   2567*
_SQ395                                    EQU  00000316   2568*
_SQ396                                    EQU  00000318   2569*
_SQ397                                    EQU  0000031A   2570*
_SQ398                                    EQU  0000031C   2571*
_SQ399                                    EQU  0000031E   2572*
_SQ400                                    EQU  00000320   2574*
_SQ401                                    EQU  00000322   2575*
_SQ402                                    EQU  00000324   2576*
_SQ403                                    EQU  00000326   2577*
_SQ404                                    EQU  00000328   2578*
_SQ405                                    EQU  0000032A   2579*
_SQ406                                    EQU  0000032C   2580*
_SQ407                                    EQU  0000032E   2581*
_SQ408                                    EQU  00000330   2582*
_SQ409                                    EQU  00000332   2583*
_SQ410                                    EQU  00000334   2584*
_SQ411                                    EQU  00000336   2585*
_SQ412                                    EQU  00000338   2586*
_SQ413                                    EQU  0000033A   2587*
_SQ414                                    EQU  0000033C   2588*
_SQ415                                    EQU  0000033E   2589*
_SQ416                                    EQU  00000340   2590*
_SQ417                                    EQU  00000342   2591*
_SQ418                                    EQU  00000344   2592*
_SQ419                                    EQU  00000346   2593*
_SQ420                                    EQU  00000348   2594*
_SQ421                                    EQU  0000034A   2595*
_SQ422                                    EQU  0000034C   2596*
_SQ423                                    EQU  0000034E   2597*
_SQ424                                    EQU  00000350   2598*
_SQ425                                    EQU  00000352   2599*
_SQ426                                    EQU  00000354   2600*
_SQ427                                    EQU  00000356   2601*
_SQ428                                    EQU  00000358   2602*
_SQ429                                    EQU  0000035A   2603*
_SQ430                                    EQU  0000035C   2604*
_SQ431                                    EQU  0000035E   2605*
_SQ432                                    EQU  00000360   2606*
*** SuperH RISC engine ASSEMBLER V.7.01.02.000 ***    11/14/21 17:25:06                                                  PAGE    94

*** CROSS REFERENCE LIST

NAME                             SECTION  ATTR VALUE             SEQUENCE

_SQ433                                    EQU  00000362   2607*
_SQ434                                    EQU  00000364   2608*
_SQ435                                    EQU  00000366   2609*
_SQ436                                    EQU  00000368   2610*
_SQ437                                    EQU  0000036A   2611*
_SQ438                                    EQU  0000036C   2612*
_SQ439                                    EQU  0000036E   2613*
_SQ440                                    EQU  00000370   2614*
_SQ441                                    EQU  00000372   2615*
_SQ442                                    EQU  00000374   2616*
_SQ443                                    EQU  00000376   2617*
_SQ444                                    EQU  00000378   2618*
_SQ445                                    EQU  0000037A   2619*
_SQ446                                    EQU  0000037C   2620*
_SQ447                                    EQU  0000037E   2621*
_SQ448                                    EQU  00000380   2622*
_SQ449                                    EQU  00000382   2623*
_SQ450                                    EQU  00000384   2624*
_SQ451                                    EQU  00000386   2625*
_SQ452                                    EQU  00000388   2626*
_SQ453                                    EQU  0000038A   2627*
_SQ454                                    EQU  0000038C   2628*
_SQ455                                    EQU  0000038E   2629*
_SQ456                                    EQU  00000390   2630*
_SQ457                                    EQU  00000392   2631*
_SQ458                                    EQU  00000394   2632*
_SQ459                                    EQU  00000396   2633*
_SQ460                                    EQU  00000398   2634*
_SQ461                                    EQU  0000039A   2635*
_SQ462                                    EQU  0000039C   2636*
_SQ463                                    EQU  0000039E   2637*
_SQ464                                    EQU  000003A0   2638*
_SQ465                                    EQU  000003A2   2639*
_SQ466                                    EQU  000003A4   2640*
_SQ467                                    EQU  000003A6   2641*
_SQ468                                    EQU  000003A8   2642*
_SQ469                                    EQU  000003AA   2643*
_SQ470                                    EQU  000003AC   2644*
_SQ471                                    EQU  000003AE   2645*
_SQ472                                    EQU  000003B0   2646*
_SQ473                                    EQU  000003B2   2647*
_SQ474                                    EQU  000003B4   2648*
_SQ475                                    EQU  000003B6   2649*
_SQ476                                    EQU  000003B8   2650*
_SQ477                                    EQU  000003BA   2651*
_SQ478                                    EQU  000003BC   2652*
_SQ479                                    EQU  000003BE   2653*
_SQ480                                    EQU  000003C0   2654*
_SQ481                                    EQU  000003C2   2655*
_SQ482                                    EQU  000003C4   2656*
_SQ483                                    EQU  000003C6   2657*
_SQ484                                    EQU  000003C8   2658*
_SQ485                                    EQU  000003CA   2659*
_SQ486                                    EQU  000003CC   2660*
*** SuperH RISC engine ASSEMBLER V.7.01.02.000 ***    11/14/21 17:25:06                                                  PAGE    95

*** CROSS REFERENCE LIST

NAME                             SECTION  ATTR VALUE             SEQUENCE

_SQ487                                    EQU  000003CE   2661*
_SQ488                                    EQU  000003D0   2662*
_SQ489                                    EQU  000003D2   2663*
_SQ490                                    EQU  000003D4   2664*
_SQ491                                    EQU  000003D6   2665*
_SQ492                                    EQU  000003D8   2666*
_SQ493                                    EQU  000003DA   2667*
_SQ494                                    EQU  000003DC   2668*
_SQ495                                    EQU  000003DE   2669*
_SQ496                                    EQU  000003E0   2670*
_SQ497                                    EQU  000003E2   2671*
_SQ498                                    EQU  000003E4   2672*
_SQ499                                    EQU  000003E6   2673*
_SQ500                                    EQU  000003E8   2675*
_SQ501                                    EQU  000003EA   2676*
_SQ502                                    EQU  000003EC   2677*
_SQ503                                    EQU  000003EE   2678*
_SQ504                                    EQU  000003F0   2679*
_SQ505                                    EQU  000003F2   2680*
_SQ506                                    EQU  000003F4   2681*
_SQ507                                    EQU  000003F6   2682*
_SQ508                                    EQU  000003F8   2683*
_SQ509                                    EQU  000003FA   2684*
_SQ510                                    EQU  000003FC   2685*
_SQ511                                    EQU  000003FE   2686*
_SQ512                                    EQU  00000400   2687*
_SQ513                                    EQU  00000402   2688*
_SQ514                                    EQU  00000404   2689*
_SQ515                                    EQU  00000406   2690*
_SQ516                                    EQU  00000408   2691*
_SQ517                                    EQU  0000040A   2692*
_SQ518                                    EQU  0000040C   2693*
_SQ519                                    EQU  0000040E   2694*
_SQ520                                    EQU  00000410   2695*
_SQ521                                    EQU  00000412   2696*
_SQ522                                    EQU  00000414   2697*
_SQ523                                    EQU  00000416   2698*
_SQ524                                    EQU  00000418   2699*
_SQ525                                    EQU  0000041A   2700*
_SQ526                                    EQU  0000041C   2701*
_SQ527                                    EQU  0000041E   2702*
_SQ528                                    EQU  00000420   2703*
_SQ529                                    EQU  00000422   2704*
_SQ530                                    EQU  00000424   2705*
_SQ531                                    EQU  00000426   2706*
_SQ532                                    EQU  00000428   2707*
_SQ533                                    EQU  0000042A   2708*
_SQ534                                    EQU  0000042C   2709*
_SQ535                                    EQU  0000042E   2710*
_SQ536                                    EQU  00000430   2711*
_SQ537                                    EQU  00000432   2712*
_SQ538                                    EQU  00000434   2713*
_SQ539                                    EQU  00000436   2714*
_SQ540                                    EQU  00000438   2715*
*** SuperH RISC engine ASSEMBLER V.7.01.02.000 ***    11/14/21 17:25:06                                                  PAGE    96

*** CROSS REFERENCE LIST

NAME                             SECTION  ATTR VALUE             SEQUENCE

_SQ541                                    EQU  0000043A   2716*
_SQ542                                    EQU  0000043C   2717*
_SQ543                                    EQU  0000043E   2718*
_SQ544                                    EQU  00000440   2719*
_SQ545                                    EQU  00000442   2720*
_SQ546                                    EQU  00000444   2721*
_SQ547                                    EQU  00000446   2722*
_SQ548                                    EQU  00000448   2723*
_SQ549                                    EQU  0000044A   2724*
_SQ550                                    EQU  0000044C   2725*
_SQ551                                    EQU  0000044E   2726*
_SQ552                                    EQU  00000450   2727*
_SQ553                                    EQU  00000452   2728*
_SQ554                                    EQU  00000454   2729*
_SQ555                                    EQU  00000456   2730*
_SQ556                                    EQU  00000458   2731*
_SQ557                                    EQU  0000045A   2732*
_SQ558                                    EQU  0000045C   2733*
_SQ559                                    EQU  0000045E   2734*
_SQ560                                    EQU  00000460   2735*
_SQ561                                    EQU  00000462   2736*
_SQ562                                    EQU  00000464   2737*
_SQ563                                    EQU  00000466   2738*
_SQ564                                    EQU  00000468   2739*
_SQ565                                    EQU  0000046A   2740*
_SQ566                                    EQU  0000046C   2741*
_SQ567                                    EQU  0000046E   2742*
_SQ568                                    EQU  00000470   2743*
_SQ569                                    EQU  00000472   2744*
_SQ570                                    EQU  00000474   2745*
_SQ571                                    EQU  00000476   2746*
_SQ572                                    EQU  00000478   2747*
_SQ573                                    EQU  0000047A   2748*
_SQ574                                    EQU  0000047C   2749*
_SQ575                                    EQU  0000047E   2750*
_SQ576                                    EQU  00000480   2751*
_SQ577                                    EQU  00000482   2752*
_SQ578                                    EQU  00000484   2753*
_SQ579                                    EQU  00000486   2754*
_SQ580                                    EQU  00000488   2755*
_SQ581                                    EQU  0000048A   2756*
_SQ582                                    EQU  0000048C   2757*
_SQ583                                    EQU  0000048E   2758*
_SQ584                                    EQU  00000490   2759*
_SQ585                                    EQU  00000492   2760*
_SQ586                                    EQU  00000494   2761*
_SQ587                                    EQU  00000496   2762*
_SQ588                                    EQU  00000498   2763*
_SQ589                                    EQU  0000049A   2764*
_SQ590                                    EQU  0000049C   2765*
_SQ591                                    EQU  0000049E   2766*
_SQ592                                    EQU  000004A0   2767*
_SQ593                                    EQU  000004A2   2768*
_SQ594                                    EQU  000004A4   2769*
*** SuperH RISC engine ASSEMBLER V.7.01.02.000 ***    11/14/21 17:25:06                                                  PAGE    97

*** CROSS REFERENCE LIST

NAME                             SECTION  ATTR VALUE             SEQUENCE

_SQ595                                    EQU  000004A6   2770*
_SQ596                                    EQU  000004A8   2771*
_SQ597                                    EQU  000004AA   2772*
_SQ598                                    EQU  000004AC   2773*
_SQ599                                    EQU  000004AE   2774*
_SQ600                                    EQU  000004B0   2776*
_SQ601                                    EQU  000004B2   2777*
_SQ602                                    EQU  000004B4   2778*
_SQ603                                    EQU  000004B6   2779*
_SQ604                                    EQU  000004B8   2780*
_SQ605                                    EQU  000004BA   2781*
_SQ606                                    EQU  000004BC   2782*
_SQ607                                    EQU  000004BE   2783*
_SQ608                                    EQU  000004C0   2784*
_SQ609                                    EQU  000004C2   2785*
_SQ610                                    EQU  000004C4   2786*
_SQ611                                    EQU  000004C6   2787*
_SQ612                                    EQU  000004C8   2788*
_SQ613                                    EQU  000004CA   2789*
_SQ614                                    EQU  000004CC   2790*
_SQ615                                    EQU  000004CE   2791*
_SQ616                                    EQU  000004D0   2792*
_SQ617                                    EQU  000004D2   2793*
_SQ618                                    EQU  000004D4   2794*
_SQ619                                    EQU  000004D6   2795*
_SQ620                                    EQU  000004D8   2796*
_SQ621                                    EQU  000004DA   2797*
_SQ622                                    EQU  000004DC   2798*
_SQ623                                    EQU  000004DE   2799*
_SQ624                                    EQU  000004E0   2800*
_SQ625                                    EQU  000004E2   2801*
_SQ626                                    EQU  000004E4   2802*
_SQ627                                    EQU  000004E6   2803*
_SQ628                                    EQU  000004E8   2804*
_SQ629                                    EQU  000004EA   2805*
_SQ630                                    EQU  000004EC   2806*
_SQ631                                    EQU  000004EE   2807*
_SQ632                                    EQU  000004F0   2808*
_SQ633                                    EQU  000004F2   2809*
_SQ634                                    EQU  000004F4   2810*
_SQ635                                    EQU  000004F6   2811*
_SQ636                                    EQU  000004F8   2812*
_SQ637                                    EQU  000004FA   2813*
_SQ638                                    EQU  000004FC   2814*
_SQ639                                    EQU  000004FE   2815*
_SQ640                                    EQU  00000500   2816*
_SQ641                                    EQU  00000502   2817*
_SQ642                                    EQU  00000504   2818*
_SQ643                                    EQU  00000506   2819*
_SQ644                                    EQU  00000508   2820*
_SQ645                                    EQU  0000050A   2821*
_SQ646                                    EQU  0000050C   2822*
_SQ647                                    EQU  0000050E   2823*
_SQ648                                    EQU  00000510   2824*
*** SuperH RISC engine ASSEMBLER V.7.01.02.000 ***    11/14/21 17:25:06                                                  PAGE    98

*** CROSS REFERENCE LIST

NAME                             SECTION  ATTR VALUE             SEQUENCE

_SQ649                                    EQU  00000512   2825*
_SQ650                                    EQU  00000514   2826*
_SQ651                                    EQU  00000516   2827*
_SQ652                                    EQU  00000518   2828*
_SQ653                                    EQU  0000051A   2829*
_SQ654                                    EQU  0000051C   2830*
_SQ655                                    EQU  0000051E   2831*
_SQ656                                    EQU  00000520   2832*
_SQ657                                    EQU  00000522   2833*
_SQ658                                    EQU  00000524   2834*
_SQ659                                    EQU  00000526   2835*
_SQ660                                    EQU  00000528   2836*
_SQ661                                    EQU  0000052A   2837*
_SQ662                                    EQU  0000052C   2838*
_SQ663                                    EQU  0000052E   2839*
_SQ664                                    EQU  00000530   2840*
_SQ665                                    EQU  00000532   2841*
_SQ666                                    EQU  00000534   2842*
_SQ667                                    EQU  00000536   2843*
_SQ668                                    EQU  00000538   2844*
_SQ669                                    EQU  0000053A   2845*
_SQ670                                    EQU  0000053C   2846*
_SQ671                                    EQU  0000053E   2847*
_SQ672                                    EQU  00000540   2848*
_SQ673                                    EQU  00000542   2849*
_SQ674                                    EQU  00000544   2850*
_SQ675                                    EQU  00000546   2851*
_SQ676                                    EQU  00000548   2852*
_SQ677                                    EQU  0000054A   2853*
_SQ678                                    EQU  0000054C   2854*
_SQ679                                    EQU  0000054E   2855*
_SQ680                                    EQU  00000550   2856*
_SQ681                                    EQU  00000552   2857*
_SQ682                                    EQU  00000554   2858*
_SQ683                                    EQU  00000556   2859*
_SQ684                                    EQU  00000558   2860*
_SQ685                                    EQU  0000055A   2861*
_SQ686                                    EQU  0000055C   2862*
_SQ687                                    EQU  0000055E   2863*
_SQ688                                    EQU  00000560   2864*
_SQ689                                    EQU  00000562   2865*
_SQ690                                    EQU  00000564   2866*
_SQ691                                    EQU  00000566   2867*
_SQ692                                    EQU  00000568   2868*
_SQ693                                    EQU  0000056A   2869*
_SQ694                                    EQU  0000056C   2870*
_SQ695                                    EQU  0000056E   2871*
_SQ696                                    EQU  00000570   2872*
_SQ697                                    EQU  00000572   2873*
_SQ698                                    EQU  00000574   2874*
_SQ699                                    EQU  00000576   2875*
_SQCB200                                  EQU  00000000   2097*
_SQCB201                                  EQU  00000002   2098*
_SQCB202                                  EQU  00000004   2099*
*** SuperH RISC engine ASSEMBLER V.7.01.02.000 ***    11/14/21 17:25:06                                                  PAGE    99

*** CROSS REFERENCE LIST

NAME                             SECTION  ATTR VALUE             SEQUENCE

_SQCB203                                  EQU  00000006   2100*
_SQCB204                                  EQU  00000008   2101*
_SQCB205                                  EQU  0000000A   2102*
_SQCB206                                  EQU  0000000C   2103*
_SQCB207                                  EQU  0000000E   2104*
_SQCB208                                  EQU  00000010   2105*
_SQCB209                                  EQU  00000012   2106*
_SQCB210                                  EQU  00000014   2107*
_SQCB211                                  EQU  00000016   2108*
_SQCB212                                  EQU  00000018   2109*
_SQCB213                                  EQU  0000001A   2110*
_SQCB214                                  EQU  0000001C   2111*
_SQCB215                                  EQU  0000001E   2112*
_SQCB216                                  EQU  00000020   2113*
_SQCB217                                  EQU  00000022   2114*
_SQCB218                                  EQU  00000024   2115*
_SQCB219                                  EQU  00000026   2116*
_SQCB220                                  EQU  00000028   2117*
_SQCB221                                  EQU  0000002A   2118*
_SQCB222                                  EQU  0000002C   2119*
_SQCB223                                  EQU  0000002E   2120*
_SQCB224                                  EQU  00000030   2121*
_SQCB225                                  EQU  00000032   2122*
_SQCB226                                  EQU  00000034   2123*
_SQCB227                                  EQU  00000036   2124*
_SQCB228                                  EQU  00000038   2125*
_SQCB229                                  EQU  0000003A   2126*
_SQCB230                                  EQU  0000003C   2127*
_SQCB231                                  EQU  0000003E   2128*
_SQCB232                                  EQU  00000040   2129*
_SQCB233                                  EQU  00000042   2130*
_SQCB234                                  EQU  00000044   2131*
_SQCB235                                  EQU  00000046   2132*
_SQCB236                                  EQU  00000048   2133*
_SQCB237                                  EQU  0000004A   2134*
_SQCB238                                  EQU  0000004C   2135*
_SQCB239                                  EQU  0000004E   2136*
_SQCB240                                  EQU  00000050   2137*
_SQCB241                                  EQU  00000052   2138*
_SQCB242                                  EQU  00000054   2139*
_SQCB243                                  EQU  00000056   2140*
_SQCB244                                  EQU  00000058   2141*
_SQCB245                                  EQU  0000005A   2142*
_SQCB246                                  EQU  0000005C   2143*
_SQCB247                                  EQU  0000005E   2144*
_SQCB248                                  EQU  00000060   2145*
_SQCB249                                  EQU  00000062   2146*
_SQCB250                                  EQU  00000064   2147*
_SQCB251                                  EQU  00000066   2148*
_SQCB252                                  EQU  00000068   2149*
_SQCB253                                  EQU  0000006A   2150*
_SQCB254                                  EQU  0000006C   2151*
_SQCB255                                  EQU  0000006E   2152*
_SQCB256                                  EQU  00000070   2153*
*** SuperH RISC engine ASSEMBLER V.7.01.02.000 ***    11/14/21 17:25:06                                                  PAGE   100

*** CROSS REFERENCE LIST

NAME                             SECTION  ATTR VALUE             SEQUENCE

_SQCB257                                  EQU  00000072   2154*
_SQCB258                                  EQU  00000074   2155*
_SQCB259                                  EQU  00000076   2156*
_SQCB260                                  EQU  00000078   2157*
_SQCB261                                  EQU  0000007A   2158*
_SQCB262                                  EQU  0000007C   2159*
_SQCB263                                  EQU  0000007E   2160*
_SQCB264                                  EQU  00000080   2161*
_SQCB265                                  EQU  00000082   2162*
_SQCB266                                  EQU  00000084   2163*
_SQCB267                                  EQU  00000086   2164*
_SQCB268                                  EQU  00000088   2165*
_SQCB269                                  EQU  0000008A   2166*
_SQ_CB_DAT1                               EQU  00000046   2093*
_SQ_ERR_END                               EQU  0000FF00   2042*
_SQ_NML_COD                               EQU  00000000   2040*
_SQ_NML_END                               EQU  00000055   2041*
_START_ACK_COD                            EQU  00004321    257*
_START_REQ_COD                            EQU  00009876    256*
_STBCR                                    IMPT 00000000    387 
_STBCR2                                   IMPT 00000000    390 
_STWU_CHG                                 IMPT 00000000   1989 
_STWU_CODE                                IMPT 00000000   1932 
_STWU_CODE_END                            IMPT 00000000   1933 
_STW_CHG                                  IMPT 00000000   1990 
_STW_CMD                                  EQU  00000024   2077*
_STW_CODE                                 IMPT 00000000   1934 
_STW_CODE_END                             IMPT 00000000   1935 
_STW_SUB                                  IMPT 00000000   1867 
_ST_CHG                                   IMPT 00000000   1973 
_ST_CODE                                  IMPT 00000000   1898 
_ST_CODE_END                              IMPT 00000000   1899 
_SUB_CHG                                  IMPT 00000000   1996 
_SUB_CMD                                  EQU  00000048   2086*
_SUB_CODE                                 IMPT 00000000   1952 
_SUB_CODE_END                             IMPT 00000000   1953 
_SUB_SUB                                  IMPT 00000000   1876 
_SVB_ARA1_KAJ_T2                          IMPT 00000000   3395 
_SVB_BAKORG_PLS1                          IMPT 00000000   3386 
_SVB_BAKORG_PLS2                          IMPT 00000000   3387 
_SVB_DYHITO_POS                           IMPT 00000000   3383 
_SVB_RENIA_BUP1                           IMPT 00000000   3389 
_SVB_RENIA_BUP2                           IMPT 00000000   3390 
_SVB_RENIA_BUP3                           IMPT 00000000   3391 
_SVB_RENIA_BUP4                           IMPT 00000000   3392 
_SVB_RNAORG_PLS1                          IMPT 00000000   3381 
_SVB_SLIDE_POS                            IMPT 00000000   3384 
_SVOP2_WAIT_ANSA                          IMPT 00000000   3138 
_SVOP2_WAIT_ANSB                          IMPT 00000000   3139 
_SVP_ACCLAT_TIM1                          IMPT 00000000   3433 
_SVP_ACCLAT_TIMP                          IMPT 00000000   3856 
_SVP_AMP100P_VLT                          IMPT 00000000   3480 
_SVP_AMPERR_TIM1                          IMPT 00000000   3454 
_SVP_AMPERR_TIM2                          IMPT 00000000   3456 
*** SuperH RISC engine ASSEMBLER V.7.01.02.000 ***    11/14/21 17:25:06                                                  PAGE   101

*** CROSS REFERENCE LIST

NAME                             SECTION  ATTR VALUE             SEQUENCE

_SVP_AMPERR_TIM3                          IMPT 00000000   3458 
_SVP_AMPERR_VLT1                          IMPT 00000000   3453 
_SVP_AMPERR_VLT2                          IMPT 00000000   3455 
_SVP_AMPERR_VLT3                          IMPT 00000000   3457 
_SVP_ARACHK_LNG1                          IMPT 00000000   3439 
_SVP_ATCOL_CYC                            IMPT 00000000   3533 
_SVP_ATCOL_SPAG                           IMPT 00000000   3537 
_SVP_ATCOL_SPNO                           IMPT 00000000   3536 
_SVP_ATCOL_STAG                           IMPT 00000000   3535 
_SVP_ATCOL_STNO                           IMPT 00000000   3534 
_SVP_ATSLID_BAKLNG                        IMPT 00000000   3716 
_SVP_ATSLID_COEF1                         IMPT 00000000   3717 
_SVP_ATSLID_DNOBJ1                        IMPT 00000000   3714 
_SVP_ATSLID_OBJ1                          IMPT 00000000   3713 
_SVP_ATSLID_UPOBJ1                        IMPT 00000000   3715 
_SVP_BREAK_DIG                            IMPT 00000000   3463 
_SVP_BREAK_DIG_RAT                        IMPT 00000000   3558 
_SVP_BREAK_TIM1                           IMPT 00000000   3464 
_SVP_BREAK_TIM_RAT                        IMPT 00000000   3559 
_SVP_CAMFUN_SEL00                         IMPT 00000000   3695 
_SVP_CAMFUN_SEL01                         IMPT 00000000   3696 
_SVP_CAMFUN_SEL02                         IMPT 00000000   3697 
_SVP_CAMFUN_SEL03                         IMPT 00000000   3698 
_SVP_CAMFUN_SEL04                         IMPT 00000000   3699 
_SVP_CAMFUN_SEL05                         IMPT 00000000   3700 
_SVP_CAMFUN_SEL06                         IMPT 00000000   3701 
_SVP_CAMFUN_SEL07                         IMPT 00000000   3702 
_SVP_CAMFUN_SEL08                         IMPT 00000000   3703 
_SVP_CAMFUN_SEL09                         IMPT 00000000   3704 
_SVP_CAMFUN_SEL0A                         IMPT 00000000   3705 
_SVP_CAMFUN_SEL0B                         IMPT 00000000   3706 
_SVP_CAMFUN_SEL0C                         IMPT 00000000   3707 
_SVP_CAMFUN_SEL0D                         IMPT 00000000   3708 
_SVP_CAMFUN_SEL0E                         IMPT 00000000   3709 
_SVP_CAMFUN_SEL0F                         IMPT 00000000   3710 
_SVP_CAMFUN_SEL_TOP                       IMPT 00000000   3694 
_SVP_CNT_CNT                              IMPT 00000000   3462 
_SVP_CNT_TIM                              IMPT 00000000   3461 
_SVP_DAIHAI_LNG1                          IMPT 00000000   3449 
_SVP_DAIHAI_LNG2                          IMPT 00000000   3450 
_SVP_DAIHAI_LNG3                          IMPT 00000000   3451 
_SVP_DAIHAI_ORG0                          IMPT 00000000   3658 
_SVP_DAIHSA_LENG                          IMPT 00000000   3669 
_SVP_DANSAM_LEN                           IMPT 00000000   3799 
_SVP_DEB_ADR0                             IMPT 00000000   4200 
_SVP_DEB_ADR1                             IMPT 00000000   4201 
_SVP_DEB_ADR2                             IMPT 00000000   4202 
_SVP_DEB_ADR3                             IMPT 00000000   4203 
_SVP_DEB_ADR4                             IMPT 00000000   4204 
_SVP_DEB_SEL0                             IMPT 00000000   4206 
_SVP_DEB_SEL1                             IMPT 00000000   4207 
_SVP_DEB_SEL2                             IMPT 00000000   4208 
_SVP_DEB_SEL3                             IMPT 00000000   4209 
_SVP_DEB_SEL4                             IMPT 00000000   4210 
*** SuperH RISC engine ASSEMBLER V.7.01.02.000 ***    11/14/21 17:25:06                                                  PAGE   102

*** CROSS REFERENCE LIST

NAME                             SECTION  ATTR VALUE             SEQUENCE

_SVP_DNAREA_INP0                          IMPT 00000000   3667 
_SVP_DNAREA_INP1                          IMPT 00000000   3436 
_SVP_DNAREA_JUDG                          IMPT 00000000   3417 
_SVP_DNDATA_A21                           IMPT 00000000   4451 
_SVP_DNDINC_SPD1                          IMPT 00000000   3421 
_SVP_DND_STOPDIG1                         IMPT 00000000   3741 
_SVP_DNSTOP_A21                           IMPT 00000000   4454 
_SVP_ECOM_BASE                            IMPT 00000000   3853 
_SVP_ECOM_SCAL                            IMPT 00000000   3854 
_SVP_EJECAM_OFR                           IMPT 00000000   4569 
_SVP_EJECAM_ONR                           IMPT 00000000   4568 
_SVP_EP_ADJSIN                            IMPT 00000000   3851 
_SVP_EP_ADJVAL                            IMPT 00000000   3852 
_SVP_EP_K1                                IMPT 00000000   3849 
_SVP_EP_K2                                IMPT 00000000   3850 
_SVP_EP_LTM                               IMPT 00000000   3848 
_SVP_EP_TRQ                               IMPT 00000000   3847 
_SVP_EP_VMX                               IMPT 00000000   3846 
_SVP_EP_VOF                               IMPT 00000000   3845 
_SVP_FCLS_STR_DEG                         IMPT 00000000   3827 
_SVP_FCLS_STR_HENS                        IMPT 00000000   3828 
_SVP_FCLS_ZIKI_SPD1                       IMPT 00000000   3829 
_SVP_FCLS_ZIKI_SPD2                       IMPT 00000000   3830 
_SVP_GENITI_A21                           IMPT 00000000   4452 
_SVP_GMNSEQ_CNT01                         IMPT 00000000   3676 
_SVP_GMNSEQ_CNT02                         IMPT 00000000   3677 
_SVP_GMNSEQ_CNT03                         IMPT 00000000   3678 
_SVP_GMNSEQ_CNT04                         IMPT 00000000   3679 
_SVP_GMNSEQ_CNT05                         IMPT 00000000   3680 
_SVP_GMNSEQ_CNT06                         IMPT 00000000   3681 
_SVP_GMNSEQ_CNT07                         IMPT 00000000   3682 
_SVP_GMNSEQ_CNT08                         IMPT 00000000   3683 
_SVP_GMNSEQ_TIM01                         IMPT 00000000   3685 
_SVP_GMNSEQ_TIM02                         IMPT 00000000   3686 
_SVP_GMNSEQ_TIM03                         IMPT 00000000   3687 
_SVP_GMNSEQ_TIM04                         IMPT 00000000   3688 
_SVP_GMNSEQ_TIM05                         IMPT 00000000   3689 
_SVP_GMNSEQ_TIM06                         IMPT 00000000   3690 
_SVP_GMNSEQ_TIM07                         IMPT 00000000   3691 
_SVP_GMNSEQ_TIM08                         IMPT 00000000   3692 
_SVP_HOSEI_SPD                            IMPT 00000000   3797 
_SVP_HOSRAG_PLS1                          IMPT 00000000   3795 
_SVP_HOSRAG_PLS2                          IMPT 00000000   3796 
_SVP_INCDIR_SEL1                          IMPT 00000000   3406 
_SVP_INCENC_ELNG                          IMPT 00000000   3443 
_SVP_INCHEN_ELNG                          IMPT 00000000   3442 
_SVP_INCPLS_1REV                          IMPT 00000000   3407 
_SVP_INCPLS_HOSM                          IMPT 00000000   3409 
_SVP_INCPLS_HOSN                          IMPT 00000000   3408 
_SVP_INCPOS_KP01                          IMPT 00000000   3431 
_SVP_INCREV_ELNG                          IMPT 00000000   3447 
_SVP_INCRNA_ELNG                          IMPT 00000000   3444 
_SVP_INCSTP_ELNG                          IMPT 00000000   3445 
_SVP_INPPOS_TIM1                          IMPT 00000000   3438 
*** SuperH RISC engine ASSEMBLER V.7.01.02.000 ***    11/14/21 17:25:06                                                  PAGE   103

*** CROSS REFERENCE LIST

NAME                             SECTION  ATTR VALUE             SEQUENCE

_SVP_INTLIM_AGL                           IMPT 00000000   4488 
_SVP_INTLIM_POS                           IMPT 00000000   4489 
_SVP_INTLIM_SNO                           IMPT 00000000   4487 
_SVP_KAJAREA_EAG                          IMPT 00000000   4441 
_SVP_KAJAREA_ENO                          IMPT 00000000   4440 
_SVP_KAJAREA_SAG                          IMPT 00000000   4439 
_SVP_KAJAREA_SEL                          IMPT 00000000   4442 
_SVP_KAJAREA_SNO                          IMPT 00000000   4438 
_SVP_KAJOBJ_HAB                           IMPT 00000000   4484 
_SVP_KAJYUU_OBJP                          IMPT 00000000   3729 
_SVP_KAJYUU_PRS1                          IMPT 00000000   3728 
_SVP_KAJYUU_PV1                           IMPT 00000000   3730 
_SVP_KANDO_A21                            IMPT 00000000   4449 
_SVP_KATTCH_EAG                           IMPT 00000000   4446 
_SVP_KATTCH_SAG                           IMPT 00000000   4445 
_SVP_KATTCH_SPD                           IMPT 00000000   3339 
_SVP_KJEND_DIG1                           IMPT 00000000   3747 
_SVP_KJEND_STEP1                          IMPT 00000000   3746 
_SVP_KJSTR_DIG1                           IMPT 00000000   3745 
_SVP_KJSTR_STEP1                          IMPT 00000000   3744 
_SVP_LSAABN_AGL1                          IMPT 00000000   3483 
_SVP_LSAABN_AGL2                          IMPT 00000000   3484 
_SVP_MACINE_SEL1                          IMPT 00000000   3476 
_SVP_MANSAMER_PLS                         IMPT 00000000   3802 
_SVP_MANSAM_LEN                           IMPT 00000000   3798 
_SVP_MAX_KJYU                             IMPT 00000000   3560 
_SVP_MISCAM_OFR                           IMPT 00000000   4571 
_SVP_MISCAM_ONR                           IMPT 00000000   4570 
_SVP_MOADR0_SQH                           IMPT 00000000   3495 
_SVP_MOADR0_SQL                           IMPT 00000000   3496 
_SVP_MOADR1_SQH                           IMPT 00000000   3497 
_SVP_MOADR1_SQL                           IMPT 00000000   3498 
_SVP_MOADR2_SQH                           IMPT 00000000   3499 
_SVP_MOADR2_SQL                           IMPT 00000000   3500 
_SVP_MOADR3_SQH                           IMPT 00000000   3501 
_SVP_MOADR3_SQL                           IMPT 00000000   3502 
_SVP_MOADR4_SQH                           IMPT 00000000   3503 
_SVP_MOADR4_SQL                           IMPT 00000000   3504 
_SVP_MOADR5_SQH                           IMPT 00000000   3505 
_SVP_MOADR5_SQL                           IMPT 00000000   3506 
_SVP_MOADR6_SQH                           IMPT 00000000   3507 
_SVP_MOADR6_SQL                           IMPT 00000000   3508 
_SVP_MOADR7_SQH                           IMPT 00000000   3509 
_SVP_MOADR7_SQL                           IMPT 00000000   3510 
_SVP_MOADR8_SQH                           IMPT 00000000   3511 
_SVP_MOADR8_SQL                           IMPT 00000000   3512 
_SVP_MOADR9_SQH                           IMPT 00000000   3513 
_SVP_MOADR9_SQL                           IMPT 00000000   3514 
_SVP_MOADRA_SQH                           IMPT 00000000   3515 
_SVP_MOADRA_SQL                           IMPT 00000000   3516 
_SVP_MOADRB_SQH                           IMPT 00000000   3517 
_SVP_MOADRB_SQL                           IMPT 00000000   3518 
_SVP_MOADRC_SQH                           IMPT 00000000   3519 
_SVP_MOADRC_SQL                           IMPT 00000000   3520 
*** SuperH RISC engine ASSEMBLER V.7.01.02.000 ***    11/14/21 17:25:06                                                  PAGE   104

*** CROSS REFERENCE LIST

NAME                             SECTION  ATTR VALUE             SEQUENCE

_SVP_MOADRD_SQH                           IMPT 00000000   3521 
_SVP_MOADRD_SQL                           IMPT 00000000   3522 
_SVP_MOADRE_SQH                           IMPT 00000000   3523 
_SVP_MOADRE_SQL                           IMPT 00000000   3524 
_SVP_MOADRF_SQH                           IMPT 00000000   3525 
_SVP_MOADRF_SQL                           IMPT 00000000   3526 
_SVP_MODORI_A21                           IMPT 00000000   4453 
_SVP_MONALM_S01                           IMPT 00000000   3722 
_SVP_MONALM_S02                           IMPT 00000000   3723 
_SVP_MONALM_S03                           IMPT 00000000   3724 
_SVP_MONALM_S04                           IMPT 00000000   3725 
_SVP_MOTMAX_FREQ                          IMPT 00000000   3412 
_SVP_MOTREP_CNT                           IMPT 00000000   4564 
_SVP_MOTREP_SPD                           IMPT 00000000   4563 
_SVP_MOTREP_STGE                          IMPT 00000000   4562 
_SVP_MOTREP_STGS                          IMPT 00000000   4561 
_SVP_MOTRPM_MAXM                          IMPT 00000000   3410 
_SVP_MOTRPM_MAXP                          IMPT 00000000   3855 
_SVP_MOTWT_TIM                            IMPT 00000000   3468 
_SVP_MOT_FIX                              IMPT 00000000   4573 
_SVP_MRTION_SEL1                          IMPT 00000000   3659 
_SVP_MTSTEP_MAXM                          IMPT 00000000   3660 
_SVP_NEG_OFS_LNG                          IMPT 00000000   3479 
_SVP_OBJARA_INP0                          IMPT 00000000   3668 
_SVP_OBJARA_INP1                          IMPT 00000000   3437 
_SVP_OBJECT_DG01                          IMPT 00000000   3590 
_SVP_OBJECT_DG02                          IMPT 00000000   3591 
_SVP_OBJECT_DG03                          IMPT 00000000   3592 
_SVP_OBJECT_DG04                          IMPT 00000000   3593 
_SVP_OBJECT_DG05                          IMPT 00000000   3594 
_SVP_OBJECT_DG06                          IMPT 00000000   3595 
_SVP_OBJECT_DG07                          IMPT 00000000   3596 
_SVP_OBJECT_DG08                          IMPT 00000000   3597 
_SVP_OBJECT_DG09                          IMPT 00000000   3598 
_SVP_OBJECT_DG10                          IMPT 00000000   3599 
_SVP_OBJECT_DG11                          IMPT 00000000   3600 
_SVP_OBJECT_DG12                          IMPT 00000000   3601 
_SVP_OBJECT_DG13                          IMPT 00000000   3602 
_SVP_OBJECT_DG14                          IMPT 00000000   3603 
_SVP_OBJECT_DG15                          IMPT 00000000   3604 
_SVP_OBJECT_DG16                          IMPT 00000000   3605 
_SVP_OBJECT_DG17                          IMPT 00000000   3606 
_SVP_OBJECT_DG18                          IMPT 00000000   3607 
_SVP_OBJECT_DG19                          IMPT 00000000   3608 
_SVP_OBJECT_DG20                          IMPT 00000000   3609 
_SVP_OBJECT_DIG_TOP                       IMPT 00000000   3589 
_SVP_OBJECT_POS_TOP                       IMPT 00000000   3567 
_SVP_OBJECT_PRS01                         IMPT 00000000   3546 
_SVP_OBJECT_PRS02                         IMPT 00000000   3547 
_SVP_OBJECT_PRS03                         IMPT 00000000   3548 
_SVP_OBJECT_PRS04                         IMPT 00000000   3549 
_SVP_OBJECT_PRS05                         IMPT 00000000   3550 
_SVP_OBJECT_PRS06                         IMPT 00000000   3551 
_SVP_OBJECT_PRS07                         IMPT 00000000   3552 
*** SuperH RISC engine ASSEMBLER V.7.01.02.000 ***    11/14/21 17:25:06                                                  PAGE   105

*** CROSS REFERENCE LIST

NAME                             SECTION  ATTR VALUE             SEQUENCE

_SVP_OBJECT_PRS08                         IMPT 00000000   3553 
_SVP_OBJECT_PRS09                         IMPT 00000000   3554 
_SVP_OBJECT_PRS10                         IMPT 00000000   3555 
_SVP_OBJECT_PRS_TOP                       IMPT 00000000   3545 
_SVP_OBJECT_PS01                          IMPT 00000000   3568 
_SVP_OBJECT_PS02                          IMPT 00000000   3569 
_SVP_OBJECT_PS03                          IMPT 00000000   3570 
_SVP_OBJECT_PS04                          IMPT 00000000   3571 
_SVP_OBJECT_PS05                          IMPT 00000000   3572 
_SVP_OBJECT_PS06                          IMPT 00000000   3573 
_SVP_OBJECT_PS07                          IMPT 00000000   3574 
_SVP_OBJECT_PS08                          IMPT 00000000   3575 
_SVP_OBJECT_PS09                          IMPT 00000000   3576 
_SVP_OBJECT_PS10                          IMPT 00000000   3577 
_SVP_OBJECT_PS11                          IMPT 00000000   3578 
_SVP_OBJECT_PS12                          IMPT 00000000   3579 
_SVP_OBJECT_PS13                          IMPT 00000000   3580 
_SVP_OBJECT_PS14                          IMPT 00000000   3581 
_SVP_OBJECT_PS15                          IMPT 00000000   3582 
_SVP_OBJECT_PS16                          IMPT 00000000   3583 
_SVP_OBJECT_PS17                          IMPT 00000000   3584 
_SVP_OBJECT_PS18                          IMPT 00000000   3585 
_SVP_OBJECT_PS19                          IMPT 00000000   3586 
_SVP_OBJECT_PS20                          IMPT 00000000   3587 
_SVP_OBJECT_SP01                          IMPT 00000000   3612 
_SVP_OBJECT_SP02                          IMPT 00000000   3613 
_SVP_OBJECT_SP03                          IMPT 00000000   3614 
_SVP_OBJECT_SP04                          IMPT 00000000   3615 
_SVP_OBJECT_SP05                          IMPT 00000000   3616 
_SVP_OBJECT_SP06                          IMPT 00000000   3617 
_SVP_OBJECT_SP07                          IMPT 00000000   3618 
_SVP_OBJECT_SP08                          IMPT 00000000   3619 
_SVP_OBJECT_SP09                          IMPT 00000000   3620 
_SVP_OBJECT_SP10                          IMPT 00000000   3621 
_SVP_OBJECT_SP11                          IMPT 00000000   3622 
_SVP_OBJECT_SP12                          IMPT 00000000   3623 
_SVP_OBJECT_SP13                          IMPT 00000000   3624 
_SVP_OBJECT_SP14                          IMPT 00000000   3625 
_SVP_OBJECT_SP15                          IMPT 00000000   3626 
_SVP_OBJECT_SP16                          IMPT 00000000   3627 
_SVP_OBJECT_SP17                          IMPT 00000000   3628 
_SVP_OBJECT_SP18                          IMPT 00000000   3629 
_SVP_OBJECT_SP19                          IMPT 00000000   3630 
_SVP_OBJECT_SP20                          IMPT 00000000   3631 
_SVP_OBJECT_SPD_TOP                       IMPT 00000000   3611 
_SVP_OBJECT_TIM_TOP                       IMPT 00000000   3633 
_SVP_OBJECT_TM01                          IMPT 00000000   3634 
_SVP_OBJECT_TM02                          IMPT 00000000   3635 
_SVP_OBJECT_TM03                          IMPT 00000000   3636 
_SVP_OBJECT_TM04                          IMPT 00000000   3637 
_SVP_OBJECT_TM05                          IMPT 00000000   3638 
_SVP_OBJECT_TM06                          IMPT 00000000   3639 
_SVP_OBJECT_TM07                          IMPT 00000000   3640 
_SVP_OBJECT_TM08                          IMPT 00000000   3641 
*** SuperH RISC engine ASSEMBLER V.7.01.02.000 ***    11/14/21 17:25:06                                                  PAGE   106

*** CROSS REFERENCE LIST

NAME                             SECTION  ATTR VALUE             SEQUENCE

_SVP_OBJECT_TM09                          IMPT 00000000   3642 
_SVP_OBJECT_TM10                          IMPT 00000000   3643 
_SVP_OBJECT_TM11                          IMPT 00000000   3644 
_SVP_OBJECT_TM12                          IMPT 00000000   3645 
_SVP_OBJECT_TM13                          IMPT 00000000   3646 
_SVP_OBJECT_TM14                          IMPT 00000000   3647 
_SVP_OBJECT_TM15                          IMPT 00000000   3648 
_SVP_OBJECT_TM16                          IMPT 00000000   3649 
_SVP_OBJECT_TM17                          IMPT 00000000   3650 
_SVP_OBJECT_TM18                          IMPT 00000000   3651 
_SVP_OBJECT_TM19                          IMPT 00000000   3652 
_SVP_OBJECT_TM20                          IMPT 00000000   3653 
_SVP_ONESTR_SPD2                          IMPT 00000000   3859 
_SVP_ORGCAL_DAT1                          IMPT 00000000   3771 
_SVP_ORGCAL_DAT2                          IMPT 00000000   3772 
_SVP_ORGCAL_DAT3                          IMPT 00000000   3773 
_SVP_ORGCAL_DAT4                          IMPT 00000000   3774 
_SVP_ORGCAL_DAT5                          IMPT 00000000   3775 
_SVP_ORGCAL_DAT6                          IMPT 00000000   3776 
_SVP_ORGFWD_AGL                           IMPT 00000000   3866 
_SVP_ORGLDN_DEG                           IMPT 00000000   3788 
_SVP_ORGLUP_DEG                           IMPT 00000000   3787 
_SVP_ORGMEM_DEG1                          IMPT 00000000   3789 
_SVP_ORGMEM_DEG1A                         IMPT 00000000   3806 
_SVP_ORGMEM_DEG2                          IMPT 00000000   3791 
_SVP_ORGMEM_DEG2A                         IMPT 00000000   3807 
_SVP_ORGMEM_DEGS1                         IMPT 00000000   3790 
_SVP_ORGMEM_DEGS2                         IMPT 00000000   3792 
_SVP_ORGMPL_SEL1                          IMPT 00000000   3793 
_SVP_ORGMPL_SEL2                          IMPT 00000000   3794 
_SVP_ORGRDN_DEG                           IMPT 00000000   3786 
_SVP_ORGREV_AGL                           IMPT 00000000   3865 
_SVP_ORGRUP_DEG                           IMPT 00000000   3785 
_SVP_ORGSOK_PLS                           IMPT 00000000   3770 
_SVP_ORGSTRK_LEN1                         IMPT 00000000   3777 
_SVP_ORGSTRK_LEN2                         IMPT 00000000   3778 
_SVP_OUTPLS_HOSA                          IMPT 00000000   3473 
_SVP_OUTPLS_HOSB                          IMPT 00000000   3474 
_SVP_OVERE1_A26                           IMPT 00000000   4460 
_SVP_OVERE1_A27                           IMPT 00000000   4468 
_SVP_OVERE1_A28                           IMPT 00000000   4476 
_SVP_OVERE2_A26                           IMPT 00000000   4462 
_SVP_OVERE2_A27                           IMPT 00000000   4470 
_SVP_OVERE2_A28                           IMPT 00000000   4478 
_SVP_OVERE3_A26                           IMPT 00000000   4464 
_SVP_OVERE3_A27                           IMPT 00000000   4472 
_SVP_OVERE3_A28                           IMPT 00000000   4480 
_SVP_OVERLIDE_COF                         IMPT 00000000   3738 
_SVP_PLSAHI_PLS                           IMPT 00000000   3486 
_SVP_PLSALO_PLS                           IMPT 00000000   3485 
_SVP_PSMOD_SEL                            IMPT 00000000   3469 
_SVP_RAD                                  IMPT 00000000   3864 
_SVP_RCAMOF_D000                          IMPT 00000000   3919 
_SVP_RCAMOF_D001                          IMPT 00000000   3923 
*** SuperH RISC engine ASSEMBLER V.7.01.02.000 ***    11/14/21 17:25:06                                                  PAGE   107

*** CROSS REFERENCE LIST

NAME                             SECTION  ATTR VALUE             SEQUENCE

_SVP_RCAMOF_D002                          IMPT 00000000   3927 
_SVP_RCAMOF_D003                          IMPT 00000000   3931 
_SVP_RCAMOF_D004                          IMPT 00000000   3935 
_SVP_RCAMOF_D005                          IMPT 00000000   3939 
_SVP_RCAMOF_D006                          IMPT 00000000   3943 
_SVP_RCAMOF_D007                          IMPT 00000000   3947 
_SVP_RCAMOF_D008                          IMPT 00000000   3951 
_SVP_RCAMOF_D009                          IMPT 00000000   3955 
_SVP_RCAMOF_D00A                          IMPT 00000000   3959 
_SVP_RCAMOF_D00B                          IMPT 00000000   3963 
_SVP_RCAMOF_D00C                          IMPT 00000000   3967 
_SVP_RCAMOF_D00D                          IMPT 00000000   3971 
_SVP_RCAMOF_D00E                          IMPT 00000000   3975 
_SVP_RCAMOF_D00F                          IMPT 00000000   3979 
_SVP_RCAMOF_D010                          IMPT 00000000   3983 
_SVP_RCAMOF_D011                          IMPT 00000000   3987 
_SVP_RCAMOF_D012                          IMPT 00000000   3991 
_SVP_RCAMOF_D013                          IMPT 00000000   3995 
_SVP_RCAMOF_D014                          IMPT 00000000   3999 
_SVP_RCAMOF_D015                          IMPT 00000000   4003 
_SVP_RCAMOF_D016                          IMPT 00000000   4007 
_SVP_RCAMOF_D017                          IMPT 00000000   4011 
_SVP_RCAMOF_D018                          IMPT 00000000   4015 
_SVP_RCAMOF_D019                          IMPT 00000000   4019 
_SVP_RCAMOF_D01A                          IMPT 00000000   4023 
_SVP_RCAMOF_D01B                          IMPT 00000000   4027 
_SVP_RCAMOF_D01C                          IMPT 00000000   4031 
_SVP_RCAMOF_D01D                          IMPT 00000000   4035 
_SVP_RCAMOF_D01E                          IMPT 00000000   4039 
_SVP_RCAMOF_D01F                          IMPT 00000000   4043 
_SVP_RCAMOF_D020                          IMPT 00000000   4047 
_SVP_RCAMOF_D021                          IMPT 00000000   4051 
_SVP_RCAMOF_D022                          IMPT 00000000   4055 
_SVP_RCAMOF_D023                          IMPT 00000000   4059 
_SVP_RCAMOF_D024                          IMPT 00000000   4063 
_SVP_RCAMOF_D025                          IMPT 00000000   4067 
_SVP_RCAMOF_D026                          IMPT 00000000   4071 
_SVP_RCAMOF_D027                          IMPT 00000000   4075 
_SVP_RCAMOF_D028                          IMPT 00000000   4079 
_SVP_RCAMOF_D029                          IMPT 00000000   4083 
_SVP_RCAMOF_D02A                          IMPT 00000000   4087 
_SVP_RCAMOF_D02B                          IMPT 00000000   4091 
_SVP_RCAMOF_D02C                          IMPT 00000000   4095 
_SVP_RCAMOF_D02D                          IMPT 00000000   4099 
_SVP_RCAMOF_D02E                          IMPT 00000000   4103 
_SVP_RCAMOF_D02F                          IMPT 00000000   4107 
_SVP_RCAMOF_D100                          IMPT 00000000   4112 
_SVP_RCAMOF_D101                          IMPT 00000000   4116 
_SVP_RCAMOF_D102                          IMPT 00000000   4120 
_SVP_RCAMOF_D103                          IMPT 00000000   4124 
_SVP_RCAMOF_D104                          IMPT 00000000   4128 
_SVP_RCAMOF_D105                          IMPT 00000000   4132 
_SVP_RCAMOF_D106                          IMPT 00000000   4136 
_SVP_RCAMOF_D107                          IMPT 00000000   4140 
*** SuperH RISC engine ASSEMBLER V.7.01.02.000 ***    11/14/21 17:25:06                                                  PAGE   108

*** CROSS REFERENCE LIST

NAME                             SECTION  ATTR VALUE             SEQUENCE

_SVP_RCAMOF_D108                          IMPT 00000000   4144 
_SVP_RCAMOF_D109                          IMPT 00000000   4148 
_SVP_RCAMOF_D10A                          IMPT 00000000   4152 
_SVP_RCAMOF_D10B                          IMPT 00000000   4156 
_SVP_RCAMOF_D10C                          IMPT 00000000   4160 
_SVP_RCAMOF_D10D                          IMPT 00000000   4164 
_SVP_RCAMOF_D10E                          IMPT 00000000   4168 
_SVP_RCAMOF_D10F                          IMPT 00000000   4172 
_SVP_RCAMOF_P000                          IMPT 00000000   3918 
_SVP_RCAMOF_P001                          IMPT 00000000   3922 
_SVP_RCAMOF_P002                          IMPT 00000000   3926 
_SVP_RCAMOF_P003                          IMPT 00000000   3930 
_SVP_RCAMOF_P004                          IMPT 00000000   3934 
_SVP_RCAMOF_P005                          IMPT 00000000   3938 
_SVP_RCAMOF_P006                          IMPT 00000000   3942 
_SVP_RCAMOF_P007                          IMPT 00000000   3946 
_SVP_RCAMOF_P008                          IMPT 00000000   3950 
_SVP_RCAMOF_P009                          IMPT 00000000   3954 
_SVP_RCAMOF_P00A                          IMPT 00000000   3958 
_SVP_RCAMOF_P00B                          IMPT 00000000   3962 
_SVP_RCAMOF_P00C                          IMPT 00000000   3966 
_SVP_RCAMOF_P00D                          IMPT 00000000   3970 
_SVP_RCAMOF_P00E                          IMPT 00000000   3974 
_SVP_RCAMOF_P00F                          IMPT 00000000   3978 
_SVP_RCAMOF_P010                          IMPT 00000000   3982 
_SVP_RCAMOF_P011                          IMPT 00000000   3986 
_SVP_RCAMOF_P012                          IMPT 00000000   3990 
_SVP_RCAMOF_P013                          IMPT 00000000   3994 
_SVP_RCAMOF_P014                          IMPT 00000000   3998 
_SVP_RCAMOF_P015                          IMPT 00000000   4002 
_SVP_RCAMOF_P016                          IMPT 00000000   4006 
_SVP_RCAMOF_P017                          IMPT 00000000   4010 
_SVP_RCAMOF_P018                          IMPT 00000000   4014 
_SVP_RCAMOF_P019                          IMPT 00000000   4018 
_SVP_RCAMOF_P01A                          IMPT 00000000   4022 
_SVP_RCAMOF_P01B                          IMPT 00000000   4026 
_SVP_RCAMOF_P01C                          IMPT 00000000   4030 
_SVP_RCAMOF_P01D                          IMPT 00000000   4034 
_SVP_RCAMOF_P01E                          IMPT 00000000   4038 
_SVP_RCAMOF_P01F                          IMPT 00000000   4042 
_SVP_RCAMOF_P020                          IMPT 00000000   4046 
_SVP_RCAMOF_P021                          IMPT 00000000   4050 
_SVP_RCAMOF_P022                          IMPT 00000000   4054 
_SVP_RCAMOF_P023                          IMPT 00000000   4058 
_SVP_RCAMOF_P024                          IMPT 00000000   4062 
_SVP_RCAMOF_P025                          IMPT 00000000   4066 
_SVP_RCAMOF_P026                          IMPT 00000000   4070 
_SVP_RCAMOF_P027                          IMPT 00000000   4074 
_SVP_RCAMOF_P028                          IMPT 00000000   4078 
_SVP_RCAMOF_P029                          IMPT 00000000   4082 
_SVP_RCAMOF_P02A                          IMPT 00000000   4086 
_SVP_RCAMOF_P02B                          IMPT 00000000   4090 
_SVP_RCAMOF_P02C                          IMPT 00000000   4094 
_SVP_RCAMOF_P02D                          IMPT 00000000   4098 
*** SuperH RISC engine ASSEMBLER V.7.01.02.000 ***    11/14/21 17:25:06                                                  PAGE   109

*** CROSS REFERENCE LIST

NAME                             SECTION  ATTR VALUE             SEQUENCE

_SVP_RCAMOF_P02E                          IMPT 00000000   4102 
_SVP_RCAMOF_P02F                          IMPT 00000000   4106 
_SVP_RCAMOF_P100                          IMPT 00000000   4111 
_SVP_RCAMOF_P101                          IMPT 00000000   4115 
_SVP_RCAMOF_P102                          IMPT 00000000   4119 
_SVP_RCAMOF_P103                          IMPT 00000000   4123 
_SVP_RCAMOF_P104                          IMPT 00000000   4127 
_SVP_RCAMOF_P105                          IMPT 00000000   4131 
_SVP_RCAMOF_P106                          IMPT 00000000   4135 
_SVP_RCAMOF_P107                          IMPT 00000000   4139 
_SVP_RCAMOF_P108                          IMPT 00000000   4143 
_SVP_RCAMOF_P109                          IMPT 00000000   4147 
_SVP_RCAMOF_P10A                          IMPT 00000000   4151 
_SVP_RCAMOF_P10B                          IMPT 00000000   4155 
_SVP_RCAMOF_P10C                          IMPT 00000000   4159 
_SVP_RCAMOF_P10D                          IMPT 00000000   4163 
_SVP_RCAMOF_P10E                          IMPT 00000000   4167 
_SVP_RCAMOF_P10F                          IMPT 00000000   4171 
_SVP_RCAMOF_SA00                          IMPT 00000000   4495 
_SVP_RCAMOF_SA01                          IMPT 00000000   4499 
_SVP_RCAMOF_SA02                          IMPT 00000000   4503 
_SVP_RCAMOF_SA03                          IMPT 00000000   4507 
_SVP_RCAMOF_SA04                          IMPT 00000000   4511 
_SVP_RCAMOF_SA05                          IMPT 00000000   4515 
_SVP_RCAMOF_SA06                          IMPT 00000000   4519 
_SVP_RCAMOF_SA07                          IMPT 00000000   4523 
_SVP_RCAMOF_SA08                          IMPT 00000000   4527 
_SVP_RCAMOF_SA09                          IMPT 00000000   4531 
_SVP_RCAMOF_SA10                          IMPT 00000000   4535 
_SVP_RCAMOF_SA11                          IMPT 00000000   4539 
_SVP_RCAMOF_SA12                          IMPT 00000000   4543 
_SVP_RCAMOF_SA13                          IMPT 00000000   4547 
_SVP_RCAMOF_SA14                          IMPT 00000000   4551 
_SVP_RCAMOF_SA15                          IMPT 00000000   4555 
_SVP_RCAMOF_ST00                          IMPT 00000000   4496 
_SVP_RCAMOF_ST01                          IMPT 00000000   4500 
_SVP_RCAMOF_ST02                          IMPT 00000000   4504 
_SVP_RCAMOF_ST03                          IMPT 00000000   4508 
_SVP_RCAMOF_ST04                          IMPT 00000000   4512 
_SVP_RCAMOF_ST05                          IMPT 00000000   4516 
_SVP_RCAMOF_ST06                          IMPT 00000000   4520 
_SVP_RCAMOF_ST07                          IMPT 00000000   4524 
_SVP_RCAMOF_ST08                          IMPT 00000000   4528 
_SVP_RCAMOF_ST09                          IMPT 00000000   4532 
_SVP_RCAMOF_ST10                          IMPT 00000000   4536 
_SVP_RCAMOF_ST11                          IMPT 00000000   4540 
_SVP_RCAMOF_ST12                          IMPT 00000000   4544 
_SVP_RCAMOF_ST13                          IMPT 00000000   4548 
_SVP_RCAMOF_ST14                          IMPT 00000000   4552 
_SVP_RCAMOF_ST15                          IMPT 00000000   4556 
_SVP_RCAMON_D000                          IMPT 00000000   3917 
_SVP_RCAMON_D001                          IMPT 00000000   3921 
_SVP_RCAMON_D002                          IMPT 00000000   3925 
_SVP_RCAMON_D003                          IMPT 00000000   3929 
*** SuperH RISC engine ASSEMBLER V.7.01.02.000 ***    11/14/21 17:25:06                                                  PAGE   110

*** CROSS REFERENCE LIST

NAME                             SECTION  ATTR VALUE             SEQUENCE

_SVP_RCAMON_D004                          IMPT 00000000   3933 
_SVP_RCAMON_D005                          IMPT 00000000   3937 
_SVP_RCAMON_D006                          IMPT 00000000   3941 
_SVP_RCAMON_D007                          IMPT 00000000   3945 
_SVP_RCAMON_D008                          IMPT 00000000   3949 
_SVP_RCAMON_D009                          IMPT 00000000   3953 
_SVP_RCAMON_D00A                          IMPT 00000000   3957 
_SVP_RCAMON_D00B                          IMPT 00000000   3961 
_SVP_RCAMON_D00C                          IMPT 00000000   3965 
_SVP_RCAMON_D00D                          IMPT 00000000   3969 
_SVP_RCAMON_D00E                          IMPT 00000000   3973 
_SVP_RCAMON_D00F                          IMPT 00000000   3977 
_SVP_RCAMON_D010                          IMPT 00000000   3981 
_SVP_RCAMON_D011                          IMPT 00000000   3985 
_SVP_RCAMON_D012                          IMPT 00000000   3989 
_SVP_RCAMON_D013                          IMPT 00000000   3993 
_SVP_RCAMON_D014                          IMPT 00000000   3997 
_SVP_RCAMON_D015                          IMPT 00000000   4001 
_SVP_RCAMON_D016                          IMPT 00000000   4005 
_SVP_RCAMON_D017                          IMPT 00000000   4009 
_SVP_RCAMON_D018                          IMPT 00000000   4013 
_SVP_RCAMON_D019                          IMPT 00000000   4017 
_SVP_RCAMON_D01A                          IMPT 00000000   4021 
_SVP_RCAMON_D01B                          IMPT 00000000   4025 
_SVP_RCAMON_D01C                          IMPT 00000000   4029 
_SVP_RCAMON_D01D                          IMPT 00000000   4033 
_SVP_RCAMON_D01E                          IMPT 00000000   4037 
_SVP_RCAMON_D01F                          IMPT 00000000   4041 
_SVP_RCAMON_D020                          IMPT 00000000   4045 
_SVP_RCAMON_D021                          IMPT 00000000   4049 
_SVP_RCAMON_D022                          IMPT 00000000   4053 
_SVP_RCAMON_D023                          IMPT 00000000   4057 
_SVP_RCAMON_D024                          IMPT 00000000   4061 
_SVP_RCAMON_D025                          IMPT 00000000   4065 
_SVP_RCAMON_D026                          IMPT 00000000   4069 
_SVP_RCAMON_D027                          IMPT 00000000   4073 
_SVP_RCAMON_D028                          IMPT 00000000   4077 
_SVP_RCAMON_D029                          IMPT 00000000   4081 
_SVP_RCAMON_D02A                          IMPT 00000000   4085 
_SVP_RCAMON_D02B                          IMPT 00000000   4089 
_SVP_RCAMON_D02C                          IMPT 00000000   4093 
_SVP_RCAMON_D02D                          IMPT 00000000   4097 
_SVP_RCAMON_D02E                          IMPT 00000000   4101 
_SVP_RCAMON_D02F                          IMPT 00000000   4105 
_SVP_RCAMON_D100                          IMPT 00000000   4110 
_SVP_RCAMON_D101                          IMPT 00000000   4114 
_SVP_RCAMON_D102                          IMPT 00000000   4118 
_SVP_RCAMON_D103                          IMPT 00000000   4122 
_SVP_RCAMON_D104                          IMPT 00000000   4126 
_SVP_RCAMON_D105                          IMPT 00000000   4130 
_SVP_RCAMON_D106                          IMPT 00000000   4134 
_SVP_RCAMON_D107                          IMPT 00000000   4138 
_SVP_RCAMON_D108                          IMPT 00000000   4142 
_SVP_RCAMON_D109                          IMPT 00000000   4146 
*** SuperH RISC engine ASSEMBLER V.7.01.02.000 ***    11/14/21 17:25:06                                                  PAGE   111

*** CROSS REFERENCE LIST

NAME                             SECTION  ATTR VALUE             SEQUENCE

_SVP_RCAMON_D10A                          IMPT 00000000   4150 
_SVP_RCAMON_D10B                          IMPT 00000000   4154 
_SVP_RCAMON_D10C                          IMPT 00000000   4158 
_SVP_RCAMON_D10D                          IMPT 00000000   4162 
_SVP_RCAMON_D10E                          IMPT 00000000   4166 
_SVP_RCAMON_D10F                          IMPT 00000000   4170 
_SVP_RCAMON_P000                          IMPT 00000000   3916 
_SVP_RCAMON_P001                          IMPT 00000000   3920 
_SVP_RCAMON_P002                          IMPT 00000000   3924 
_SVP_RCAMON_P003                          IMPT 00000000   3928 
_SVP_RCAMON_P004                          IMPT 00000000   3932 
_SVP_RCAMON_P005                          IMPT 00000000   3936 
_SVP_RCAMON_P006                          IMPT 00000000   3940 
_SVP_RCAMON_P007                          IMPT 00000000   3944 
_SVP_RCAMON_P008                          IMPT 00000000   3948 
_SVP_RCAMON_P009                          IMPT 00000000   3952 
_SVP_RCAMON_P00A                          IMPT 00000000   3956 
_SVP_RCAMON_P00B                          IMPT 00000000   3960 
_SVP_RCAMON_P00C                          IMPT 00000000   3964 
_SVP_RCAMON_P00D                          IMPT 00000000   3968 
_SVP_RCAMON_P00E                          IMPT 00000000   3972 
_SVP_RCAMON_P00F                          IMPT 00000000   3976 
_SVP_RCAMON_P010                          IMPT 00000000   3980 
_SVP_RCAMON_P011                          IMPT 00000000   3984 
_SVP_RCAMON_P012                          IMPT 00000000   3988 
_SVP_RCAMON_P013                          IMPT 00000000   3992 
_SVP_RCAMON_P014                          IMPT 00000000   3996 
_SVP_RCAMON_P015                          IMPT 00000000   4000 
_SVP_RCAMON_P016                          IMPT 00000000   4004 
_SVP_RCAMON_P017                          IMPT 00000000   4008 
_SVP_RCAMON_P018                          IMPT 00000000   4012 
_SVP_RCAMON_P019                          IMPT 00000000   4016 
_SVP_RCAMON_P01A                          IMPT 00000000   4020 
_SVP_RCAMON_P01B                          IMPT 00000000   4024 
_SVP_RCAMON_P01C                          IMPT 00000000   4028 
_SVP_RCAMON_P01D                          IMPT 00000000   4032 
_SVP_RCAMON_P01E                          IMPT 00000000   4036 
_SVP_RCAMON_P01F                          IMPT 00000000   4040 
_SVP_RCAMON_P020                          IMPT 00000000   4044 
_SVP_RCAMON_P021                          IMPT 00000000   4048 
_SVP_RCAMON_P022                          IMPT 00000000   4052 
_SVP_RCAMON_P023                          IMPT 00000000   4056 
_SVP_RCAMON_P024                          IMPT 00000000   4060 
_SVP_RCAMON_P025                          IMPT 00000000   4064 
_SVP_RCAMON_P026                          IMPT 00000000   4068 
_SVP_RCAMON_P027                          IMPT 00000000   4072 
_SVP_RCAMON_P028                          IMPT 00000000   4076 
_SVP_RCAMON_P029                          IMPT 00000000   4080 
_SVP_RCAMON_P02A                          IMPT 00000000   4084 
_SVP_RCAMON_P02B                          IMPT 00000000   4088 
_SVP_RCAMON_P02C                          IMPT 00000000   4092 
_SVP_RCAMON_P02D                          IMPT 00000000   4096 
_SVP_RCAMON_P02E                          IMPT 00000000   4100 
_SVP_RCAMON_P02F                          IMPT 00000000   4104 
*** SuperH RISC engine ASSEMBLER V.7.01.02.000 ***    11/14/21 17:25:06                                                  PAGE   112

*** CROSS REFERENCE LIST

NAME                             SECTION  ATTR VALUE             SEQUENCE

_SVP_RCAMON_P100                          IMPT 00000000   4109 
_SVP_RCAMON_P101                          IMPT 00000000   4113 
_SVP_RCAMON_P102                          IMPT 00000000   4117 
_SVP_RCAMON_P103                          IMPT 00000000   4121 
_SVP_RCAMON_P104                          IMPT 00000000   4125 
_SVP_RCAMON_P105                          IMPT 00000000   4129 
_SVP_RCAMON_P106                          IMPT 00000000   4133 
_SVP_RCAMON_P107                          IMPT 00000000   4137 
_SVP_RCAMON_P108                          IMPT 00000000   4141 
_SVP_RCAMON_P109                          IMPT 00000000   4145 
_SVP_RCAMON_P10A                          IMPT 00000000   4149 
_SVP_RCAMON_P10B                          IMPT 00000000   4153 
_SVP_RCAMON_P10C                          IMPT 00000000   4157 
_SVP_RCAMON_P10D                          IMPT 00000000   4161 
_SVP_RCAMON_P10E                          IMPT 00000000   4165 
_SVP_RCAMON_P10F                          IMPT 00000000   4169 
_SVP_RCAMON_POS_TOP                       IMPT 00000000   3915 
_SVP_RCAMON_SA00                          IMPT 00000000   4493 
_SVP_RCAMON_SA01                          IMPT 00000000   4497 
_SVP_RCAMON_SA02                          IMPT 00000000   4501 
_SVP_RCAMON_SA03                          IMPT 00000000   4505 
_SVP_RCAMON_SA04                          IMPT 00000000   4509 
_SVP_RCAMON_SA05                          IMPT 00000000   4513 
_SVP_RCAMON_SA06                          IMPT 00000000   4517 
_SVP_RCAMON_SA07                          IMPT 00000000   4521 
_SVP_RCAMON_SA08                          IMPT 00000000   4525 
_SVP_RCAMON_SA09                          IMPT 00000000   4529 
_SVP_RCAMON_SA10                          IMPT 00000000   4533 
_SVP_RCAMON_SA11                          IMPT 00000000   4537 
_SVP_RCAMON_SA12                          IMPT 00000000   4541 
_SVP_RCAMON_SA13                          IMPT 00000000   4545 
_SVP_RCAMON_SA14                          IMPT 00000000   4549 
_SVP_RCAMON_SA15                          IMPT 00000000   4553 
_SVP_RCAMON_ST00                          IMPT 00000000   4494 
_SVP_RCAMON_ST01                          IMPT 00000000   4498 
_SVP_RCAMON_ST02                          IMPT 00000000   4502 
_SVP_RCAMON_ST03                          IMPT 00000000   4506 
_SVP_RCAMON_ST04                          IMPT 00000000   4510 
_SVP_RCAMON_ST05                          IMPT 00000000   4514 
_SVP_RCAMON_ST06                          IMPT 00000000   4518 
_SVP_RCAMON_ST07                          IMPT 00000000   4522 
_SVP_RCAMON_ST08                          IMPT 00000000   4526 
_SVP_RCAMON_ST09                          IMPT 00000000   4530 
_SVP_RCAMON_ST10                          IMPT 00000000   4534 
_SVP_RCAMON_ST11                          IMPT 00000000   4538 
_SVP_RCAMON_ST12                          IMPT 00000000   4542 
_SVP_RCAMON_ST13                          IMPT 00000000   4546 
_SVP_RCAMON_ST14                          IMPT 00000000   4550 
_SVP_RCAMON_ST15                          IMPT 00000000   4554 
_SVP_RCAMON_TIM_TOP                       IMPT 00000000   4108 
_SVP_REVDAT_SPD1                          IMPT 00000000   3424 
_SVP_REVDAT_SPD2                          IMPT 00000000   3425 
_SVP_REVDAT_SPD3                          IMPT 00000000   3426 
_SVP_RISE_CMP1                            IMPT 00000000   3870 
*** SuperH RISC engine ASSEMBLER V.7.01.02.000 ***    11/14/21 17:25:06                                                  PAGE   113

*** CROSS REFERENCE LIST

NAME                             SECTION  ATTR VALUE             SEQUENCE

_SVP_RISE_CMP2                            IMPT 00000000   3871 
_SVP_RISE_CMP3                            IMPT 00000000   3872 
_SVP_RISE_DLY1                            IMPT 00000000   3873 
_SVP_RISE_DLY2                            IMPT 00000000   3874 
_SVP_RISE_ZWID                            IMPT 00000000   3869 
_SVP_RNADIR_SEL1                          IMPT 00000000   3405 
_SVP_RNADIR_SEL2                          IMPT 00000000   3805 
_SVP_RNAORGMEM_LEG1                       IMPT 00000000   3779 
_SVP_RNAORGMEM_LEG2                       IMPT 00000000   3781 
_SVP_RNAORG_PLS1                          IMPT 00000000   3780 
_SVP_RNAORG_PLS2                          IMPT 00000000   3782 
_SVP_RNAORG_POS1                          IMPT 00000000   3413 
_SVP_RNAORG_SIN1                          IMPT 00000000   3783 
_SVP_RNAORG_SIN2                          IMPT 00000000   3784 
_SVP_RNAPOS_KP01                          IMPT 00000000   3432 
_SVP_RNAPOS_MAXP                          IMPT 00000000   3414 
_SVP_RNAPOS_MINP                          IMPT 00000000   3415 
_SVP_RNAREV_ELNG                          IMPT 00000000   3448 
_SVP_RNASTP_ELNG                          IMPT 00000000   3446 
_SVP_RNA_STLORK                           IMPT 00000000   3472 
_SVP_ROALM1_A26                           IMPT 00000000   4461 
_SVP_ROALM1_A27                           IMPT 00000000   4469 
_SVP_ROALM1_A28                           IMPT 00000000   4477 
_SVP_ROALM2_A26                           IMPT 00000000   4463 
_SVP_ROALM2_A27                           IMPT 00000000   4471 
_SVP_ROALM2_A28                           IMPT 00000000   4479 
_SVP_ROALM3_A26                           IMPT 00000000   4465 
_SVP_ROALM3_A27                           IMPT 00000000   4473 
_SVP_ROALM3_A28                           IMPT 00000000   4481 
_SVP_ROTCAM_OFR                           IMPT 00000000   4567 
_SVP_ROTCAM_ONR                           IMPT 00000000   4566 
_SVP_RPARAM_TOP1                          IMPT 00000000   3400 
_SVP_RUNSAMER_LEN1                        IMPT 00000000   3800 
_SVP_RUNSAMER_LEN2                        IMPT 00000000   3801 
_SVP_RUNSAMER_PLS                         IMPT 00000000   3803 
_SVP_SLIDE_S                              IMPT 00000000   3863 
_SVP_SLID_POS1                            IMPT 00000000   3672 
_SVP_SLID_POS2                            IMPT 00000000   3673 
_SVP_SLID_POS3                            IMPT 00000000   3674 
_SVP_SLPOS_DIR                            IMPT 00000000   4457 
_SVP_SL_TENPOS                            IMPT 00000000   4456 
_SVP_SMPCYC_TIM                           IMPT 00000000   3494 
_SVP_SMPCYC_TIM2                          IMPT 00000000   4559 
_SVP_SMPMAX_CNT                           IMPT 00000000   3492 
_SVP_SMPMAX_CNT2                          IMPT 00000000   4558 
_SVP_SMPSTR_AGL                           IMPT 00000000   3488 
_SVP_SMPSTR_FUK                           IMPT 00000000   3489 
_SVP_SMPSTR_KAJ                           IMPT 00000000   3487 
_SVP_SMPSTR_SEH                           IMPT 00000000   3490 
_SVP_SMPSTR_SQL                           IMPT 00000000   3491 
_SVP_SMPTRG_CNT                           IMPT 00000000   3493 
_SVP_SMPTRG_CNT1                          IMPT 00000000   3542 
_SVP_SMP_CNT                              IMPT 00000000   3529 
_SVP_SSCURV_TIM1                          IMPT 00000000   3434 
*** SuperH RISC engine ASSEMBLER V.7.01.02.000 ***    11/14/21 17:25:06                                                  PAGE   114

*** CROSS REFERENCE LIST

NAME                             SECTION  ATTR VALUE             SEQUENCE

_SVP_STDINC_SPD1                          IMPT 00000000   3423 
_SVP_SYNC_ERR_DEGA                        IMPT 00000000   3831 
_SVP_SYNC_ERR_DEGB                        IMPT 00000000   3832 
_SVP_SYNC_ERR_DEGC                        IMPT 00000000   3833 
_SVP_SYNC_ERR_DEGD                        IMPT 00000000   3834 
_SVP_SYNC_ERR_PGA                         IMPT 00000000   3839 
_SVP_SYNC_ERR_PGB                         IMPT 00000000   3840 
_SVP_SYNC_ERR_PGC                         IMPT 00000000   3841 
_SVP_SYNC_ERR_PGD                         IMPT 00000000   3842 
_SVP_SYNC_ERR_RNAA                        IMPT 00000000   3835 
_SVP_SYNC_ERR_RNAB                        IMPT 00000000   3836 
_SVP_SYNC_ERR_RNAC                        IMPT 00000000   3837 
_SVP_SYNC_ERR_RNAD                        IMPT 00000000   3838 
_SVP_TEPDAT_SPD1                          IMPT 00000000   3427 
_SVP_TEPLAT_DAT1                          IMPT 00000000   3428 
_SVP_TEPLAT_DAT2                          IMPT 00000000   3429 
_SVP_TRDCSR_RNAD                          IMPT 00000000   3541 
_SVP_TRDCSR_RNAU                          IMPT 00000000   3540 
_SVP_TRD_CNT                              IMPT 00000000   3530 
_SVP_UPAREA_DIG0                          IMPT 00000000   3663 
_SVP_UPAREA_DIG1                          IMPT 00000000   3440 
_SVP_UPAREA_INP1                          IMPT 00000000   3435 
_SVP_UPAREA_JUDG                          IMPT 00000000   3416 
_SVP_UPAREA_POS0                          IMPT 00000000   3662 
_SVP_UPAREA_SPD0                          IMPT 00000000   3664 
_SVP_UPAREA_SPD1                          IMPT 00000000   3422 
_SVP_UPAREA_TIM0                          IMPT 00000000   3665 
_SVP_UPDATA_A21                           IMPT 00000000   4450 
_SVP_UPHOLD_DIG                           IMPT 00000000   3475 
_SVP_UPSTOP_A21                           IMPT 00000000   4455 
_SVP_VIB_KJYU_TTL                         IMPT 00000000   3561 
_SVP_VOLST_L                              IMPT 00000000   3862 
_SVP_WTTIM_MAX                            IMPT 00000000   4490 
_SVP_WT_DIG1                              IMPT 00000000   3465 
_SVP_WT_DIG2                              IMPT 00000000   3466 
_SVP_WT_DIG3                              IMPT 00000000   3467 
_TCNT0                                    IMPT 00000000    403 
_TCNT1                                    IMPT 00000000    406 
_TCNT2                                    IMPT 00000000    409 
_TCOR0                                    IMPT 00000000    402 
_TCOR1                                    IMPT 00000000    405 
_TCOR2                                    IMPT 00000000    408 
_TCPR2                                    IMPT 00000000    411 
_TCR0                                     IMPT 00000000    404 
_TCR1                                     IMPT 00000000    407 
_TCR2                                     IMPT 00000000    410 
_TEA                                      IMPT 00000000    325 
_TMR_CMD                                  EQU  00000010   2072*
_TOCR                                     IMPT 00000000    400 
_TRA                                      IMPT 00000000    330 
_TSTR                                     IMPT 00000000    401 
_TTB                                      IMPT 00000000    324 
_VUPCHECK_EQU                             EQU  11AB3739    142*
_VUP_DATA_ADR_OP1                         IMPT 00000000   3377 
*** SuperH RISC engine ASSEMBLER V.7.01.02.000 ***    11/14/21 17:25:06                                                  PAGE   115

*** CROSS REFERENCE LIST

NAME                             SECTION  ATTR VALUE             SEQUENCE

_VUP_HSAREA_A_TO_B                        IMPT 00000000   3356 
_VUP_HSAREA_B_TO_A                        IMPT 00000000   3349 
_WCR1                                     IMPT 00000000    351 
_WCR2                                     IMPT 00000000    352 
_WCR3                                     IMPT 00000000    353 
_WCTR_CHG                                 IMPT 00000000   1978 
_WCTR_CODE                                IMPT 00000000   1922 
_WCTR_CODE_END                            IMPT 00000000   1923 
_WCTR_SUB                                 IMPT 00000000   1863 
_WDT_A_TO_B_ANS                           IMPT 00000000   2889 
_WDT_A_TO_B_REQ                           IMPT 00000000   2888 
_WDT_B_TO_A_ANS                           IMPT 00000000   2891 
_WDT_B_TO_A_REQ                           IMPT 00000000   2890 
_WNNRG_CHG                                IMPT 00000000   1985 
_WNNRG_CODE                               IMPT 00000000   1914 
_WNNRG_CODE_END                           IMPT 00000000   1915 
_WNRG_CHG                                 IMPT 00000000   1984 
_WNRG_CODE                                IMPT 00000000   1912 
_WNRG_CODE_END                            IMPT 00000000   1913 
_WSC_CHG                                  IMPT 00000000   1974 
_WSC_CMD                                  EQU  00000018   2074*
_WSC_CODE                                 IMPT 00000000   1924 
_WSC_CODE_END                             IMPT 00000000   1925 
_WSC_SUB                                  IMPT 00000000   1864 
_WSR_CHG                                  IMPT 00000000   1979 
_WSR_CMD                                  EQU  0000001C   2075*
_WSR_CODE                                 IMPT 00000000   1926 
_WSR_CODE_END                             IMPT 00000000   1927 
_WSR_SUB                                  IMPT 00000000   1865 
_WTCNT                                    IMPT 00000000    388 
_WTCSR                                    IMPT 00000000    389 
_WTMR_CHG                                 IMPT 00000000   1977 
_WTMR_CODE                                IMPT 00000000   1920 
_WTMR_CODE_END                            IMPT 00000000   1921 
_WTMR_SUB                                 IMPT 00000000   1862 
_XORW_CHG                                 IMPT 00000000   1999 
_XORW_CMD                                 EQU  00000040   2084*
_XORW_CODE                                IMPT 00000000   1948 
_XORW_CODE_END                            IMPT 00000000   1949 
_XORW_SUB                                 IMPT 00000000   1874 
_data_init2_timer                         IMPT 00000000   1809 
_mem_chk_flg                              IMPT 00000000   1811 
_sram_top                                 IMPT 00000000   1807 
*** SuperH RISC engine ASSEMBLER V.7.01.02.000 ***    11/14/21 17:25:06                                                  PAGE   116

*** SECTION DATA LIST

SECTION                          ATTRIBUTE    SIZE             START

P                                REL-CODE    000000A50        
